/* SPDX-License-Identifier: GPL-2.0 */

/*
 * Copyright (c) 2018 Rockchip Electronics Co. Ltd.
 * date: 2018-06-13
 */
	.arch armv7-a
	.eabi_attribute 20, 1
	.eabi_attribute 21, 1
	.eabi_attribute 23, 3
	.eabi_attribute 24, 1
	.eabi_attribute 25, 1
	.eabi_attribute 26, 2
	.eabi_attribute 30, 4
	.eabi_attribute 34, 1
	.eabi_attribute 18, 4
	.file	"rk_sftl.c"
	.text
.Ltext0:
	.global	__aeabi_uidiv
	.align	1
	.syntax unified
	.thumb
	.thumb_func
	.fpu softvfp
	.type	l2p_addr_tran, %function
l2p_addr_tran:
	.fnstart
.LFB271:
	.file 1 "drivers/rkflash/rksftl/sftl_flash.c"
	.loc 1 18 0
	@ args = 0, pretend = 0, frame = 0
	@ frame_needed = 0, uses_anonymous_args = 0
.LVL0:
	push	{r3, r4, r5, r6, r7, r8, r9, lr}
	.save {r3, r4, r5, r6, r7, r8, r9, lr}
.LCFI0:
	.loc 1 18 0
	mov	r8, r1
	.loc 1 25 0
	ldr	r3, .L3
	.loc 1 18 0
	mov	r9, r2
	.loc 1 32 0
	ldr	r6, [r0, #4]
.LVL1:
	.loc 1 25 0
	ldrh	r4, [r3, #8]
.LVL2:
	.loc 1 26 0
	ldrh	r5, [r3, #10]
.LVL3:
	.loc 1 27 0
	ldrh	r3, [r3, #14]
	.loc 1 33 0
	lsrs	r7, r6, #10
	.loc 1 37 0
	ubfx	r6, r6, #0, #10
.LVL4:
	.loc 1 27 0
	cmp	r3, #4
	.loc 1 34 0
	uxth	r0, r7
.LVL5:
	.loc 1 28 0
	itt	eq
	lsreq	r4, r4, #1
	.loc 1 29 0
	lsleq	r5, r5, #1
.LVL6:
	.loc 1 35 0
	uxth	r7, r7
	.loc 1 34 0
	mov	r1, r4
.LVL7:
	.loc 1 29 0
	it	eq
	uxtheq	r5, r5
.LVL8:
	.loc 1 34 0
	bl	__aeabi_uidiv
.LVL9:
	uxth	r0, r0
.LVL10:
	.loc 1 35 0
	mls	r4, r0, r4, r7
.LVL11:
	.loc 1 37 0
	mla	r4, r5, r4, r6
.LVL12:
	str	r4, [r8]
	.loc 1 38 0
	str	r0, [r9]
	.loc 1 41 0
	movs	r0, #0
.LVL13:
	pop	{r3, r4, r5, r6, r7, r8, r9, pc}
.LVL14:
.L4:
	.align	2
.L3:
	.word	g_nand_phy_info
.LFE271:
	.fnend
	.size	l2p_addr_tran, .-l2p_addr_tran
	.align	1
	.syntax unified
	.thumb
	.thumb_func
	.fpu softvfp
	.type	ftl_set_blk_mode.part.6, %function
ftl_set_blk_mode.part.6:
	.fnstart
.LFB286:
	.file 2 "drivers/rkflash/rksftl/sftl_sys.c"
	.loc 2 1346 0
	@ args = 0, pretend = 0, frame = 0
	@ frame_needed = 0, uses_anonymous_args = 0
	@ link register save eliminated.
.LVL15:
	.loc 2 1349 0
	ldr	r3, .L6
	lsrs	r1, r0, #5
	and	r0, r0, #31
.LVL16:
	ldr	r2, [r3]
	movs	r3, #1
	lsl	r0, r3, r0
	ldr	r3, [r2, r1, lsl #2]
	orrs	r3, r3, r0
	str	r3, [r2, r1, lsl #2]
	bx	lr
.L7:
	.align	2
.L6:
	.word	.LANCHOR0
.LFE286:
	.fnend
	.size	ftl_set_blk_mode.part.6, .-ftl_set_blk_mode.part.6
	.align	1
	.global	Ftl_log2
	.syntax unified
	.thumb
	.thumb_func
	.fpu softvfp
	.type	Ftl_log2, %function
Ftl_log2:
	.fnstart
.LFB152:
	.file 3 "drivers/rkflash/rksftl/sftl_plat.c"
	.loc 3 128 0
	@ args = 0, pretend = 0, frame = 0
	@ frame_needed = 0, uses_anonymous_args = 0
	@ link register save eliminated.
.LVL17:
	.loc 3 132 0
	movs	r1, #0
	.loc 3 130 0
	movs	r2, #1
.LVL18:
.L9:
	.loc 3 132 0 discriminator 1
	cmp	r2, r0
	uxth	r3, r1
	add	r1, r1, #1
	bls	.L10
	.loc 3 134 0
	subs	r0, r3, #1
.LVL19:
	.loc 3 136 0
	uxth	r0, r0
	bx	lr
.LVL20:
.L10:
	.loc 3 133 0 discriminator 3
	lsls	r2, r2, #1
	b	.L9
.LFE152:
	.fnend
	.size	Ftl_log2, .-Ftl_log2
	.align	1
	.global	FtlPrintInfo
	.syntax unified
	.thumb
	.thumb_func
	.fpu softvfp
	.type	FtlPrintInfo, %function
FtlPrintInfo:
	.fnstart
.LFB153:
	.loc 3 159 0
	@ args = 0, pretend = 0, frame = 0
	@ frame_needed = 0, uses_anonymous_args = 0
	@ link register save eliminated.
.LVL21:
	bx	lr
.LFE153:
	.fnend
	.size	FtlPrintInfo, .-FtlPrintInfo
	.align	1
	.global	FtlSysBlkNumInit
	.syntax unified
	.thumb
	.thumb_func
	.fpu softvfp
	.type	FtlSysBlkNumInit, %function
FtlSysBlkNumInit:
	.fnstart
.LFB154:
	.loc 3 165 0
	@ args = 0, pretend = 0, frame = 0
	@ frame_needed = 0, uses_anonymous_args = 0
	@ link register save eliminated.
.LVL22:
	.loc 3 168 0
	ldr	r3, .L13
	cmp	r0, #24
	it	cc
	movcc	r0, #24
	.loc 3 169 0
	ldrh	r2, [r3, #8]
	.loc 3 170 0
	ldrh	r1, [r3, #18]
	.loc 3 168 0
	str	r0, [r3, #4]
	.loc 3 169 0
	muls	r2, r0, r2
	.loc 3 170 0
	subs	r0, r1, r0
.LVL23:
	.loc 3 171 0
	ldr	r1, [r3, #24]
	.loc 3 170 0
	strh	r0, [r3, #16]	@ movhi
	.loc 3 174 0
	movs	r0, #0
	.loc 3 169 0
	str	r2, [r3, #12]
	.loc 3 171 0
	subs	r2, r1, r2
	str	r2, [r3, #20]
	.loc 3 174 0
	bx	lr
.L14:
	.align	2
.L13:
	.word	.LANCHOR0
.LFE154:
	.fnend
	.size	FtlSysBlkNumInit, .-FtlSysBlkNumInit
	.global	__aeabi_idiv
	.align	1
	.global	FtlConstantsInit
	.syntax unified
	.thumb
	.thumb_func
	.fpu softvfp
	.type	FtlConstantsInit, %function
FtlConstantsInit:
	.fnstart
.LFB155:
	.loc 3 183 0
	@ args = 0, pretend = 0, frame = 0
	@ frame_needed = 0, uses_anonymous_args = 0
.LVL24:
	push	{r3, r4, r5, r6, r7, r8, r9, r10, fp, lr}
	.save {r3, r4, r5, r6, r7, r8, r9, r10, fp, lr}
.LCFI1:
	.loc 3 183 0
	mov	fp, r0
	.loc 3 191 0
	ldrh	r3, [fp, #14]
	.loc 3 188 0
	ldrh	r2, [r0]
	ldr	r4, .L25
	.loc 3 191 0
	cmp	r3, #4
	.loc 3 189 0
	ldrh	r6, [r0, #2]
	.loc 3 190 0
	ldrh	r0, [r0, #4]
.LVL25:
	.loc 3 188 0
	strh	r2, [r4, #28]	@ movhi
	.loc 3 189 0
	strh	r6, [r4, #30]	@ movhi
	.loc 3 190 0
	strh	r0, [r4, #32]	@ movhi
	.loc 3 191 0
	bne	.L16
	.loc 3 192 0
	ldrh	r3, [fp, #6]
	lsrs	r3, r3, #1
	strh	r3, [r4, #18]	@ movhi
	.loc 3 193 0
	movs	r3, #8
	strh	r3, [r4, #34]	@ movhi
.L16:
	.loc 3 197 0 discriminator 3
	ldr	r1, .L25+4
	.loc 3 183 0 discriminator 3
	movs	r3, #0
.LVL26:
.L17:
	.loc 3 197 0 discriminator 3
	strb	r3, [r3, r1]
	.loc 3 196 0 discriminator 3
	adds	r3, r3, #1
	cmp	r3, #32
	bne	.L17
	.loc 3 205 0
	ldrh	r5, [r4, #18]
	.loc 3 204 0
	smulbb	r6, r6, r0
	.loc 3 198 0
	movs	r3, #5
.LVL27:
	.loc 3 200 0
	cmp	r2, #1
	.loc 3 198 0
	strh	r3, [r4, #68]	@ movhi
	.loc 3 204 0
	uxth	r6, r6
	.loc 3 199 0
	mov	r3, #0
	.loc 3 205 0
	smulbb	r0, r0, r5
	.loc 3 202 0
	mov	r7, #640
	.loc 3 201 0
	it	eq
	strheq	r2, [r4, #68]	@ movhi
	.loc 3 199 0
	strh	r3, [r4, #70]	@ movhi
	.loc 3 205 0
	uxth	r0, r0
	.loc 3 202 0
	strh	r7, [r4, #72]	@ movhi
	.loc 3 204 0
	strh	r6, [r4, #8]	@ movhi
	.loc 3 205 0
	strh	r0, [r4, #74]	@ movhi
	.loc 3 206 0
	bl	Ftl_log2
.LVL28:
	.loc 3 207 0
	ldrh	r9, [fp, #12]
	.loc 3 210 0
	ldrh	r10, [r4, #34]
	.loc 3 206 0
	strh	r0, [r4, #76]	@ movhi
	.loc 3 207 0
	strh	r9, [r4, #78]	@ movhi
	.loc 3 209 0
	smulbb	r3, r6, r9
	.loc 3 210 0
	mov	r0, r10
	.loc 3 208 0
	strh	r9, [r4, #80]	@ movhi
	.loc 3 209 0
	strh	r3, [r4, #82]	@ movhi
	.loc 3 210 0
	bl	Ftl_log2
.LVL29:
	.loc 3 212 0
	lsl	r3, r10, #9
	.loc 3 210 0
	mov	r8, r0
	strh	r0, [r4, #84]	@ movhi
	.loc 3 218 0
	mul	r1, r9, r10
	.loc 3 212 0
	uxth	r3, r3
	.loc 3 218 0
	mov	r0, #5120
	.loc 3 221 0
	asr	r7, r7, r8
	.loc 3 212 0
	strh	r3, [r4, #86]	@ movhi
	.loc 3 213 0
	lsrs	r3, r3, #8
	.loc 3 223 0
	add	r8, r8, #9
	.loc 3 213 0
	strh	r3, [r4, #88]	@ movhi
	.loc 3 221 0
	adds	r7, r7, #2
	.loc 3 214 0
	ldrh	r3, [fp, #20]
	strh	r3, [r4, #90]	@ movhi
	.loc 3 216 0
	mul	r3, r5, r6
	.loc 3 223 0
	lsls	r5, r5, #6
	asr	r5, r5, r8
	.loc 3 216 0
	str	r3, [r4, #24]
	.loc 3 217 0
	mul	r3, r10, r3
	mul	r3, r9, r3
	asrs	r3, r3, #11
	str	r3, [r4, #92]
	.loc 3 218 0
	bl	__aeabi_idiv
.LVL30:
	uxth	r0, r0
	.loc 3 223 0
	strh	r5, [r4, #100]	@ movhi
	uxth	r5, r5
	.loc 3 226 0
	mov	r1, r6
	.loc 3 219 0
	cmp	r0, #4
	.loc 3 221 0
	strh	r7, [r4, #98]	@ movhi
	.loc 3 220 0
	itet	ls
	movls	r3, #4
	.loc 3 218 0
	strhhi	r0, [r4, #96]	@ movhi
	.loc 3 220 0
	strhls	r3, [r4, #96]	@ movhi
	.loc 3 224 0
	mul	r3, r6, r5
	.loc 3 226 0
	ldrh	r0, [r4, #96]
	adds	r5, r5, #8
	.loc 3 224 0
	str	r3, [r4, #104]
	.loc 3 226 0
	bl	__aeabi_uidiv
.LVL31:
	uxtah	r0, r5, r0
	.loc 3 227 0
	cmp	r6, #1
	.loc 3 228 0
	it	eq
	addeq	r0, r0, #4
	str	r0, [r4, #4]
	.loc 3 231 0
	ldrh	r0, [r4, #4]
	bl	FtlSysBlkNumInit
.LVL32:
	.loc 3 232 0
	ldr	r3, [r4, #4]
	.loc 3 236 0
	movs	r0, #0
	str	r0, [r4, #116]
	.loc 3 232 0
	str	r3, [r4, #108]
	.loc 3 234 0
	ldr	r3, [r4, #20]
	lsls	r2, r3, #2
	ldrh	r3, [r4, #78]
	muls	r3, r2, r3
	ldrh	r2, [r4, #84]
	adds	r2, r2, #9
	lsrs	r3, r3, r2
	adds	r3, r3, #2
	strh	r3, [r4, #112]	@ movhi
	.loc 3 235 0
	movs	r3, #32
	strh	r3, [r4, #114]	@ movhi
	.loc 3 237 0
	ldrh	r3, [r4, #96]
	adds	r3, r3, #3
	strh	r3, [r4, #96]	@ movhi
	.loc 3 238 0
	ldr	r3, [r4, #104]
	adds	r3, r3, #3
	str	r3, [r4, #104]
	.loc 3 263 0
	pop	{r3, r4, r5, r6, r7, r8, r9, r10, fp, pc}
.LVL33:
.L26:
	.align	2
.L25:
	.word	.LANCHOR0
	.word	.LANCHOR0+36
.LFE155:
	.fnend
	.size	FtlConstantsInit, .-FtlConstantsInit
	.align	1
	.global	IsBlkInVendorPart
	.syntax unified
	.thumb
	.thumb_func
	.fpu softvfp
	.type	IsBlkInVendorPart, %function
IsBlkInVendorPart:
	.fnstart
.LFB158:
	.loc 3 514 0
	@ args = 0, pretend = 0, frame = 0
	@ frame_needed = 0, uses_anonymous_args = 0
	@ link register save eliminated.
.LVL34:
	.loc 3 517 0
	ldr	r2, .L34
	ldrh	r3, [r2, #120]
	cbz	r3, .L33
.LBB218:
.LBB219:
	.loc 3 519 0
	ldr	r3, [r2, #124]
	ldrh	r2, [r2, #96]
	add	r2, r3, r2, lsl #1
.L29:
	.loc 3 518 0
	cmp	r3, r2
	bne	.L30
.L33:
.LBE219:
.LBE218:
	.loc 3 524 0
	movs	r0, #0
.LVL35:
	bx	lr
.LVL36:
.L30:
.LBB221:
.LBB220:
	.loc 3 519 0
	ldrh	r1, [r3], #2
	cmp	r0, r1
	bne	.L29
	.loc 3 520 0
	movs	r0, #1
.LVL37:
.LBE220:
.LBE221:
	.loc 3 525 0
	bx	lr
.L35:
	.align	2
.L34:
	.word	.LANCHOR0
.LFE158:
	.fnend
	.size	IsBlkInVendorPart, .-IsBlkInVendorPart
	.align	1
	.global	sftl_get_density
	.syntax unified
	.thumb
	.thumb_func
	.fpu softvfp
	.type	sftl_get_density, %function
sftl_get_density:
	.fnstart
.LFB171:
	.loc 3 1212 0
	@ args = 0, pretend = 0, frame = 0
	@ frame_needed = 0, uses_anonymous_args = 0
	@ link register save eliminated.
	.loc 3 1214 0
	ldr	r3, .L37
	ldr	r0, [r3, #116]
	bx	lr
.L38:
	.align	2
.L37:
	.word	.LANCHOR0
.LFE171:
	.fnend
	.size	sftl_get_density, .-sftl_get_density
	.global	__aeabi_uidivmod
	.align	1
	.global	FtlBbmMapBadBlock
	.syntax unified
	.thumb
	.thumb_func
	.fpu softvfp
	.type	FtlBbmMapBadBlock, %function
FtlBbmMapBadBlock:
	.fnstart
.LFB172:
	.file 4 "drivers/rkflash/rksftl/sftl_bbm.c"
	.loc 4 5 0
	@ args = 0, pretend = 0, frame = 0
	@ frame_needed = 0, uses_anonymous_args = 0
.LVL38:
	push	{r0, r1, r2, r4, r5, r6, r7, lr}
	.save {r4, r5, r6, r7, lr}
	.pad #12
.LCFI2:
.LVL39:
	.loc 4 5 0
	mov	r5, r0
	.loc 4 10 0
	ldr	r4, .L40
	ldrh	r7, [r4, #74]
	mov	r1, r7
	bl	__aeabi_uidiv
.LVL40:
	uxth	r6, r0
.LVL41:
	mov	r1, r7
	mov	r0, r5
	bl	__aeabi_uidivmod
.LVL42:
	.loc 4 13 0
	add	r2, r4, r6, lsl #2
	uxth	r3, r1
	.loc 4 15 0
	ldr	r2, [r2, #156]
	lsrs	r1, r3, #5
	and	r7, r3, #31
	movs	r0, #1
	lsls	r0, r0, r7
	ldr	r7, [r2, r1, lsl #2]
	orrs	r0, r0, r7
	str	r0, [r2, r1, lsl #2]
	.loc 4 16 0
	mov	r2, r6
	str	r0, [sp]
	mov	r1, r5
	ldr	r0, .L40+4
	bl	printk
.LVL43:
	.loc 4 17 0
	ldrh	r3, [r4, #134]
	.loc 4 19 0
	movs	r0, #0
	.loc 4 17 0
	adds	r3, r3, #1
	strh	r3, [r4, #134]	@ movhi
	.loc 4 19 0
	add	sp, sp, #12
.LCFI3:
	@ sp needed
	pop	{r4, r5, r6, r7, pc}
.LVL44:
.L41:
	.align	2
.L40:
	.word	.LANCHOR0
	.word	.LC0
.LFE172:
	.fnend
	.size	FtlBbmMapBadBlock, .-FtlBbmMapBadBlock
	.align	1
	.global	FtlBbmIsBadBlock
	.syntax unified
	.thumb
	.thumb_func
	.fpu softvfp
	.type	FtlBbmIsBadBlock, %function
FtlBbmIsBadBlock:
	.fnstart
.LFB173:
	.loc 4 24 0
	@ args = 0, pretend = 0, frame = 0
	@ frame_needed = 0, uses_anonymous_args = 0
.LVL45:
	push	{r3, r4, r5, r6, r7, lr}
	.save {r3, r4, r5, r6, r7, lr}
.LCFI4:
	.loc 4 24 0
	mov	r7, r0
	.loc 4 30 0
	ldr	r5, .L43
	ldrh	r6, [r5, #74]
	.loc 4 31 0
	mov	r1, r6
	bl	__aeabi_uidivmod
.LVL46:
	.loc 4 30 0
	mov	r0, r7
	.loc 4 31 0
	uxth	r4, r1
.LVL47:
	.loc 4 30 0
	mov	r1, r6
	bl	__aeabi_uidiv
.LVL48:
	uxth	r0, r0
.LVL49:
	.loc 4 34 0
	lsrs	r2, r4, #5
	.loc 4 33 0
	add	r5, r5, r0, lsl #2
	.loc 4 34 0
	and	r4, r4, #31
.LVL50:
	ldr	r3, [r5, #156]
	ldr	r0, [r3, r2, lsl #2]
.LVL51:
	lsrs	r0, r0, r4
	.loc 4 36 0
	and	r0, r0, #1
	pop	{r3, r4, r5, r6, r7, pc}
.LVL52:
.L44:
	.align	2
.L43:
	.word	.LANCHOR0
.LFE173:
	.fnend
	.size	FtlBbmIsBadBlock, .-FtlBbmIsBadBlock
	.align	1
	.global	FtlBbtInfoPrint
	.syntax unified
	.thumb
	.thumb_func
	.fpu softvfp
	.type	FtlBbtInfoPrint, %function
FtlBbtInfoPrint:
	.fnstart
.LFB174:
	.loc 4 39 0
	@ args = 0, pretend = 0, frame = 0
	@ frame_needed = 0, uses_anonymous_args = 0
	@ link register save eliminated.
	bx	lr
.LFE174:
	.fnend
	.size	FtlBbtInfoPrint, .-FtlBbtInfoPrint
	.align	1
	.global	FtlBbtMemInit
	.syntax unified
	.thumb
	.thumb_func
	.fpu softvfp
	.type	FtlBbtMemInit, %function
FtlBbtMemInit:
	.fnstart
.LFB177:
	.loc 4 149 0
	@ args = 0, pretend = 0, frame = 0
	@ frame_needed = 0, uses_anonymous_args = 0
	@ link register save eliminated.
	.loc 4 150 0
	ldr	r0, .L47
	movw	r3, #65535
.LBB227:
.LBB228:
.LBB229:
	.loc 1 202 0
	movs	r2, #16
	movs	r1, #255
.LBE229:
.LBE228:
.LBE227:
	.loc 4 150 0
	strh	r3, [r0, #128]	@ movhi
	.loc 4 151 0
	movs	r3, #0
	strh	r3, [r0, #134]	@ movhi
.LBB232:
.LBB231:
.LBB230:
	.loc 1 202 0
	adds	r0, r0, #140
	b	memset
.LVL53:
.L48:
	.align	2
.L47:
	.word	.LANCHOR0
.LBE230:
.LBE231:
.LBE232:
.LFE177:
	.fnend
	.size	FtlBbtMemInit, .-FtlBbtMemInit
	.align	1
	.global	FtlBbtCalcTotleCnt
	.syntax unified
	.thumb
	.thumb_func
	.fpu softvfp
	.type	FtlBbtCalcTotleCnt, %function
FtlBbtCalcTotleCnt:
	.fnstart
.LFB178:
	.loc 4 157 0
	@ args = 0, pretend = 0, frame = 0
	@ frame_needed = 0, uses_anonymous_args = 0
	.loc 4 160 0
	ldr	r3, .L56
	.loc 4 157 0
	push	{r4, r5, r6, lr}
	.save {r4, r5, r6, lr}
.LCFI5:
	.loc 4 160 0
	movs	r5, #0
	.loc 4 159 0
	mov	r4, r5
	.loc 4 160 0
	ldrh	r2, [r3, #74]
	ldrh	r6, [r3, #30]
	muls	r6, r2, r6
.L50:
	uxth	r0, r5
.LVL54:
	.loc 4 160 0 is_stmt 0 discriminator 1
	cmp	r0, r6
.LVL55:
	blt	.L52
	.loc 4 169 0 is_stmt 1
	mov	r0, r4
	pop	{r4, r5, r6, pc}
.L52:
	.loc 4 162 0
	bl	FtlBbmIsBadBlock
.LVL56:
	cbz	r0, .L51
	.loc 4 164 0
	adds	r4, r4, #1
	uxth	r4, r4
.L51:
	adds	r5, r5, #1
	b	.L50
.L57:
	.align	2
.L56:
	.word	.LANCHOR0
.LFE178:
	.fnend
	.size	FtlBbtCalcTotleCnt, .-FtlBbtCalcTotleCnt
	.align	1
	.global	V2P_block
	.syntax unified
	.thumb
	.thumb_func
	.fpu softvfp
	.type	V2P_block, %function
V2P_block:
	.fnstart
.LFB182:
	.loc 2 5 0
	@ args = 0, pretend = 0, frame = 0
	@ frame_needed = 0, uses_anonymous_args = 0
.LVL57:
	push	{r3, r4, r5, r6, r7, lr}
	.save {r3, r4, r5, r6, r7, lr}
.LCFI6:
	.loc 2 5 0
	mov	r5, r1
	.loc 2 8 0
	ldr	r4, .L59
	.loc 2 5 0
	mov	r7, r0
	.loc 2 8 0
	ldrh	r6, [r4, #32]
	mov	r1, r6
.LVL58:
	bl	__aeabi_uidiv
.LVL59:
	ldrh	r4, [r4, #74]
	smulbb	r5, r6, r5
.LVL60:
	mov	r1, r6
	smulbb	r4, r4, r0
	mov	r0, r7
	bl	__aeabi_uidivmod
.LVL61:
	adds	r0, r5, r1
	add	r0, r0, r4
	.loc 2 10 0
	uxth	r0, r0
	pop	{r3, r4, r5, r6, r7, pc}
.LVL62:
.L60:
	.align	2
.L59:
	.word	.LANCHOR0
.LFE182:
	.fnend
	.size	V2P_block, .-V2P_block
	.align	1
	.global	P2V_plane
	.syntax unified
	.thumb
	.thumb_func
	.fpu softvfp
	.type	P2V_plane, %function
P2V_plane:
	.fnstart
.LFB183:
	.loc 2 13 0
	@ args = 0, pretend = 0, frame = 0
	@ frame_needed = 0, uses_anonymous_args = 0
.LVL63:
	.loc 2 16 0
	ldr	r3, .L62
	.loc 2 13 0
	push	{r4, r5, r6, lr}
	.save {r4, r5, r6, lr}
.LCFI7:
	.loc 2 13 0
	mov	r6, r0
	.loc 2 16 0
	ldrh	r5, [r3, #32]
	ldrh	r1, [r3, #74]
	bl	__aeabi_uidiv
.LVL64:
	mov	r1, r5
	smulbb	r4, r0, r5
	mov	r0, r6
	bl	__aeabi_uidivmod
.LVL65:
	add	r1, r1, r4
	.loc 2 18 0
	uxth	r0, r1
	pop	{r4, r5, r6, pc}
.LVL66:
.L63:
	.align	2
.L62:
	.word	.LANCHOR0
.LFE183:
	.fnend
	.size	P2V_plane, .-P2V_plane
	.align	1
	.global	P2V_block_in_plane
	.syntax unified
	.thumb
	.thumb_func
	.fpu softvfp
	.type	P2V_block_in_plane, %function
P2V_block_in_plane:
	.fnstart
.LFB184:
	.loc 2 21 0
	@ args = 0, pretend = 0, frame = 0
	@ frame_needed = 0, uses_anonymous_args = 0
.LVL67:
	push	{r4, lr}
	.save {r4, lr}
.LCFI8:
	.loc 2 24 0
	ldr	r4, .L65
	ldrh	r1, [r4, #74]
	bl	__aeabi_uidivmod
.LVL68:
	uxth	r0, r1
	.loc 2 25 0
	ldrh	r1, [r4, #32]
	bl	__aeabi_uidiv
.LVL69:
	.loc 2 27 0
	uxth	r0, r0
	pop	{r4, pc}
.L66:
	.align	2
.L65:
	.word	.LANCHOR0
.LFE184:
	.fnend
	.size	P2V_block_in_plane, .-P2V_block_in_plane
	.align	1
	.global	ftl_cmp_data_ver
	.syntax unified
	.thumb
	.thumb_func
	.fpu softvfp
	.type	ftl_cmp_data_ver, %function
ftl_cmp_data_ver:
	.fnstart
.LFB185:
	.loc 2 31 0
	@ args = 0, pretend = 0, frame = 0
	@ frame_needed = 0, uses_anonymous_args = 0
	@ link register save eliminated.
.LVL70:
	.loc 2 34 0
	cmp	r0, r1
	bls	.L68
	.loc 2 36 0
	subs	r0, r0, r1
.LVL71:
	cmp	r0, #-2147483648
	ite	hi
	movhi	r0, #0
	movls	r0, #1
	bx	lr
.LVL72:
.L68:
	.loc 2 40 0
	subs	r0, r1, r0
.LVL73:
	cmp	r0, #-2147483648
	ite	ls
	movls	r0, #0
	movhi	r0, #1
	.loc 2 44 0
	bx	lr
.LFE185:
	.fnend
	.size	ftl_cmp_data_ver, .-ftl_cmp_data_ver
	.align	1
	.global	FtlFreeSysBlkQueueInit
	.syntax unified
	.thumb
	.thumb_func
	.fpu softvfp
	.type	FtlFreeSysBlkQueueInit, %function
FtlFreeSysBlkQueueInit:
	.fnstart
.LFB187:
	.loc 2 76 0
	@ args = 0, pretend = 0, frame = 0
	@ frame_needed = 0, uses_anonymous_args = 0
.LVL74:
	.loc 2 79 0
	ldr	r3, .L71
.LBB238:
.LBB239:
.LBB240:
	.loc 1 202 0
	mov	r1, #2048
.LBE240:
.LBE239:
.LBE238:
	.loc 2 76 0
	push	{r4, lr}
	.save {r4, lr}
.LCFI9:
	.loc 2 79 0
	movs	r4, #0
	.loc 2 82 0
	strh	r0, [r3, #188]	@ movhi
.LBB245:
.LBB243:
.LBB241:
	.loc 1 202 0
	add	r0, r3, #196
.LVL75:
.LBE241:
.LBE243:
.LBE245:
	.loc 2 79 0
	strh	r4, [r3, #190]	@ movhi
	.loc 2 80 0
	strh	r4, [r3, #192]	@ movhi
	.loc 2 81 0
	strh	r4, [r3, #194]	@ movhi
.LBB246:
.LBB244:
.LBB242:
	.loc 1 202 0
	bl	__memzero
.LVL76:
.LBE242:
.LBE244:
.LBE246:
	.loc 2 85 0
	mov	r0, r4
	pop	{r4, pc}
.L72:
	.align	2
.L71:
	.word	.LANCHOR0
.LFE187:
	.fnend
	.size	FtlFreeSysBlkQueueInit, .-FtlFreeSysBlkQueueInit
	.align	1
	.global	FtlFreeSysBlkQueueEmpty
	.syntax unified
	.thumb
	.thumb_func
	.fpu softvfp
	.type	FtlFreeSysBlkQueueEmpty, %function
FtlFreeSysBlkQueueEmpty:
	.fnstart
.LFB188:
	.loc 2 88 0
	@ args = 0, pretend = 0, frame = 0
	@ frame_needed = 0, uses_anonymous_args = 0
	@ link register save eliminated.
	.loc 2 89 0
	ldr	r3, .L74
	ldrh	r0, [r3, #194]
	.loc 2 90 0
	clz	r0, r0
	lsrs	r0, r0, #5
	bx	lr
.L75:
	.align	2
.L74:
	.word	.LANCHOR0
.LFE188:
	.fnend
	.size	FtlFreeSysBlkQueueEmpty, .-FtlFreeSysBlkQueueEmpty
	.align	1
	.global	FtlFreeSysBlkQueueFull
	.syntax unified
	.thumb
	.thumb_func
	.fpu softvfp
	.type	FtlFreeSysBlkQueueFull, %function
FtlFreeSysBlkQueueFull:
	.fnstart
.LFB189:
	.loc 2 93 0
	@ args = 0, pretend = 0, frame = 0
	@ frame_needed = 0, uses_anonymous_args = 0
	@ link register save eliminated.
	.loc 2 94 0
	ldr	r3, .L77
	ldrh	r0, [r3, #194]
	.loc 2 95 0
	sub	r3, r0, #1024
	rsbs	r0, r3, #0
	adcs	r0, r0, r3
	bx	lr
.L78:
	.align	2
.L77:
	.word	.LANCHOR0
.LFE189:
	.fnend
	.size	FtlFreeSysBlkQueueFull, .-FtlFreeSysBlkQueueFull
	.align	1
	.global	FtlFreeSysBLkSort
	.syntax unified
	.thumb
	.thumb_func
	.fpu softvfp
	.type	FtlFreeSysBLkSort, %function
FtlFreeSysBLkSort:
	.fnstart
.LFB191:
	.loc 2 116 0
	@ args = 0, pretend = 0, frame = 0
	@ frame_needed = 0, uses_anonymous_args = 0
	push	{r3, r4, r5, r6, r7, lr}
	.save {r3, r4, r5, r6, r7, lr}
.LCFI10:
	.loc 2 123 0
	movs	r3, #0
	ldr	r6, .L88
	mov	r4, r6
.L80:
	.loc 2 123 0 is_stmt 0 discriminator 1
	ldrh	r1, [r6, #194]
	uxth	r2, r3
	adds	r7, r3, #1
	cmp	r1, r2
	bhi	.L81
	movs	r1, #0
.LVL77:
.L82:
	.loc 2 128 0 is_stmt 1 discriminator 1
	ldrh	ip, [r4, #194]
	add	r3, ip, #-1
.LVL78:
	cmp	r1, r3
	blt	.L87
	.loc 2 144 0
	pop	{r3, r4, r5, r6, r7, pc}
.LVL79:
.L81:
	.loc 2 124 0 discriminator 3
	ldrh	r2, [r6, #190]
	uxth	r5, r3
	adds	r3, r2, r5
	add	r3, r6, r3, lsl #1
	ldrh	r0, [r3, #196]
	bl	P2V_block_in_plane
.LVL80:
	.loc 2 125 0 discriminator 3
	ldr	r2, [r6, #2248]
	ldr	r3, [r6, #2244]
	ldrh	r2, [r2, r0, lsl #1]
	str	r2, [r3, r5, lsl #2]
	mov	r3, r7
	b	.L80
.LVL81:
.L87:
	.loc 2 130 0
	adds	r5, r1, #1
	.loc 2 131 0
	ldr	r0, [r4, #2244]
.LVL82:
	.loc 2 130 0
	uxth	r5, r5
	mov	r3, r1
.LVL83:
	mov	r2, r5
.L83:
	.loc 2 130 0 is_stmt 0 discriminator 1
	cmp	r2, ip
	bcc	.L85
	.loc 2 134 0 is_stmt 1
	cmp	r1, r3
	beq	.L86
	.loc 2 136 0
	ldr	r2, [r0, r1, lsl #2]
	.loc 2 135 0
	ldr	r6, [r0, r3, lsl #2]
	.loc 2 136 0
	str	r2, [r0, r3, lsl #2]
	.loc 2 137 0
	ldr	r2, [r4, #2244]
	str	r6, [r2, r1, lsl #2]
	.loc 2 139 0
	ldrh	r2, [r4, #190]
	add	r3, r3, r2
.LVL84:
	.loc 2 140 0
	add	r2, r2, r1
	.loc 2 139 0
	adds	r3, r3, #4
	.loc 2 140 0
	adds	r2, r2, #4
	.loc 2 139 0
	add	r3, r4, r3, lsl #1
	.loc 2 140 0
	add	r2, r4, r2, lsl #1
	.loc 2 139 0
	ldrh	r0, [r3, #188]
.LVL85:
	.loc 2 140 0
	ldrh	r1, [r2, #188]
	strh	r1, [r3, #188]	@ movhi
	.loc 2 141 0
	strh	r0, [r2, #188]	@ movhi
.LVL86:
.L86:
	.loc 2 130 0 discriminator 1
	mov	r1, r5
	b	.L82
.LVL87:
.L85:
	.loc 2 131 0
	ldr	r6, [r0, r2, lsl #2]
.LVL88:
	ldr	r7, [r0, r3, lsl #2]
	cmp	r7, r6
	it	hi
	movhi	r3, r2
	.loc 2 130 0
	adds	r2, r2, #1
	uxth	r2, r2
	b	.L83
.L89:
	.align	2
.L88:
	.word	.LANCHOR0
.LFE191:
	.fnend
	.size	FtlFreeSysBLkSort, .-FtlFreeSysBLkSort
	.align	1
	.global	IsInFreeQueue
	.syntax unified
	.thumb
	.thumb_func
	.fpu softvfp
	.type	IsInFreeQueue, %function
IsInFreeQueue:
	.fnstart
.LFB192:
	.loc 2 147 0
	@ args = 0, pretend = 0, frame = 0
	@ frame_needed = 0, uses_anonymous_args = 0
.LVL89:
.LBB247:
.LBB248:
	.loc 2 94 0
	ldr	r3, .L96
.LBE248:
.LBE247:
	.loc 2 147 0
	push	{r4, r5, lr}
	.save {r4, r5, lr}
.LCFI11:
.LBB250:
.LBB249:
	.loc 2 94 0
	ldrh	r4, [r3, #194]
.LBE249:
.LBE250:
	.loc 2 152 0
	cmp	r4, #1024
	beq	.L94
	.loc 2 155 0
	ldrh	r5, [r3, #190]
	movs	r1, #0
.LVL90:
.L92:
	.loc 2 154 0 discriminator 1
	cmp	r1, r4
	bcc	.L93
.L94:
	.loc 2 148 0
	movs	r0, #0
.LVL91:
	pop	{r4, r5, pc}
.LVL92:
.L93:
	.loc 2 155 0
	adds	r2, r1, r5
	ubfx	r2, r2, #0, #10
	add	r2, r3, r2, lsl #1
	ldrh	r2, [r2, #196]
	cmp	r2, r0
	beq	.L95
	.loc 2 154 0 discriminator 2
	adds	r1, r1, #1
	b	.L92
.L95:
	.loc 2 156 0
	movs	r0, #1
.LVL93:
	.loc 2 162 0
	pop	{r4, r5, pc}
.L97:
	.align	2
.L96:
	.word	.LANCHOR0
.LFE192:
	.fnend
	.size	IsInFreeQueue, .-IsInFreeQueue
	.align	1
	.global	FtlFreeSysBlkQueueOut
	.syntax unified
	.thumb
	.thumb_func
	.fpu softvfp
	.type	FtlFreeSysBlkQueueOut, %function
FtlFreeSysBlkQueueOut:
	.fnstart
.LFB193:
	.loc 2 165 0
	@ args = 0, pretend = 0, frame = 0
	@ frame_needed = 0, uses_anonymous_args = 0
	@ link register save eliminated.
.LBB251:
.LBB252:
	.loc 2 89 0
	ldr	r2, .L101
	ldrh	r1, [r2, #194]
.LBE252:
.LBE251:
	.loc 2 168 0
	cbz	r1, .L100
.LBB253:
	.loc 2 170 0
	ldrh	r3, [r2, #190]
	.loc 2 171 0
	subs	r1, r1, #1
	strh	r1, [r2, #194]	@ movhi
	.loc 2 170 0
	add	r0, r2, r3, lsl #1
	.loc 2 172 0
	adds	r3, r3, #1
	ubfx	r3, r3, #0, #10
	.loc 2 170 0
	ldrh	r0, [r0, #196]
	.loc 2 172 0
	strh	r3, [r2, #190]	@ movhi
	bx	lr
.L100:
.LBE253:
	.loc 2 166 0
	movw	r0, #65535
	.loc 2 176 0
	bx	lr
.L102:
	.align	2
.L101:
	.word	.LANCHOR0
.LFE193:
	.fnend
	.size	FtlFreeSysBlkQueueOut, .-FtlFreeSysBlkQueueOut
	.align	1
	.global	insert_data_list
	.syntax unified
	.thumb
	.thumb_func
	.fpu softvfp
	.type	insert_data_list, %function
insert_data_list:
	.fnstart
.LFB196:
	.loc 2 217 0
	@ args = 0, pretend = 0, frame = 8
	@ frame_needed = 0, uses_anonymous_args = 0
.LVL94:
	.loc 2 225 0
	movw	r3, #65535
	.loc 2 217 0
	push	{r0, r1, r2, r4, r5, r6, r7, r8, r9, r10, fp, lr}
	.save {r4, r5, r6, r7, r8, r9, r10, fp, lr}
	.pad #12
.LCFI12:
.LVL95:
	.loc 2 225 0
	cmp	r0, r3
	beq	.L104
	.loc 2 230 0
	ldr	r2, .L116
	movs	r5, #6
	muls	r5, r0, r5
	ldr	ip, [r2, #2252]
	mov	r1, r2
	add	r4, ip, r5
.LVL96:
	.loc 2 231 0
	strh	r3, [r4, #2]	@ movhi
	strh	r3, [ip, r5]	@ movhi
	.loc 2 233 0
	ldr	r3, [r2, #2256]
.LVL97:
	cbnz	r3, .L105
	.loc 2 234 0
	str	r4, [r2, #2256]
.LVL98:
.L104:
	.loc 2 281 0
	movs	r0, #0
.LVL99:
	add	sp, sp, #12
.LCFI13:
	@ sp needed
	pop	{r4, r5, r6, r7, r8, r9, r10, fp, pc}
.LVL100:
.L105:
.LCFI14:
	.loc 2 239 0
	ldrh	r6, [r4, #4]
	.loc 2 238 0
	lsls	r7, r0, #1
	ldr	r8, [r2, #2260]
	ldrh	r2, [r8, r0, lsl #1]
.LVL101:
	.loc 2 240 0
	cmp	r6, #0
	beq	.L114
	.loc 2 239 0
	muls	r6, r2, r6
.LVL102:
.L106:
	.loc 2 244 0
	ldr	lr, [r1, #2252]
	sub	r2, r3, lr
.LVL103:
	asr	r9, r2, #1
	ldr	r2, .L116+4
	mul	r2, r2, r9
	.loc 2 252 0
	ldr	r9, [r1, #2248]
	add	r7, r9, r7
	.loc 2 244 0
	uxth	r2, r2
	.loc 2 252 0
	str	r7, [sp, #4]
.LVL104:
.L112:
	.loc 2 247 0
	ldrh	r7, [r3, #4]
	.loc 2 246 0
	lsl	r10, r2, #1
	ldrh	fp, [r8, r2, lsl #1]
	.loc 2 248 0
	cbz	r7, .L115
	.loc 2 247 0
	mul	r7, r7, fp
.LVL105:
.L107:
	.loc 2 251 0
	cmp	r6, r7
	bne	.L108
	.loc 2 252 0
	ldr	r7, [sp, #4]
.LVL106:
	ldrh	r10, [r9, r10]
	ldrh	r7, [r7]
	cmp	r10, r7
	bcc	.L110
.LVL107:
.L109:
	.loc 2 270 0
	strh	r2, [ip, r5]	@ movhi
	.loc 2 271 0
	ldrh	r2, [r3, #2]
	strh	r2, [r4, #2]	@ movhi
	.loc 2 273 0
	ldr	r2, [r1, #2256]
	cmp	r3, r2
	.loc 2 277 0
	ittte	ne
	ldrhne	r4, [r3, #2]
.LVL108:
	movne	r2, #6
	ldrne	r1, [r1, #2252]
	.loc 2 274 0
	strheq	r0, [r3, #2]	@ movhi
.LVL109:
	.loc 2 275 0
	iteee	eq
	streq	r4, [r1, #2256]
	.loc 2 277 0
	mulne	r2, r2, r4
.LVL110:
	strhne	r0, [r1, r2]	@ movhi
	.loc 2 278 0
	strhne	r0, [r3, #2]	@ movhi
	b	.L104
.LVL111:
.L114:
	.loc 2 241 0
	mov	r6, #-1
.LVL112:
	b	.L106
.LVL113:
.L115:
	.loc 2 249 0
	mov	r7, #-1
.LVL114:
	b	.L107
.L108:
	.loc 2 256 0
	bcc	.L109
.L110:
	.loc 2 259 0
	ldrh	r7, [r3]
.LVL115:
	movw	r10, #65535
	cmp	r7, r10
	bne	.L111
	.loc 2 260 0
	strh	r2, [r4, #2]	@ movhi
	.loc 2 261 0
	strh	r0, [r3]	@ movhi
	.loc 2 262 0
	str	r4, [r1, #2264]
	.loc 2 263 0
	b	.L104
.L111:
	.loc 2 267 0
	movs	r3, #6
.LVL116:
	.loc 2 246 0
	mov	r2, r7
	.loc 2 267 0
	mla	r3, r3, r7, lr
.LVL117:
	.loc 2 246 0
	b	.L112
.L117:
	.align	2
.L116:
	.word	.LANCHOR0
	.word	-1431655765
.LFE196:
	.fnend
	.size	insert_data_list, .-insert_data_list
	.align	1
	.global	INSERT_DATA_LIST
	.syntax unified
	.thumb
	.thumb_func
	.fpu softvfp
	.type	INSERT_DATA_LIST, %function
INSERT_DATA_LIST:
	.fnstart
.LFB195:
	.loc 2 186 0
	@ args = 0, pretend = 0, frame = 0
	@ frame_needed = 0, uses_anonymous_args = 0
.LVL118:
	push	{r3, lr}
	.save {r3, lr}
.LCFI15:
	.loc 2 187 0
	bl	insert_data_list
.LVL119:
	.loc 2 188 0
	ldr	r2, .L120
	ldrh	r3, [r2, #2268]
	adds	r3, r3, #1
	uxth	r3, r3
	strh	r3, [r2, #2268]	@ movhi
	.loc 2 189 0
	ldrh	r2, [r2, #16]
	cmp	r2, r3
	bcs	.L118
.LBB256:
.LBB257:
	movs	r2, #189
	ldr	r1, .L120+4
	ldr	r0, .L120+8
.LBE257:
.LBE256:
	.loc 2 190 0
	pop	{r3, lr}
.LCFI16:
.LBB259:
.LBB258:
	.loc 2 189 0
	b	printk
.LVL120:
.L118:
.LCFI17:
	pop	{r3, pc}
.L121:
	.align	2
.L120:
	.word	.LANCHOR0
	.word	.LANCHOR1
	.word	.LC1
.LBE258:
.LBE259:
.LFE195:
	.fnend
	.size	INSERT_DATA_LIST, .-INSERT_DATA_LIST
	.align	1
	.global	insert_free_list
	.syntax unified
	.thumb
	.thumb_func
	.fpu softvfp
	.type	insert_free_list, %function
insert_free_list:
	.fnstart
.LFB197:
	.loc 2 284 0
	@ args = 0, pretend = 0, frame = 0
	@ frame_needed = 0, uses_anonymous_args = 0
.LVL121:
	push	{r4, r5, r6, r7, r8, r9, r10, lr}
	.save {r4, r5, r6, r7, r8, r9, r10, lr}
.LCFI18:
	.loc 2 290 0
	movw	r4, #65535
	cmp	r0, r4
	beq	.L123
	.loc 2 293 0
	ldr	r2, .L129
	movs	r1, #6
	mul	r7, r1, r0
	ldr	ip, [r2, #2252]
	mov	r5, r2
	add	r6, ip, r7
.LVL122:
	.loc 2 294 0
	strh	r4, [r6, #2]	@ movhi
	strh	r4, [ip, r7]	@ movhi
	.loc 2 296 0
	ldr	r3, [r2, #2272]
.LVL123:
	cbnz	r3, .L124
	.loc 2 297 0
	str	r6, [r2, #2272]
.LVL124:
.L123:
	.loc 2 330 0
	movs	r0, #0
.LVL125:
	pop	{r4, r5, r6, r7, r8, r9, r10, pc}
.LVL126:
.L124:
	.loc 2 303 0
	ldr	lr, [r2, #2252]
	.loc 2 301 0
	ldr	r8, [r2, #2248]
	.loc 2 303 0
	sub	r2, r3, lr
	asr	r10, r2, #1
	ldr	r2, .L129+4
	.loc 2 301 0
	ldrh	r9, [r8, r0, lsl #1]
.LVL127:
	.loc 2 303 0
	mul	r2, r2, r10
	.loc 2 310 0
	mov	r10, r4
	.loc 2 303 0
	uxth	r2, r2
.L127:
	.loc 2 307 0
	ldrh	r4, [r8, r2, lsl #1]
	cmp	r4, r9
	bcs	.L125
	.loc 2 310 0
	ldrh	r4, [r3]
	cmp	r4, r10
	bne	.L126
	.loc 2 311 0
	strh	r2, [r6, #2]	@ movhi
	.loc 2 312 0
	strh	r0, [r3]	@ movhi
	.loc 2 313 0
	b	.L123
.L126:
	.loc 2 316 0
	mla	r3, r1, r4, lr
	.loc 2 306 0
	mov	r2, r4
	b	.L127
.L125:
	.loc 2 319 0
	ldrh	r1, [r3, #2]
	strh	r1, [r6, #2]	@ movhi
	.loc 2 320 0
	strh	r2, [ip, r7]	@ movhi
	.loc 2 322 0
	ldr	r2, [r5, #2272]
	cmp	r3, r2
	.loc 2 326 0
	ittte	ne
	ldrhne	r4, [r3, #2]
	movne	r2, #6
	ldrne	r1, [r5, #2252]
	.loc 2 323 0
	strheq	r0, [r3, #2]	@ movhi
	.loc 2 324 0
	iteee	eq
	streq	r6, [r5, #2272]
	.loc 2 326 0
	mulne	r2, r2, r4
	strhne	r0, [r1, r2]	@ movhi
	.loc 2 327 0
	strhne	r0, [r3, #2]	@ movhi
	b	.L123
.L130:
	.align	2
.L129:
	.word	.LANCHOR0
	.word	-1431655765
.LFE197:
	.fnend
	.size	insert_free_list, .-insert_free_list
	.align	1
	.global	INSERT_FREE_LIST
	.syntax unified
	.thumb
	.thumb_func
	.fpu softvfp
	.type	INSERT_FREE_LIST, %function
INSERT_FREE_LIST:
	.fnstart
.LFB194:
	.loc 2 179 0
	@ args = 0, pretend = 0, frame = 0
	@ frame_needed = 0, uses_anonymous_args = 0
.LVL128:
	push	{r3, lr}
	.save {r3, lr}
.LCFI19:
	.loc 2 180 0
	bl	insert_free_list
.LVL129:
	.loc 2 181 0
	ldr	r2, .L133
	ldrh	r3, [r2, #2276]
	adds	r3, r3, #1
	uxth	r3, r3
	strh	r3, [r2, #2276]	@ movhi
	.loc 2 182 0
	ldrh	r2, [r2, #16]
	cmp	r2, r3
	bcs	.L131
.LBB262:
.LBB263:
	movs	r2, #182
	ldr	r1, .L133+4
	ldr	r0, .L133+8
.LBE263:
.LBE262:
	.loc 2 183 0
	pop	{r3, lr}
.LCFI20:
.LBB265:
.LBB264:
	.loc 2 182 0
	b	printk
.LVL130:
.L131:
.LCFI21:
	pop	{r3, pc}
.L134:
	.align	2
.L133:
	.word	.LANCHOR0
	.word	.LANCHOR1+17
	.word	.LC1
.LBE264:
.LBE265:
.LFE194:
	.fnend
	.size	INSERT_FREE_LIST, .-INSERT_FREE_LIST
	.align	1
	.global	List_remove_node
	.syntax unified
	.thumb
	.thumb_func
	.fpu softvfp
	.type	List_remove_node, %function
List_remove_node:
	.fnstart
.LFB198:
	.loc 2 333 0
	@ args = 0, pretend = 0, frame = 0
	@ frame_needed = 0, uses_anonymous_args = 0
.LVL131:
	push	{r4, r5, r6, r7, r8, lr}
	.save {r4, r5, r6, r7, r8, lr}
.LCFI22:
	.loc 2 336 0
	movs	r5, #6
	ldr	r7, .L141
	muls	r5, r1, r5
	.loc 2 337 0
	movw	r3, #65535
	.loc 2 333 0
	mov	r8, r0
	.loc 2 336 0
	ldr	r6, [r7, #2252]
	adds	r4, r6, r5
.LVL132:
	.loc 2 337 0
	ldrh	r2, [r4, #2]
	cmp	r2, r3
	bne	.L136
	.loc 2 337 0 is_stmt 0 discriminator 1
	ldr	r3, [r0]
	cmp	r4, r3
	beq	.L136
	.loc 2 337 0 discriminator 2
	movw	r2, #337
	ldr	r1, .L141+4
.LVL133:
	ldr	r0, .L141+8
	bl	printk
.LVL134:
.L136:
	.loc 2 339 0 is_stmt 1
	ldr	r3, [r8]
	movw	r2, #65535
	cmp	r4, r3
	ldrh	r3, [r6, r5]
	bne	.L137
	.loc 2 340 0
	cmp	r3, r2
	.loc 2 343 0
	ittee	ne
	ldrne	r1, [r7, #2252]
.LVL135:
	movne	r0, #6
	.loc 2 341 0
	moveq	r3, #0
	streq	r3, [r8]
	.loc 2 343 0
	ittt	ne
	mlane	r3, r0, r3, r1
	strne	r3, [r8]
	.loc 2 344 0
	strhne	r2, [r3, #2]	@ movhi
.L139:
	.loc 2 355 0
	movw	r3, #65535
	.loc 2 357 0
	movs	r0, #0
	.loc 2 355 0
	strh	r3, [r6, r5]	@ movhi
	strh	r3, [r4, #2]	@ movhi
	.loc 2 357 0
	pop	{r4, r5, r6, r7, r8, pc}
.LVL136:
.L137:
	.loc 2 346 0
	cmp	r3, r2
	ldrh	r1, [r4, #2]
.LVL137:
	mov	r2, #6
	.loc 2 348 0
	ldr	r0, [r7, #2252]
	.loc 2 346 0
	bne	.L140
	.loc 2 348 0
	muls	r2, r1, r2
	strh	r3, [r0, r2]	@ movhi
	b	.L139
.L140:
	.loc 2 351 0
	mla	r3, r2, r3, r0
	strh	r1, [r3, #2]	@ movhi
	.loc 2 352 0
	ldrh	r0, [r4, #2]
	.loc 2 353 0
	ldrh	r1, [r6, r5]
	ldr	r3, [r7, #2252]
	muls	r2, r0, r2
	strh	r1, [r3, r2]	@ movhi
	b	.L139
.L142:
	.align	2
.L141:
	.word	.LANCHOR0
	.word	.LANCHOR1+34
	.word	.LC1
.LFE198:
	.fnend
	.size	List_remove_node, .-List_remove_node
	.align	1
	.global	List_pop_index_node
	.syntax unified
	.thumb
	.thumb_func
	.fpu softvfp
	.type	List_pop_index_node, %function
List_pop_index_node:
	.fnstart
.LFB199:
	.loc 2 360 0
	@ args = 0, pretend = 0, frame = 0
	@ frame_needed = 0, uses_anonymous_args = 0
.LVL138:
	push	{r4, r5, r6, lr}
	.save {r4, r5, r6, lr}
.LCFI23:
	.loc 2 364 0
	ldr	r3, [r0]
.LVL139:
	cbz	r3, .L149
	.loc 2 369 0
	ldr	r2, .L150
	.loc 2 368 0
	movw	r5, #65535
	.loc 2 369 0
	movs	r6, #6
	ldr	r2, [r2, #2252]
.L145:
	.loc 2 368 0
	cbnz	r1, .L146
.L148:
	.loc 2 372 0
	ldr	r4, .L150+4
	subs	r3, r3, r2
.LVL140:
	asrs	r3, r3, #1
	muls	r4, r3, r4
	.loc 2 373 0
	uxth	r1, r4
.LVL141:
	bl	List_remove_node
.LVL142:
	uxth	r0, r4
	.loc 2 375 0
	pop	{r4, r5, r6, pc}
.LVL143:
.L146:
	.loc 2 368 0 discriminator 1
	ldrh	r4, [r3]
	cmp	r4, r5
	beq	.L148
	.loc 2 370 0
	subs	r1, r1, #1
.LVL144:
	.loc 2 369 0
	mla	r3, r6, r4, r2
	.loc 2 370 0
	uxth	r1, r1
.LVL145:
	b	.L145
.L149:
	.loc 2 365 0
	movw	r0, #65535
.LVL146:
	.loc 2 376 0
	pop	{r4, r5, r6, pc}
.L151:
	.align	2
.L150:
	.word	.LANCHOR0
	.word	-1431655765
.LFE199:
	.fnend
	.size	List_pop_index_node, .-List_pop_index_node
	.align	1
	.global	List_pop_head_node
	.syntax unified
	.thumb
	.thumb_func
	.fpu softvfp
	.type	List_pop_head_node, %function
List_pop_head_node:
	.fnstart
.LFB200:
	.loc 2 379 0
	@ args = 0, pretend = 0, frame = 0
	@ frame_needed = 0, uses_anonymous_args = 0
	@ link register save eliminated.
.LVL147:
	.loc 2 380 0
	movs	r1, #0
	b	List_pop_index_node
.LVL148:
.LFE200:
	.fnend
	.size	List_pop_head_node, .-List_pop_head_node
	.align	1
	.global	List_get_gc_head_node
	.syntax unified
	.thumb
	.thumb_func
	.fpu softvfp
	.type	List_get_gc_head_node, %function
List_get_gc_head_node:
	.fnstart
.LFB201:
	.loc 2 384 0
	@ args = 0, pretend = 0, frame = 0
	@ frame_needed = 0, uses_anonymous_args = 0
.LVL149:
	.loc 2 388 0
	ldr	r2, .L159
	.loc 2 384 0
	push	{r4, lr}
	.save {r4, lr}
.LCFI24:
	.loc 2 388 0
	ldr	r3, [r2, #2256]
.LVL150:
	cbz	r3, .L158
	.loc 2 393 0
	ldr	r1, [r2, #2252]
	movs	r4, #6
	.loc 2 392 0
	movw	r2, #65535
.L155:
	cbz	r0, .L156
	.loc 2 392 0 is_stmt 0 discriminator 1
	ldrh	r3, [r3]
.LVL151:
	cmp	r3, r2
	bne	.L157
.LVL152:
.L158:
	.loc 2 389 0 is_stmt 1
	movw	r0, #65535
.LVL153:
	pop	{r4, pc}
.LVL154:
.L157:
	.loc 2 394 0
	subs	r0, r0, #1
.LVL155:
	.loc 2 393 0
	mla	r3, r4, r3, r1
.LVL156:
	.loc 2 394 0
	uxth	r0, r0
.LVL157:
	b	.L155
.L156:
	.loc 2 398 0
	ldr	r0, .L159+4
.LVL158:
	subs	r3, r3, r1
.LVL159:
	asrs	r3, r3, #1
	muls	r3, r0, r3
	uxth	r0, r3
	.loc 2 401 0
	pop	{r4, pc}
.L160:
	.align	2
.L159:
	.word	.LANCHOR0
	.word	-1431655765
.LFE201:
	.fnend
	.size	List_get_gc_head_node, .-List_get_gc_head_node
	.align	1
	.global	List_update_data_list
	.syntax unified
	.thumb
	.thumb_func
	.fpu softvfp
	.type	List_update_data_list, %function
List_update_data_list:
	.fnstart
.LFB202:
	.loc 2 404 0
	@ args = 0, pretend = 0, frame = 0
	@ frame_needed = 0, uses_anonymous_args = 0
.LVL160:
	push	{r3, r4, r5, r6, r7, lr}
	.save {r3, r4, r5, r6, r7, lr}
.LCFI25:
	.loc 2 404 0
	mov	r5, r0
	.loc 2 413 0
	ldr	r4, .L169
	ldrh	r3, [r4, #2280]
	cmp	r3, r0
	beq	.L163
	.loc 2 413 0 is_stmt 0 discriminator 1
	ldrh	r3, [r4, #2328]
	cmp	r3, r0
	beq	.L163
	.loc 2 413 0 discriminator 2
	ldrh	r3, [r4, #2376]
	cmp	r3, r0
	beq	.L163
.LBB268:
.LBB269:
	.loc 2 416 0 is_stmt 1
	movs	r3, #6
	ldr	r1, [r4, #2252]
	muls	r3, r0, r3
	.loc 2 418 0
	ldr	r2, [r4, #2256]
	.loc 2 416 0
	adds	r7, r1, r3
.LVL161:
	.loc 2 418 0
	cmp	r7, r2
	beq	.L163
	.loc 2 421 0
	ldr	r2, [r4, #2260]
	.loc 2 422 0
	ldrh	r6, [r7, #4]
	ldrh	r2, [r2, r0, lsl #1]
	.loc 2 424 0
	muls	r6, r2, r6
.LVL162:
	.loc 2 426 0
	ldrh	r2, [r7, #2]
	movw	r0, #65535
	.loc 2 424 0
	it	eq
	moveq	r6, #-1
	.loc 2 426 0
	cmp	r2, r0
	bne	.L166
	ldrh	r3, [r1, r3]
	cmp	r3, r2
	bne	.L166
	mov	r2, #426
	ldr	r1, .L169+4
	ldr	r0, .L169+8
	bl	printk
.LVL163:
.L166:
	.loc 2 427 0
	ldrh	r3, [r7, #2]
	movs	r2, #6
	muls	r2, r3, r2
	.loc 2 428 0
	ldr	r3, .L169+12
	asrs	r1, r2, #1
	muls	r3, r1, r3
	.loc 2 429 0
	ldr	r1, [r4, #2260]
	.loc 2 430 0
	ldrh	r0, [r1, r3, lsl #1]
	ldr	r1, [r4, #2252]
	add	r2, r2, r1
	ldrh	r3, [r2, #4]
	.loc 2 432 0
	muls	r3, r0, r3
.LVL164:
	it	eq
	moveq	r3, #-1
	.loc 2 434 0
	cmp	r6, r3
	bcs	.L163
	.loc 2 435 0
	mov	r1, r5
	ldr	r0, .L169+16
	bl	List_remove_node
.LVL165:
	ldrh	r3, [r4, #2268]
	cbnz	r3, .L168
	movw	r2, #435
	ldr	r1, .L169+4
	ldr	r0, .L169+8
	bl	printk
.LVL166:
.L168:
	ldrh	r3, [r4, #2268]
	.loc 2 436 0
	mov	r0, r5
	.loc 2 435 0
	subs	r3, r3, #1
	strh	r3, [r4, #2268]	@ movhi
	.loc 2 436 0
	bl	INSERT_DATA_LIST
.LVL167:
.L163:
.LBE269:
.LBE268:
	.loc 2 439 0
	movs	r0, #0
	pop	{r3, r4, r5, r6, r7, pc}
.LVL168:
.L170:
	.align	2
.L169:
	.word	.LANCHOR0
	.word	.LANCHOR1+51
	.word	.LC1
	.word	-1431655765
	.word	.LANCHOR0+2256
.LFE202:
	.fnend
	.size	List_update_data_list, .-List_update_data_list
	.align	1
	.global	ftl_map_blk_alloc_new_blk
	.syntax unified
	.thumb
	.thumb_func
	.fpu softvfp
	.type	ftl_map_blk_alloc_new_blk, %function
ftl_map_blk_alloc_new_blk:
	.fnstart
.LFB205:
	.loc 2 516 0
	@ args = 0, pretend = 0, frame = 0
	@ frame_needed = 0, uses_anonymous_args = 0
.LVL169:
	push	{r3, r4, r5, r6, r7, lr}
	.save {r3, r4, r5, r6, r7, lr}
.LCFI26:
	.loc 2 516 0
	mov	r4, r0
	.loc 2 520 0
	ldrh	r1, [r0, #10]
	movs	r3, #0
	ldr	r2, [r0, #12]
.LVL170:
.L172:
	uxth	r5, r3
	.loc 2 520 0 is_stmt 0 discriminator 1
	cmp	r5, r1
	bcc	.L174
.L175:
.LBB272:
.LBB273:
	.loc 2 532 0 is_stmt 1
	mov	r2, #532
	ldr	r1, .L181
	ldr	r0, .L181+4
	bl	printk
.LVL171:
	b	.L176
.L174:
.LBE273:
.LBE272:
	.loc 2 521 0
	mov	r7, r2
	adds	r3, r3, #1
	ldrh	r6, [r7]
	adds	r2, r2, #2
	cmp	r6, #0
	bne	.L172
	.loc 2 522 0
	bl	FtlFreeSysBlkQueueOut
.LVL172:
	strh	r0, [r7]	@ movhi
	.loc 2 523 0
	cbz	r0, .L173
	.loc 2 526 0
	ldr	r3, [r4, #28]
	.loc 2 524 0
	strh	r6, [r4, #2]	@ movhi
	.loc 2 525 0
	strh	r5, [r4]	@ movhi
	.loc 2 526 0
	adds	r3, r3, #1
	str	r3, [r4, #28]
	.loc 2 527 0
	ldrh	r3, [r4, #8]
	adds	r3, r3, #1
	strh	r3, [r4, #8]	@ movhi
.L173:
	.loc 2 532 0
	ldrh	r3, [r4, #10]
	cmp	r3, r5
	bls	.L175
.L176:
	.loc 2 534 0
	movs	r0, #0
	pop	{r3, r4, r5, r6, r7, pc}
.LVL173:
.L182:
	.align	2
.L181:
	.word	.LANCHOR1+73
	.word	.LC1
.LFE205:
	.fnend
	.size	ftl_map_blk_alloc_new_blk, .-ftl_map_blk_alloc_new_blk
	.align	1
	.global	select_l2p_ram_region
	.syntax unified
	.thumb
	.thumb_func
	.fpu softvfp
	.type	select_l2p_ram_region, %function
select_l2p_ram_region:
	.fnstart
.LFB210:
	.loc 2 700 0
	@ args = 0, pretend = 0, frame = 0
	@ frame_needed = 0, uses_anonymous_args = 0
	push	{r3, r4, r5, r6, r7, lr}
	.save {r3, r4, r5, r6, r7, lr}
.LCFI27:
	.loc 2 705 0
	movs	r1, #0
	ldr	r5, .L193
	.loc 2 706 0
	movs	r0, #12
	movw	r6, #65535
	.loc 2 705 0
	ldrh	r2, [r5, #114]
	.loc 2 706 0
	ldr	r3, [r5, #2424]
.L184:
	uxth	r4, r1
	.loc 2 705 0 discriminator 1
	cmp	r4, r2
	bcc	.L186
	mov	r4, r2
	movs	r1, #0
	mov	r7, #-2147483648
	.loc 2 716 0
	mov	ip, #12
.L187:
	uxth	r6, r1
	.loc 2 715 0 discriminator 1
	cmp	r6, r2
	bcc	.L189
	.loc 2 724 0
	cmp	r4, r2
	bcc	.L185
	.loc 2 730 0
	ldrh	r7, [r5, #2428]
	mov	r4, r2
	movs	r1, #0
	mov	r0, #-1
.L190:
	uxth	r5, r1
	.loc 2 729 0 discriminator 1
	cmp	r5, r2
	bcc	.L192
	.loc 2 735 0
	cmp	r4, r2
	bcc	.L185
	.loc 2 735 0 is_stmt 0 discriminator 1
	movw	r2, #735
	ldr	r1, .L193+4
	ldr	r0, .L193+8
	bl	printk
.LVL174:
	b	.L185
.L186:
	adds	r1, r1, #1
	.loc 2 706 0 is_stmt 1
	mla	r7, r0, r1, r3
	ldrh	r7, [r7, #-12]
	cmp	r7, r6
	bne	.L184
.L185:
	.loc 2 737 0
	mov	r0, r4
	pop	{r3, r4, r5, r6, r7, pc}
.L189:
	.loc 2 716 0
	mla	r0, ip, r1, r3
	ldr	r0, [r0, #4]
	cmp	r0, #0
	blt	.L188
	.loc 2 717 0
	cmp	r7, r0
	itt	hi
	movhi	r7, r0
	movhi	r4, r6
.L188:
	adds	r1, r1, #1
	b	.L187
.L192:
	.loc 2 730 0
	ldr	r6, [r3, #4]
	cmp	r0, r6
	bls	.L191
	.loc 2 730 0 is_stmt 0 discriminator 1
	ldrh	ip, [r3]
	cmp	ip, r7
	itt	ne
	movne	r0, r6
	movne	r4, r5
.L191:
	adds	r1, r1, #1
	adds	r3, r3, #12
	b	.L190
.L194:
	.align	2
.L193:
	.word	.LANCHOR0
	.word	.LANCHOR1+99
	.word	.LC1
.LFE210:
	.fnend
	.size	select_l2p_ram_region, .-select_l2p_ram_region
	.align	1
	.global	FtlUpdateVaildLpn
	.syntax unified
	.thumb
	.thumb_func
	.fpu softvfp
	.type	FtlUpdateVaildLpn, %function
FtlUpdateVaildLpn:
	.fnstart
.LFB216:
	.loc 2 882 0 is_stmt 1
	@ args = 0, pretend = 0, frame = 0
	@ frame_needed = 0, uses_anonymous_args = 0
.LVL175:
	.loc 2 885 0
	ldr	r1, .L201
	.loc 2 882 0
	push	{r4, r5, lr}
	.save {r4, r5, lr}
.LCFI28:
	mov	r3, r1
	.loc 2 885 0
	ldrh	r2, [r1, #2430]
	cmp	r2, #4
	bhi	.L196
	.loc 2 885 0 is_stmt 0 discriminator 1
	cbnz	r0, .L196
	.loc 2 885 0
	adds	r2, r2, #1
	strh	r2, [r1, #2430]	@ movhi
	.loc 2 894 0 is_stmt 1
	pop	{r4, r5, pc}
.L196:
	.loc 2 886 0
	movs	r2, #0
	ldrh	r1, [r3, #16]
	strh	r2, [r3, #2430]	@ movhi
.LBB276:
.LBB277:
	.loc 2 890 0
	movw	r5, #65535
.LBE277:
.LBE276:
	.loc 2 887 0
	str	r2, [r3, #2432]
.LBB279:
.LBB278:
	.loc 2 890 0
	ldr	r2, [r3, #2260]
	add	r1, r2, r1, lsl #1
.L197:
	.loc 2 888 0
	cmp	r2, r1
	bne	.L199
	pop	{r4, r5, pc}
.L199:
	.loc 2 890 0
	ldrh	r4, [r2], #2
	cmp	r4, r5
	.loc 2 891 0
	ittt	ne
	ldrne	r0, [r3, #2432]
.LVL176:
	addne	r0, r0, r4
	strne	r0, [r3, #2432]
	b	.L197
.L202:
	.align	2
.L201:
	.word	.LANCHOR0
.LBE278:
.LBE279:
.LFE216:
	.fnend
	.size	FtlUpdateVaildLpn, .-FtlUpdateVaildLpn
	.align	1
	.global	ftl_set_blk_mode
	.syntax unified
	.thumb
	.thumb_func
	.fpu softvfp
	.type	ftl_set_blk_mode, %function
ftl_set_blk_mode:
	.fnstart
.LFB222:
	.loc 2 1347 0
	@ args = 0, pretend = 0, frame = 0
	@ frame_needed = 0, uses_anonymous_args = 0
	@ link register save eliminated.
.LVL177:
	.loc 2 1347 0
	mov	r3, r0
	.loc 2 1348 0
	cbz	r1, .L204
	b	ftl_set_blk_mode.part.6
.LVL178:
.L204:
	.loc 2 1351 0
	ldr	r2, .L205
	lsrs	r0, r0, #5
	and	r3, r3, #31
.LVL179:
	ldr	r1, [r2]
.LVL180:
	movs	r2, #1
	lsl	r3, r2, r3
	ldr	r2, [r1, r0, lsl #2]
	bic	r2, r2, r3
	str	r2, [r1, r0, lsl #2]
	bx	lr
.L206:
	.align	2
.L205:
	.word	.LANCHOR0
.LFE222:
	.fnend
	.size	ftl_set_blk_mode, .-ftl_set_blk_mode
	.align	1
	.global	ftl_get_blk_mode
	.syntax unified
	.thumb
	.thumb_func
	.fpu softvfp
	.type	ftl_get_blk_mode, %function
ftl_get_blk_mode:
	.fnstart
.LFB223:
	.loc 2 1355 0
	@ args = 0, pretend = 0, frame = 0
	@ frame_needed = 0, uses_anonymous_args = 0
	@ link register save eliminated.
.LVL181:
	.loc 2 1356 0
	ldr	r3, .L208
	lsrs	r2, r0, #5
	and	r0, r0, #31
.LVL182:
	ldr	r3, [r3]
	ldr	r3, [r3, r2, lsl #2]
	lsr	r0, r3, r0
	.loc 2 1357 0
	and	r0, r0, #1
	bx	lr
.L209:
	.align	2
.L208:
	.word	.LANCHOR0
.LFE223:
	.fnend
	.size	ftl_get_blk_mode, .-ftl_get_blk_mode
	.align	1
	.global	ftl_sb_update_avl_pages
	.syntax unified
	.thumb
	.thumb_func
	.fpu softvfp
	.type	ftl_sb_update_avl_pages, %function
ftl_sb_update_avl_pages:
	.fnstart
.LFB229:
	.loc 2 1608 0
	@ args = 0, pretend = 0, frame = 0
	@ frame_needed = 0, uses_anonymous_args = 0
.LVL183:
	.loc 2 1610 0
	movs	r3, #0
	.loc 2 1608 0
	push	{r4, r5, r6, r7, lr}
	.save {r4, r5, r6, r7, lr}
.LCFI29:
	.loc 2 1610 0
	strh	r3, [r0, #4]	@ movhi
	add	r4, r0, r2, lsl #1
	.loc 2 1613 0
	movw	r7, #65535
	.loc 2 1611 0
	ldr	r3, .L217
	adds	r4, r4, #14
	ldrh	r5, [r3, #8]
.L211:
	.loc 2 1611 0 is_stmt 0 discriminator 1
	cmp	r2, r5
	bcc	.L213
	ldrh	r3, [r3, #78]
	add	r4, r0, #16
	.loc 2 1620 0 is_stmt 1
	movw	r6, #65535
	subs	r3, r3, #1
	subs	r1, r3, r1
.LVL184:
	.loc 2 1622 0
	movs	r3, #0
	uxth	r1, r1
.L214:
	.loc 2 1618 0 discriminator 1
	uxth	r2, r3
.LVL185:
	cmp	r5, r2
	bhi	.L216
	.loc 2 1625 0
	pop	{r4, r5, r6, r7, pc}
.LVL186:
.L213:
	.loc 2 1613 0
	ldrh	r6, [r4, #2]!
	.loc 2 1611 0
	adds	r2, r2, #1
.LVL187:
	uxth	r2, r2
.LVL188:
	.loc 2 1613 0
	cmp	r6, r7
	.loc 2 1615 0
	ittt	ne
	ldrhne	r6, [r0, #4]
	addne	r6, r6, #1
	strhne	r6, [r0, #4]	@ movhi
	b	.L211
.LVL189:
.L216:
	.loc 2 1620 0
	ldrh	r2, [r4], #2
	adds	r3, r3, #1
	cmp	r2, r6
	.loc 2 1622 0
	ittt	ne
	ldrhne	r2, [r0, #4]
	addne	r2, r2, r1
	strhne	r2, [r0, #4]	@ movhi
	b	.L214
.L218:
	.align	2
.L217:
	.word	.LANCHOR0
.LFE229:
	.fnend
	.size	ftl_sb_update_avl_pages, .-ftl_sb_update_avl_pages
	.align	1
	.global	FtlSlcSuperblockCheck
	.syntax unified
	.thumb
	.thumb_func
	.fpu softvfp
	.type	FtlSlcSuperblockCheck, %function
FtlSlcSuperblockCheck:
	.fnstart
.LFB232:
	.loc 2 2013 0
	@ args = 0, pretend = 0, frame = 0
	@ frame_needed = 0, uses_anonymous_args = 0
.LVL190:
	.loc 2 2016 0
	ldrh	r3, [r0, #4]
	.loc 2 2013 0
	push	{r4, r5, lr}
	.save {r4, r5, lr}
.LCFI30:
	.loc 2 2016 0
	cbz	r3, .L219
	.loc 2 2018 0
	ldrh	r2, [r0]
	movw	r3, #65535
	cmp	r2, r3
	beq	.L219
.LBB282:
.LBB283:
	.loc 2 2020 0
	ldrb	r2, [r0, #6]	@ zero_extendqisi2
	.loc 2 2025 0
	movs	r5, #0
	.loc 2 2020 0
	adds	r2, r2, #8
	ldrh	r1, [r0, r2, lsl #1]
.LVL191:
	.loc 2 2023 0
	ldr	r2, .L225
	ldrh	r4, [r2, #8]
	.loc 2 2021 0
	mov	r2, r3
.L222:
	cmp	r1, r2
	beq	.L224
.L219:
	pop	{r4, r5, pc}
.L224:
	.loc 2 2022 0
	ldrb	r3, [r0, #6]	@ zero_extendqisi2
	adds	r3, r3, #1
	uxtb	r3, r3
	.loc 2 2023 0
	cmp	r3, r4
	.loc 2 2022 0
	strb	r3, [r0, #6]
	.loc 2 2024 0
	itttt	eq
	ldrheq	r3, [r0, #2]
	.loc 2 2025 0
	strbeq	r5, [r0, #6]
	.loc 2 2024 0
	addeq	r3, r3, #1
	strheq	r3, [r0, #2]	@ movhi
	.loc 2 2027 0
	ldrb	r3, [r0, #6]	@ zero_extendqisi2
	adds	r3, r3, #8
	ldrh	r1, [r0, r3, lsl #1]
	b	.L222
.L226:
	.align	2
.L225:
	.word	.LANCHOR0
.LBE283:
.LBE282:
.LFE232:
	.fnend
	.size	FtlSlcSuperblockCheck, .-FtlSlcSuperblockCheck
	.align	1
	.global	make_superblock
	.syntax unified
	.thumb
	.thumb_func
	.fpu softvfp
	.type	make_superblock, %function
make_superblock:
	.fnstart
.LFB234:
	.loc 2 2045 0
	@ args = 0, pretend = 0, frame = 0
	@ frame_needed = 0, uses_anonymous_args = 0
.LVL192:
	push	{r3, r4, r5, r6, r7, r8, r9, r10, fp, lr}
	.save {r3, r4, r5, r6, r7, r8, r9, r10, fp, lr}
.LCFI31:
	.loc 2 2045 0
	mov	r4, r0
	.loc 2 2048 0
	ldr	r6, .L232
	ldrh	r2, [r0]
	ldrh	r3, [r6, #16]
	cmp	r2, r3
	bcc	.L228
	.loc 2 2048 0 is_stmt 0 discriminator 1
	mov	r2, #2048
	ldr	r1, .L232+4
	ldr	r0, .L232+8
	bl	printk
.LVL193:
.L228:
	.loc 2 2051 0 is_stmt 1
	ldrh	r9, [r6, #8]
	add	r7, r4, #16
	.loc 2 2052 0
	ldr	r10, .L232+12
	.loc 2 2053 0
	movw	r8, #65535
	.loc 2 2049 0
	movs	r5, #0
	strh	r5, [r4, #4]	@ movhi
	.loc 2 2050 0
	strb	r5, [r4, #7]
.L229:
	.loc 2 2051 0 discriminator 1
	uxth	r3, r5
	cmp	r9, r3
	bhi	.L231
	.loc 2 2061 0
	ldrb	r3, [r4, #7]	@ zero_extendqisi2
	.loc 2 2064 0
	movs	r0, #0
	.loc 2 2061 0
	ldrh	r2, [r6, #78]
	smulbb	r3, r3, r2
	strh	r3, [r4, #4]	@ movhi
	.loc 2 2062 0
	movs	r3, #1
	strb	r3, [r4, #9]
	.loc 2 2064 0
	pop	{r3, r4, r5, r6, r7, r8, r9, r10, fp, pc}
.LVL194:
.L231:
	.loc 2 2052 0
	ldrh	r1, [r4]
	ldrb	r0, [r10, r5]	@ zero_extendqisi2
	bl	V2P_block
.LVL195:
	.loc 2 2053 0
	strh	r8, [r7]	@ movhi
	.loc 2 2052 0
	mov	fp, r0
	.loc 2 2054 0
	bl	FtlBbmIsBadBlock
.LVL196:
	cbnz	r0, .L230
	.loc 2 2055 0
	strh	fp, [r7]	@ movhi
	.loc 2 2056 0
	ldrb	r3, [r4, #7]	@ zero_extendqisi2
	adds	r3, r3, #1
	strb	r3, [r4, #7]
.L230:
	adds	r5, r5, #1
	adds	r7, r7, #2
	b	.L229
.L233:
	.align	2
.L232:
	.word	.LANCHOR0
	.word	.LANCHOR1+121
	.word	.LC1
	.word	.LANCHOR0+36
.LFE234:
	.fnend
	.size	make_superblock, .-make_superblock
	.align	1
	.global	update_multiplier_value
	.syntax unified
	.thumb
	.thumb_func
	.fpu softvfp
	.type	update_multiplier_value, %function
update_multiplier_value:
	.fnstart
.LFB243:
	.loc 2 2401 0
	@ args = 0, pretend = 0, frame = 0
	@ frame_needed = 0, uses_anonymous_args = 0
.LVL197:
	push	{r4, r5, r6, r7, r8, r9, r10, lr}
	.save {r4, r5, r6, r7, r8, r9, r10, lr}
.LCFI32:
	.loc 2 2405 0
	movs	r5, #0
	ldr	r6, .L240
	.loc 2 2401 0
	mov	r7, r0
	.loc 2 2403 0
	mov	r4, r5
	.loc 2 2405 0
	ldrh	r8, [r6, #8]
	.loc 2 2406 0
	add	r10, r6, #36
	.loc 2 2408 0
	ldrh	r9, [r6, #78]
.L235:
	.loc 2 2405 0 discriminator 1
	uxth	r3, r5
	cmp	r8, r3
	bhi	.L237
	.loc 2 2410 0
	cbz	r4, .L239
	.loc 2 2411 0
	mov	r1, r4
	mov	r0, #32768
	bl	__aeabi_idiv
.LVL198:
.L238:
	.loc 2 2412 0
	ldr	r1, [r6, #2252]
	movs	r3, #6
	mla	r1, r3, r7, r1
	strh	r0, [r1, #4]	@ movhi
	.loc 2 2414 0
	movs	r0, #0
	pop	{r4, r5, r6, r7, r8, r9, r10, pc}
.LVL199:
.L237:
	.loc 2 2406 0
	mov	r1, r7
	ldrb	r0, [r10, r5]	@ zero_extendqisi2
	bl	V2P_block
.LVL200:
	.loc 2 2407 0
	bl	FtlBbmIsBadBlock
.LVL201:
	cbnz	r0, .L236
	.loc 2 2408 0
	add	r4, r4, r9
	uxth	r4, r4
.L236:
	adds	r5, r5, #1
	b	.L235
.L239:
	mov	r0, r4
	b	.L238
.L241:
	.align	2
.L240:
	.word	.LANCHOR0
.LFE243:
	.fnend
	.size	update_multiplier_value, .-update_multiplier_value
	.align	1
	.global	GetFreeBlockMinEraseCount
	.syntax unified
	.thumb
	.thumb_func
	.fpu softvfp
	.type	GetFreeBlockMinEraseCount, %function
GetFreeBlockMinEraseCount:
	.fnstart
.LFB244:
	.loc 2 2417 0
	@ args = 0, pretend = 0, frame = 0
	@ frame_needed = 0, uses_anonymous_args = 0
	@ link register save eliminated.
	.loc 2 2420 0
	ldr	r2, .L245
	ldr	r0, [r2, #2272]
	cbz	r0, .L243
	.loc 2 2421 0
	ldr	r3, [r2, #2252]
	subs	r0, r0, r3
	ldr	r3, .L245+4
	asrs	r0, r0, #1
	muls	r0, r3, r0
	ldr	r3, [r2, #2248]
	uxth	r0, r0
	ldrh	r0, [r3, r0, lsl #1]
.L243:
	.loc 2 2423 0
	bx	lr
.L246:
	.align	2
.L245:
	.word	.LANCHOR0
	.word	-1431655765
.LFE244:
	.fnend
	.size	GetFreeBlockMinEraseCount, .-GetFreeBlockMinEraseCount
	.align	1
	.global	GetFreeBlockMaxEraseCount
	.syntax unified
	.thumb
	.thumb_func
	.fpu softvfp
	.type	GetFreeBlockMaxEraseCount, %function
GetFreeBlockMaxEraseCount:
	.fnstart
.LFB245:
	.loc 2 2426 0
	@ args = 0, pretend = 0, frame = 0
	@ frame_needed = 0, uses_anonymous_args = 0
.LVL202:
	.loc 2 2431 0
	ldr	r1, .L255
	.loc 2 2426 0
	push	{r4, r5, r6, r7, lr}
	.save {r4, r5, r6, r7, lr}
.LCFI33:
	.loc 2 2431 0
	ldr	r3, [r1, #2272]
	cbz	r3, .L253
	.loc 2 2432 0
	ldrh	r2, [r1, #2276]
	.loc 2 2436 0
	movs	r6, #6
	.loc 2 2434 0
	ldr	r4, [r1, #2252]
	.loc 2 2436 0
	movw	r7, #65535
	.loc 2 2432 0
	rsb	r2, r2, r2, lsl #3
	.loc 2 2434 0
	subs	r3, r3, r4
	asrs	r3, r3, #1
	.loc 2 2432 0
	asrs	r2, r2, #3
	cmp	r0, r2
	.loc 2 2433 0
	it	gt
	uxthgt	r0, r2
	.loc 2 2434 0
	ldr	r2, .L255+4
	muls	r3, r2, r3
	.loc 2 2435 0
	movs	r2, #0
	.loc 2 2434 0
	uxth	r3, r3
.L250:
	.loc 2 2435 0 discriminator 1
	uxth	r5, r2
	cmp	r0, r5
	bls	.L252
	.loc 2 2436 0
	mul	r5, r6, r3
	adds	r2, r2, #1
	ldrh	r5, [r4, r5]
	cmp	r5, r7
	bne	.L254
.L252:
	.loc 2 2440 0
	ldr	r2, [r1, #2248]
	ldrh	r0, [r2, r3, lsl #1]
.LVL203:
	pop	{r4, r5, r6, r7, pc}
.LVL204:
.L254:
	mov	r3, r5
	b	.L250
.L253:
	.loc 2 2427 0
	mov	r0, r3
.LVL205:
	.loc 2 2443 0
	pop	{r4, r5, r6, r7, pc}
.L256:
	.align	2
.L255:
	.word	.LANCHOR0
	.word	-1431655765
.LFE245:
	.fnend
	.size	GetFreeBlockMaxEraseCount, .-GetFreeBlockMaxEraseCount
	.align	1
	.global	FtlPrintInfo2buf
	.syntax unified
	.thumb
	.thumb_func
	.fpu softvfp
	.type	FtlPrintInfo2buf, %function
FtlPrintInfo2buf:
	.fnstart
.LFB150:
	.loc 3 11 0
	@ args = 0, pretend = 0, frame = 0
	@ frame_needed = 0, uses_anonymous_args = 0
.LVL206:
	push	{r4, r5, r6, r7, r8, r9, r10, fp, lr}
	.save {r4, r5, r6, r7, r8, r9, r10, fp, lr}
.LCFI34:
	mov	r7, r0
	.loc 3 17 0
	ldr	r6, .L269
	.loc 3 11 0
	.pad #20
	sub	sp, sp, #20
.LCFI35:
	.loc 3 15 0
	add	r5, r7, #12
	ldr	r1, .L269+4
	bl	strcpy
.LVL207:
	.loc 3 17 0
	ldr	r2, [r6, #92]
	mov	r0, r5
	ldr	r1, .L269+8
	bl	sprintf
.LVL208:
	add	r5, r5, r0
	.loc 3 18 0
	ldr	r1, .L269+12
	mov	r0, r5
	adds	r5, r5, #10
	bl	strcpy
.LVL209:
	.loc 3 19 0
	ldr	r2, [r6, #2436]
	mov	r0, r5
	ldr	r1, .L269+16
	bl	sprintf
.LVL210:
	add	r5, r5, r0
	.loc 3 20 0
	ldr	r2, [r6, #2432]
	ldr	r1, .L269+20
	mov	r0, r5
	bl	sprintf
.LVL211:
	add	r5, r5, r0
	.loc 3 21 0
	ldr	r2, [r6, #2440]
	ldr	r1, .L269+24
	mov	r0, r5
	bl	sprintf
.LVL212:
	add	r5, r5, r0
	.loc 3 22 0
	ldr	r2, [r6, #2444]
	ldr	r1, .L269+28
	mov	r0, r5
	bl	sprintf
.LVL213:
	add	r5, r5, r0
	.loc 3 23 0
	ldr	r2, [r6, #2448]
	ldr	r1, .L269+32
	mov	r0, r5
	bl	sprintf
.LVL214:
	add	r5, r5, r0
	.loc 3 24 0
	ldr	r2, [r6, #2452]
	ldr	r1, .L269+36
	mov	r0, r5
	bl	sprintf
.LVL215:
	add	r5, r5, r0
	.loc 3 25 0
	ldr	r2, [r6, #2456]
	ldr	r1, .L269+40
	mov	r0, r5
	bl	sprintf
.LVL216:
	add	r5, r5, r0
	.loc 3 26 0
	ldr	r2, [r6, #2460]
	ldr	r1, .L269+44
	mov	r0, r5
	bl	sprintf
.LVL217:
	.loc 3 27 0
	ldr	r2, [r6, #2464]
	.loc 3 26 0
	add	r5, r5, r0
	.loc 3 27 0
	ldr	r1, .L269+48
	mov	r0, r5
	lsrs	r2, r2, #11
	bl	sprintf
.LVL218:
	.loc 3 28 0
	ldr	r2, [r6, #2468]
	.loc 3 27 0
	add	r5, r5, r0
	.loc 3 28 0
	ldr	r1, .L269+52
	mov	r0, r5
	lsrs	r2, r2, #11
	bl	sprintf
.LVL219:
	add	r5, r5, r0
	.loc 3 29 0
	ldr	r2, [r6, #2472]
	ldr	r1, .L269+56
	mov	r0, r5
	bl	sprintf
.LVL220:
	add	r5, r5, r0
	.loc 3 30 0
	ldr	r2, [r6, #2476]
	ldr	r1, .L269+60
	mov	r0, r5
	bl	sprintf
.LVL221:
	add	r5, r5, r0
	.loc 3 31 0
	ldrh	r2, [r6, #134]
	ldr	r1, .L269+64
	mov	r0, r5
	bl	sprintf
.LVL222:
	add	r5, r5, r0
	.loc 3 32 0
	ldrh	r2, [r6, #2276]
	ldr	r1, .L269+68
	mov	r0, r5
	bl	sprintf
.LVL223:
	add	r5, r5, r0
	.loc 3 33 0
	ldr	r2, [r6, #2480]
	ldr	r1, .L269+72
	mov	r0, r5
	bl	sprintf
.LVL224:
	add	r5, r5, r0
	.loc 3 34 0
	ldr	r2, [r6, #2484]
	ldr	r1, .L269+76
	mov	r0, r5
	bl	sprintf
.LVL225:
	add	r5, r5, r0
	.loc 3 35 0
	ldr	r2, [r6, #2488]
	ldr	r1, .L269+80
	mov	r0, r5
	bl	sprintf
.LVL226:
	add	r5, r5, r0
	.loc 3 36 0
	ldr	r2, [r6, #2492]
	ldr	r1, .L269+84
	mov	r0, r5
	bl	sprintf
.LVL227:
	add	r5, r5, r0
	.loc 3 37 0
	ldr	r2, [r6, #2496]
	ldr	r1, .L269+88
	mov	r0, r5
	bl	sprintf
.LVL228:
	add	r5, r5, r0
	.loc 3 38 0
	ldr	r2, [r6, #2500]
	ldr	r1, .L269+92
	mov	r0, r5
	bl	sprintf
.LVL229:
	add	r5, r5, r0
	.loc 3 39 0
	ldrh	r2, [r6, #2534]
	ldr	r1, .L269+96
	mov	r0, r5
	bl	sprintf
.LVL230:
	add	r5, r5, r0
	.loc 3 40 0
	ldrh	r2, [r6, #2532]
	ldr	r1, .L269+100
	mov	r0, r5
	bl	sprintf
.LVL231:
	add	r5, r5, r0
	.loc 3 41 0
	ldr	r2, [r6, #116]
	ldr	r1, .L269+104
	mov	r0, r5
	bl	sprintf
.LVL232:
	add	r5, r5, r0
	.loc 3 42 0
	ldr	r2, [r6, #108]
	ldr	r1, .L269+108
	mov	r0, r5
	bl	sprintf
.LVL233:
	add	r5, r5, r0
	.loc 3 43 0
	ldr	r2, [r6, #4]
	ldr	r1, .L269+112
	mov	r0, r5
	bl	sprintf
.LVL234:
	add	r5, r5, r0
	.loc 3 44 0
	ldrh	r2, [r6, #194]
	ldr	r1, .L269+116
	mov	r0, r5
	bl	sprintf
.LVL235:
	add	r5, r5, r0
	.loc 3 45 0
	ldrh	r2, [r6, #16]
	ldr	r1, .L269+120
	mov	r0, r5
	bl	sprintf
.LVL236:
	add	r5, r5, r0
	.loc 3 46 0
	ldrh	r2, [r6, #2552]
	ldr	r1, .L269+124
	mov	r0, r5
	bl	sprintf
.LVL237:
	add	r5, r5, r0
	.loc 3 47 0
	ldr	r2, [r6, #20]
	ldr	r1, .L269+128
	mov	r0, r5
	bl	sprintf
.LVL238:
	add	r5, r5, r0
	.loc 3 48 0
	ldrh	r2, [r6, #2556]
	ldr	r1, .L269+132
	mov	r0, r5
	bl	sprintf
.LVL239:
	add	r5, r5, r0
	.loc 3 49 0
	ldrh	r2, [r6, #128]
	ldr	r1, .L269+136
	mov	r0, r5
	bl	sprintf
.LVL240:
	add	r5, r5, r0
	.loc 3 50 0
	ldrh	r2, [r6, #2282]
	ldr	r1, .L269+140
	mov	r0, r5
	bl	sprintf
.LVL241:
	add	r5, r5, r0
	.loc 3 51 0
	ldrb	r2, [r6, #2286]	@ zero_extendqisi2
	ldr	r1, .L269+144
	mov	r0, r5
	bl	sprintf
.LVL242:
	add	r5, r5, r0
	.loc 3 52 0
	ldrh	r2, [r6, #2280]
	ldr	r1, .L269+148
	mov	r0, r5
	bl	sprintf
.LVL243:
	add	r5, r5, r0
	.loc 3 53 0
	ldrb	r2, [r6, #2288]	@ zero_extendqisi2
	ldr	r1, .L269+152
	mov	r0, r5
	bl	sprintf
.LVL244:
	add	r5, r5, r0
	.loc 3 54 0
	ldrh	r2, [r6, #2284]
	ldr	r1, .L269+156
	mov	r0, r5
	bl	sprintf
.LVL245:
	.loc 3 55 0
	ldr	r3, [r6, #2260]
	.loc 3 54 0
	add	r5, r5, r0
	.loc 3 55 0
	ldrh	r2, [r6, #2280]
	mov	r0, r5
	ldr	r1, .L269+160
	ldrh	r2, [r3, r2, lsl #1]
	bl	sprintf
.LVL246:
	add	r5, r5, r0
	.loc 3 56 0
	ldrh	r2, [r6, #2330]
	ldr	r1, .L269+164
	mov	r0, r5
	bl	sprintf
.LVL247:
	add	r5, r5, r0
	.loc 3 57 0
	ldrb	r2, [r6, #2334]	@ zero_extendqisi2
	ldr	r1, .L269+168
	mov	r0, r5
	bl	sprintf
.LVL248:
	add	r5, r5, r0
	.loc 3 58 0
	ldrh	r2, [r6, #2328]
	ldr	r1, .L269+172
	mov	r0, r5
	bl	sprintf
.LVL249:
	add	r5, r5, r0
	.loc 3 59 0
	ldrb	r2, [r6, #2336]	@ zero_extendqisi2
	ldr	r1, .L269+176
	mov	r0, r5
	bl	sprintf
.LVL250:
	add	r5, r5, r0
	.loc 3 60 0
	ldrh	r2, [r6, #2332]
	ldr	r1, .L269+180
	mov	r0, r5
	bl	sprintf
.LVL251:
	.loc 3 61 0
	ldr	r3, [r6, #2260]
	.loc 3 60 0
	add	r5, r5, r0
	.loc 3 61 0
	ldrh	r2, [r6, #2328]
	mov	r0, r5
	ldr	r1, .L269+184
	ldrh	r2, [r3, r2, lsl #1]
	bl	sprintf
.LVL252:
	add	r5, r5, r0
	.loc 3 62 0
	ldrh	r2, [r6, #2378]
	ldr	r1, .L269+188
	mov	r0, r5
	bl	sprintf
.LVL253:
	add	r5, r5, r0
	.loc 3 63 0
	ldrb	r2, [r6, #2382]	@ zero_extendqisi2
	ldr	r1, .L269+192
	mov	r0, r5
	bl	sprintf
.LVL254:
	add	r5, r5, r0
	.loc 3 64 0
	ldrh	r2, [r6, #2376]
	ldr	r1, .L269+196
	mov	r0, r5
	bl	sprintf
.LVL255:
	add	r5, r5, r0
	.loc 3 65 0
	ldrb	r2, [r6, #2384]	@ zero_extendqisi2
	ldr	r1, .L269+200
	mov	r0, r5
	bl	sprintf
.LVL256:
	add	r5, r5, r0
	.loc 3 66 0
	ldrh	r2, [r6, #2380]
	ldr	r1, .L269+204
	mov	r0, r5
	bl	sprintf
.LVL257:
	add	r5, r5, r0
	.loc 3 67 0
	ldrh	r2, [r6, #2570]
	ldr	r1, .L269+208
	mov	r0, r5
	bl	sprintf
.LVL258:
	add	r5, r5, r0
	.loc 3 68 0
	ldrb	r2, [r6, #2574]	@ zero_extendqisi2
	ldr	r1, .L269+212
	mov	r0, r5
	bl	sprintf
.LVL259:
	add	r5, r5, r0
	.loc 3 69 0
	ldrh	r2, [r6, #2568]
	ldr	r1, .L269+216
	mov	r0, r5
	bl	sprintf
.LVL260:
	add	r5, r5, r0
	.loc 3 70 0
	ldrb	r2, [r6, #2576]	@ zero_extendqisi2
	ldr	r1, .L269+220
	mov	r0, r5
	bl	sprintf
.LVL261:
	add	r5, r5, r0
	.loc 3 71 0
	ldrh	r2, [r6, #2572]
	ldr	r1, .L269+224
	mov	r0, r5
	bl	sprintf
.LVL262:
	.loc 3 72 0
	ldr	r3, [r6, #2692]
	.loc 3 71 0
	add	r5, r5, r0
	.loc 3 72 0
	ldr	r2, [r6, #2696]
	mov	r0, r5
	ldr	r1, .L269+228
	str	r3, [sp]
	ldr	r3, [r6, #2700]
	bl	sprintf
.LVL263:
	adds	r4, r5, r0
	.loc 3 73 0
	ldr	r2, [r6, #2688]
	ldr	r1, .L269+232
	mov	r0, r4
	bl	sprintf
.LVL264:
	add	r4, r4, r0
	.loc 3 74 0
	ldr	r2, [r6, #2712]
	ldr	r1, .L269+236
	mov	r0, r4
	bl	sprintf
.LVL265:
	add	r4, r4, r0
	.loc 3 75 0
	ldrh	r2, [r6, #3128]
	ldr	r1, .L269+240
	mov	r0, r4
	bl	sprintf
.LVL266:
	add	r4, r4, r0
	.loc 3 76 0
	ldrh	r2, [r6, #3130]
	ldr	r1, .L269+244
	mov	r0, r4
	bl	sprintf
.LVL267:
	add	r4, r4, r0
	.loc 3 77 0
	ldr	r2, [r6, #3132]
	b	.L270
.L271:
	.align	2
.L269:
	.word	.LANCHOR0
	.word	.LC2
	.word	.LC3
	.word	.LC4
	.word	.LC5
	.word	.LC6
	.word	.LC7
	.word	.LC8
	.word	.LC9
	.word	.LC10
	.word	.LC11
	.word	.LC12
	.word	.LC13
	.word	.LC14
	.word	.LC15
	.word	.LC16
	.word	.LC17
	.word	.LC18
	.word	.LC19
	.word	.LC20
	.word	.LC21
	.word	.LC22
	.word	.LC23
	.word	.LC24
	.word	.LC25
	.word	.LC26
	.word	.LC27
	.word	.LC28
	.word	.LC29
	.word	.LC30
	.word	.LC31
	.word	.LC32
	.word	.LC33
	.word	.LC34
	.word	.LC35
	.word	.LC36
	.word	.LC37
	.word	.LC38
	.word	.LC39
	.word	.LC40
	.word	.LC41
	.word	.LC42
	.word	.LC43
	.word	.LC44
	.word	.LC45
	.word	.LC46
	.word	.LC47
	.word	.LC48
	.word	.LC49
	.word	.LC50
	.word	.LC51
	.word	.LC52
	.word	.LC53
	.word	.LC54
	.word	.LC55
	.word	.LC56
	.word	.LC57
	.word	.LC58
	.word	.LC59
	.word	.LC60
	.word	.LC61
	.word	.LC62
.L270:
	ldr	r1, .L272
	mov	r0, r4
	bl	sprintf
.LVL268:
	add	r4, r4, r0
	.loc 3 78 0
	ldrh	r2, [r6, #3136]
	ldr	r1, .L272+4
	mov	r0, r4
	bl	sprintf
.LVL269:
	add	r4, r4, r0
	.loc 3 79 0
	bl	GetFreeBlockMinEraseCount
.LVL270:
	ldr	r1, .L272+8
	mov	r2, r0
	mov	r0, r4
	bl	sprintf
.LVL271:
	add	r4, r4, r0
	.loc 3 80 0
	ldrh	r0, [r6, #2276]
	bl	GetFreeBlockMaxEraseCount
.LVL272:
	ldr	r1, .L272+12
	mov	r2, r0
	mov	r0, r4
	bl	sprintf
.LVL273:
	.loc 3 81 0
	ldr	r3, .L272+16
	.loc 3 80 0
	add	r4, r4, r0
	.loc 3 81 0
	ldr	r3, [r3]
	cmp	r3, #1
	beq	.L258
.LVL274:
.L263:
	.loc 3 104 0
	subs	r0, r4, r7
	.loc 3 105 0
	add	sp, sp, #20
.LCFI36:
	@ sp needed
	pop	{r4, r5, r6, r7, r8, r9, r10, fp, pc}
.LVL275:
.L258:
.LCFI37:
	.loc 3 84 0
	ldrh	r3, [r6, #2568]
	movw	r2, #65535
	cmp	r3, r2
	beq	.L260
	.loc 3 85 0
	ldr	r2, [r6, #2260]
	mov	r0, r4
	ldr	r1, .L272+20
	ldrh	r2, [r2, r3, lsl #1]
	bl	sprintf
.LVL276:
	add	r4, r4, r0
.L260:
.LBB284:
	.loc 3 87 0
	movs	r0, #0
	.loc 3 91 0
	ldr	r9, .L272+28
	.loc 3 87 0
	bl	List_get_gc_head_node
.LVL277:
	uxth	r3, r0
.LVL278:
	.loc 3 88 0
	movs	r5, #0
	.loc 3 89 0
	movw	fp, #65535
	.loc 3 91 0
	mov	r10, #6
.L262:
	.loc 3 89 0
	cmp	r3, fp
	beq	.L261
	.loc 3 91 0 discriminator 2
	ldr	r2, [r6, #2248]
	mul	r8, r10, r3
	mov	r0, r4
	mov	r1, r9
	ldrh	r2, [r2, r3, lsl #1]
	str	r2, [sp, #8]
	ldr	r2, [r6, #2252]
	add	r2, r2, r8
	ldrh	r2, [r2, #4]
	str	r2, [sp, #4]
	ldr	r2, [r6, #2260]
	ldrh	r2, [r2, r3, lsl #1]
	str	r2, [sp]
	mov	r2, r5
	bl	sprintf
.LVL279:
	.loc 3 88 0 discriminator 2
	adds	r5, r5, #1
	.loc 3 92 0 discriminator 2
	ldr	r3, [r6, #2252]
	.loc 3 88 0 discriminator 2
	cmp	r5, #16
	.loc 3 91 0 discriminator 2
	add	r4, r4, r0
	.loc 3 92 0 discriminator 2
	ldrh	r3, [r3, r8]
.LVL280:
	.loc 3 88 0 discriminator 2
	bne	.L262
.L261:
.LBE284:
.LBB285:
	.loc 3 96 0
	ldr	r2, [r6, #2252]
	.loc 3 97 0
	movs	r5, #0
	.loc 3 96 0
	ldr	r3, [r6, #2272]
.LVL281:
	.loc 3 98 0
	movw	r9, #65535
	.loc 3 100 0
	ldr	fp, .L272+32
	mov	r10, #6
	.loc 3 96 0
	subs	r3, r3, r2
	asrs	r2, r3, #1
	ldr	r3, .L272+24
	muls	r3, r2, r3
	uxth	r3, r3
.LVL282:
.L264:
	.loc 3 98 0
	cmp	r3, r9
	beq	.L263
	.loc 3 100 0 discriminator 2
	ldr	r2, [r6, #2248]
	mul	r8, r10, r3
	mov	r0, r4
	mov	r1, fp
	ldrh	r2, [r2, r3, lsl #1]
	str	r2, [sp, #4]
	ldr	r2, [r6, #2252]
	add	r2, r2, r8
	ldrh	r2, [r2, #4]
	str	r2, [sp]
	mov	r2, r5
	.loc 3 97 0 discriminator 2
	adds	r5, r5, #1
	.loc 3 100 0 discriminator 2
	bl	sprintf
.LVL283:
	.loc 3 97 0 discriminator 2
	cmp	r5, #4
	.loc 3 100 0 discriminator 2
	add	r4, r4, r0
	.loc 3 97 0 discriminator 2
	beq	.L263
	.loc 3 101 0
	ldr	r3, [r6, #2252]
	ldrh	r3, [r3, r8]
.LVL284:
	b	.L264
.L273:
	.align	2
.L272:
	.word	.LC63
	.word	.LC64
	.word	.LC65
	.word	.LC66
	.word	.LANCHOR2
	.word	.LC67
	.word	-1431655765
	.word	.LC68
	.word	.LC69
.LBE285:
.LFE150:
	.fnend
	.size	FtlPrintInfo2buf, .-FtlPrintInfo2buf
	.align	1
	.global	rknand_proc_ftlread
	.syntax unified
	.thumb
	.thumb_func
	.fpu softvfp
	.type	rknand_proc_ftlread, %function
rknand_proc_ftlread:
	.fnstart
.LFB151:
	.loc 3 114 0
	@ args = 0, pretend = 0, frame = 0
	@ frame_needed = 0, uses_anonymous_args = 0
.LVL285:
	push	{r3, r4, r5, lr}
	.save {r3, r4, r5, lr}
.LCFI38:
	.loc 3 114 0
	mov	r5, r0
	.loc 3 120 0
	ldr	r2, .L275
	ldr	r1, .L275+4
	bl	sprintf
.LVL286:
	adds	r4, r5, r0
	.loc 3 122 0
	mov	r0, r4
	bl	FtlPrintInfo2buf
.LVL287:
	add	r0, r0, r4
	.loc 3 124 0
	subs	r0, r0, r5
	pop	{r3, r4, r5, pc}
.LVL288:
.L276:
	.align	2
.L275:
	.word	.LC70
	.word	.LC71
.LFE151:
	.fnend
	.size	rknand_proc_ftlread, .-rknand_proc_ftlread
	.align	1
	.global	GetSwlReplaceBlock
	.syntax unified
	.thumb
	.thumb_func
	.fpu softvfp
	.type	GetSwlReplaceBlock, %function
GetSwlReplaceBlock:
	.fnstart
.LFB246:
	.loc 2 2447 0
	@ args = 0, pretend = 0, frame = 0
	@ frame_needed = 0, uses_anonymous_args = 0
	push	{r4, r5, r6, r7, r8, r9, r10, fp, lr}
	.save {r4, r5, r6, r7, r8, r9, r10, fp, lr}
.LCFI39:
	.pad #20
	sub	sp, sp, #20
.LCFI40:
	.loc 2 2456 0
	ldr	r4, .L302
	ldr	r2, [r4, #2488]
	ldr	r3, [r4, #2500]
	cmp	r2, r3
	bcs	.L278
	.loc 2 2459 0
	ldrh	r1, [r4, #16]
	.loc 2 2458 0
	movs	r3, #0
	.loc 2 2460 0
	ldr	r0, [r4, #2248]
	.loc 2 2458 0
	str	r3, [r4, #2480]
.L279:
	.loc 2 2459 0 discriminator 1
	cmp	r3, r1
	bcc	.L280
	.loc 2 2461 0
	ldr	r5, [r4, #2480]
	mov	r0, r5
	bl	__aeabi_uidiv
.LVL289:
	str	r0, [r4, #2488]
	.loc 2 2462 0
	ldr	r0, [r4, #2484]
	ldrh	r1, [r4, #68]
	subs	r0, r5, r0
	bl	__aeabi_uidiv
.LVL290:
	str	r0, [r4, #2480]
.L281:
	.loc 2 2468 0
	ldr	r6, [r4, #2500]
	ldr	r7, [r4, #2488]
	add	r3, r6, #256
	cmp	r3, r7
	bls	.L286
	.loc 2 2468 0 is_stmt 0 discriminator 1
	ldr	r2, [r4, #2496]
	add	r3, r6, #768
	cmp	r3, r2
	bls	.L286
.LVL291:
.L289:
	.loc 2 2469 0 is_stmt 1
	movw	r5, #65535
.L287:
	.loc 2 2518 0
	mov	r0, r5
	add	sp, sp, #20
.LCFI41:
	@ sp needed
	pop	{r4, r5, r6, r7, r8, r9, r10, fp, pc}
.LVL292:
.L280:
.LCFI42:
	.loc 2 2460 0 discriminator 3
	ldrh	r2, [r0, r3, lsl #1]
	.loc 2 2459 0 discriminator 3
	adds	r3, r3, #1
	.loc 2 2460 0 discriminator 3
	ldr	r5, [r4, #2480]
	add	r2, r2, r5
	str	r2, [r4, #2480]
	b	.L279
.L278:
	.loc 2 2463 0
	ldr	r3, [r4, #2496]
	cmp	r2, r3
	bls	.L281
	.loc 2 2464 0
	adds	r3, r3, #1
	str	r3, [r4, #2496]
	.loc 2 2465 0
	movs	r3, #0
.L283:
	.loc 2 2465 0 is_stmt 0 discriminator 1
	ldrh	r2, [r4, #16]
	cmp	r3, r2
	bcs	.L281
	.loc 2 2466 0 is_stmt 1 discriminator 3
	ldr	r1, [r4, #2248]
	ldrh	r2, [r1, r3, lsl #1]
	adds	r2, r2, #1
	strh	r2, [r1, r3, lsl #1]	@ movhi
	.loc 2 2465 0 discriminator 3
	adds	r3, r3, #1
	b	.L283
.L286:
	.loc 2 2471 0
	ldrh	r0, [r4, #2276]
	add	r0, r0, r0, lsl #1
	ubfx	r0, r0, #2, #16
	bl	GetFreeBlockMaxEraseCount
.LVL293:
	.loc 2 2472 0
	add	r3, r6, #64
	.loc 2 2471 0
	mov	r9, r0
.LVL294:
	.loc 2 2472 0
	cmp	r0, r3
	bcs	.L288
	.loc 2 2472 0 is_stmt 0 discriminator 1
	cmp	r6, #30
	bhi	.L289
.L288:
	.loc 2 2476 0 is_stmt 1
	ldr	r3, [r4, #2256]
.LVL295:
	cmp	r3, #0
	beq	.L289
	.loc 2 2483 0
	ldr	ip, [r4, #2252]
	.loc 2 2484 0
	movw	r1, #65535
.LVL296:
	ldr	r8, [r4, #2248]
	mov	r2, r1
	.loc 2 2483 0
	ldr	r10, .L302+8
	.loc 2 2479 0
	mov	lr, r1
	.loc 2 2495 0
	mov	fp, #6
.L290:
	.loc 2 2479 0
	ldrh	r0, [r3]
	cmp	r0, lr
	bne	.L293
	mov	r5, r2
.L292:
	.loc 2 2498 0
	movw	r3, #65535
.LVL297:
	cmp	r5, r3
	beq	.L289
	.loc 2 2500 0
	ldrh	r10, [r8, r5, lsl #1]
.LVL298:
	lsl	fp, r5, #1
	.loc 2 2501 0
	cmp	r6, r10
	bcs	.L294
	.loc 2 2503 0
	bl	GetFreeBlockMinEraseCount
.LVL299:
	cmp	r6, r0
	.loc 2 2504 0
	it	cc
	strcc	r1, [r4, #2500]
.L294:
	.loc 2 2506 0
	cmp	r7, r10
	bls	.L289
	.loc 2 2506 0 is_stmt 0 discriminator 1
	add	r3, r10, #128
	cmp	r9, r3
	ble	.L289
	.loc 2 2508 0 is_stmt 1
	add	r3, r10, #256
	cmp	r7, r3
	bhi	.L295
	.loc 2 2508 0 is_stmt 0 discriminator 1
	ldr	r3, [r4, #2496]
	add	r10, r10, #768
.LVL300:
	cmp	r10, r3
	bcs	.L289
.LVL301:
.L295:
	.loc 2 2510 0 is_stmt 1
	str	r9, [sp, #8]
	mov	r2, r7
	ldrh	r3, [r8, fp]
	mov	r1, r5
.LVL302:
	ldr	r0, .L302+4
	str	r3, [sp, #4]
	ldr	r3, [r4, #2260]
	ldrh	r3, [r3, fp]
	str	r3, [sp]
	ldr	r3, [r4, #2496]
	bl	printk
.LVL303:
	.loc 2 2511 0
	movs	r3, #1
	str	r3, [r4, #3140]
	.loc 2 2512 0
	b	.L287
.LVL304:
.L293:
	.loc 2 2481 0
	ldrh	r5, [r3, #4]
	cbz	r5, .L291
	.loc 2 2483 0
	sub	r3, r3, ip
.LVL305:
	asrs	r3, r3, #1
	mul	r3, r10, r3
	uxth	r5, r3
	.loc 2 2484 0
	ldrh	r3, [r8, r5, lsl #1]
	cmp	r6, r3
	bcs	.L292
	.loc 2 2489 0
	cmp	r1, r3
	itt	hi
	movhi	r1, r3
	.loc 2 2483 0
	movhi	r2, r5
.LVL306:
.L291:
	.loc 2 2495 0
	mla	r3, fp, r0, ip
	b	.L290
.L303:
	.align	2
.L302:
	.word	.LANCHOR0
	.word	.LC72
	.word	-1431655765
.LFE246:
	.fnend
	.size	GetSwlReplaceBlock, .-GetSwlReplaceBlock
	.align	1
	.global	free_data_superblock
	.syntax unified
	.thumb
	.thumb_func
	.fpu softvfp
	.type	free_data_superblock, %function
free_data_superblock:
	.fnstart
.LFB247:
	.loc 2 2522 0
	@ args = 0, pretend = 0, frame = 0
	@ frame_needed = 0, uses_anonymous_args = 0
.LVL307:
	.loc 2 2523 0
	movw	r2, #65535
	.loc 2 2522 0
	push	{r3, lr}
	.save {r3, lr}
.LCFI43:
	.loc 2 2523 0
	cmp	r0, r2
	beq	.L305
.LBB288:
.LBB289:
	.loc 2 2525 0
	ldr	r2, .L306
	movs	r1, #0
	ldr	r2, [r2, #2260]
	strh	r1, [r2, r0, lsl #1]	@ movhi
	.loc 2 2526 0
	bl	INSERT_FREE_LIST
.LVL308:
.L305:
.LBE289:
.LBE288:
	.loc 2 2528 0
	movs	r0, #0
.LVL309:
	pop	{r3, pc}
.L307:
	.align	2
.L306:
	.word	.LANCHOR0
.LFE247:
	.fnend
	.size	free_data_superblock, .-free_data_superblock
	.align	1
	.global	get_new_active_ppa
	.syntax unified
	.thumb
	.thumb_func
	.fpu softvfp
	.type	get_new_active_ppa, %function
get_new_active_ppa:
	.fnstart
.LFB250:
	.loc 2 2655 0
	@ args = 0, pretend = 0, frame = 0
	@ frame_needed = 0, uses_anonymous_args = 0
.LVL310:
	push	{r3, r4, r5, r6, r7, lr}
	.save {r3, r4, r5, r6, r7, lr}
.LCFI44:
	.loc 2 2659 0
	movw	r3, #65535
	ldrh	r2, [r0]
	.loc 2 2655 0
	mov	r4, r0
	.loc 2 2659 0
	cmp	r2, r3
	bne	.L309
	.loc 2 2659 0 is_stmt 0 discriminator 1
	movw	r2, #2659
	ldr	r1, .L322
	ldr	r0, .L322+4
	bl	printk
.LVL311:
.L309:
	.loc 2 2660 0 is_stmt 1
	ldr	r5, .L322+8
	ldrh	r2, [r4, #2]
	ldrh	r3, [r5, #78]
	cmp	r2, r3
	bne	.L310
	.loc 2 2660 0 is_stmt 0 discriminator 1
	movw	r2, #2660
	ldr	r1, .L322
	ldr	r0, .L322+4
	bl	printk
.LVL312:
.L310:
	.loc 2 2661 0 is_stmt 1
	ldrh	r3, [r4, #4]
	cbnz	r3, .L311
	.loc 2 2661 0 is_stmt 0 discriminator 1
	movw	r2, #2661
	ldr	r1, .L322
	ldr	r0, .L322+4
	bl	printk
.LVL313:
.L311:
	.loc 2 2663 0 is_stmt 1
	ldrb	r2, [r4, #6]	@ zero_extendqisi2
	.loc 2 2662 0
	movs	r3, #0
	.loc 2 2666 0
	ldrh	r1, [r5, #8]
	.loc 2 2664 0
	movw	r6, #65535
	.loc 2 2662 0
	strb	r3, [r4, #10]
	.loc 2 2663 0
	adds	r2, r2, #8
	ldrh	r0, [r4, r2, lsl #1]
.LVL314:
	.loc 2 2668 0
	mov	r2, r3
.L312:
	.loc 2 2664 0
	cmp	r0, r6
	ldrb	r3, [r4, #6]	@ zero_extendqisi2
	beq	.L314
	.loc 2 2673 0
	ldrh	r2, [r4, #4]
	.loc 2 2672 0
	ldrh	r6, [r4, #2]
	.loc 2 2673 0
	subs	r2, r2, #1
	uxth	r2, r2
	.loc 2 2672 0
	orr	r6, r6, r0, lsl #10
	.loc 2 2680 0
	movw	r0, #65535
.LVL315:
	.loc 2 2673 0
	strh	r2, [r4, #4]	@ movhi
.L316:
	.loc 2 2675 0
	adds	r3, r3, #1
	uxtb	r3, r3
	.loc 2 2676 0
	cmp	r1, r3
	.loc 2 2677 0
	itttt	eq
	ldrheq	r3, [r4, #2]
	addeq	r3, r3, #1
	strheq	r3, [r4, #2]	@ movhi
	.loc 2 2678 0
	moveq	r3, #0
	.loc 2 2680 0
	add	r7, r3, #8
	ldrh	r7, [r4, r7, lsl #1]
	cmp	r7, r0
	beq	.L316
	strb	r3, [r4, #6]
	.loc 2 2682 0
	ldrh	r1, [r4, #2]
	ldrh	r3, [r5, #78]
	cmp	r1, r3
	bne	.L308
	.loc 2 2682 0 is_stmt 0 discriminator 1
	cbz	r2, .L308
	.loc 2 2682 0 discriminator 2
	movw	r2, #2682
	ldr	r1, .L322
	ldr	r0, .L322+4
	bl	printk
.LVL316:
.L308:
	.loc 2 2684 0 is_stmt 1
	mov	r0, r6
	pop	{r3, r4, r5, r6, r7, pc}
.LVL317:
.L314:
	.loc 2 2665 0
	adds	r3, r3, #1
	uxtb	r3, r3
	.loc 2 2666 0
	cmp	r3, r1
	.loc 2 2665 0
	strb	r3, [r4, #6]
	.loc 2 2667 0
	itttt	eq
	ldrheq	r3, [r4, #2]
	.loc 2 2668 0
	strbeq	r2, [r4, #6]
	.loc 2 2667 0
	addeq	r3, r3, #1
	strheq	r3, [r4, #2]	@ movhi
	.loc 2 2670 0
	ldrb	r3, [r4, #6]	@ zero_extendqisi2
	adds	r3, r3, #8
	ldrh	r0, [r4, r3, lsl #1]
	b	.L312
.L323:
	.align	2
.L322:
	.word	.LANCHOR1+137
	.word	.LC1
	.word	.LANCHOR0
.LFE250:
	.fnend
	.size	get_new_active_ppa, .-get_new_active_ppa
	.align	1
	.global	FtlGcBufInit
	.syntax unified
	.thumb
	.thumb_func
	.fpu softvfp
	.type	FtlGcBufInit, %function
FtlGcBufInit:
	.fnstart
.LFB253:
	.file 5 "drivers/rkflash/rksftl/sftl_gc.c"
	.loc 5 22 0
	@ args = 0, pretend = 0, frame = 0
	@ frame_needed = 0, uses_anonymous_args = 0
	.loc 5 25 0
	ldr	r3, .L333
	.loc 5 30 0
	mov	ip, #20
	.loc 5 22 0
	push	{r4, r5, r6, r7, r8, r9, lr}
	.save {r4, r5, r6, r7, r8, r9, lr}
.LCFI45:
	.loc 5 27 0
	mov	r9, #12
	movs	r6, #1
	.loc 5 25 0
	movs	r2, #0
	.loc 5 29 0
	mov	r7, r3
	.loc 5 25 0
	str	r2, [r3, #3144]
.L325:
	.loc 5 26 0 discriminator 1
	ldrh	r1, [r3, #8]
	uxth	r0, r2
	adds	r4, r2, #1
	cmp	r0, r1
	bcc	.L328
	.loc 5 37 0 discriminator 1
	ldr	r7, .L333
	.loc 5 35 0 discriminator 1
	mov	ip, #12
	movs	r6, #0
.L329:
	.loc 5 34 0 discriminator 1
	ldr	r2, [r3, #3164]
	cmp	r1, r2
	bcc	.L332
	.loc 5 39 0
	pop	{r4, r5, r6, r7, r8, r9, pc}
.L328:
	uxth	r2, r2
	.loc 5 27 0 discriminator 3
	ldr	r8, [r3, #3148]
	mul	lr, r9, r2
	add	r1, r8, lr
	str	r6, [r1, #8]
	.loc 5 28 0 discriminator 3
	ldrh	r1, [r3, #86]
	muls	r1, r2, r1
	it	mi
	addmi	r1, r1, #3
	bic	r0, r1, #3
	ldr	r1, [r3, #3152]
	add	r1, r1, r0
	str	r1, [r8, lr]
	.loc 5 29 0 discriminator 3
	ldr	r5, [r7, #3156]
	ldr	r0, [r3, #3148]
	ldrh	r1, [r3, #88]
	muls	r1, r2, r1
	it	mi
	addmi	r1, r1, #3
	bic	r1, r1, #3
	add	r8, r0, lr
	add	r1, r1, r5
	str	r1, [r8, #4]
	.loc 5 30 0 discriminator 3
	ldr	r1, [r3, #3160]
	mla	r2, ip, r2, r1
	ldr	r1, [r0, lr]
	str	r1, [r2, #8]
	.loc 5 31 0 discriminator 3
	ldr	r1, [r8, #4]
	str	r1, [r2, #12]
	mov	r2, r4
	b	.L325
.L332:
	.loc 5 35 0 discriminator 3
	mul	r0, ip, r1
	ldr	r4, [r3, #3148]
	.loc 5 36 0 discriminator 3
	ldr	r5, [r3, #3152]
	.loc 5 35 0 discriminator 3
	adds	r2, r4, r0
	str	r6, [r2, #8]
	.loc 5 36 0 discriminator 3
	ldrh	r2, [r3, #86]
	muls	r2, r1, r2
	it	mi
	addmi	r2, r2, #3
	bic	r2, r2, #3
	add	r2, r2, r5
	str	r2, [r4, r0]
	.loc 5 37 0 discriminator 3
	ldr	r2, [r3, #3148]
	ldr	r4, [r7, #3156]
	add	r0, r0, r2
	ldrh	r2, [r3, #88]
	muls	r2, r1, r2
	it	mi
	addmi	r2, r2, #3
	bic	r2, r2, #3
	.loc 5 34 0 discriminator 3
	adds	r1, r1, #1
	.loc 5 37 0 discriminator 3
	add	r2, r2, r4
	.loc 5 34 0 discriminator 3
	uxth	r1, r1
	.loc 5 37 0 discriminator 3
	str	r2, [r0, #4]
	b	.L329
.L334:
	.align	2
.L333:
	.word	.LANCHOR0
.LFE253:
	.fnend
	.size	FtlGcBufInit, .-FtlGcBufInit
	.align	1
	.global	FtlGcBufFree
	.syntax unified
	.thumb
	.thumb_func
	.fpu softvfp
	.type	FtlGcBufFree, %function
FtlGcBufFree:
	.fnstart
.LFB254:
	.loc 5 42 0
	@ args = 0, pretend = 0, frame = 0
	@ frame_needed = 0, uses_anonymous_args = 0
.LVL318:
	.loc 5 47 0
	ldr	r3, .L342
	.loc 5 42 0
	push	{r4, r5, r6, r7, r8, r9, r10, lr}
	.save {r4, r5, r6, r7, r8, r9, r10, lr}
.LCFI46:
	.loc 5 46 0
	movs	r5, #0
	.loc 5 48 0
	mov	r10, #20
	mov	lr, #12
	.loc 5 49 0
	mov	r8, r5
	.loc 5 47 0
	ldr	ip, [r3, #3164]
	.loc 5 48 0
	ldr	r6, [r3, #3148]
.L336:
	uxth	r3, r5
	.loc 5 46 0 discriminator 1
	cmp	r1, r3
	bls	.L335
	.loc 5 48 0
	mla	r4, r10, r3, r0
	movs	r2, #0
.L337:
	uxth	r3, r2
	.loc 5 47 0 discriminator 1
	cmp	ip, r3
	bls	.L338
	.loc 5 48 0
	mul	r3, lr, r3
	ldr	r7, [r4, #8]
	adds	r2, r2, #1
	add	r9, r6, r3
	ldr	r3, [r6, r3]
	cmp	r3, r7
	bne	.L337
	.loc 5 49 0
	str	r8, [r9, #8]
.L338:
	adds	r5, r5, #1
	b	.L336
.L335:
	pop	{r4, r5, r6, r7, r8, r9, r10, pc}
.L343:
	.align	2
.L342:
	.word	.LANCHOR0
.LFE254:
	.fnend
	.size	FtlGcBufFree, .-FtlGcBufFree
	.align	1
	.global	FtlGcBufAlloc
	.syntax unified
	.thumb
	.thumb_func
	.fpu softvfp
	.type	FtlGcBufAlloc, %function
FtlGcBufAlloc:
	.fnstart
.LFB255:
	.loc 5 57 0
	@ args = 0, pretend = 0, frame = 0
	@ frame_needed = 0, uses_anonymous_args = 0
.LVL319:
	.loc 5 62 0
	ldr	r3, .L351
	.loc 5 63 0
	mov	ip, #12
	.loc 5 57 0
	push	{r4, r5, r6, r7, r8, r9, lr}
	.save {r4, r5, r6, r7, r8, r9, lr}
.LCFI47:
	.loc 5 61 0
	movs	r4, #0
	.loc 5 64 0
	mov	lr, #1
	.loc 5 65 0
	mov	r8, #20
	.loc 5 62 0
	ldr	r5, [r3, #3164]
	.loc 5 63 0
	ldr	r6, [r3, #3148]
.L345:
	uxth	r2, r4
	.loc 5 61 0 discriminator 1
	cmp	r1, r2
	bhi	.L349
	.loc 5 71 0
	pop	{r4, r5, r6, r7, r8, r9, pc}
.L349:
	mov	r9, #0
.L346:
	uxth	r3, r9
	.loc 5 62 0 discriminator 1
	cmp	r5, r3
	bls	.L347
	.loc 5 63 0
	mla	r3, ip, r3, r6
	add	r9, r9, #1
	ldr	r7, [r3, #8]
	cmp	r7, #0
	bne	.L346
	.loc 5 65 0
	mla	r2, r8, r2, r0
	ldr	r7, [r3]
	.loc 5 64 0
	str	lr, [r3, #8]
	.loc 5 65 0
	str	r7, [r2, #8]
	.loc 5 66 0
	ldr	r3, [r3, #4]
	str	r3, [r2, #12]
.L347:
	adds	r4, r4, #1
	b	.L345
.L352:
	.align	2
.L351:
	.word	.LANCHOR0
.LFE255:
	.fnend
	.size	FtlGcBufAlloc, .-FtlGcBufAlloc
	.align	1
	.global	IsBlkInGcList
	.syntax unified
	.thumb
	.thumb_func
	.fpu softvfp
	.type	IsBlkInGcList, %function
IsBlkInGcList:
	.fnstart
.LFB256:
	.loc 5 74 0
	@ args = 0, pretend = 0, frame = 0
	@ frame_needed = 0, uses_anonymous_args = 0
	@ link register save eliminated.
.LVL320:
	.loc 5 78 0
	ldr	r2, .L358
	ldr	r3, [r2, #3168]
	ldrh	r2, [r2, #3172]
	add	r2, r3, r2, lsl #1
.L354:
	.loc 5 77 0 discriminator 1
	cmp	r3, r2
	bne	.L356
	.loc 5 81 0
	movs	r0, #0
.LVL321:
	bx	lr
.LVL322:
.L356:
	.loc 5 78 0
	ldrh	r1, [r3], #2
	cmp	r1, r0
	bne	.L354
	.loc 5 79 0
	movs	r0, #1
.LVL323:
	.loc 5 82 0
	bx	lr
.L359:
	.align	2
.L358:
	.word	.LANCHOR0
.LFE256:
	.fnend
	.size	IsBlkInGcList, .-IsBlkInGcList
	.align	1
	.global	FtlGcUpdatePage
	.syntax unified
	.thumb
	.thumb_func
	.fpu softvfp
	.type	FtlGcUpdatePage, %function
FtlGcUpdatePage:
	.fnstart
.LFB257:
	.loc 5 85 0
	@ args = 0, pretend = 0, frame = 0
	@ frame_needed = 0, uses_anonymous_args = 0
.LVL324:
	push	{r3, r4, r5, r6, r7, lr}
	.save {r3, r4, r5, r6, r7, lr}
.LCFI48:
	.loc 5 85 0
	mov	r5, r0
	.loc 5 88 0
	ubfx	r0, r0, #10, #16
.LVL325:
	.loc 5 85 0
	mov	r6, r1
	mov	r7, r2
	.loc 5 91 0
	movs	r4, #0
	.loc 5 88 0
	bl	P2V_block_in_plane
.LVL326:
	.loc 5 91 0
	ldr	r3, .L364
	ldrh	r1, [r3, #3172]
	.loc 5 92 0
	ldr	r2, [r3, #3168]
.LVL327:
.L361:
	uxth	ip, r4
.LVL328:
	.loc 5 91 0 discriminator 1
	cmp	ip, r1
	bcc	.L363
	.loc 5 96 0
	bne	.L362
	.loc 5 97 0
	strh	r0, [r2, ip, lsl #1]	@ movhi
.LVL329:
	.loc 5 98 0
	ldrh	r0, [r3, #3172]
.LVL330:
	adds	r0, r0, #1
	strh	r0, [r3, #3172]	@ movhi
	b	.L362
.LVL331:
.L363:
	adds	r4, r4, #1
	.loc 5 92 0
	add	ip, r2, r4, lsl #1
.LVL332:
	ldrh	ip, [ip, #-2]
	cmp	ip, r0
	bne	.L361
.LVL333:
.L362:
	.loc 5 101 0
	ldrh	r2, [r3, #3180]
	movs	r0, #12
.LVL334:
	muls	r0, r2, r0
	ldr	r2, [r3, #3176]
	adds	r1, r2, r0
	str	r6, [r1, #4]
	.loc 5 102 0
	str	r7, [r1, #8]
	.loc 5 103 0
	str	r5, [r2, r0]
	.loc 5 107 0
	ldrh	r2, [r3, #3180]
	adds	r2, r2, #1
	strh	r2, [r3, #3180]	@ movhi
	pop	{r3, r4, r5, r6, r7, pc}
.LVL335:
.L365:
	.align	2
.L364:
	.word	.LANCHOR0
.LFE257:
	.fnend
	.size	FtlGcUpdatePage, .-FtlGcUpdatePage
	.align	1
	.global	FtlGcRefreshBlock
	.syntax unified
	.thumb
	.thumb_func
	.fpu softvfp
	.type	FtlGcRefreshBlock, %function
FtlGcRefreshBlock:
	.fnstart
.LFB264:
	.loc 5 345 0
	@ args = 0, pretend = 0, frame = 0
	@ frame_needed = 0, uses_anonymous_args = 0
.LVL336:
	push	{r4, lr}
	.save {r4, lr}
.LCFI49:
	.loc 5 347 0
	mov	r1, r0
	.loc 5 345 0
	mov	r4, r0
	.loc 5 347 0
	ldr	r0, .L369
.LVL337:
	bl	printk
.LVL338:
	.loc 5 349 0
	ldr	r3, .L369+4
	ldrh	r0, [r3, #3182]
	cmp	r4, r0
	beq	.L367
	.loc 5 349 0 is_stmt 0 discriminator 1
	ldrh	r1, [r3, #3184]
	cmp	r4, r1
	beq	.L367
	.loc 5 351 0 is_stmt 1
	movw	r2, #65535
	cmp	r0, r2
	bne	.L368
	.loc 5 352 0
	strh	r4, [r3, #3182]	@ movhi
.L367:
	.loc 5 356 0
	movs	r0, #0
	pop	{r4, pc}
.LVL339:
.L368:
	.loc 5 353 0
	cmp	r1, r2
	.loc 5 354 0
	it	eq
	strheq	r4, [r3, #3184]	@ movhi
	b	.L367
.L370:
	.align	2
.L369:
	.word	.LC73
	.word	.LANCHOR0
.LFE264:
	.fnend
	.size	FtlGcRefreshBlock, .-FtlGcRefreshBlock
	.align	1
	.global	FtlGcMarkBadPhyBlk
	.syntax unified
	.thumb
	.thumb_func
	.fpu softvfp
	.type	FtlGcMarkBadPhyBlk, %function
FtlGcMarkBadPhyBlk:
	.fnstart
.LFB265:
	.loc 5 359 0
	@ args = 0, pretend = 0, frame = 0
	@ frame_needed = 0, uses_anonymous_args = 0
.LVL340:
	push	{r4, r5, r6, lr}
	.save {r4, r5, r6, lr}
.LCFI50:
	.loc 5 359 0
	mov	r5, r0
	.loc 5 364 0
	ldr	r4, .L375
	.loc 5 361 0
	bl	P2V_block_in_plane
.LVL341:
	.loc 5 364 0
	mov	r2, r5
	.loc 5 361 0
	mov	r6, r0
	.loc 5 364 0
	ldrh	r1, [r4, #3186]
	ldr	r0, .L375+4
	bl	printk
.LVL342:
	.loc 5 366 0
	mov	r0, r6
	bl	FtlGcRefreshBlock
.LVL343:
	.loc 5 368 0
	ldrh	r3, [r4, #3186]
	movs	r2, #0
	.loc 5 369 0
	addw	r0, r4, #3188
.L372:
	.loc 5 368 0 discriminator 1
	uxth	r1, r2
	cmp	r3, r1
	bhi	.L374
	.loc 5 372 0
	cmp	r3, #15
	.loc 5 373 0
	itttt	ls
	addls	r2, r3, #1
	strhls	r2, [r4, #3186]	@ movhi
	addls	r4, r4, r3, lsl #1
	strhls	r5, [r4, #3188]	@ movhi
	b	.L373
.L374:
	adds	r2, r2, #1
	.loc 5 369 0
	add	r1, r0, r2, lsl #1
	ldrh	r1, [r1, #-2]
	cmp	r1, r5
	bne	.L372
.L373:
	.loc 5 375 0
	movs	r0, #0
	pop	{r4, r5, r6, pc}
.LVL344:
.L376:
	.align	2
.L375:
	.word	.LANCHOR0
	.word	.LC74
.LFE265:
	.fnend
	.size	FtlGcMarkBadPhyBlk, .-FtlGcMarkBadPhyBlk
	.align	1
	.global	FtlGcReFreshBadBlk
	.syntax unified
	.thumb
	.thumb_func
	.fpu softvfp
	.type	FtlGcReFreshBadBlk, %function
FtlGcReFreshBadBlk:
	.fnstart
.LFB266:
	.loc 5 379 0
	@ args = 0, pretend = 0, frame = 0
	@ frame_needed = 0, uses_anonymous_args = 0
	push	{r4, lr}
	.save {r4, lr}
.LCFI51:
	.loc 5 380 0
	ldr	r4, .L383
	ldrh	r3, [r4, #3186]
	cbz	r3, .L378
	.loc 5 380 0 is_stmt 0 discriminator 1
	ldrh	r1, [r4, #3182]
	movw	r2, #65535
	cmp	r1, r2
	bne	.L378
	.loc 5 381 0 is_stmt 1
	ldrh	r2, [r4, #3222]
	cmp	r2, r3
	.loc 5 382 0
	itt	cs
	movcs	r3, #0
	strhcs	r3, [r4, #3222]	@ movhi
.LBB292:
.LBB293:
	.loc 5 383 0
	ldrh	r3, [r4, #3222]
	add	r3, r4, r3, lsl #1
	ldrh	r0, [r3, #3188]
	bl	P2V_block_in_plane
.LVL345:
	bl	FtlGcRefreshBlock
.LVL346:
	.loc 5 384 0
	ldrh	r3, [r4, #3222]
	adds	r3, r3, #1
	strh	r3, [r4, #3222]	@ movhi
.L378:
.LBE293:
.LBE292:
	.loc 5 387 0
	movs	r0, #0
	pop	{r4, pc}
.L384:
	.align	2
.L383:
	.word	.LANCHOR0
.LFE266:
	.fnend
	.size	FtlGcReFreshBadBlk, .-FtlGcReFreshBadBlk
	.align	1
	.global	FlashReadPages
	.syntax unified
	.thumb
	.thumb_func
	.fpu softvfp
	.type	FlashReadPages, %function
FlashReadPages:
	.fnstart
.LFB272:
	.loc 1 44 0
	@ args = 0, pretend = 0, frame = 16
	@ frame_needed = 0, uses_anonymous_args = 0
.LVL347:
	push	{r4, r5, r6, r7, r8, r9, r10, fp, lr}
	.save {r4, r5, r6, r7, r8, r9, r10, fp, lr}
.LCFI52:
	mov	r9, r1
	.loc 1 46 0
	ldr	r5, .L403
	mov	r4, r0
	.loc 1 50 0
	movs	r6, #0
.LVL348:
	.loc 1 44 0
	.pad #20
	sub	sp, sp, #20
.LCFI53:
	.loc 1 51 0
	ldr	r10, .L403+4
	.loc 1 46 0
	ldrh	r7, [r5, #12]
.LVL349:
	.loc 1 51 0
	ldr	fp, .L403+8
	.loc 1 53 0
	ldr	r8, .L403+12
	str	r5, [sp, #4]
.LVL350:
.L386:
	.loc 1 50 0 discriminator 1
	cmp	r6, r9
	bne	.L393
	.loc 1 71 0
	movs	r0, #0
.LVL351:
	add	sp, sp, #20
.LCFI54:
	@ sp needed
	pop	{r4, r5, r6, r7, r8, r9, r10, fp, pc}
.LVL352:
.L393:
.LCFI55:
	.loc 1 51 0
	ldr	r3, [r4, #8]
	cbz	r3, .L387
	.loc 1 51 0 is_stmt 0 discriminator 2
	ldr	r3, [r4, #12]
	cbnz	r3, .L388
.L387:
	.loc 1 51 0 discriminator 3
	movs	r2, #51
.LVL353:
	mov	r1, r10
	mov	r0, fp
.LVL354:
	bl	printk
.LVL355:
.L388:
	.loc 1 52 0 is_stmt 1
	add	r2, sp, #8
.LVL356:
	add	r1, sp, #12
	mov	r0, r4
.LVL357:
	bl	l2p_addr_tran
.LVL358:
	.loc 1 53 0
	ldr	r3, [r4, #12]
	ldr	r2, [r4, #8]
	ldr	r1, [sp, #12]
	ldrb	r0, [sp, #8]	@ zero_extendqisi2
	ldr	r5, [r8, #12]
	blx	r5
.LVL359:
	.loc 1 58 0
	ldr	r3, [sp, #4]
	.loc 1 57 0
	str	r0, [r4]
	.loc 1 58 0
	ldrh	r3, [r3, #14]
	cmp	r3, #4
	bne	.L390
	.loc 1 59 0
	ldr	r3, [r4, #12]
	ldr	r2, [r4, #8]
	ldr	r1, [sp, #12]
	adds	r3, r3, #8
	ldrb	r0, [sp, #8]	@ zero_extendqisi2
	add	r2, r2, #2048
	ldr	r5, [r8, #12]
	add	r1, r1, r7
	blx	r5
.LVL360:
	.loc 1 63 0
	adds	r0, r0, #1
	beq	.L391
	.loc 1 64 0 discriminator 1
	ldr	r3, [r4, #12]
	.loc 1 63 0 discriminator 1
	ldr	r2, [r3, #12]
	adds	r2, r2, #1
	bne	.L390
	.loc 1 64 0
	ldr	r2, [r3, #8]
	adds	r2, r2, #1
	bne	.L390
	.loc 1 65 0
	ldr	r3, [r3]
	adds	r3, r3, #1
	beq	.L390
.L391:
	.loc 1 67 0
	mov	r3, #-1
	str	r3, [r4]
.L390:
	.loc 1 50 0 discriminator 2
	adds	r6, r6, #1
	adds	r4, r4, #20
	b	.L386
.L404:
	.align	2
.L403:
	.word	g_nand_phy_info
	.word	.LANCHOR1+156
	.word	.LC1
	.word	g_nand_ops
.LFE272:
	.fnend
	.size	FlashReadPages, .-FlashReadPages
	.align	1
	.global	FtlLoadFactoryBbt
	.syntax unified
	.thumb
	.thumb_func
	.fpu softvfp
	.type	FtlLoadFactoryBbt, %function
FtlLoadFactoryBbt:
	.fnstart
.LFB180:
	.loc 4 279 0
	@ args = 0, pretend = 0, frame = 0
	@ frame_needed = 0, uses_anonymous_args = 0
	push	{r4, r5, r6, r7, r8, r9, r10, lr}
	.save {r4, r5, r6, r7, r8, r9, r10, lr}
.LCFI56:
	.loc 4 289 0
	movs	r6, #0
.LVL361:
	.loc 4 286 0
	ldr	r4, .L415
	.loc 4 301 0
	movw	r10, #61664
	.loc 4 286 0
	ldr	r3, [r4, #2244]
	add	r7, r4, #138
	.loc 4 287 0
	ldr	r8, [r4, #3244]
	.loc 4 294 0
	addw	r9, r4, #3224
	.loc 4 286 0
	str	r3, [r4, #3232]
	.loc 4 287 0
	str	r8, [r4, #3236]
.LVL362:
.L406:
	.loc 4 289 0 discriminator 1
	ldrh	r3, [r4, #30]
	cmp	r6, r3
	bcc	.L411
	.loc 4 314 0
	movs	r0, #0
	pop	{r4, r5, r6, r7, r8, r9, r10, pc}
.LVL363:
.L411:
	.loc 4 291 0
	ldrh	r5, [r4, #74]
.LVL364:
	.loc 4 290 0
	movw	r3, #65535
	strh	r3, [r7, #2]!	@ movhi
.LVL365:
.L408:
	.loc 4 291 0 discriminator 2
	ldrh	r3, [r4, #74]
	subs	r5, r5, #1
.LVL366:
	uxth	r5, r5
.LVL367:
	sub	r2, r3, #16
	cmp	r5, r2
	ble	.L409
	.loc 4 292 0
	mla	r3, r6, r3, r5
	.loc 4 294 0
	movs	r2, #1
	mov	r1, r2
	mov	r0, r9
	.loc 4 292 0
	lsls	r3, r3, #10
.LVL368:
	.loc 4 293 0
	str	r3, [r4, #3228]
	.loc 4 294 0
	bl	FlashReadPages
.LVL369:
	.loc 4 295 0
	ldr	r3, [r4, #3224]
	adds	r3, r3, #1
	beq	.L408
	.loc 4 301 0
	ldrh	r3, [r8]
	cmp	r3, r10
	bne	.L408
	.loc 4 303 0
	strh	r5, [r7]	@ movhi
.L409:
	.loc 4 289 0 discriminator 2
	adds	r6, r6, #1
	b	.L406
.L416:
	.align	2
.L415:
	.word	.LANCHOR0
.LFE180:
	.fnend
	.size	FtlLoadFactoryBbt, .-FtlLoadFactoryBbt
	.align	1
	.global	FtlGetLastWrittenPage
	.syntax unified
	.thumb
	.thumb_func
	.fpu softvfp
	.type	FtlGetLastWrittenPage, %function
FtlGetLastWrittenPage:
	.fnstart
.LFB186:
	.loc 2 47 0
	@ args = 0, pretend = 0, frame = 88
	@ frame_needed = 0, uses_anonymous_args = 0
.LVL370:
	ldr	r3, .L425
	.loc 2 51 0
	cmp	r1, #1
	.loc 2 47 0
	push	{r4, r5, r6, r7, r8, lr}
	.save {r4, r5, r6, r7, r8, lr}
.LCFI57:
	.loc 2 57 0
	lsl	r7, r0, #10
	.loc 2 47 0
	.pad #88
	sub	sp, sp, #88
.LCFI58:
	.loc 2 58 0
	mov	r2, r1
	.loc 2 47 0
	mov	r6, r1
	.loc 2 51 0
	it	eq
	ldrheq	r4, [r3, #80]
	.loc 2 58 0
	mov	r1, #1
.LVL371:
	.loc 2 51 0
	it	ne
	ldrhne	r4, [r3, #78]
	.loc 2 58 0
	add	r0, sp, #4
.LVL372:
	.loc 2 53 0
	ldr	r3, .L425+4
	.loc 2 56 0
	subs	r4, r4, #1
	sxth	r5, r4
.LVL373:
	.loc 2 53 0
	str	r3, [sp, #12]
	.loc 2 54 0
	add	r3, sp, #24
	str	r3, [sp, #16]
	.loc 2 57 0
	orr	r3, r5, r7
	str	r3, [sp, #8]
	.loc 2 58 0
	bl	FlashReadPages
.LVL374:
	.loc 2 59 0
	ldr	r3, [sp, #24]
	adds	r3, r3, #1
	bne	.L420
	mov	r8, #0
.LVL375:
.L421:
	.loc 2 60 0
	cmp	r8, r5
	ble	.L424
.L420:
	.loc 2 73 0
	mov	r0, r5
	add	sp, sp, #88
.LCFI59:
	@ sp needed
	pop	{r4, r5, r6, r7, r8, pc}
.LVL376:
.L424:
.LCFI60:
	.loc 2 61 0
	add	r4, r8, r5
	.loc 2 63 0
	mov	r2, r6
	.loc 2 61 0
	add	r4, r4, r4, lsr #31
	.loc 2 63 0
	movs	r1, #1
	add	r0, sp, #4
	.loc 2 61 0
	asrs	r4, r4, #1
	.loc 2 62 0
	sxth	r3, r4
	orrs	r3, r3, r7
	str	r3, [sp, #8]
	.loc 2 63 0
	bl	FlashReadPages
.LVL377:
	.loc 2 65 0
	ldr	r3, [sp, #24]
	adds	r3, r3, #1
	bne	.L422
	.loc 2 65 0 is_stmt 0 discriminator 1
	ldr	r3, [sp, #28]
	adds	r3, r3, #1
	bne	.L422
	.loc 2 66 0 is_stmt 1
	subs	r4, r4, #1
	sxth	r5, r4
	b	.L421
.L422:
	.loc 2 68 0
	adds	r4, r4, #1
	sxth	r8, r4
	b	.L421
.L426:
	.align	2
.L425:
	.word	.LANCHOR0
	.word	ftl_temp_buf
.LFE186:
	.fnend
	.size	FtlGetLastWrittenPage, .-FtlGetLastWrittenPage
	.align	1
	.global	FlashProgPages
	.syntax unified
	.thumb
	.thumb_func
	.fpu softvfp
	.type	FlashProgPages, %function
FlashProgPages:
	.fnstart
.LFB273:
	.loc 1 74 0
	@ args = 0, pretend = 0, frame = 40
	@ frame_needed = 0, uses_anonymous_args = 0
.LVL378:
	push	{r4, r5, r6, r7, r8, r9, r10, fp, lr}
	.save {r4, r5, r6, r7, r8, r9, r10, fp, lr}
.LCFI61:
	.pad #44
	sub	sp, sp, #44
.LCFI62:
	.loc 1 74 0
	str	r3, [sp]
	mov	fp, r1
	mov	r9, r2
	mov	r4, r0
	.loc 1 76 0
	ldr	r3, .L457
.LVL379:
	.loc 1 80 0
	mov	r5, r0
.LVL380:
	.loc 1 83 0
	ldr	r8, .L457+28
	.loc 1 80 0
	movs	r6, #0
	.loc 1 76 0
	ldrh	r10, [r3, #12]
.LVL381:
	str	r3, [sp, #4]
.LVL382:
.L428:
	.loc 1 80 0 discriminator 1
	cmp	r6, fp
	bne	.L436
	.loc 1 101 0
	ldr	r3, [sp]
.LVL383:
	cmp	r3, #0
	bne	.L443
.L456:
	.loc 1 131 0
	movs	r0, #0
	add	sp, sp, #44
.LCFI63:
	@ sp needed
	pop	{r4, r5, r6, r7, r8, r9, r10, fp, pc}
.LVL384:
.L436:
.LCFI64:
	.loc 1 81 0
	ldr	r3, [r5, #8]
	cbz	r3, .L429
	.loc 1 81 0 is_stmt 0 discriminator 2
	ldr	r3, [r5, #12]
	cbnz	r3, .L430
.L429:
	.loc 1 81 0 discriminator 3
	movs	r2, #81
	ldr	r1, .L457+4
	ldr	r0, .L457+8
	bl	printk
.LVL385:
.L430:
	.loc 1 82 0 is_stmt 1
	add	r2, sp, #12
	add	r1, sp, #16
	mov	r0, r5
	bl	l2p_addr_tran
.LVL386:
	.loc 1 83 0
	ldr	r3, [r5, #12]
	ldr	r2, [r5, #8]
	ldr	r1, [sp, #16]
	ldrb	r0, [sp, #12]	@ zero_extendqisi2
	ldr	r7, [r8, #8]
	blx	r7
.LVL387:
	.loc 1 88 0
	cbnz	r0, .L431
	.loc 1 87 0
	str	r0, [r5]
.L432:
	.loc 1 91 0
	ldr	r3, [sp, #4]
	ldrh	r3, [r3, #14]
	cmp	r3, #4
	bne	.L434
	.loc 1 92 0
	ldr	r3, [r5, #12]
	ldr	r2, [r5, #8]
	ldr	r1, [sp, #16]
	adds	r3, r3, #8
	ldrb	r0, [sp, #12]	@ zero_extendqisi2
	add	r2, r2, #2048
	ldr	r7, [r8, #8]
	add	r1, r1, r10
	blx	r7
.LVL388:
	.loc 1 96 0
	cbz	r0, .L434
	.loc 1 97 0
	mov	r3, #-1
	str	r3, [r5]
.L434:
	.loc 1 80 0 discriminator 2
	adds	r6, r6, #1
	adds	r5, r5, #20
	b	.L428
.L431:
	.loc 1 89 0
	mov	r3, #-1
	str	r3, [r5]
	b	.L432
.LVL389:
.L441:
.LBB294:
	.loc 1 106 0
	movs	r3, #0
.LVL390:
	.loc 1 112 0
	mov	r2, r9
	.loc 1 106 0
	str	r3, [r7]
	.loc 1 112 0
	movs	r1, #1
	.loc 1 107 0
	str	r3, [r8, #3248]
	.loc 1 112 0
	add	r0, sp, #20
	.loc 1 108 0
	ldr	r3, [r4, #4]
	.loc 1 109 0
	str	r7, [sp, #28]
	.loc 1 110 0
	str	r10, [sp, #32]
	.loc 1 108 0
	str	r3, [sp, #24]
	.loc 1 112 0
	bl	FlashReadPages
.LVL391:
	.loc 1 113 0
	ldr	fp, [sp, #20]
.LVL392:
	cmp	fp, #-1
	bne	.L438
	.loc 1 114 0
	ldr	r1, [r4, #4]
	ldr	r0, .L457+12
	bl	printk
.LVL393:
	.loc 1 115 0
	str	fp, [r4]
.L438:
	.loc 1 117 0
	ldr	r3, [r4, #12]
	cbz	r3, .L439
	.loc 1 118 0
	ldr	r2, [r3]
	ldr	r3, [r8, #3248]
	cmp	r2, r3
	beq	.L439
	.loc 1 119 0
	ldr	r1, [r4, #4]
	ldr	r0, .L457+16
	bl	printk
.LVL394:
	.loc 1 120 0
	mov	r3, #-1
	str	r3, [r4]
.L439:
	.loc 1 123 0
	ldr	r3, [r4, #8]
	cbz	r3, .L440
	.loc 1 124 0
	ldr	r2, [r3]
	ldr	r3, [r7]
	cmp	r2, r3
	beq	.L440
	.loc 1 125 0
	ldr	r1, [r4, #4]
	ldr	r0, .L457+20
	bl	printk
.LVL395:
	.loc 1 126 0
	mov	r3, #-1
	str	r3, [r4]
.L440:
.LBE294:
	.loc 1 103 0 discriminator 2
	adds	r5, r5, #1
	adds	r4, r4, #20
.LVL396:
.L437:
	.loc 1 103 0 is_stmt 0 discriminator 1
	cmp	r6, r5
	bne	.L441
	b	.L456
.LVL397:
.L443:
.LBB295:
	.loc 1 107 0 is_stmt 1
	ldr	r8, .L457+32
.LBE295:
	movs	r5, #0
.LBB296:
	.loc 1 106 0
	ldr	r7, .L457+24
	.loc 1 110 0
	add	r10, r8, #3248
.LVL398:
	b	.L437
.L458:
	.align	2
.L457:
	.word	g_nand_phy_info
	.word	.LANCHOR1+171
	.word	.LC1
	.word	.LC75
	.word	.LC76
	.word	.LC77
	.word	check_buf
	.word	g_nand_ops
	.word	.LANCHOR0
.LBE296:
.LFE273:
	.fnend
	.size	FlashProgPages, .-FlashProgPages
	.align	1
	.global	FlashEraseBlocks
	.syntax unified
	.thumb
	.thumb_func
	.fpu softvfp
	.type	FlashEraseBlocks, %function
FlashEraseBlocks:
	.fnstart
.LFB274:
	.loc 1 134 0
	@ args = 0, pretend = 0, frame = 8
	@ frame_needed = 0, uses_anonymous_args = 0
.LVL399:
	push	{r0, r1, r2, r4, r5, r6, r7, r8, r9, lr}
	.save {r4, r5, r6, r7, r8, r9, lr}
	.pad #12
.LCFI65:
.LVL400:
	.loc 1 134 0
	mov	r8, r2
	.loc 1 137 0
	ldr	r5, .L470
.LVL401:
	mov	r4, r0
	.loc 1 140 0
	movs	r6, #0
.LVL402:
	.loc 1 142 0
	ldr	r7, .L470+4
	.loc 1 137 0
	ldrh	r9, [r5, #12]
.LVL403:
.L460:
	.loc 1 140 0 discriminator 1
	cmp	r6, r8
	bne	.L466
	.loc 1 153 0
	movs	r0, #0
.LVL404:
	add	sp, sp, #12
.LCFI66:
	@ sp needed
	pop	{r4, r5, r6, r7, r8, r9, pc}
.LVL405:
.L466:
.LCFI67:
	.loc 1 141 0
	add	r1, sp, #4
	mov	r2, sp
	mov	r0, r4
.LVL406:
	bl	l2p_addr_tran
.LVL407:
	.loc 1 142 0
	ldr	r3, [r7, #4]
	ldr	r1, [sp, #4]
	ldrb	r0, [sp]	@ zero_extendqisi2
	blx	r3
.LVL408:
	.loc 1 144 0
	cbnz	r0, .L461
	.loc 1 143 0
	str	r0, [r4]
.L462:
	.loc 1 146 0
	ldrh	r3, [r5, #14]
	cmp	r3, #4
	bne	.L464
	.loc 1 147 0
	ldr	r1, [sp, #4]
	ldr	r3, [r7, #4]
	ldrb	r0, [sp]	@ zero_extendqisi2
	add	r1, r1, r9
	blx	r3
.LVL409:
	.loc 1 148 0
	cbz	r0, .L464
	.loc 1 149 0
	mov	r3, #-1
	str	r3, [r4]
.L464:
	.loc 1 140 0 discriminator 2
	adds	r6, r6, #1
	adds	r4, r4, #20
	b	.L460
.L461:
	.loc 1 145 0
	mov	r3, #-1
	str	r3, [r4]
	b	.L462
.L471:
	.align	2
.L470:
	.word	g_nand_phy_info
	.word	g_nand_ops
.LFE274:
	.fnend
	.size	FlashEraseBlocks, .-FlashEraseBlocks
	.align	1
	.global	FtlFreeSysBlkQueueIn
	.syntax unified
	.thumb
	.thumb_func
	.fpu softvfp
	.type	FtlFreeSysBlkQueueIn, %function
FtlFreeSysBlkQueueIn:
	.fnstart
.LFB190:
	.loc 2 98 0
	@ args = 0, pretend = 0, frame = 0
	@ frame_needed = 0, uses_anonymous_args = 0
.LVL410:
	push	{r4, r5, r6, lr}
	.save {r4, r5, r6, lr}
.LCFI68:
	.loc 2 98 0
	mov	r5, r0
.LBB297:
.LBB298:
	.loc 2 94 0
	ldr	r4, .L481
.LBE298:
.LBE297:
	.loc 2 99 0
	ldrh	r3, [r4, #194]
	cmp	r3, #1024
	beq	.L472
.LBB299:
	.loc 2 101 0
	cbz	r1, .L474
.LBB300:
	.loc 2 102 0
	bl	P2V_block_in_plane
.LVL411:
	mov	r6, r0
	.loc 2 103 0
	ldr	r0, [r4, #3760]
	lsls	r3, r5, #10
	.loc 2 104 0
	movs	r2, #1
	mov	r1, r2
	.loc 2 103 0
	str	r3, [r0, #4]
	.loc 2 104 0
	bl	FlashEraseBlocks
.LVL412:
	.loc 2 105 0
	ldr	r2, [r4, #2248]
	ldrh	r3, [r2, r6, lsl #1]
	adds	r3, r3, #1
	strh	r3, [r2, r6, lsl #1]	@ movhi
	.loc 2 106 0
	ldr	r3, [r4, #2492]
	adds	r3, r3, #1
	str	r3, [r4, #2492]
.LVL413:
.L474:
.LBE300:
	.loc 2 108 0
	ldrh	r3, [r4, #194]
	adds	r3, r3, #1
	strh	r3, [r4, #194]	@ movhi
	.loc 2 109 0
	ldrh	r3, [r4, #192]
	add	r2, r4, r3, lsl #1
	.loc 2 110 0
	adds	r3, r3, #1
	ubfx	r3, r3, #0, #10
	.loc 2 109 0
	strh	r5, [r2, #196]	@ movhi
	.loc 2 110 0
	strh	r3, [r4, #192]	@ movhi
.L472:
	pop	{r4, r5, r6, pc}
.LVL414:
.L482:
	.align	2
.L481:
	.word	.LANCHOR0
.LBE299:
.LFE190:
	.fnend
	.size	FtlFreeSysBlkQueueIn, .-FtlFreeSysBlkQueueIn
	.align	1
	.global	FtlLowFormatEraseBlock
	.syntax unified
	.thumb
	.thumb_func
	.fpu softvfp
	.type	FtlLowFormatEraseBlock, %function
FtlLowFormatEraseBlock:
	.fnstart
.LFB159:
	.loc 3 528 0
	@ args = 0, pretend = 0, frame = 16
	@ frame_needed = 0, uses_anonymous_args = 0
.LVL415:
	push	{r4, r5, r6, r7, r8, r9, r10, fp, lr}
	.save {r4, r5, r6, r7, r8, r9, r10, fp, lr}
.LCFI69:
	.loc 3 539 0
	mov	r10, #0
	.loc 3 538 0
	ldr	r4, .L528
	.loc 3 528 0
	mov	r7, r1
	.loc 3 536 0
	mov	r6, r10
	.loc 3 537 0
	mov	r5, r10
.LVL416:
	.loc 3 540 0
	mov	r9, #20
	.loc 3 528 0
	.pad #20
	sub	sp, sp, #20
.LCFI70:
	.loc 3 551 0
	mov	fp, r4
	.loc 3 528 0
	str	r0, [sp]
	.loc 3 538 0
	str	r0, [r4, #3764]
.L484:
	.loc 3 539 0 discriminator 1
	ldrh	r1, [r4, #8]
	uxth	r3, r10
	cmp	r1, r3
	bhi	.L489
	.loc 3 559 0
	cmp	r6, #0
	beq	.L483
	.loc 3 563 0
	mov	r8, #0
	.loc 3 564 0
	mov	r9, #20
	.loc 3 562 0
	mov	r2, r6
	movs	r1, #0
	ldr	r0, [r4, #3760]
.LVL417:
	bl	FlashEraseBlocks
.LVL418:
.L492:
	.loc 3 563 0 discriminator 1
	uxth	r3, r8
	cmp	r6, r3
	bhi	.L494
	.loc 3 571 0
	cmp	r7, #0
	beq	.L511
	.loc 3 573 0
	ldrh	r3, [r4, #80]
.LVL419:
	.loc 3 572 0
	mov	r10, #1
.LVL420:
	.loc 3 573 0
	str	r3, [sp, #4]
	.loc 3 574 0
	lsrs	r3, r3, #2
.LVL421:
	str	r3, [sp, #8]
.LVL422:
.L495:
	mov	r8, #0
.LVL423:
	.loc 3 579 0
	mov	fp, #20
.L505:
	.loc 3 578 0
	mov	r9, #0
	.loc 3 577 0
	mov	r6, r9
.L496:
	.loc 3 578 0 discriminator 1
	ldrh	r1, [r4, #8]
	uxth	r3, r9
.LVL424:
	cmp	r1, r3
	bhi	.L500
	.loc 3 593 0
	cbz	r6, .L483
	.loc 3 597 0
	mov	r9, #0
	.loc 3 596 0
	movs	r3, #1
	mov	r2, r10
	mov	r1, r6
	ldr	r0, [r4, #3760]
	bl	FlashProgPages
.LVL425:
.L502:
	.loc 3 597 0 discriminator 1
	uxth	r3, r9
	cmp	r6, r3
	bhi	.L504
	.loc 3 604 0
	ldr	r3, [sp, #8]
.LVL426:
	add	r8, r8, r3
.LVL427:
	.loc 3 605 0
	ldr	r3, [sp, #4]
.LVL428:
	.loc 3 604 0
	uxth	r8, r8
.LVL429:
	.loc 3 605 0
	cmp	r3, r8
	bhi	.L505
	mov	r8, #0
.LVL430:
	.loc 3 611 0 discriminator 1
	mov	r9, #20
.L506:
	.loc 3 610 0 discriminator 1
	uxth	r3, r8
.LVL431:
	cmp	r6, r3
	bhi	.L508
	.loc 3 615 0
	ldr	r3, [sp]
.LVL432:
	cmp	r3, #63
	bls	.L509
	.loc 3 615 0 is_stmt 0 discriminator 1
	cbz	r7, .L483
.L509:
	.loc 3 616 0 is_stmt 1
	mov	r2, r6
	mov	r1, r10
	ldr	r0, [r4, #3760]
	bl	FlashEraseBlocks
.LVL433:
.L483:
	.loc 3 619 0
	mov	r0, r5
.LVL434:
	add	sp, sp, #20
.LCFI71:
	@ sp needed
	pop	{r4, r5, r6, r7, r8, r9, r10, fp, pc}
.LVL435:
.L489:
.LCFI72:
	.loc 3 540 0
	uxth	r3, r10
	ldr	r0, [r4, #3760]
.LVL436:
	movs	r2, #0
	mul	r1, r9, r3
	.loc 3 541 0
	add	r3, r3, r4
	.loc 3 540 0
	str	r2, [r0, r1]
	.loc 3 541 0
	ldr	r1, [sp]
	ldrb	r0, [r3, #36]	@ zero_extendqisi2
	bl	V2P_block
.LVL437:
	mov	r8, r0
	.loc 3 543 0
	cbz	r7, .L485
	.loc 3 544 0
	bl	IsBlkInVendorPart
.LVL438:
	cbnz	r0, .L486
.L485:
	.loc 3 548 0
	mov	r0, r8
	bl	FtlBbmIsBadBlock
.LVL439:
	cbnz	r0, .L487
	.loc 3 549 0
	ldr	r1, [r4, #3760]
	lsl	r3, r8, #10
	.loc 3 551 0
	ldr	r0, [fp, #3772]
	.loc 3 549 0
	mla	r1, r9, r6, r1
	str	r3, [r1, #4]
	.loc 3 550 0
	ldr	r3, [r4, #3768]
	str	r3, [r1, #8]
	.loc 3 551 0
	ldrh	r3, [r4, #88]
	muls	r3, r6, r3
	.loc 3 552 0
	add	r6, r6, #1
	.loc 3 551 0
	it	mi
	addmi	r3, r3, #3
	.loc 3 552 0
	uxth	r6, r6
	.loc 3 551 0
	bic	r3, r3, #3
	add	r3, r3, r0
	str	r3, [r1, #12]
.L486:
	add	r10, r10, #1
	b	.L484
.L487:
	.loc 3 554 0
	adds	r5, r5, #1
.LVL440:
	uxth	r5, r5
.LVL441:
	b	.L486
.L494:
	.loc 3 564 0
	mul	r3, r9, r8
	ldr	r2, [r4, #3760]
	adds	r1, r2, r3
	ldr	r3, [r2, r3]
	adds	r3, r3, #1
	bne	.L493
	.loc 3 566 0
	ldr	r0, [r1, #4]
	.loc 3 565 0
	adds	r5, r5, #1
.LVL442:
	uxth	r5, r5
.LVL443:
	.loc 3 566 0
	ubfx	r0, r0, #10, #16
	bl	FtlBbmMapBadBlock
.LVL444:
.L493:
	add	r8, r8, #1
	b	.L492
.L511:
	.loc 3 533 0
	movs	r3, #6
.LVL445:
	.loc 3 534 0
	mov	r10, r7
.LVL446:
	.loc 3 533 0
	str	r3, [sp, #8]
	.loc 3 531 0
	movs	r3, #1
.LVL447:
	str	r3, [sp, #4]
	b	.L495
.LVL448:
.L500:
	.loc 3 579 0
	uxth	r3, r9
	ldr	r0, [r4, #3760]
	movs	r2, #0
	mul	r1, fp, r3
	.loc 3 580 0
	add	r3, r3, r4
	.loc 3 579 0
	str	r2, [r0, r1]
	.loc 3 580 0
	ldr	r1, [sp]
	ldrb	r0, [r3, #36]	@ zero_extendqisi2
	bl	V2P_block
.LVL449:
	str	r0, [sp, #12]
	.loc 3 581 0
	cbz	r7, .L497
	.loc 3 582 0
	bl	IsBlkInVendorPart
.LVL450:
	cbnz	r0, .L498
.L497:
	.loc 3 585 0
	ldr	r0, [sp, #12]
	bl	FtlBbmIsBadBlock
.LVL451:
	cbnz	r0, .L498
	.loc 3 586 0
	ldr	r1, [r4, #3760]
	ldr	r3, [sp, #12]
	.loc 3 588 0
	ldr	r2, .L528
	.loc 3 586 0
	mla	r1, fp, r6, r1
	.loc 3 588 0
	ldr	r0, [r2, #3768]
	.loc 3 586 0
	add	r3, r8, r3, lsl #10
	str	r3, [r1, #4]
	.loc 3 587 0
	ldr	r3, [r4, #3776]
	str	r3, [r1, #8]
	.loc 3 588 0
	ldrh	r3, [r4, #88]
	muls	r3, r6, r3
	.loc 3 589 0
	add	r6, r6, #1
	.loc 3 588 0
	it	mi
	addmi	r3, r3, #3
	.loc 3 589 0
	uxth	r6, r6
	.loc 3 588 0
	bic	r3, r3, #3
	add	r3, r3, r0
	str	r3, [r1, #12]
.L498:
	add	r9, r9, #1
	b	.L496
.L504:
	.loc 3 598 0
	mul	r3, fp, r9
	ldr	r2, [r4, #3760]
	adds	r1, r2, r3
	ldr	r3, [r2, r3]
	cbz	r3, .L503
	.loc 3 600 0
	ldr	r0, [r1, #4]
	.loc 3 599 0
	adds	r5, r5, #1
.LVL452:
	uxth	r5, r5
.LVL453:
	.loc 3 600 0
	ubfx	r0, r0, #10, #16
	bl	FtlBbmMapBadBlock
.LVL454:
.L503:
	add	r9, r9, #1
	b	.L502
.LVL455:
.L508:
	.loc 3 611 0
	cbz	r7, .L507
	.loc 3 611 0 is_stmt 0 discriminator 1
	mul	r3, r9, r8
	ldr	r2, [r4, #3760]
	adds	r1, r2, r3
	ldr	r3, [r2, r3]
	cbnz	r3, .L507
	.loc 3 612 0 is_stmt 1
	ldr	r0, [r1, #4]
	movs	r1, #1
	ubfx	r0, r0, #10, #16
	bl	FtlFreeSysBlkQueueIn
.LVL456:
.L507:
	add	r8, r8, #1
	b	.L506
.L529:
	.align	2
.L528:
	.word	.LANCHOR0
.LFE159:
	.fnend
	.size	FtlLowFormatEraseBlock, .-FtlLowFormatEraseBlock
	.align	1
	.global	FlashTestBlk
	.syntax unified
	.thumb
	.thumb_func
	.fpu softvfp
	.type	FlashTestBlk, %function
FlashTestBlk:
	.fnstart
.LFB275:
	.loc 1 156 0
	@ args = 0, pretend = 0, frame = 88
	@ frame_needed = 0, uses_anonymous_args = 0
.LVL457:
	.loc 1 161 0
	cmp	r0, #11
	.loc 1 156 0
	push	{r4, r5, lr}
	.save {r4, r5, lr}
.LCFI73:
	mov	r4, r0
	.pad #92
	sub	sp, sp, #92
.LCFI74:
	.loc 1 161 0
	bls	.L532
.LBB313:
.LBB314:
	.loc 1 165 0
	ldr	r5, .L533
	.loc 1 166 0
	add	r0, sp, #24
.LBB315:
.LBB316:
.LBB317:
	.loc 1 202 0
	movs	r2, #32
	movs	r1, #165
.LBE317:
.LBE316:
.LBE315:
	.loc 1 169 0
	lsls	r4, r4, #10
.LVL458:
	.loc 1 166 0
	str	r0, [sp, #16]
	.loc 1 165 0
	str	r5, [sp, #12]
.LBB320:
.LBB319:
.LBB318:
	.loc 1 202 0
	bl	memset
.LVL459:
.LBE318:
.LBE319:
.LBE320:
	.loc 1 170 0
	movs	r2, #1
.LBB321:
.LBB322:
.LBB323:
	.loc 1 202 0
	mov	r3, #1515870810
.LBE323:
.LBE322:
.LBE321:
	.loc 1 170 0
	mov	r1, r2
	add	r0, sp, #4
.LBB326:
.LBB325:
.LBB324:
	.loc 1 202 0
	str	r3, [r5]
	str	r3, [r5, #4]
.LBE324:
.LBE325:
.LBE326:
	.loc 1 169 0
	str	r4, [sp, #8]
	.loc 1 170 0
	bl	FlashEraseBlocks
.LVL460:
	.loc 1 171 0
	movs	r3, #1
	add	r0, sp, #4
	mov	r2, r3
	mov	r1, r3
	bl	FlashProgPages
.LVL461:
	.loc 1 172 0
	ldr	r4, [sp, #4]
	.loc 1 178 0
	movs	r2, #1
	movs	r1, #0
	add	r0, sp, #4
	.loc 1 172 0
	adds	r4, r4, #0
	it	ne
	movne	r4, #1
	negs	r4, r4
	.loc 1 178 0
	bl	FlashEraseBlocks
.LVL462:
.L530:
.LBE314:
.LBE313:
	.loc 1 180 0
	mov	r0, r4
.LVL463:
	add	sp, sp, #92
.LCFI75:
	@ sp needed
	pop	{r4, r5, pc}
.LVL464:
.L532:
.LCFI76:
	.loc 1 162 0
	movs	r4, #0
.LVL465:
	b	.L530
.L534:
	.align	2
.L533:
	.word	ftl_temp_buf
.LFE275:
	.fnend
	.size	FlashTestBlk, .-FlashTestBlk
	.align	1
	.global	FlashGetBadBlockList
	.syntax unified
	.thumb
	.thumb_func
	.fpu softvfp
	.type	FlashGetBadBlockList, %function
FlashGetBadBlockList:
	.fnstart
.LFB276:
	.loc 1 183 0
	@ args = 0, pretend = 0, frame = 0
	@ frame_needed = 0, uses_anonymous_args = 0
.LVL466:
	push	{r3, r4, r5, lr}
	.save {r3, r4, r5, lr}
.LCFI77:
.LBB337:
.LBB338:
.LBB339:
	.loc 1 202 0
	mov	r2, #256
.LBE339:
.LBE338:
.LBE337:
	.loc 1 183 0
	mov	r5, r1
.LBB344:
.LBB342:
.LBB340:
	.loc 1 202 0
	movs	r1, #255
.LVL467:
.LBE340:
.LBE342:
.LBE344:
	.loc 1 183 0
	mov	r4, r0
.LBB345:
.LBB343:
.LBB341:
	.loc 1 202 0
	bl	memset
.LVL468:
.LBE341:
.LBE343:
.LBE345:
	.loc 1 187 0
	ldr	r3, .L542
	mov	r1, r5
	mov	r0, r4
	ldr	r3, [r3]
	blx	r3
.LVL469:
	uxth	r0, r0
.LVL470:
	.loc 1 188 0
	cmp	r0, #50
	bls	.L536
.LBB346:
.LBB347:
.LBB348:
	.loc 1 202 0
	mov	r2, #256
	movs	r1, #255
	mov	r0, r4
.LVL471:
	bl	memset
.LVL472:
.LBE348:
.LBE347:
.LBE346:
	.loc 1 190 0
	movs	r0, #0
.LVL473:
.L536:
	.loc 1 192 0
	ldr	r3, .L542+4
	ldrh	r3, [r3, #14]
	cmp	r3, #4
	bne	.L541
	add	r1, r4, r0, lsl #1
.LVL474:
	mov	r3, r4
.L538:
	.loc 1 193 0 discriminator 1
	cmp	r3, r1
	bne	.L539
.L541:
.LVL475:
	.loc 1 198 0
	pop	{r3, r4, r5, pc}
.LVL476:
.L539:
	.loc 1 194 0 discriminator 3
	ldrh	r2, [r3]
	lsrs	r2, r2, #1
	strh	r2, [r3], #2	@ movhi
	b	.L538
.L543:
	.align	2
.L542:
	.word	g_nand_ops
	.word	g_nand_phy_info
.LFE276:
	.fnend
	.size	FlashGetBadBlockList, .-FlashGetBadBlockList
	.align	1
	.global	ftl_memset
	.syntax unified
	.thumb
	.thumb_func
	.fpu softvfp
	.type	ftl_memset, %function
ftl_memset:
	.fnstart
.LFB277:
	.loc 1 201 0
	@ args = 0, pretend = 0, frame = 0
	@ frame_needed = 0, uses_anonymous_args = 0
.LVL477:
	push	{r4, lr}
	.save {r4, lr}
.LCFI78:
	.loc 1 201 0
	mov	r4, r0
.LBB353:
	.loc 1 202 0
	cbz	r2, .L545
.LBE353:
.LBB354:
.LBB355:
	bl	memset
.LVL478:
.L545:
.LBE355:
.LBE354:
	.loc 1 203 0 discriminator 8
	mov	r0, r4
	pop	{r4, pc}
.LFE277:
	.fnend
	.size	ftl_memset, .-ftl_memset
	.align	1
	.global	FtlMemInit
	.syntax unified
	.thumb
	.thumb_func
	.fpu softvfp
	.type	FtlMemInit, %function
FtlMemInit:
	.fnstart
.LFB156:
	.loc 3 279 0
	@ args = 0, pretend = 0, frame = 0
	@ frame_needed = 0, uses_anonymous_args = 0
	push	{r4, r5, r6, r7, r8, lr}
	.save {r4, r5, r6, r7, r8, lr}
.LCFI79:
	.loc 3 297 0
	movw	r3, #65535
	.loc 3 282 0
	ldr	r4, .L650
	movs	r5, #0
	.loc 3 311 0
	movs	r6, #12
	.loc 3 312 0
	movs	r7, #20
	.loc 3 310 0
	ldrh	r0, [r4, #82]
	.loc 3 297 0
	str	r3, [r4, #3784]
	.loc 3 301 0
	strh	r3, [r4, #3182]	@ movhi
	.loc 3 302 0
	strh	r3, [r4, #3184]	@ movhi
	.loc 3 303 0
	movs	r3, #32
	strh	r3, [r4, #3128]	@ movhi
	.loc 3 310 0
	lsls	r0, r0, #1
	.loc 3 304 0
	movs	r3, #128
	.loc 3 282 0
	str	r5, [r4, #2472]
	.loc 3 304 0
	strh	r3, [r4, #3130]	@ movhi
	.loc 3 283 0
	str	r5, [r4, #2476]
	.loc 3 284 0
	str	r5, [r4, #2460]
	.loc 3 285 0
	str	r5, [r4, #2448]
	.loc 3 286 0
	str	r5, [r4, #2444]
	.loc 3 287 0
	str	r5, [r4, #2452]
	.loc 3 288 0
	str	r5, [r4, #2456]
	.loc 3 289 0
	str	r5, [r4, #2440]
	.loc 3 290 0
	str	r5, [r4, #2480]
	.loc 3 291 0
	str	r5, [r4, #2484]
	.loc 3 292 0
	str	r5, [r4, #2492]
	.loc 3 293 0
	str	r5, [r4, #2496]
	.loc 3 294 0
	str	r5, [r4, #2500]
	.loc 3 295 0
	str	r5, [r4, #3780]
	.loc 3 296 0
	str	r5, [r4, #3140]
	.loc 3 298 0
	str	r5, [r4, #3788]
	.loc 3 299 0
	str	r5, [r4, #3132]
	.loc 3 300 0
	str	r5, [r4, #3764]
	.loc 3 305 0
	strh	r5, [r4, #3136]	@ movhi
	.loc 3 306 0
	strh	r5, [r4, #3186]	@ movhi
	.loc 3 307 0
	strh	r5, [r4, #3222]	@ movhi
	.loc 3 310 0
	bl	ftl_malloc
.LVL479:
	str	r0, [r4, #3168]
	.loc 3 311 0
	ldrh	r0, [r4, #82]
	muls	r0, r6, r0
	bl	ftl_malloc
.LVL480:
	.loc 3 312 0
	ldrh	r3, [r4, #8]
	.loc 3 311 0
	str	r0, [r4, #3176]
	.loc 3 312 0
	muls	r7, r3, r7
	.loc 3 313 0
	lsl	r8, r7, #2
	mov	r0, r8
	bl	ftl_malloc
.LVL481:
	str	r0, [r4, #3792]
	.loc 3 314 0
	mov	r0, r7
	bl	ftl_malloc
.LVL482:
	str	r0, [r4, #3796]
	.loc 3 315 0
	mov	r0, r8
	bl	ftl_malloc
.LVL483:
	str	r0, [r4, #3800]
	.loc 3 316 0
	mov	r0, r7
	bl	ftl_malloc
.LVL484:
	str	r0, [r4, #3760]
	.loc 3 317 0
	mov	r0, r7
	bl	ftl_malloc
.LVL485:
	.loc 3 320 0
	ldrh	r3, [r4, #8]
	.loc 3 319 0
	ldrh	r7, [r4, #86]
	.loc 3 317 0
	str	r0, [r4, #3160]
	.loc 3 320 0
	lsls	r3, r3, #1
	.loc 3 321 0
	mov	r0, r7
	.loc 3 320 0
	adds	r3, r3, #1
	str	r3, [r4, #3164]
	.loc 3 321 0
	bl	ftl_malloc
.LVL486:
	str	r0, [r4, #2244]
	.loc 3 322 0
	mov	r0, r7
	bl	ftl_malloc
.LVL487:
	str	r0, [r4, #3804]
	.loc 3 323 0
	mov	r0, r7
	bl	ftl_malloc
.LVL488:
	str	r0, [r4, #3808]
	.loc 3 324 0
	ldr	r0, [r4, #3164]
	muls	r0, r7, r0
	bl	ftl_malloc
.LVL489:
	str	r0, [r4, #3152]
	.loc 3 325 0
	mov	r0, r7
	bl	ftl_malloc
.LVL490:
	str	r0, [r4, #3776]
	.loc 3 326 0
	mov	r0, r7
	bl	ftl_malloc
.LVL491:
	str	r0, [r4, #3768]
	.loc 3 327 0
	ldr	r0, [r4, #3164]
	muls	r0, r6, r0
	bl	ftl_malloc
.LVL492:
	.loc 3 329 0
	ldrh	r3, [r4, #88]
	ldrh	r7, [r4, #8]
	.loc 3 327 0
	str	r0, [r4, #3148]
	.loc 3 329 0
	muls	r7, r3, r7
	.loc 3 330 0
	mov	r0, r7
	bl	ftl_malloc
.LVL493:
	str	r0, [r4, #3244]
	.loc 3 331 0
	lsls	r0, r7, #2
	bl	ftl_malloc
.LVL494:
	.loc 3 332 0
	ldrh	r3, [r4, #88]
	.loc 3 331 0
	str	r0, [r4, #3772]
	.loc 3 332 0
	ldr	r0, [r4, #3164]
	muls	r0, r3, r0
	bl	ftl_malloc
.LVL495:
	str	r0, [r4, #3156]
	.loc 3 335 0
	ldrh	r0, [r4, #18]
	lsls	r0, r0, #1
	uxth	r0, r0
	strh	r0, [r4, #3812]	@ movhi
	.loc 3 336 0
	bl	ftl_malloc
.LVL496:
	.loc 3 337 0
	ldrh	r3, [r4, #3812]
	.loc 3 336 0
	str	r0, [r4, #3816]
	.loc 3 338 0
	ldr	r0, .L650+4
	.loc 3 337 0
	addw	r3, r3, #547
	lsrs	r3, r3, #9
	.loc 3 338 0
	and	r0, r0, r3, lsl #9
	.loc 3 337 0
	strh	r3, [r4, #3812]	@ movhi
	.loc 3 338 0
	bl	ftl_malloc
.LVL497:
	.loc 3 345 0
	ldrh	r7, [r4, #18]
	.loc 3 338 0
	str	r0, [r4, #3820]
	.loc 3 339 0
	adds	r0, r0, #32
	str	r0, [r4, #2248]
	.loc 3 345 0
	lsls	r7, r7, #1
	.loc 3 347 0
	mov	r0, r7
	bl	ftl_malloc
.LVL498:
	str	r0, [r4, #3824]
	.loc 3 349 0
	mov	r0, r7
	bl	ftl_malloc
.LVL499:
	.loc 3 350 0
	ldr	r7, [r4, #104]
	.loc 3 349 0
	str	r0, [r4, #2260]
	.loc 3 350 0
	lsls	r7, r7, #1
	.loc 3 351 0
	mov	r0, r7
	bl	ftl_malloc
.LVL500:
	str	r0, [r4, #3828]
	.loc 3 352 0
	mov	r0, r7
	bl	ftl_malloc
.LVL501:
	str	r0, [r4, #3832]
	.loc 3 353 0
	ldrh	r0, [r4, #18]
	lsrs	r0, r0, #3
	adds	r0, r0, #4
	bl	ftl_malloc
.LVL502:
	str	r0, [r4]
	.loc 3 354 0
	ldrh	r0, [r4, #96]
	lsls	r0, r0, #1
	bl	ftl_malloc
.LVL503:
	str	r0, [r4, #124]
	.loc 3 355 0
	ldrh	r0, [r4, #96]
	lsls	r0, r0, #1
	bl	ftl_malloc
.LVL504:
	str	r0, [r4, #3836]
	.loc 3 356 0
	ldrh	r0, [r4, #96]
	lsls	r0, r0, #2
	bl	ftl_malloc
.LVL505:
	str	r0, [r4, #3840]
	.loc 3 357 0
	ldrh	r0, [r4, #98]
	lsls	r0, r0, #2
	bl	ftl_malloc
.LVL506:
	.loc 3 358 0
	ldrh	r2, [r4, #98]
	mov	r1, r5
	.loc 3 357 0
	str	r0, [r4, #3844]
	add	r5, r4, #156
	.loc 3 358 0
	lsls	r2, r2, #2
	bl	ftl_memset
.LVL507:
	.loc 3 360 0
	ldrh	r0, [r4, #112]
	.loc 3 361 0
	lsls	r0, r0, #2
	bl	ftl_malloc
.LVL508:
	str	r0, [r4, #3848]
	.loc 3 362 0
	ldr	r0, [r4, #104]
	.loc 3 363 0
	lsls	r0, r0, #2
	bl	ftl_malloc
.LVL509:
	str	r0, [r4, #3852]
	.loc 3 364 0
	ldrh	r0, [r4, #114]
	.loc 3 365 0
	muls	r0, r6, r0
	bl	ftl_malloc
.LVL510:
	.loc 3 366 0
	ldrh	r3, [r4, #114]
	.loc 3 365 0
	str	r0, [r4, #2424]
	.loc 3 366 0
	ldrh	r0, [r4, #86]
	.loc 3 367 0
	muls	r0, r3, r0
	bl	ftl_malloc
.LVL511:
	.loc 3 368 0
	ldrh	r3, [r4, #18]
	.loc 3 367 0
	str	r0, [r4, #3856]
	.loc 3 369 0
	movs	r0, #6
	muls	r0, r3, r0
	bl	ftl_malloc
.LVL512:
	str	r0, [r4, #2252]
	.loc 3 370 0
	ldrh	r0, [r4, #74]
	.loc 3 371 0
	ldrh	r3, [r4, #30]
	.loc 3 370 0
	adds	r0, r0, #31
	asrs	r0, r0, #5
	strh	r0, [r4, #3860]	@ movhi
	.loc 3 371 0
	muls	r0, r3, r0
	.loc 3 372 0
	lsls	r0, r0, #2
	bl	ftl_malloc
.LVL513:
	.loc 3 374 0
	ldrh	r2, [r4, #3860]
	.loc 3 373 0
	movs	r3, #1
.LVL514:
	ldrh	r6, [r4, #30]
	.loc 3 372 0
	str	r0, [r4, #156]
	lsls	r2, r2, #2
	.loc 3 373 0
	mov	r1, r2
.L550:
	.loc 3 373 0 is_stmt 0 discriminator 1
	cmp	r3, r6
	bcc	.L551
	ldr	r2, .L650+8
	.loc 3 379 0 is_stmt 1
	movs	r1, #0
	add	r3, r2, r3, lsl #2
.LVL515:
	adds	r2, r2, #56
	adds	r3, r3, #24
.L552:
	.loc 3 377 0 discriminator 1
	cmp	r2, r3
	bne	.L553
	.loc 3 383 0
	ldr	r3, [r4, #3828]
	cbnz	r3, .L554
.L556:
	.loc 3 385 0
	ldr	r1, .L650+12
	ldr	r0, .L650+16
	bl	printk
.LVL516:
	.loc 3 386 0
	mov	r0, #-1
	pop	{r4, r5, r6, r7, r8, pc}
.LVL517:
.L551:
	.loc 3 374 0 discriminator 3
	ldr	r0, [r4, #156]
	.loc 3 373 0 discriminator 3
	adds	r3, r3, #1
	.loc 3 374 0 discriminator 3
	add	r0, r0, r1
	add	r1, r1, r2
	str	r0, [r5, #4]!
	b	.L550
.LVL518:
.L553:
	.loc 3 379 0 discriminator 2
	str	r1, [r3, #4]!
	b	.L552
.L651:
	.align	2
.L650:
	.word	.LANCHOR0
	.word	33553920
	.word	.LANCHOR0+128
	.word	.LANCHOR1+186
	.word	.LC78
.L554:
	.loc 3 388 0
	ldr	r3, [r4, #3832]
	cmp	r3, #0
	beq	.L556
	.loc 3 393 0
	ldr	r3, [r4, #3848]
	cmp	r3, #0
	beq	.L556
	.loc 3 398 0
	ldr	r3, [r4, #3852]
	cmp	r3, #0
	beq	.L556
	.loc 3 404 0
	ldr	r3, [r4, #2424]
	cmp	r3, #0
	beq	.L556
	.loc 3 409 0
	ldr	r3, [r4, #3856]
	cmp	r3, #0
	beq	.L556
	.loc 3 414 0
	ldr	r3, [r4, #2252]
	cmp	r3, #0
	beq	.L556
	.loc 3 419 0
	ldr	r3, [r4, #156]
	cmp	r3, #0
	beq	.L556
	.loc 3 425 0
	ldr	r3, [r4, #2260]
	cmp	r3, #0
	beq	.L556
	.loc 3 430 0
	ldr	r3, [r4, #3168]
	cmp	r3, #0
	beq	.L556
	.loc 3 430 0 is_stmt 0 discriminator 1
	ldr	r3, [r4, #3176]
	cmp	r3, #0
	beq	.L556
	.loc 3 435 0 is_stmt 1
	ldr	r3, [r4, #3792]
	cmp	r3, #0
	beq	.L556
	.loc 3 435 0 is_stmt 0 discriminator 1
	ldr	r3, [r4, #3800]
	cmp	r3, #0
	beq	.L556
	.loc 3 435 0 discriminator 2
	ldr	r3, [r4, #3760]
	cmp	r3, #0
	beq	.L556
	.loc 3 435 0 discriminator 3
	ldr	r3, [r4, #3160]
	cmp	r3, #0
	beq	.L556
	.loc 3 435 0 discriminator 4
	ldr	r3, [r4, #3796]
	cmp	r3, #0
	beq	.L556
	.loc 3 440 0 is_stmt 1
	ldr	r3, [r4, #2244]
	cmp	r3, #0
	beq	.L556
	.loc 3 440 0 is_stmt 0 discriminator 1
	ldr	r3, [r4, #3804]
	cmp	r3, #0
	beq	.L556
	.loc 3 440 0 discriminator 2
	ldr	r3, [r4, #3808]
	cmp	r3, #0
	beq	.L556
	.loc 3 440 0 discriminator 3
	ldr	r3, [r4, #3152]
	cmp	r3, #0
	beq	.L556
	.loc 3 441 0 is_stmt 1
	ldr	r3, [r4, #3776]
	cmp	r3, #0
	beq	.L556
	.loc 3 441 0 is_stmt 0 discriminator 1
	ldr	r3, [r4, #3768]
	cmp	r3, #0
	beq	.L556
	.loc 3 441 0 discriminator 2
	ldr	r3, [r4, #3148]
	cmp	r3, #0
	beq	.L556
	.loc 3 446 0 is_stmt 1
	ldr	r3, [r4, #3244]
	cmp	r3, #0
	beq	.L556
	.loc 3 446 0 is_stmt 0 discriminator 1
	ldr	r3, [r4, #3772]
	cmp	r3, #0
	beq	.L556
	.loc 3 446 0 discriminator 2
	ldr	r3, [r4, #3156]
	cmp	r3, #0
	beq	.L556
	.loc 3 452 0 is_stmt 1
	ldr	r3, [r4, #2248]
	cmp	r3, #0
	beq	.L556
	.loc 3 452 0 is_stmt 0 discriminator 1
	ldr	r3, [r4, #3816]
	cmp	r3, #0
	beq	.L556
	.loc 3 458 0 is_stmt 1
	ldr	r3, [r4, #124]
	cmp	r3, #0
	beq	.L556
	.loc 3 464 0
	ldr	r3, .L652
	ldr	r2, [r3, #3836]
	cmp	r2, #0
	beq	.L556
	.loc 3 470 0
	ldr	r2, [r3, #3840]
	cmp	r2, #0
	beq	.L556
	.loc 3 476 0
	ldr	r3, [r3, #3844]
	cmp	r3, #0
	beq	.L556
	.loc 3 483 0
	movs	r0, #0
	.loc 3 484 0
	pop	{r4, r5, r6, r7, r8, pc}
.L653:
	.align	2
.L652:
	.word	.LANCHOR0
.LFE156:
	.fnend
	.size	FtlMemInit, .-FtlMemInit
	.align	1
	.global	FtlBbt2Bitmap
	.syntax unified
	.thumb
	.thumb_func
	.fpu softvfp
	.type	FtlBbt2Bitmap, %function
FtlBbt2Bitmap:
	.fnstart
.LFB175:
	.loc 4 66 0
	@ args = 0, pretend = 0, frame = 0
	@ frame_needed = 0, uses_anonymous_args = 0
.LVL519:
	push	{r4, r5, r6, r7, r8, r9, r10, lr}
	.save {r4, r5, r6, r7, r8, r9, r10, lr}
.LCFI80:
	.loc 4 66 0
	mov	r5, r0
	.loc 4 69 0
	ldr	r6, .L660
	.loc 4 66 0
	mov	r7, r1
	subs	r4, r5, #2
	.loc 4 72 0
	movw	r8, #65535
	.loc 4 74 0
	ldr	r9, .L660+4
	addw	r5, r5, #1022
	.loc 4 69 0
	ldrh	r2, [r6, #3860]
	movs	r1, #0
.LVL520:
	.loc 4 74 0
	ldr	r10, .L660+8
	.loc 4 69 0
	mov	r0, r7
.LVL521:
	lsls	r2, r2, #2
	bl	ftl_memset
.LVL522:
.L657:
	.loc 4 72 0
	ldrh	r3, [r4, #2]
	cmp	r3, r8
	beq	.L654
	.loc 4 74 0
	ldrh	r2, [r6, #74]
	cmp	r2, r3
	bhi	.L656
	.loc 4 74 0 is_stmt 0 discriminator 1
	movs	r2, #74
	mov	r1, r9
	mov	r0, r10
	bl	printk
.LVL523:
.L656:
	.loc 4 75 0 is_stmt 1 discriminator 2
	ldrh	r3, [r4, #2]!
	movs	r2, #1
	.loc 4 70 0 discriminator 2
	cmp	r5, r4
	.loc 4 75 0 discriminator 2
	lsr	r1, r3, #5
	and	r3, r3, #31
	lsl	r3, r2, r3
	ldr	r2, [r7, r1, lsl #2]
	orr	r2, r2, r3
	str	r2, [r7, r1, lsl #2]
	.loc 4 70 0 discriminator 2
	bne	.L657
.L654:
	pop	{r4, r5, r6, r7, r8, r9, r10, pc}
.LVL524:
.L661:
	.align	2
.L660:
	.word	.LANCHOR0
	.word	.LANCHOR1+197
	.word	.LC1
.LFE175:
	.fnend
	.size	FtlBbt2Bitmap, .-FtlBbt2Bitmap
	.align	1
	.global	load_l2p_region
	.syntax unified
	.thumb
	.thumb_func
	.fpu softvfp
	.type	load_l2p_region, %function
load_l2p_region:
	.fnstart
.LFB203:
	.loc 2 442 0
	@ args = 0, pretend = 0, frame = 0
	@ frame_needed = 0, uses_anonymous_args = 0
.LVL525:
	push	{r4, r5, r6, r7, r8, lr}
	.save {r4, r5, r6, r7, r8, lr}
.LCFI81:
	.loc 2 442 0
	mov	r6, r0
	.loc 2 446 0
	ldr	r4, .L668
	.loc 2 442 0
	mov	r8, r1
	.loc 2 446 0
	ldrh	r3, [r4, #112]
	cmp	r3, r0
	bcs	.L663
	.loc 2 446 0 is_stmt 0 discriminator 1
	mov	r2, #446
	ldr	r1, .L668+4
	ldr	r0, .L668+8
	bl	printk
.LVL526:
.L663:
	.loc 2 447 0 is_stmt 1
	ldr	r3, [r4, #3848]
	movs	r5, #12
	ldr	r7, [r3, r6, lsl #2]
.LVL527:
	.loc 2 449 0
	cbnz	r7, .L664
	.loc 2 450 0
	mul	r5, r5, r8
	ldr	r3, [r4, #2424]
	ldrh	r2, [r4, #86]
	movs	r1, #255
	add	r3, r3, r5
	ldr	r0, [r3, #8]
	bl	ftl_memset
.LVL528:
	.loc 2 451 0
	ldr	r3, [r4, #2424]
	strh	r6, [r3, r5]	@ movhi
	.loc 2 452 0
	ldr	r3, [r4, #2424]
	add	r5, r5, r3
	str	r7, [r5, #4]
.LVL529:
.L665:
	.loc 2 473 0
	movs	r0, #0
	pop	{r4, r5, r6, r7, r8, pc}
.LVL530:
.L664:
	.loc 2 456 0
	mul	r5, r5, r8
	ldr	r3, [r4, #2424]
	.loc 2 458 0
	movs	r2, #1
	ldr	r0, .L668+12
	mov	r1, r2
	.loc 2 455 0
	str	r7, [r4, #3228]
	.loc 2 456 0
	add	r3, r3, r5
	ldr	r3, [r3, #8]
	str	r3, [r4, #3232]
	.loc 2 457 0
	ldr	r3, [r4, #3244]
	str	r3, [r4, #3236]
	.loc 2 458 0
	bl	FlashReadPages
.LVL531:
	.loc 2 459 0
	ldr	r8, [r4, #3236]
.LVL532:
	.loc 2 461 0
	ldrh	r3, [r8, #8]
	cmp	r3, r6
	beq	.L666
	.loc 2 462 0
	mov	r2, r7
	mov	r1, r6
	ldr	r0, .L668+16
	bl	printk
.LVL533:
	.loc 2 463 0
	movs	r3, #4
	ldr	r1, [r4, #3236]
	mov	r2, r3
	ldr	r0, .L668+20
	bl	rknand_print_hex
.LVL534:
	.loc 2 464 0
	ldrh	r3, [r4, #112]
	movs	r2, #4
	ldr	r1, [r4, #3848]
	ldr	r0, .L668+24
	bl	rknand_print_hex
.LVL535:
.L666:
	.loc 2 467 0
	ldrh	r3, [r8, #8]
	cmp	r3, r6
	beq	.L667
	.loc 2 467 0 is_stmt 0 discriminator 1
	movw	r2, #467
	ldr	r1, .L668+4
	ldr	r0, .L668+8
	bl	printk
.LVL536:
.L667:
	.loc 2 470 0 is_stmt 1
	ldr	r3, [r4, #2424]
	movs	r1, #0
	adds	r2, r3, r5
	str	r1, [r2, #4]
	.loc 2 471 0
	strh	r6, [r3, r5]	@ movhi
	.loc 2 472 0
	b	.L665
.L669:
	.align	2
.L668:
	.word	.LANCHOR0
	.word	.LANCHOR1+211
	.word	.LC1
	.word	.LANCHOR0+3224
	.word	.LC79
	.word	.LC80
	.word	.LC81
.LFE203:
	.fnend
	.size	load_l2p_region, .-load_l2p_region
	.align	1
	.global	ftl_free_no_use_map_blk
	.syntax unified
	.thumb
	.thumb_func
	.fpu softvfp
	.type	ftl_free_no_use_map_blk, %function
ftl_free_no_use_map_blk:
	.fnstart
.LFB204:
	.loc 2 476 0
	@ args = 0, pretend = 0, frame = 8
	@ frame_needed = 0, uses_anonymous_args = 0
.LVL537:
	push	{r0, r1, r2, r4, r5, r6, r7, r8, r9, r10, fp, lr}
	.save {r4, r5, r6, r7, r8, r9, r10, fp, lr}
	.pad #12
.LCFI82:
.LVL538:
	.loc 2 476 0
	mov	r4, r0
	.loc 2 485 0
	ldrh	r2, [r0, #10]
	movs	r1, #0
	.loc 2 479 0
	ldr	r5, [r0, #20]
.LVL539:
	.loc 2 477 0
	ldr	r9, [r0, #12]
.LVL540:
	.loc 2 478 0
	ldr	r6, [r0, #24]
.LVL541:
	.loc 2 485 0
	lsls	r2, r2, #1
	mov	r0, r5
.LVL542:
	bl	ftl_memset
.LVL543:
	.loc 2 486 0
	movs	r3, #0
.LVL544:
.L671:
	.loc 2 486 0 is_stmt 0 discriminator 1
	ldrh	r1, [r4, #6]
.LVL545:
	uxth	r2, r3
	cmp	r1, r2
	bhi	.L675
	.loc 2 494 0 is_stmt 1
	ldrh	fp, [r5]
.LVL546:
	.loc 2 497 0
	movs	r6, #0
.LVL547:
	.loc 2 498 0
	ldr	r2, .L684
	.loc 2 495 0
	mov	r10, r6
.LVL548:
.L676:
	.loc 2 497 0 discriminator 1
	ldrh	r1, [r4, #10]
	uxth	r3, r6
	cmp	r1, r3
	bhi	.L680
	.loc 2 513 0
	mov	r0, r10
	add	sp, sp, #12
.LCFI83:
	@ sp needed
	pop	{r4, r5, r6, r7, r8, r9, r10, fp, pc}
.LVL549:
.L675:
.LCFI84:
	.loc 2 487 0
	uxth	r2, r3
	ldr	r1, [r6, r2, lsl #2]
	.loc 2 488 0
	movs	r2, #0
	.loc 2 487 0
	ubfx	r1, r1, #10, #16
.LVL550:
.L672:
	.loc 2 488 0 discriminator 1
	ldrh	r7, [r4, #10]
	uxth	r0, r2
	cmp	r7, r0
	bhi	.L674
	adds	r3, r3, #1
	b	.L671
.L674:
	.loc 2 489 0
	uxth	r0, r2
	adds	r2, r2, #1
	ldrh	r7, [r9, r0, lsl #1]
	cmp	r7, r1
	.loc 2 490 0
	ittt	eq
	ldrheq	r7, [r5, r0, lsl #1]
	addeq	r7, r7, #1
	strheq	r7, [r5, r0, lsl #1]	@ movhi
	b	.L672
.LVL551:
.L680:
	.loc 2 498 0
	ldrh	r1, [r4]
	uxth	r7, r6
	cmp	r1, r3
	bne	.L677
	.loc 2 498 0 is_stmt 0 discriminator 1
	ldrh	r1, [r2, #80]
	ldrh	r0, [r4, #2]
	cmp	r0, r1
	.loc 2 499 0 is_stmt 1 discriminator 1
	it	cc
	strhcc	r1, [r5, r7, lsl #1]	@ movhi
.L677:
	.loc 2 500 0
	ldrh	r8, [r5, r7, lsl #1]
	cmp	fp, r8
	itt	hi
	movhi	r10, r3
	movhi	fp, r8
	.loc 2 504 0
	cmp	r8, #0
	bne	.L679
	.loc 2 504 0 is_stmt 0 discriminator 1
	ldrh	r0, [r9, r7, lsl #1]
	cbz	r0, .L679
	.loc 2 506 0 is_stmt 1
	movs	r1, #1
	str	r2, [sp, #4]
	bl	FtlFreeSysBlkQueueIn
.LVL552:
	.loc 2 507 0
	strh	r8, [r9, r7, lsl #1]	@ movhi
	.loc 2 508 0
	ldr	r2, [sp, #4]
	ldrh	r3, [r4, #8]
	subs	r3, r3, #1
	strh	r3, [r4, #8]	@ movhi
.L679:
	adds	r6, r6, #1
	b	.L676
.L685:
	.align	2
.L684:
	.word	.LANCHOR0
.LFE204:
	.fnend
	.size	ftl_free_no_use_map_blk, .-ftl_free_no_use_map_blk
	.align	1
	.global	Ftl_write_map_blk_to_last_page
	.syntax unified
	.thumb
	.thumb_func
	.fpu softvfp
	.type	Ftl_write_map_blk_to_last_page, %function
Ftl_write_map_blk_to_last_page:
	.fnstart
.LFB207:
	.loc 2 583 0
	@ args = 0, pretend = 0, frame = 0
	@ frame_needed = 0, uses_anonymous_args = 0
.LVL553:
	push	{r3, r4, r5, r6, r7, lr}
	.save {r3, r4, r5, r6, r7, lr}
.LCFI85:
	.loc 2 591 0
	movw	r2, #65535
	ldrh	r3, [r0]
	.loc 2 583 0
	mov	r4, r0
	.loc 2 586 0
	ldr	r5, [r0, #12]
.LVL554:
	.loc 2 591 0
	cmp	r3, r2
	bne	.L687
	.loc 2 592 0
	ldrh	r3, [r0, #8]
	cbz	r3, .L688
	.loc 2 592 0 is_stmt 0 discriminator 1
	mov	r2, #592
	ldr	r1, .L696
	ldr	r0, .L696+4
	bl	printk
.LVL555:
.L688:
	.loc 2 593 0 is_stmt 1
	ldrh	r3, [r4, #8]
	adds	r3, r3, #1
	strh	r3, [r4, #8]	@ movhi
	.loc 2 594 0
	bl	FtlFreeSysBlkQueueOut
.LVL556:
	.loc 2 595 0
	movs	r3, #0
	.loc 2 594 0
	strh	r0, [r5]	@ movhi
	.loc 2 595 0
	strh	r3, [r4, #2]	@ movhi
	.loc 2 596 0
	strh	r3, [r4]	@ movhi
	.loc 2 597 0
	ldr	r3, [r4, #28]
	adds	r3, r3, #1
	str	r3, [r4, #28]
.LVL557:
.L689:
	.loc 2 628 0
	movs	r0, #0
	pop	{r3, r4, r5, r6, r7, pc}
.LVL558:
.L687:
	.loc 2 601 0
	ldrh	r6, [r5, r3, lsl #1]
	.loc 2 612 0
	movs	r1, #255
	.loc 2 602 0
	ldrh	r3, [r0, #2]
	ldr	r5, .L696+8
.LVL559:
	.loc 2 607 0
	ldr	r2, [r0, #28]
	.loc 2 587 0
	ldr	r7, [r0, #24]
.LVL560:
	.loc 2 602 0
	orr	r3, r3, r6, lsl #10
	str	r3, [r5, #3228]
	.loc 2 603 0
	ldr	r3, [r5, #2244]
	str	r3, [r5, #3232]
	.loc 2 604 0
	ldr	r3, [r5, #3244]
	str	r3, [r5, #3236]
	.loc 2 607 0
	str	r2, [r3, #4]
	.loc 2 608 0
	movw	r2, #64245
	strh	r2, [r3, #8]	@ movhi
	.loc 2 609 0
	ldrh	r2, [r0, #4]
	.loc 2 610 0
	strh	r6, [r3, #2]	@ movhi
	.loc 2 609 0
	strh	r2, [r3]	@ movhi
	.loc 2 612 0
	ldrh	r2, [r5, #80]
	ldr	r0, [r5, #2244]
.LVL561:
	lsls	r2, r2, #3
	bl	ftl_memset
.LVL562:
	.loc 2 614 0
	movs	r2, #0
	.loc 2 613 0
	mov	r3, r2
.LVL563:
.L690:
	.loc 2 614 0 discriminator 1
	ldrh	r0, [r4, #6]
	uxth	r1, r2
	cmp	r0, r1
	bhi	.L692
	.loc 2 621 0
	movs	r2, #1
	movs	r3, #0
.LVL564:
	mov	r1, r2
	ldr	r0, .L696+12
	bl	FlashProgPages
.LVL565:
	.loc 2 622 0
	ldrh	r3, [r4, #2]
	.loc 2 626 0
	mov	r0, r4
	.loc 2 622 0
	adds	r3, r3, #1
	strh	r3, [r4, #2]	@ movhi
	.loc 2 626 0
	bl	ftl_map_blk_gc
.LVL566:
	.loc 2 627 0
	b	.L689
.LVL567:
.L692:
	uxth	r1, r2
	.loc 2 615 0
	ldr	r0, [r7, r1, lsl #2]
	cmp	r6, r0, lsr #10
	bne	.L691
	.loc 2 617 0
	ldr	r0, [r5, #2244]
	.loc 2 616 0
	adds	r3, r3, #1
.LVL568:
	uxth	r3, r3
.LVL569:
	.loc 2 617 0
	str	r1, [r0, r3, lsl #3]
	.loc 2 618 0
	ldr	r0, [r7, r1, lsl #2]
	ldr	r1, [r5, #2244]
	add	r1, r1, r3, lsl #3
	str	r0, [r1, #4]
.L691:
	adds	r2, r2, #1
	b	.L690
.L697:
	.align	2
.L696:
	.word	.LANCHOR1+227
	.word	.LC1
	.word	.LANCHOR0
	.word	.LANCHOR0+3224
.LFE207:
	.fnend
	.size	Ftl_write_map_blk_to_last_page, .-Ftl_write_map_blk_to_last_page
	.align	1
	.global	FtlMapWritePage
	.syntax unified
	.thumb
	.thumb_func
	.fpu softvfp
	.type	FtlMapWritePage, %function
FtlMapWritePage:
	.fnstart
.LFB208:
	.loc 2 631 0
	@ args = 0, pretend = 0, frame = 0
	@ frame_needed = 0, uses_anonymous_args = 0
.LVL570:
	push	{r3, r4, r5, r6, r7, r8, r9, r10, fp, lr}
	.save {r3, r4, r5, r6, r7, r8, r9, r10, fp, lr}
.LCFI86:
	.loc 2 631 0
	mov	r4, r0
	.loc 2 637 0
	ldr	r7, .L717
	.loc 2 631 0
	mov	r8, r1
	mov	r10, r2
	.loc 2 634 0
	movs	r6, #0
.LVL571:
	.loc 2 650 0
	ldr	r9, .L717+20
	mov	r5, r7
.L699:
	.loc 2 637 0
	ldr	r3, [r7, #2456]
	adds	r3, r3, #1
	str	r3, [r7, #2456]
	.loc 2 638 0
	ldrh	r3, [r7, #80]
	ldrh	r2, [r4, #2]
	subs	r3, r3, #1
	cmp	r2, r3
	bge	.L700
	.loc 2 638 0 is_stmt 0 discriminator 1
	ldrh	r2, [r4]
	movw	r3, #65535
	cmp	r2, r3
	bne	.L701
.L700:
	.loc 2 639 0 is_stmt 1
	mov	r0, r4
	bl	Ftl_write_map_blk_to_last_page
.LVL572:
.L701:
	.loc 2 650 0
	ldrh	r2, [r4]
	ldr	r3, [r4, #12]
	ldrh	r3, [r3, r2, lsl #1]
	cbnz	r3, .L702
	.loc 2 650 0 is_stmt 0 discriminator 1
	movw	r2, #650
	mov	r1, r9
	ldr	r0, .L717+4
	bl	printk
.LVL573:
.L702:
	.loc 2 651 0 is_stmt 1
	ldrh	r2, [r4]
	ldrh	r3, [r4, #10]
	cmp	r2, r3
	bcc	.L703
	.loc 2 651 0 is_stmt 0 discriminator 1
	movw	r2, #651
	mov	r1, r9
	ldr	r0, .L717+4
	bl	printk
.LVL574:
.L703:
	.loc 2 652 0 is_stmt 1
	ldrh	r2, [r4]
.LBB361:
.LBB362:
.LBB363:
	.loc 1 202 0
	movs	r1, #16
.LBE363:
.LBE362:
.LBE361:
	.loc 2 652 0
	ldr	r3, [r4, #12]
	.loc 2 656 0
	ldr	r0, [r5, #3244]
	.loc 2 652 0
	ldrh	fp, [r3, r2, lsl #1]
	.loc 2 654 0
	ldrh	r3, [r4, #2]
	.loc 2 656 0
	str	r0, [r5, #3236]
	.loc 2 655 0
	str	r10, [r5, #3232]
	.loc 2 654 0
	orr	r3, r3, fp, lsl #10
	str	r3, [r5, #3228]
.LBB366:
.LBB365:
.LBB364:
	.loc 1 202 0
	bl	__memzero
.LVL575:
.LBE364:
.LBE365:
.LBE366:
	.loc 2 659 0
	ldr	r3, [r5, #3236]
.LVL576:
	.loc 2 660 0
	ldr	r2, [r4, #28]
	.loc 2 664 0
	ldr	r0, .L717+8
	.loc 2 661 0
	strh	r8, [r3, #8]	@ movhi
	.loc 2 660 0
	str	r2, [r3, #4]
	.loc 2 662 0
	ldrh	r2, [r4, #4]
	.loc 2 663 0
	strh	fp, [r3, #2]	@ movhi
	.loc 2 662 0
	strh	r2, [r3]	@ movhi
	.loc 2 664 0
	movs	r3, #1
.LVL577:
	mov	r2, r3
	mov	r1, r3
	bl	FlashProgPages
.LVL578:
	.loc 2 665 0
	ldrh	r3, [r4, #2]
	adds	r3, r3, #1
	uxth	r3, r3
	strh	r3, [r4, #2]	@ movhi
	.loc 2 667 0
	ldr	r2, [r5, #3224]
	adds	r2, r2, #1
	bne	.L704
	.loc 2 668 0
	ldr	r1, [r5, #3228]
	.loc 2 669 0
	adds	r6, r6, #1
.LVL579:
	.loc 2 668 0
	ldr	r0, .L717+12
	.loc 2 669 0
	uxth	r6, r6
.LVL580:
	.loc 2 668 0
	bl	printk
.LVL581:
	.loc 2 670 0
	ldrh	r3, [r4, #2]
	cmp	r3, #2
	.loc 2 671 0
	ittt	ls
	ldrhls	r3, [r5, #80]
	addls	r3, r3, #-1
	strhls	r3, [r4, #2]	@ movhi
	.loc 2 673 0
	cmp	r6, #3
	bls	.L706
	.loc 2 674 0
	mov	r2, r6
	ldr	r1, [r5, #3228]
	ldr	r0, .L717+16
	bl	printk
.LVL582:
.L707:
	b	.L707
.L706:
	.loc 2 678 0
	ldr	r3, [r4, #32]
	cmp	r3, #0
	beq	.L699
.L716:
	b	.L716
.L704:
	.loc 2 682 0
	cmp	r3, #1
	beq	.L699
	.loc 2 685 0
	ldr	r2, [r5, #3228]
	.loc 2 687 0
	movs	r0, #0
	.loc 2 685 0
	ldr	r3, [r4, #24]
	str	r2, [r3, r8, lsl #2]
	.loc 2 687 0
	pop	{r3, r4, r5, r6, r7, r8, r9, r10, fp, pc}
.LVL583:
.L718:
	.align	2
.L717:
	.word	.LANCHOR0
	.word	.LC1
	.word	.LANCHOR0+3224
	.word	.LC82
	.word	.LC83
	.word	.LANCHOR1+258
.LFE208:
	.fnend
	.size	FtlMapWritePage, .-FtlMapWritePage
	.align	1
	.global	ftl_map_blk_gc
	.syntax unified
	.thumb
	.thumb_func
	.fpu softvfp
	.type	ftl_map_blk_gc, %function
ftl_map_blk_gc:
	.fnstart
.LFB206:
	.loc 2 537 0
	@ args = 0, pretend = 0, frame = 8
	@ frame_needed = 0, uses_anonymous_args = 0
.LVL584:
	push	{r0, r1, r2, r4, r5, r6, r7, r8, r9, r10, fp, lr}
	.save {r4, r5, r6, r7, r8, r9, r10, fp, lr}
	.pad #12
.LCFI87:
.LVL585:
	.loc 2 537 0
	mov	r4, r0
	.loc 2 541 0
	ldr	r6, [r0, #12]
.LVL586:
	.loc 2 542 0
	ldr	r9, [r0, #24]
.LVL587:
	.loc 2 545 0
	bl	ftl_free_no_use_map_blk
.LVL588:
	.loc 2 547 0
	ldrh	r3, [r4, #10]
	ldrh	r2, [r4, #8]
	ldr	r5, .L731
	subs	r3, r3, #4
	cmp	r2, r3
	blt	.L720
	.loc 2 548 0
	uxth	r0, r0
	ldrh	r8, [r6, r0, lsl #1]
.LVL589:
	.loc 2 549 0
	cmp	r8, #0
	beq	.L720
	.loc 2 549 0 is_stmt 0 discriminator 1
	ldr	r3, [r4, #32]
	cbnz	r3, .L720
	.loc 2 550 0 is_stmt 1
	movs	r2, #1
	str	r2, [r4, #32]
	.loc 2 551 0
	strh	r3, [r6, r0, lsl #1]	@ movhi
	.loc 2 552 0
	ldrh	r3, [r4, #8]
	.loc 2 553 0
	ldrh	r2, [r4, #2]
	.loc 2 552 0
	subs	r3, r3, #1
	strh	r3, [r4, #8]	@ movhi
	.loc 2 553 0
	ldrh	r3, [r5, #80]
	cmp	r2, r3
	bcc	.L721
	.loc 2 554 0
	mov	r0, r4
	bl	ftl_map_blk_alloc_new_blk
.LVL590:
.L721:
	.loc 2 564 0 discriminator 1
	ldr	fp, .L731+12
	.loc 2 537 0 discriminator 1
	movs	r6, #0
.LVL591:
.L722:
	.loc 2 556 0 discriminator 1
	ldrh	r3, [r4, #6]
	uxth	r10, r6
	cmp	r3, r10
	bhi	.L726
	.loc 2 572 0
	movs	r1, #1
	mov	r0, r8
	bl	FtlFreeSysBlkQueueIn
.LVL592:
	.loc 2 573 0
	movs	r3, #0
	str	r3, [r4, #32]
.LVL593:
.L720:
	.loc 2 577 0
	ldrh	r2, [r4, #2]
	ldrh	r3, [r5, #80]
	cmp	r2, r3
	bcc	.L727
	.loc 2 578 0
	mov	r0, r4
	bl	ftl_map_blk_alloc_new_blk
.LVL594:
.L727:
	.loc 2 580 0
	movs	r0, #0
	add	sp, sp, #12
.LCFI88:
	@ sp needed
	pop	{r4, r5, r6, r7, r8, r9, r10, fp, pc}
.LVL595:
.L726:
.LCFI89:
	uxth	r7, r6
	.loc 2 557 0
	ldr	r3, [r9, r7, lsl #2]
	cmp	r8, r3, lsr #10
	bne	.L723
	.loc 2 558 0
	ldr	r3, [r5, #3804]
	.loc 2 562 0
	ldr	r0, .L731+4
	.loc 2 558 0
	str	r3, [r5, #3232]
	.loc 2 559 0
	ldr	r3, [r5, #3244]
	str	r3, [r5, #3236]
	.loc 2 560 0
	ldr	r2, [r9, r7, lsl #2]
	.loc 2 559 0
	str	r3, [sp, #4]
	.loc 2 560 0
	str	r2, [r5, #3228]
	.loc 2 562 0
	movs	r2, #1
	mov	r1, r2
	bl	FlashReadPages
.LVL596:
	.loc 2 564 0
	ldr	r3, [sp, #4]
	ldrh	r3, [r3, #8]
	cmp	r3, r10
	beq	.L724
	.loc 2 564 0 is_stmt 0 discriminator 1
	mov	r2, #564
	ldr	r1, .L731+8
	mov	r0, fp
	bl	printk
.LVL597:
.L724:
	.loc 2 565 0 is_stmt 1
	ldr	r3, [r5, #3224]
	adds	r3, r3, #1
	bne	.L725
	.loc 2 566 0
	movs	r3, #0
	str	r3, [r9, r7, lsl #2]
.L723:
	adds	r6, r6, #1
	b	.L722
.L725:
	.loc 2 568 0
	ldr	r2, [r5, #3232]
	mov	r1, r7
	mov	r0, r4
	bl	FtlMapWritePage
.LVL598:
	b	.L723
.L732:
	.align	2
.L731:
	.word	.LANCHOR0
	.word	.LANCHOR0+3224
	.word	.LANCHOR1+274
	.word	.LC1
.LFE206:
	.fnend
	.size	ftl_map_blk_gc, .-ftl_map_blk_gc
	.align	1
	.global	flush_l2p_region
	.syntax unified
	.thumb
	.thumb_func
	.fpu softvfp
	.type	flush_l2p_region, %function
flush_l2p_region:
	.fnstart
.LFB209:
	.loc 2 690 0
	@ args = 0, pretend = 0, frame = 0
	@ frame_needed = 0, uses_anonymous_args = 0
.LVL599:
	push	{r3, r4, r5, lr}
	.save {r3, r4, r5, lr}
.LCFI90:
	.loc 2 693 0
	movs	r4, #12
	ldr	r5, .L734
	muls	r4, r0, r4
	ldr	r3, [r5, #2424]
	.loc 2 694 0
	addw	r0, r5, #3864
.LVL600:
	.loc 2 693 0
	adds	r2, r3, r4
	.loc 2 694 0
	ldrh	r1, [r3, r4]
	ldr	r2, [r2, #8]
	bl	FtlMapWritePage
.LVL601:
	.loc 2 695 0
	ldr	r3, [r5, #2424]
	.loc 2 697 0
	movs	r0, #0
	.loc 2 695 0
	add	r4, r4, r3
	ldr	r3, [r4, #4]
	bic	r3, r3, #-2147483648
	str	r3, [r4, #4]
	.loc 2 697 0
	pop	{r3, r4, r5, pc}
.L735:
	.align	2
.L734:
	.word	.LANCHOR0
.LFE209:
	.fnend
	.size	flush_l2p_region, .-flush_l2p_region
	.align	1
	.global	log2phys
	.syntax unified
	.thumb
	.thumb_func
	.fpu softvfp
	.type	log2phys, %function
log2phys:
	.fnstart
.LFB212:
	.loc 2 753 0
	@ args = 0, pretend = 0, frame = 0
	@ frame_needed = 0, uses_anonymous_args = 0
.LVL602:
	push	{r4, r5, r6, r7, r8, r9, r10, lr}
	.save {r4, r5, r6, r7, r8, r9, r10, lr}
.LCFI91:
	.loc 2 753 0
	mov	r7, r1
	.loc 2 756 0
	ldr	r4, .L750
	.loc 2 753 0
	mov	r9, r2
	.loc 2 756 0
	ldrh	r5, [r4, #84]
	adds	r3, r5, #7
	.loc 2 757 0
	movs	r5, #1
	.loc 2 756 0
	lsr	r8, r0, r3
	.loc 2 757 0
	lsls	r5, r5, r3
	.loc 2 759 0
	ldr	r3, [r4, #2436]
	.loc 2 757 0
	subs	r5, r5, #1
	.loc 2 756 0
	uxth	r8, r8
.LVL603:
	.loc 2 757 0
	ands	r5, r5, r0
	.loc 2 759 0
	cmp	r0, r3
	.loc 2 757 0
	uxth	r5, r5
.LVL604:
	.loc 2 759 0
	bcc	.L737
	.loc 2 759 0 is_stmt 0 discriminator 1
	movw	r2, #759
	ldr	r1, .L750+4
	ldr	r0, .L750+8
.LVL605:
	bl	printk
.LVL606:
.L737:
	.loc 2 761 0 is_stmt 1
	ldrh	r2, [r4, #114]
	movs	r3, #0
	.loc 2 762 0
	ldr	r1, [r4, #2424]
	mov	r10, #12
.LVL607:
.L738:
	uxth	r6, r3
	.loc 2 761 0 discriminator 1
	cmp	r6, r2
	bcc	.L743
	.loc 2 776 0
	bl	select_l2p_ram_region
.LVL608:
	.loc 2 777 0
	mul	r10, r10, r0
	ldr	r3, [r4, #2424]
	.loc 2 776 0
	mov	r6, r0
	.loc 2 777 0
	ldrh	r1, [r3, r10]
	add	r2, r3, r10
	movw	r3, #65535
	cmp	r1, r3
	beq	.L744
	.loc 2 777 0 is_stmt 0 discriminator 1
	ldr	r3, [r2, #4]
	cmp	r3, #0
	bge	.L744
	.loc 2 778 0 is_stmt 1
	bl	flush_l2p_region
.LVL609:
.L744:
	.loc 2 781 0
	mov	r1, r6
	mov	r0, r8
	bl	load_l2p_region
.LVL610:
	.loc 2 782 0
	b	.L739
.LVL611:
.L743:
	adds	r3, r3, #1
	.loc 2 762 0
	mla	r0, r10, r3, r1
.LVL612:
	ldrh	r0, [r0, #-12]
	cmp	r0, r8
	bne	.L738
.L739:
	movs	r3, #12
	.loc 2 764 0
	cmp	r9, #0
	bne	.L740
	.loc 2 765 0
	ldr	r2, [r4, #2424]
	mla	r3, r3, r6, r2
	ldr	r3, [r3, #8]
	ldr	r3, [r3, r5, lsl #2]
	str	r3, [r7]
.L741:
	.loc 2 771 0
	ldr	r2, [r4, #2424]
	movs	r3, #12
	mla	r6, r3, r6, r2
.LVL613:
	ldr	r3, [r6, #4]
	adds	r2, r3, #1
	beq	.L747
	.loc 2 772 0
	adds	r3, r3, #1
	str	r3, [r6, #4]
.L747:
	.loc 2 783 0
	movs	r0, #0
	pop	{r4, r5, r6, r7, r8, r9, r10, pc}
.LVL614:
.L740:
	.loc 2 767 0
	muls	r3, r6, r3
	ldr	r2, [r4, #2424]
	ldr	r1, [r7]
	add	r2, r2, r3
	ldr	r2, [r2, #8]
	str	r1, [r2, r5, lsl #2]
	.loc 2 768 0
	ldr	r2, [r4, #2424]
	.loc 2 769 0
	strh	r8, [r4, #2428]	@ movhi
	.loc 2 768 0
	add	r3, r3, r2
	ldr	r2, [r3, #4]
	orr	r2, r2, #-2147483648
	str	r2, [r3, #4]
	b	.L741
.L751:
	.align	2
.L750:
	.word	.LANCHOR0
	.word	.LANCHOR1+289
	.word	.LC1
.LFE212:
	.fnend
	.size	log2phys, .-log2phys
	.align	1
	.global	FtlReUsePrevPpa
	.syntax unified
	.thumb
	.thumb_func
	.fpu softvfp
	.type	FtlReUsePrevPpa, %function
FtlReUsePrevPpa:
	.fnstart
.LFB230:
	.loc 2 1628 0
	@ args = 0, pretend = 0, frame = 8
	@ frame_needed = 0, uses_anonymous_args = 0
.LVL615:
	push	{r0, r1, r2, r4, r5, r6, r7, lr}
	.save {r4, r5, r6, r7, lr}
	.pad #12
.LCFI92:
.LVL616:
	.loc 2 1628 0
	mov	r6, r0
	.loc 2 1631 0
	ldr	r5, .L762
.LVL617:
	.loc 2 1629 0
	ubfx	r0, r1, #10, #16
.LVL618:
	.loc 2 1628 0
	str	r1, [sp, #4]
	.loc 2 1629 0
	bl	P2V_block_in_plane
.LVL619:
	.loc 2 1631 0
	ldr	r2, [r5, #2260]
	.loc 2 1629 0
	mov	r7, r0
.LVL620:
	.loc 2 1631 0
	ldrh	r3, [r2, r0, lsl #1]
	cbnz	r3, .L753
	.loc 2 1632 0
	ldr	r4, [r5, #2272]
	cbz	r4, .L754
.LBB367:
	.loc 2 1636 0
	ldr	r1, [r5, #2252]
	.loc 2 1644 0
	mov	ip, #6
	.loc 2 1636 0
	ldr	r2, .L762+4
	.loc 2 1644 0
	movw	lr, #65535
	.loc 2 1635 0
	ldrh	r0, [r5, #2276]
.LVL621:
	.loc 2 1636 0
	subs	r4, r4, r1
	asrs	r4, r4, #1
	muls	r4, r2, r4
	uxth	r4, r4
.LVL622:
.L755:
	.loc 2 1637 0 discriminator 1
	uxth	r2, r3
	cmp	r0, r2
	bls	.L754
	.loc 2 1638 0
	cmp	r4, r7
	bne	.L756
	.loc 2 1639 0
	mov	r1, r4
	ldr	r0, .L762+8
.LVL623:
	bl	List_remove_node
.LVL624:
	ldrh	r3, [r5, #2276]
	cbnz	r3, .L757
	.loc 2 1639 0 is_stmt 0 discriminator 1
	movw	r2, #1639
	ldr	r1, .L762+12
	ldr	r0, .L762+16
	bl	printk
.LVL625:
.L757:
	.loc 2 1639 0 discriminator 3
	ldrh	r3, [r5, #2276]
	.loc 2 1640 0 is_stmt 1 discriminator 3
	mov	r0, r4
	.loc 2 1639 0 discriminator 3
	subs	r3, r3, #1
	strh	r3, [r5, #2276]	@ movhi
	.loc 2 1640 0 discriminator 3
	bl	INSERT_DATA_LIST
.LVL626:
	.loc 2 1641 0 discriminator 3
	ldr	r2, [r5, #2260]
	ldrh	r3, [r2, r7, lsl #1]
.L753:
.LBE367:
	.loc 2 1650 0
	adds	r3, r3, #1
	strh	r3, [r2, r7, lsl #1]	@ movhi
	b	.L754
.LVL627:
.L756:
.LBB368:
	.loc 2 1644 0
	mul	r4, ip, r4
.LVL628:
	adds	r3, r3, #1
	ldrh	r4, [r1, r4]
.LVL629:
	cmp	r4, lr
	bne	.L755
.L754:
.LBE368:
	.loc 2 1652 0
	movs	r2, #1
	add	r1, sp, #4
	mov	r0, r6
.LVL630:
	bl	log2phys
.LVL631:
	.loc 2 1653 0
	add	sp, sp, #12
.LCFI93:
	@ sp needed
	pop	{r4, r5, r6, r7, pc}
.LVL632:
.L763:
	.align	2
.L762:
	.word	.LANCHOR0
	.word	-1431655765
	.word	.LANCHOR0+2272
	.word	.LANCHOR1+298
	.word	.LC1
.LFE230:
	.fnend
	.size	FtlReUsePrevPpa, .-FtlReUsePrevPpa
	.align	1
	.global	ftl_scan_all_data
	.syntax unified
	.thumb
	.thumb_func
	.fpu softvfp
	.type	ftl_scan_all_data, %function
ftl_scan_all_data:
	.fnstart
.LFB241:
	.loc 2 2275 0
	@ args = 0, pretend = 0, frame = 8
	@ frame_needed = 0, uses_anonymous_args = 0
	push	{r4, r5, r6, r7, r8, lr}
	.save {r4, r5, r6, r7, r8, lr}
.LCFI94:
	.loc 2 2281 0
	movs	r5, #0
.LVL633:
	ldr	r6, .L778
	.loc 2 2275 0
	.pad #32
	sub	sp, sp, #32
.LCFI95:
	.loc 2 2280 0
	movs	r1, #0
	.loc 2 2284 0
	ldr	r8, .L778+16
	mov	r4, r6
	.loc 2 2280 0
	ldr	r0, .L778+4
	bl	printk
.LVL634:
.L765:
	.loc 2 2281 0 discriminator 1
	ldr	r3, [r6, #2436]
	cmp	r5, r3
	bcc	.L771
	.loc 2 2303 0
	add	sp, sp, #32
.LCFI96:
	@ sp needed
	pop	{r4, r5, r6, r7, r8, pc}
.LVL635:
.L771:
.LCFI97:
	.loc 2 2282 0
	movs	r2, #0
	add	r1, sp, #28
	mov	r0, r5
	bl	log2phys
.LVL636:
	.loc 2 2283 0
	ubfx	r3, r5, #0, #11
	cbnz	r3, .L766
	.loc 2 2284 0
	ldr	r2, [sp, #28]
	mov	r1, r5
	mov	r0, r8
	bl	printk
.LVL637:
.L766:
	.loc 2 2285 0
	ldr	r3, [sp, #28]
	adds	r2, r3, #1
	beq	.L768
	.loc 2 2286 0
	str	r3, [r4, #3228]
	.loc 2 2290 0
	movs	r2, #0
	.loc 2 2288 0
	ldr	r3, [r4, #2244]
	.loc 2 2292 0
	movs	r1, #1
	.loc 2 2289 0
	ldr	r7, [r4, #3244]
	.loc 2 2292 0
	ldr	r0, .L778+8
	.loc 2 2288 0
	str	r3, [r4, #3232]
	.loc 2 2287 0
	str	r5, [r4, #3240]
	.loc 2 2289 0
	str	r7, [r4, #3236]
	.loc 2 2290 0
	str	r2, [r4, #3224]
	.loc 2 2292 0
	bl	FlashReadPages
.LVL638:
	.loc 2 2293 0
	ldr	r3, [r4, #3224]
	cmp	r3, #256
	beq	.L769
	.loc 2 2293 0 is_stmt 0 discriminator 1
	adds	r3, r3, #1
	beq	.L769
	.loc 2 2294 0 is_stmt 1
	ldr	r3, [r7, #8]
	cmp	r5, r3
	beq	.L768
.L769:
	.loc 2 2297 0
	ldr	r2, [r4, #3232]
	ldr	r3, [r4, #3236]
	ldr	r0, .L778+12
	ldr	r1, [r2, #4]
	str	r1, [sp, #16]
	mov	r1, r5
	ldr	r2, [r2]
	str	r2, [sp, #12]
	ldr	r2, [r3, #12]
	str	r2, [sp, #8]
	ldr	r2, [r3, #8]
	str	r2, [sp, #4]
	ldr	r2, [r3, #4]
	str	r2, [sp]
	ldr	r3, [r3]
	ldr	r2, [r4, #3228]
	bl	printk
.LVL639:
.L768:
	.loc 2 2281 0 discriminator 2
	adds	r5, r5, #1
	b	.L765
.L779:
	.align	2
.L778:
	.word	.LANCHOR0
	.word	.LC84
	.word	.LANCHOR0+3224
	.word	.LC86
	.word	.LC85
.LFE241:
	.fnend
	.size	ftl_scan_all_data, .-ftl_scan_all_data
	.align	1
	.global	FtlReadRefresh
	.syntax unified
	.thumb
	.thumb_func
	.fpu softvfp
	.type	FtlReadRefresh, %function
FtlReadRefresh:
	.fnstart
.LFB268:
	.loc 5 419 0
	@ args = 0, pretend = 0, frame = 88
	@ frame_needed = 0, uses_anonymous_args = 0
	.loc 5 425 0
	ldr	r3, .L793
	.loc 5 419 0
	push	{r4, r5, r6, lr}
	.save {r4, r5, r6, lr}
.LCFI98:
	.pad #88
	sub	sp, sp, #88
.LCFI99:
	mov	r4, r3
	.loc 5 425 0
	ldr	r0, [r3, #2696]
	cmp	r0, #0
	beq	.L781
	.loc 5 426 0
	ldr	r1, [r3, #2700]
	ldr	r2, [r3, #2436]
	cmp	r1, r2
	bcs	.L782
	mov	r5, #2048
.LVL640:
.L787:
.LBB374:
.LBB375:
	.loc 5 428 0
	ldr	r0, [r4, #2700]
	ldr	r3, [r4, #2436]
	cmp	r0, r3
	bcs	.L784
	.loc 5 430 0
	movs	r2, #0
	mov	r1, sp
	bl	log2phys
.LVL641:
	.loc 5 432 0
	ldr	r2, [sp]
	.loc 5 431 0
	ldr	r3, [r4, #2700]
	.loc 5 432 0
	adds	r1, r2, #1
	.loc 5 431 0
	add	r3, r3, #1
	str	r3, [r4, #2700]
	.loc 5 432 0
	beq	.L785
.LBB376:
	.loc 5 435 0
	str	r3, [sp, #20]
	.loc 5 438 0
	add	r0, sp, #88
	.loc 5 436 0
	ldr	r3, .L793+4
	.loc 5 439 0
	movs	r1, #1
	.loc 5 434 0
	str	r2, [sp, #8]
	.loc 5 438 0
	movs	r2, #0
	str	r2, [r0, #-84]!
	.loc 5 436 0
	str	r3, [sp, #12]
	.loc 5 437 0
	add	r3, sp, #24
	str	r3, [sp, #16]
	.loc 5 439 0
	bl	FlashReadPages
.LVL642:
	.loc 5 440 0
	ldr	r3, [sp, #4]
	cmp	r3, #256
	bne	.L784
	.loc 5 442 0
	ldr	r0, [sp]
	ubfx	r0, r0, #10, #16
	bl	P2V_block_in_plane
.LVL643:
	bl	FtlGcRefreshBlock
.LVL644:
.L784:
.LBE376:
	mov	r0, #-1
.L780:
.LBE375:
.LBE374:
	.loc 5 466 0
	add	sp, sp, #88
.LCFI100:
	@ sp needed
	pop	{r4, r5, r6, pc}
.L785:
.LCFI101:
.LBB378:
.LBB377:
	.loc 5 427 0
	subs	r5, r5, #1
	bne	.L787
	b	.L784
.LVL645:
.L782:
.LBE377:
.LBE378:
	.loc 5 451 0
	ldr	r2, [r3, #2440]
	.loc 5 449 0
	movs	r0, #0
	str	r0, [r3, #2696]
	.loc 5 450 0
	str	r0, [r3, #2700]
	.loc 5 451 0
	str	r2, [r3, #2692]
	b	.L780
.L781:
.LBB379:
	.loc 5 456 0
	ldr	r1, [r3, #2440]
	ldr	r6, [r3, #2692]
	add	r2, r1, #1048576
	cmp	r6, r2
	bhi	.L790
	.loc 5 454 0
	ldr	r2, [r3, #2496]
	lsrs	r5, r2, #10
	mov	r2, #33554432
	asrs	r2, r2, r5
.LVL646:
	.loc 5 457 0
	add	r2, r2, r6
.LVL647:
	cmp	r1, r2
	bhi	.L790
	.loc 5 458 0
	ldrb	r3, [r3, #2532]	@ zero_extendqisi2
	cmp	r3, #0
	bne	.L780
.L790:
	.loc 5 460 0
	movs	r3, #1
	.loc 5 461 0
	movs	r0, #0
	.loc 5 460 0
	str	r3, [r4, #2696]
	.loc 5 461 0
	str	r0, [r4, #2700]
	.loc 5 462 0
	str	r1, [r4, #2692]
	b	.L780
.L794:
	.align	2
.L793:
	.word	.LANCHOR0
	.word	ftl_temp_buf
.LBE379:
.LFE268:
	.fnend
	.size	FtlReadRefresh, .-FtlReadRefresh
	.align	1
	.global	ftl_check_vpc
	.syntax unified
	.thumb
	.thumb_func
	.fpu softvfp
	.type	ftl_check_vpc, %function
ftl_check_vpc:
	.fnstart
.LFB240:
	.loc 2 2223 0
	@ args = 0, pretend = 0, frame = 8
	@ frame_needed = 0, uses_anonymous_args = 0
	push	{r0, r1, r2, r4, r5, r6, r7, r8, r9, r10, fp, lr}
	.save {r4, r5, r6, r7, r8, r9, r10, fp, lr}
	.pad #12
.LCFI102:
	.loc 2 2232 0
	movs	r4, #0
.LVL648:
	ldr	r6, .L819
	.loc 2 2238 0
	ldr	r7, .L819+4
	.loc 2 2229 0
	ldr	r1, .L819+8
	mov	r5, r6
	ldr	r0, .L819+12
	bl	printk
.LVL649:
.LBB386:
.LBB387:
.LBB388:
	.loc 1 202 0
	mov	r1, #8192
	ldr	r0, .L819+4
	bl	__memzero
.LVL650:
.L796:
.LBE388:
.LBE387:
.LBE386:
	.loc 2 2232 0 discriminator 1
	ldr	r3, [r6, #2436]
	cmp	r4, r3
	bcc	.L798
	.loc 2 2245 0 discriminator 1
	ldr	r8, .L819+4
	movs	r4, #0
.LVL651:
	.loc 2 2247 0 discriminator 1
	ldr	r10, .L819+24
	mov	r7, r4
.LVL652:
	.loc 2 2245 0 discriminator 1
	movw	r9, #65535
.L799:
	.loc 2 2243 0 discriminator 1
	ldrh	r2, [r5, #16]
	uxth	r3, r4
	cmp	r2, r3
	bhi	.L801
	.loc 2 2255 0
	ldr	r4, [r5, #2272]
	cbz	r4, .L802
.LBB389:
	.loc 2 2258 0
	ldr	r3, [r5, #2252]
	.loc 2 2259 0
	movs	r6, #0
	.loc 2 2257 0
	ldrh	r8, [r5, #2276]
.LVL653:
	.loc 2 2266 0
	mov	fp, #6
	.loc 2 2263 0
	ldr	r9, .L819+4
	.loc 2 2258 0
	subs	r4, r4, r3
	ldr	r3, .L819+16
	asrs	r4, r4, #1
	.loc 2 2263 0
	ldr	r10, .L819+28
	.loc 2 2258 0
	muls	r4, r3, r4
	uxth	r4, r4
.L803:
	.loc 2 2259 0 discriminator 1
	uxth	r3, r6
	cmp	r8, r3
	bls	.L802
	.loc 2 2261 0
	ldr	r3, [r5, #2260]
	ldrh	r2, [r3, r4, lsl #1]
	cbz	r2, .L804
	.loc 2 2264 0
	movs	r7, #1
	.loc 2 2263 0
	ldrh	r3, [r9, r4, lsl #1]
	mov	r1, r4
	mov	r0, r10
	bl	printk
.LVL654:
.L804:
	.loc 2 2266 0
	mul	r4, fp, r4
	ldr	r3, [r5, #2252]
	adds	r6, r6, #1
	ldrh	r4, [r3, r4]
	movw	r3, #65535
	cmp	r4, r3
	bne	.L803
.L802:
.LBE389:
	.loc 2 2271 0
	cbz	r7, .L795
	.loc 2 2271 0 is_stmt 0 discriminator 1
	movw	r2, #2271
	ldr	r1, .L819+8
	ldr	r0, .L819+20
	bl	printk
.LVL655:
.L795:
	.loc 2 2272 0 is_stmt 1
	add	sp, sp, #12
.LCFI103:
	@ sp needed
	pop	{r4, r5, r6, r7, r8, r9, r10, fp, pc}
.LVL656:
.L798:
.LCFI104:
	.loc 2 2234 0
	movs	r2, #0
	add	r1, sp, #4
	mov	r0, r4
	bl	log2phys
.LVL657:
	.loc 2 2235 0
	ldr	r0, [sp, #4]
	adds	r3, r0, #1
	beq	.L797
	.loc 2 2237 0
	ubfx	r0, r0, #10, #16
	bl	P2V_block_in_plane
.LVL658:
	.loc 2 2238 0
	ldrh	r3, [r7, r0, lsl #1]
	adds	r3, r3, #1
	strh	r3, [r7, r0, lsl #1]	@ movhi
.L797:
	.loc 2 2232 0 discriminator 2
	adds	r4, r4, #1
	b	.L796
.LVL659:
.L801:
	.loc 2 2245 0
	ldr	r3, [r5, #2260]
	uxth	r6, r4
	ldrh	r2, [r3, r6, lsl #1]
	ldrh	r3, [r8, r6, lsl #1]
	cmp	r2, r3
	beq	.L800
	.loc 2 2247 0
	mov	r1, r6
	mov	r0, r10
	bl	printk
.LVL660:
	.loc 2 2248 0
	ldr	r3, [r5, #2260]
	ldrh	r3, [r3, r6, lsl #1]
	cmp	r3, r9
	beq	.L800
	.loc 2 2248 0 is_stmt 0 discriminator 1
	ldrh	r2, [r8, r6, lsl #1]
	.loc 2 2250 0 is_stmt 1 discriminator 1
	cmp	r2, r3
	it	hi
	movhi	r7, #1
.L800:
	adds	r4, r4, #1
	b	.L799
.L820:
	.align	2
.L819:
	.word	.LANCHOR0
	.word	check_vpc_table
	.word	.LANCHOR1+314
	.word	.LC87
	.word	-1431655765
	.word	.LC1
	.word	.LC88
	.word	.LC89
.LFE240:
	.fnend
	.size	ftl_check_vpc, .-ftl_check_vpc
	.align	1
	.global	FtlMapBlkWriteDump_data
	.syntax unified
	.thumb
	.thumb_func
	.fpu softvfp
	.type	FtlMapBlkWriteDump_data, %function
FtlMapBlkWriteDump_data:
	.fnstart
.LFB217:
	.loc 2 897 0
	@ args = 0, pretend = 0, frame = 0
	@ frame_needed = 0, uses_anonymous_args = 0
.LVL661:
	push	{r4, r5, r6, lr}
	.save {r4, r5, r6, lr}
.LCFI105:
	.loc 2 897 0
	mov	r6, r0
	.loc 2 903 0
	ldr	r3, [r0, #36]
	cbz	r3, .L821
	.loc 2 899 0
	ldrh	r5, [r0, #6]
	.loc 2 905 0
	movs	r3, #0
	.loc 2 907 0
	ldr	r4, .L825
	.loc 2 900 0
	ldr	r2, [r0, #24]
.LVL662:
	.loc 2 905 0
	str	r3, [r0, #36]
	.loc 2 899 0
	subs	r5, r5, #1
	.loc 2 907 0
	ldr	r0, [r4, #3804]
	.loc 2 930 0
	uxth	r5, r5
	.loc 2 908 0
	ldr	r1, [r4, #3244]
	.loc 2 907 0
	str	r0, [r4, #3232]
	.loc 2 908 0
	str	r1, [r4, #3236]
	.loc 2 930 0
	ldr	r2, [r2, r5, lsl #2]
.LVL663:
	.loc 2 931 0
	str	r2, [r4, #3228]
	.loc 2 932 0
	cbz	r2, .L823
	.loc 2 934 0
	movs	r2, #1
.LVL664:
	addw	r0, r4, #3224
	mov	r1, r2
	bl	FlashReadPages
.LVL665:
.L824:
	.loc 2 941 0
	ldr	r2, [r4, #3232]
	mov	r1, r5
	mov	r0, r6
	.loc 2 943 0
	pop	{r4, r5, r6, lr}
.LCFI106:
.LVL666:
	.loc 2 941 0
	b	FtlMapWritePage
.LVL667:
.L823:
.LCFI107:
	.loc 2 938 0
	ldrh	r2, [r4, #86]
.LVL668:
	movs	r1, #255
	bl	ftl_memset
.LVL669:
	b	.L824
.LVL670:
.L821:
	pop	{r4, r5, r6, pc}
.L826:
	.align	2
.L825:
	.word	.LANCHOR0
.LFE217:
	.fnend
	.size	FtlMapBlkWriteDump_data, .-FtlMapBlkWriteDump_data
	.align	1
	.global	FtlScanSysBlk
	.syntax unified
	.thumb
	.thumb_func
	.fpu softvfp
	.type	FtlScanSysBlk, %function
FtlScanSysBlk:
	.fnstart
.LFB220:
	.loc 2 1095 0
	@ args = 0, pretend = 0, frame = 16
	@ frame_needed = 0, uses_anonymous_args = 0
	push	{r4, r5, r6, r7, r8, r9, r10, fp, lr}
	.save {r4, r5, r6, r7, r8, r9, r10, fp, lr}
.LCFI108:
	.loc 2 1101 0
	movs	r5, #0
	ldr	r4, .L909
	.loc 2 1095 0
	.pad #20
	sub	sp, sp, #20
.LCFI109:
	.loc 2 1103 0
	mov	r1, r5
	ldr	r2, [r4, #104]
	ldr	r0, [r4, #3852]
	.loc 2 1101 0
	strh	r5, [r4, #3904]	@ movhi
	.loc 2 1102 0
	strh	r5, [r4, #120]	@ movhi
	.loc 2 1103 0
	lsls	r2, r2, #2
	bl	ftl_memset
.LVL671:
	.loc 2 1104 0
	ldr	r2, [r4, #104]
	mov	r1, r5
	ldr	r0, [r4, #3828]
	lsls	r2, r2, #1
	bl	ftl_memset
.LVL672:
	.loc 2 1105 0
	ldrh	r2, [r4, #96]
	mov	r1, r5
	ldr	r0, [r4, #3840]
	lsls	r2, r2, #2
	bl	ftl_memset
.LVL673:
	.loc 2 1106 0
	ldrh	r2, [r4, #96]
	mov	r1, r5
	ldr	r0, [r4, #124]
	lsls	r2, r2, #1
	bl	ftl_memset
.LVL674:
	.loc 2 1109 0
	ldrh	r8, [r4, #16]
.LVL675:
.LBB395:
.LBB396:
.LBB397:
	.loc 1 202 0
	mov	r3, #-1
	str	r3, [r4, #2556]
	str	r3, [r4, #2560]
	str	r3, [r4, #2564]
.LVL676:
.L828:
.LBE397:
.LBE396:
.LBE395:
	.loc 2 1109 0 discriminator 1
	ldrh	r3, [r4, #18]
	cmp	r3, r8
	bls	.L870
	.loc 2 1120 0 discriminator 1
	movs	r5, #0
	.loc 2 1113 0 discriminator 1
	ldrh	fp, [r4, #8]
	.loc 2 1118 0 discriminator 1
	ldr	r9, [r4, #3792]
	.loc 2 1120 0 discriminator 1
	mov	r7, r5
	.loc 2 1119 0 discriminator 1
	ldr	r3, [r4, #3152]
	.loc 2 1118 0 discriminator 1
	mov	r10, #20
	.loc 2 1120 0 discriminator 1
	ldr	r2, [r4, #3156]
	ldrh	r6, [r4, #88]
.LVL677:
	b	.L871
.L831:
	str	r3, [sp, #8]
	.loc 2 1115 0
	mov	r1, r8
	ldr	r3, .L909+4
	str	r2, [sp, #12]
	ldrb	r0, [r3, r5]	@ zero_extendqisi2
	bl	V2P_block
.LVL678:
	str	r0, [sp, #4]
	.loc 2 1116 0
	bl	FtlBbmIsBadBlock
.LVL679:
	ldr	r3, [sp, #8]
	ldr	r2, [sp, #12]
	cbnz	r0, .L829
	.loc 2 1118 0
	ldr	r1, [sp, #4]
	mla	r0, r10, r7, r9
	lsls	r1, r1, #10
	.loc 2 1119 0
	str	r3, [r0, #8]
	.loc 2 1118 0
	str	r1, [r0, #4]
	.loc 2 1120 0
	mov	r1, r6
	muls	r1, r7, r1
	.loc 2 1121 0
	add	r7, r7, #1
.LVL680:
	.loc 2 1120 0
	it	mi
	addmi	r1, r1, #3
	.loc 2 1121 0
	uxth	r7, r7
.LVL681:
	.loc 2 1120 0
	bic	r1, r1, #3
	add	r1, r1, r2
	str	r1, [r0, #12]
.L829:
	adds	r5, r5, #1
.L871:
	.loc 2 1113 0 discriminator 1
	uxth	r1, r5
	cmp	fp, r1
	bhi	.L831
	.loc 2 1124 0
	cbnz	r7, .L832
.LVL682:
.L869:
	.loc 2 1109 0
	add	r8, r8, #1
.LVL683:
	uxth	r8, r8
.LVL684:
	b	.L828
.LVL685:
.L832:
	.loc 2 1127 0
	mov	r0, r9
	.loc 2 1128 0
	mov	r9, #0
	.loc 2 1127 0
	movs	r2, #1
	mov	r1, r7
	bl	FlashReadPages
.LVL686:
.L833:
	.loc 2 1128 0 discriminator 1
	uxth	r3, r9
	cmp	r7, r3
	bls	.L869
	movs	r3, #20
	mul	r10, r3, r9
	.loc 2 1129 0
	ldr	r3, [r4, #3792]
	add	r2, r3, r10
	.loc 2 1132 0
	ldr	r3, [r3, r10]
	.loc 2 1129 0
	ldr	r5, [r2, #4]
	.loc 2 1130 0
	ldr	r6, [r2, #12]
	.loc 2 1132 0
	adds	r3, r3, #1
	.loc 2 1129 0
	ubfx	r5, r5, #10, #16
	.loc 2 1132 0
	bne	.L836
	mov	fp, #16
	.loc 2 1136 0
	movw	r3, #65535
.L838:
	.loc 2 1134 0
	ldr	r0, [r4, #3792]
	str	r3, [sp, #4]
	add	r0, r0, r10
	ldr	r2, [r0, #4]
	adds	r2, r2, #1
	str	r2, [r0, #4]
	.loc 2 1135 0
	movs	r2, #1
	mov	r1, r2
	bl	FlashReadPages
.LVL687:
	.loc 2 1136 0
	ldrh	r2, [r6]
	ldr	r3, [sp, #4]
	cmp	r2, r3
	bne	.L835
	.loc 2 1137 0
	ldr	r3, [r4, #3792]
	mov	r2, #-1
	str	r2, [r3, r10]
	.loc 2 1145 0
	ldr	r3, [r4, #3792]
	ldr	r3, [r3, r10]
	cmp	r3, r2
	bne	.L836
.L837:
	.loc 2 1287 0
	movs	r1, #1
	b	.L908
.L835:
	.loc 2 1139 0
	ldr	r2, [r4, #3792]
	ldr	r2, [r2, r10]
	adds	r2, r2, #1
	bne	.L836
	add	fp, fp, #-1
	uxth	fp, fp
	.loc 2 1133 0 discriminator 2
	cmp	fp, #0
	bne	.L838
	b	.L837
.L836:
	.loc 2 1147 0
	ldr	r2, [r4, #2472]
	ldr	r3, [r6, #4]
	adds	r1, r2, #1
	beq	.L839
	.loc 2 1147 0 is_stmt 0 discriminator 1
	cmp	r2, r3
	bhi	.L840
.L839:
	.loc 2 1149 0 is_stmt 1
	adds	r2, r3, #1
	.loc 2 1152 0
	itt	ne
	addne	r2, r3, #1
	strne	r2, [r4, #2472]
.L840:
	.loc 2 1157 0
	ldrh	r2, [r6]
	movw	r1, #61604
	cmp	r2, r1
	beq	.L842
	bhi	.L843
	movw	r3, #61574
	cmp	r2, r3
	beq	.L844
.L841:
	add	r9, r9, #1
	b	.L833
.L843:
	movw	r3, #61634
	cmp	r2, r3
	beq	.L845
	movw	r3, #65535
	cmp	r2, r3
	bne	.L841
	.loc 2 1280 0
	movs	r1, #0
.L908:
	.loc 2 1287 0
	mov	r0, r5
	bl	FtlFreeSysBlkQueueIn
.LVL688:
	b	.L841
.L845:
	.loc 2 1162 0
	ldrh	r2, [r4, #3904]
	ldr	r3, [r4, #104]
	cmp	r2, r3
	bls	.L847
	.loc 2 1162 0 is_stmt 0 discriminator 1
	movw	r2, #1162
	ldr	r1, .L909+8
	ldr	r0, .L909+12
	bl	printk
.LVL689:
.L847:
	.loc 2 1163 0 is_stmt 1
	ldr	r1, [r4, #104]
	ldrh	r0, [r4, #3904]
	.loc 2 1165 0
	ldr	r10, [r4, #3852]
	.loc 2 1163 0
	uxth	ip, r1
	add	r3, ip, #-1
	sub	ip, ip, r0
	add	ip, ip, #-1
	sxth	r3, r3
	sxth	ip, ip
.L848:
	.loc 2 1163 0 is_stmt 0 discriminator 1
	cmp	r3, ip
	bgt	.L854
	.loc 2 1186 0 is_stmt 1
	cmp	r3, #0
	bge	.L886
	b	.L841
.L854:
	.loc 2 1165 0
	ldr	r2, [r6, #4]
	lsl	fp, r3, #2
	mov	lr, r2
	ldr	r2, [r10, r3, lsl #2]
	cmp	lr, r2
	bls	.L849
	.loc 2 1167 0
	ldr	r2, [r10]
	cbnz	r2, .L850
	.loc 2 1167 0 is_stmt 0 discriminator 1
	cmp	r1, r0
	.loc 2 1172 0 is_stmt 1 discriminator 1
	itt	ne
	addne	r0, r0, #1
	strhne	r0, [r4, #3904]	@ movhi
.L850:
	.loc 2 1175 0 discriminator 1
	uxth	ip, r3
	movs	r2, #0
.L851:
	uxth	r0, r2
	sxth	r1, r2
	cmp	ip, r0
	bhi	.L852
	.loc 2 1180 0
	ldr	r2, [r4, #3852]
	.loc 2 1186 0
	cmp	r3, #0
	.loc 2 1180 0
	ldr	r1, [r6, #4]
	str	r1, [r2, fp]
	.loc 2 1181 0
	ldr	r2, [r4, #3828]
	strh	r5, [r2, r3, lsl #1]	@ movhi
	.loc 2 1186 0
	blt	.L841
	.loc 2 1193 0
	ldrh	r0, [r4, #3904]
	ldr	r2, [r4, #104]
	subs	r2, r2, r0
	subs	r2, r2, #1
	sxth	r2, r2
	cmp	r3, r2
	bgt	.L841
.L886:
	.loc 2 1196 0
	ldr	r2, [r4, #3852]
	.loc 2 1195 0
	adds	r0, r0, #1
	.loc 2 1196 0
	ldr	r1, [r6, #4]
	.loc 2 1195 0
	strh	r0, [r4, #3904]	@ movhi
	.loc 2 1196 0
	str	r1, [r2, r3, lsl #2]
	.loc 2 1197 0
	ldr	r2, [r4, #3828]
.L906:
	.loc 2 1241 0
	strh	r5, [r2, r3, lsl #1]	@ movhi
	b	.L841
.L852:
	.loc 2 1177 0 discriminator 3
	ldr	r0, [r4, #3852]
	adds	r2, r2, #1
	add	lr, r0, r1, lsl #2
	ldr	lr, [lr, #4]
	str	lr, [r0, r1, lsl #2]
	.loc 2 1178 0 discriminator 3
	ldr	r0, [r4, #3828]
	add	lr, r0, r1, lsl #1
	ldrh	lr, [lr, #2]
	strh	lr, [r0, r1, lsl #1]	@ movhi
	b	.L851
.L849:
	subs	r3, r3, #1
	sxth	r3, r3
	b	.L848
.L910:
	.align	2
.L909:
	.word	.LANCHOR0
	.word	.LANCHOR0+36
	.word	.LANCHOR1+328
	.word	.LC1
.L844:
	.loc 2 1203 0
	ldrh	r2, [r4, #120]
	ldrh	r3, [r4, #96]
	cmp	r2, r3
	bls	.L857
	.loc 2 1203 0 is_stmt 0 discriminator 1
	movw	r2, #1203
	ldr	r1, .L911
	ldr	r0, .L911+4
	bl	printk
.LVL690:
.L857:
	.loc 2 1204 0 is_stmt 1
	ldrh	lr, [r4, #96]
	ldrh	r0, [r4, #120]
	.loc 2 1206 0
	ldr	r10, [r4, #3840]
	.loc 2 1204 0
	add	ip, lr, #-1
	sxth	r3, ip
	sub	ip, ip, r0
.L858:
	.loc 2 1204 0 is_stmt 0 discriminator 1
	cmp	r3, ip
	ble	.L863
	.loc 2 1206 0 is_stmt 1
	ldr	r2, [r6, #4]
	lsl	fp, r3, #2
	ldr	r1, [r10, r3, lsl #2]
	cmp	r2, r1
	bls	.L859
	.loc 2 1208 0
	ldr	r2, [r10]
	cbnz	r2, .L860
	.loc 2 1208 0 is_stmt 0 discriminator 1
	cmp	lr, r0
	.loc 2 1216 0 is_stmt 1 discriminator 1
	itt	ne
	addne	r0, r0, #1
	strhne	r0, [r4, #120]	@ movhi
.L860:
	.loc 2 1218 0 discriminator 1
	uxth	ip, r3
	movs	r2, #0
.L861:
	uxth	r0, r2
	sxth	r1, r2
	cmp	ip, r0
	bhi	.L862
	.loc 2 1223 0
	ldr	r2, [r4, #3840]
	ldr	r1, [r6, #4]
	str	r1, [r2, fp]
	.loc 2 1224 0
	ldr	r2, [r4, #124]
	strh	r5, [r2, r3, lsl #1]	@ movhi
.L863:
	.loc 2 1229 0
	cmp	r3, #0
	blt	.L841
	.loc 2 1237 0
	ldrh	r2, [r4, #96]
	ldrh	r1, [r4, #120]
	subs	r2, r2, #1
	subs	r2, r2, r1
	sxth	r2, r2
	cmp	r3, r2
	bgt	.L841
	.loc 2 1239 0
	adds	r1, r1, #1
	.loc 2 1240 0
	ldr	r2, [r4, #3840]
	.loc 2 1239 0
	strh	r1, [r4, #120]	@ movhi
	.loc 2 1240 0
	ldr	r1, [r6, #4]
	str	r1, [r2, r3, lsl #2]
	.loc 2 1241 0
	ldr	r2, [r4, #124]
	b	.L906
.L862:
	.loc 2 1220 0 discriminator 3
	ldr	r0, [r4, #3840]
	adds	r2, r2, #1
	add	lr, r0, r1, lsl #2
	ldr	lr, [lr, #4]
	str	lr, [r0, r1, lsl #2]
	.loc 2 1221 0 discriminator 3
	ldr	r0, [r4, #124]
	add	lr, r0, r1, lsl #1
	ldrh	lr, [lr, #2]
	strh	lr, [r0, r1, lsl #1]	@ movhi
	b	.L861
.L859:
	subs	r3, r3, #1
	sxth	r3, r3
	b	.L858
.L842:
	.loc 2 1248 0
	ldrh	r1, [r4, #2556]
	movw	r2, #65535
	cmp	r1, r2
	bne	.L865
	.loc 2 1250 0
	strh	r5, [r4, #2556]	@ movhi
.L907:
	.loc 2 1261 0
	str	r3, [r4, #2564]
	b	.L841
.L865:
	.loc 2 1255 0
	ldrh	r0, [r4, #2560]
	cmp	r0, r2
	beq	.L866
	.loc 2 1256 0
	movs	r1, #1
	bl	FtlFreeSysBlkQueueIn
.LVL691:
.L866:
	.loc 2 1257 0
	ldr	r2, [r4, #2564]
	ldr	r3, [r6, #4]
	cmp	r2, r3
	bcs	.L867
	.loc 2 1259 0
	ldrh	r3, [r4, #2556]
	.loc 2 1260 0
	strh	r5, [r4, #2556]	@ movhi
	.loc 2 1259 0
	strh	r3, [r4, #2560]	@ movhi
	.loc 2 1261 0
	ldr	r3, [r6, #4]
	b	.L907
.L867:
	.loc 2 1265 0
	strh	r5, [r4, #2560]	@ movhi
	b	.L841
.L870:
	.loc 2 1292 0
	ldr	r1, [r4, #3828]
	ldrh	r3, [r1]
	cbz	r3, .L872
.L875:
	.loc 2 1310 0
	ldr	r1, [r4, #124]
	ldrh	r2, [r1]
	cmp	r2, #0
	beq	.L873
.L874:
	.loc 2 1328 0
	ldrh	r2, [r4, #3904]
	ldr	r3, [r4, #104]
	cmp	r2, r3
	bls	.L905
	.loc 2 1328 0 is_stmt 0 discriminator 1
	mov	r2, #1328
	ldr	r1, .L911
	ldr	r0, .L911+4
	bl	printk
.LVL692:
.L905:
	.loc 2 1330 0 is_stmt 1
	movs	r0, #0
	add	sp, sp, #20
.LCFI110:
	@ sp needed
	pop	{r4, r5, r6, r7, r8, r9, r10, fp, pc}
.LVL693:
.L872:
.LCFI111:
	.loc 2 1292 0 discriminator 1
	ldrh	r2, [r4, #3904]
	cmp	r2, #0
	beq	.L875
	.loc 2 1294 0 discriminator 1
	ldr	r0, [r4, #104]
.L876:
	sxth	r2, r3
	cmp	r2, r0
	bcs	.L875
	.loc 2 1296 0
	ldrh	r5, [r1, r2, lsl #1]
	adds	r3, r3, #1
	cmp	r5, #0
	beq	.L876
	mov	r3, r2
	.loc 2 1302 0 discriminator 1
	movs	r5, #0
.L877:
	.loc 2 1298 0 discriminator 1
	ldr	r1, [r4, #104]
	cmp	r3, r1
	bcs	.L875
	.loc 2 1300 0 discriminator 3
	ldr	r1, [r4, #3828]
	subs	r0, r3, r2
	ldrh	r6, [r1, r3, lsl #1]
.LVL694:
	strh	r6, [r1, r0, lsl #1]	@ movhi
	.loc 2 1301 0 discriminator 3
	ldr	r1, [r4, #3852]
	ldr	r6, [r1, r3, lsl #2]
	str	r6, [r1, r0, lsl #2]
	.loc 2 1302 0 discriminator 3
	ldr	r1, [r4, #3828]
	strh	r5, [r1, r3, lsl #1]	@ movhi
	adds	r3, r3, #1
	sxth	r3, r3
	b	.L877
.LVL695:
.L873:
	.loc 2 1310 0 discriminator 1
	ldrh	r3, [r4, #120]
	cmp	r3, #0
	beq	.L874
	.loc 2 1312 0 discriminator 1
	ldrh	r0, [r4, #96]
.L882:
	sxth	r3, r2
	cmp	r3, r0
	mov	r5, r3
	bge	.L874
	.loc 2 1314 0
	ldrh	r6, [r1, r3, lsl #1]
.LVL696:
	adds	r2, r2, #1
	cmp	r6, #0
	beq	.L882
	.loc 2 1320 0 discriminator 1
	movs	r0, #0
.L883:
	.loc 2 1316 0 discriminator 1
	ldrh	r2, [r4, #96]
	cmp	r3, r2
	bge	.L874
	.loc 2 1318 0 discriminator 3
	ldr	r2, [r4, #124]
	subs	r1, r3, r5
	ldrh	r6, [r2, r3, lsl #1]
	strh	r6, [r2, r1, lsl #1]	@ movhi
	.loc 2 1319 0 discriminator 3
	ldr	r2, [r4, #3840]
	ldr	r6, [r2, r3, lsl #2]
	str	r6, [r2, r1, lsl #2]
	.loc 2 1320 0 discriminator 3
	ldr	r2, [r4, #124]
	strh	r0, [r2, r3, lsl #1]	@ movhi
	adds	r3, r3, #1
	sxth	r3, r3
	b	.L883
.L912:
	.align	2
.L911:
	.word	.LANCHOR1+328
	.word	.LC1
.LFE220:
	.fnend
	.size	FtlScanSysBlk, .-FtlScanSysBlk
	.align	1
	.global	FtlMapTblRecovery
	.syntax unified
	.thumb
	.thumb_func
	.fpu softvfp
	.type	FtlMapTblRecovery, %function
FtlMapTblRecovery:
	.fnstart
.LFB225:
	.loc 2 1466 0
	@ args = 0, pretend = 0, frame = 24
	@ frame_needed = 0, uses_anonymous_args = 0
.LVL697:
	push	{r4, r5, r6, r7, r8, r9, r10, fp, lr}
	.save {r4, r5, r6, r7, r8, r9, r10, fp, lr}
.LCFI112:
	.pad #28
	sub	sp, sp, #28
.LCFI113:
	.loc 2 1470 0
	ldr	r3, [r0, #24]
.LVL698:
	.loc 2 1466 0
	mov	r4, r0
	.loc 2 1477 0
	movs	r1, #0
	.loc 2 1473 0
	ldrh	r10, [r0, #6]
.LVL699:
	.loc 2 1470 0
	str	r3, [sp, #4]
	.loc 2 1472 0
	ldr	r3, [r0, #16]
.LVL700:
	.loc 2 1478 0
	ldr	r5, .L940
	.loc 2 1471 0
	ldr	r9, [r0, #12]
.LVL701:
	.loc 2 1477 0
	lsl	r2, r10, #2
	.loc 2 1472 0
	str	r3, [sp, #12]
	.loc 2 1474 0
	ldrh	r3, [r0, #8]
.LVL702:
	.loc 2 1477 0
	ldr	r0, [sp, #4]
.LVL703:
	.loc 2 1474 0
	str	r3, [sp, #8]
	.loc 2 1477 0
	bl	ftl_memset
.LVL704:
	.loc 2 1478 0
	ldr	r3, [r5, #2244]
	.loc 2 1485 0
	movs	r2, #1
	.loc 2 1479 0
	ldr	r6, [r5, #3244]
	.loc 2 1485 0
	str	r2, [r4, #36]
	.loc 2 1478 0
	str	r3, [r5, #3232]
	.loc 2 1481 0
	movw	r3, #65535
	.loc 2 1479 0
	str	r6, [r5, #3236]
	.loc 2 1481 0
	strh	r3, [r4]	@ movhi
	.loc 2 1482 0
	strh	r3, [r4, #2]	@ movhi
	.loc 2 1483 0
	movs	r3, #0
	str	r3, [r4, #32]
	.loc 2 1486 0
	mov	r8, r3
	.loc 2 1484 0
	str	r3, [r4, #28]
	.loc 2 1488 0
	ldr	r3, [sp, #8]
.LVL705:
	add	fp, r3, #-1
	.loc 2 1530 0
	mov	r3, r5
.LVL706:
.L914:
	.loc 2 1486 0 discriminator 1
	ldr	r1, [sp, #8]
.LVL707:
	sxth	r2, r8
.LVL708:
	cmp	r2, r1
	bge	.L931
	.loc 2 1488 0
	cmp	r2, fp
	lsl	r7, r2, #1
.LVL709:
	bne	.L915
	.loc 2 1490 0
	ldrh	r0, [r9, fp, lsl #1]
.LVL710:
	movs	r1, #1
.LVL711:
	bl	FtlGetLastWrittenPage
.LVL712:
	.loc 2 1493 0
	ldr	r3, [sp, #12]
.LVL713:
	.loc 2 1490 0
	add	r7, r7, r9
	.loc 2 1492 0
	strh	r8, [r4]	@ movhi
	.loc 2 1490 0
	sxth	r9, r0
.LVL714:
	.loc 2 1497 0
	ldr	r8, .L940+4
	.loc 2 1491 0
	adds	r0, r0, #1
	strh	r0, [r4, #2]	@ movhi
	.loc 2 1494 0
	add	r9, r9, #1
.LVL715:
	.loc 2 1493 0
	ldr	r3, [r3, fp, lsl #2]
.LVL716:
	.loc 2 1494 0
	mov	fp, #0
	.loc 2 1493 0
	str	r3, [r4, #28]
.LVL717:
.L916:
	.loc 2 1494 0 discriminator 1
	sxth	r2, fp
	cmp	r2, r9
	blt	.L918
.LVL718:
.L931:
	.loc 2 1547 0
	mov	r0, r4
	bl	ftl_free_no_use_map_blk
.LVL719:
	.loc 2 1548 0
	ldrh	r2, [r4, #2]
	ldrh	r3, [r5, #80]
	cmp	r2, r3
	bne	.L920
	.loc 2 1550 0
	mov	r0, r4
	bl	ftl_map_blk_alloc_new_blk
.LVL720:
.L920:
	.loc 2 1553 0
	mov	r0, r4
	bl	ftl_map_blk_gc
.LVL721:
	.loc 2 1555 0
	mov	r0, r4
	bl	ftl_map_blk_gc
.LVL722:
	.loc 2 1557 0
	movs	r0, #0
	add	sp, sp, #28
.LCFI114:
	@ sp needed
	pop	{r4, r5, r6, r7, r8, r9, r10, fp, pc}
.LVL723:
.L918:
.LCFI115:
	.loc 2 1496 0
	ldrh	r1, [r7]
	.loc 2 1497 0
	mov	r0, r8
	.loc 2 1496 0
	orr	r2, r2, r1, lsl #10
	str	r2, [r5, #3228]
	.loc 2 1497 0
	movs	r2, #1
	mov	r1, r2
	bl	FlashReadPages
.LVL724:
	.loc 2 1500 0
	ldr	r2, [r5, #3224]
	adds	r2, r2, #1
	beq	.L917
	.loc 2 1502 0
	ldrh	r2, [r6, #8]
	cmp	r10, r2
	bls	.L917
	.loc 2 1502 0 is_stmt 0 discriminator 1
	ldrh	r1, [r4, #4]
	ldrh	r0, [r6]
	cmp	r0, r1
	.loc 2 1504 0 is_stmt 1 discriminator 1
	ittt	eq
	ldreq	r1, [r5, #3228]
	ldreq	r3, [sp, #4]
.LVL725:
	streq	r1, [r3, r2, lsl #2]
.L917:
	add	fp, fp, #1
	b	.L916
.LVL726:
.L915:
	.loc 2 1510 0
	ldr	r1, [r5, #2244]
.LVL727:
	str	r3, [sp, #20]
	.loc 2 1511 0
	add	r3, r9, r7
	.loc 2 1512 0
	ldr	r0, .L940+4
.LVL728:
	.loc 2 1510 0
	str	r1, [r5, #3232]
	.loc 2 1511 0
	ldrh	r1, [r9, r2, lsl #1]
	ldrh	r2, [r5, #80]
.LVL729:
	str	r3, [sp, #16]
	subs	r2, r2, #1
	orr	r2, r2, r1, lsl #10
	str	r2, [r5, #3228]
	.loc 2 1512 0
	movs	r2, #1
	mov	r1, r2
	bl	FlashReadPages
.LVL730:
	.loc 2 1515 0
	ldr	r2, [r5, #3224]
	ldr	r3, [sp, #20]
	adds	r2, r2, #1
	beq	.L933
	.loc 2 1515 0 is_stmt 0 discriminator 1
	ldrh	r1, [r6]
	ldrh	r2, [r4, #4]
	cmp	r1, r2
	bne	.L933
	.loc 2 1515 0 discriminator 2
	ldrh	r1, [r6, #8]
	movw	r2, #64245
	cmp	r1, r2
	beq	.L922
.L933:
	movs	r7, #0
.LVL731:
.L923:
	.loc 2 1530 0 is_stmt 1 discriminator 1
	ldrh	r1, [r3, #80]
	sxth	r2, r7
	cmp	r2, r1
	bge	.L929
	.loc 2 1532 0
	ldr	r1, [sp, #16]
	.loc 2 1533 0
	ldr	r0, .L940+4
.LVL732:
	.loc 2 1532 0
	str	r3, [sp, #20]
	ldrh	r1, [r1]
	orr	r2, r2, r1, lsl #10
	str	r2, [r3, #3228]
	.loc 2 1533 0
	movs	r2, #1
	mov	r1, r2
	bl	FlashReadPages
.LVL733:
	.loc 2 1536 0
	ldr	r3, [sp, #20]
	ldr	r2, [r3, #3224]
	adds	r2, r2, #1
	beq	.L927
	.loc 2 1538 0
	ldrh	r2, [r6, #8]
	cmp	r10, r2
	bls	.L927
	.loc 2 1538 0 is_stmt 0 discriminator 1
	ldrh	r0, [r6]
	ldrh	r1, [r4, #4]
	cmp	r0, r1
	.loc 2 1540 0 is_stmt 1 discriminator 1
	ittt	eq
	ldreq	r1, [r3, #3228]
	ldreq	r0, [sp, #4]
.LVL734:
	streq	r1, [r0, r2, lsl #2]
.L927:
	adds	r7, r7, #1
	b	.L923
.LVL735:
.L922:
	movs	r0, #0
	.loc 2 1523 0 discriminator 1
	mov	ip, #4
.LVL736:
.L924:
	.loc 2 1518 0 discriminator 1
	ldrh	r1, [r5, #80]
	sxth	r2, r0
	subs	r1, r1, #1
	cmp	r2, r1
	blt	.L926
.L929:
	add	r8, r8, #1
	b	.L914
.L926:
	.loc 2 1520 0
	ldr	r7, [r5, #2244]
.LVL737:
	ldr	r1, [r7, r2, lsl #3]
	.loc 2 1521 0
	uxth	lr, r1
	cmp	r10, lr
	bls	.L925
	.loc 2 1523 0
	add	r2, ip, r2, lsl #3
	ldr	r2, [r7, r2]
	ldr	r7, [sp, #4]
.LVL738:
	str	r2, [r7, lr, lsl #2]
.L925:
	adds	r0, r0, #1
	b	.L924
.L941:
	.align	2
.L940:
	.word	.LANCHOR0
	.word	.LANCHOR0+3224
.LFE225:
	.fnend
	.size	FtlMapTblRecovery, .-FtlMapTblRecovery
	.align	1
	.global	FtlLoadVonderInfo
	.syntax unified
	.thumb
	.thumb_func
	.fpu softvfp
	.type	FtlLoadVonderInfo, %function
FtlLoadVonderInfo:
	.fnstart
.LFB226:
	.loc 2 1560 0
	@ args = 0, pretend = 0, frame = 0
	@ frame_needed = 0, uses_anonymous_args = 0
	.loc 2 1561 0
	ldr	r0, .L943
	.loc 2 1560 0
	push	{r3, lr}
	.save {r3, lr}
.LCFI116:
	.loc 2 1561 0
	ldrh	r3, [r0, #96]
	strh	r3, [r0, #3918]	@ movhi
	.loc 2 1562 0
	movw	r3, #61574
	strh	r3, [r0, #3912]	@ movhi
	.loc 2 1563 0
	ldrh	r3, [r0, #120]
	strh	r3, [r0, #3916]	@ movhi
	.loc 2 1564 0
	ldrh	r3, [r0, #98]
	strh	r3, [r0, #3914]	@ movhi
	.loc 2 1565 0
	ldr	r3, [r0, #124]
	.loc 2 1570 0
	addw	r0, r0, #3908
	.loc 2 1565 0
	str	r3, [r0, #12]
	.loc 2 1566 0
	ldr	r3, [r0, #-68]
	str	r3, [r0, #16]
	.loc 2 1567 0
	ldr	r3, [r0, #-72]
	str	r3, [r0, #20]
	.loc 2 1568 0
	ldr	r3, [r0, #-64]
	str	r3, [r0, #24]
	.loc 2 1570 0
	bl	FtlMapTblRecovery
.LVL739:
	.loc 2 1573 0
	movs	r0, #0
	pop	{r3, pc}
.L944:
	.align	2
.L943:
	.word	.LANCHOR0
.LFE226:
	.fnend
	.size	FtlLoadVonderInfo, .-FtlLoadVonderInfo
	.align	1
	.global	FtlL2PDataInit
	.syntax unified
	.thumb
	.thumb_func
	.fpu softvfp
	.type	FtlL2PDataInit, %function
FtlL2PDataInit:
	.fnstart
.LFB227:
	.loc 2 1576 0
	@ args = 0, pretend = 0, frame = 0
	@ frame_needed = 0, uses_anonymous_args = 0
	push	{r3, r4, r5, r6, r7, lr}
	.save {r3, r4, r5, r6, r7, lr}
.LCFI117:
	.loc 2 1578 0
	movs	r1, #0
	ldr	r4, .L948
	.loc 2 1582 0
	movs	r6, #12
	.loc 2 1578 0
	ldr	r2, [r4, #104]
	ldr	r0, [r4, #3832]
	lsls	r2, r2, #1
	bl	ftl_memset
.LVL740:
	.loc 2 1579 0
	ldrh	r3, [r4, #86]
	movs	r1, #255
	ldrh	r2, [r4, #114]
	ldr	r0, [r4, #3856]
	muls	r2, r3, r2
	bl	ftl_memset
.LVL741:
	.loc 2 1580 0
	movs	r2, #0
	mov	r3, r4
	movw	r1, #65535
	.loc 2 1582 0
	mov	r7, r2
.L946:
	.loc 2 1580 0 discriminator 1
	ldrh	r4, [r3, #114]
	uxth	r0, r2
	adds	r5, r2, #1
	cmp	r4, r0
	bhi	.L947
	.loc 2 1588 0
	ldr	r2, [r3, #104]
	.loc 2 1586 0
	strh	r1, [r3, #3866]	@ movhi
	.loc 2 1587 0
	strh	r1, [r3, #3864]	@ movhi
	.loc 2 1588 0
	strh	r2, [r3, #3874]	@ movhi
	.loc 2 1589 0
	movw	r2, #61634
	strh	r2, [r3, #3868]	@ movhi
	.loc 2 1590 0
	ldrh	r2, [r3, #3904]
	strh	r2, [r3, #3872]	@ movhi
	.loc 2 1591 0
	ldrh	r2, [r3, #112]
	strh	r2, [r3, #3870]	@ movhi
	.loc 2 1592 0
	ldr	r2, [r3, #3828]
	str	r2, [r3, #3876]
	.loc 2 1593 0
	ldr	r2, [r3, #3852]
	str	r2, [r3, #3880]
	.loc 2 1594 0
	ldr	r2, [r3, #3832]
	str	r2, [r3, #3884]
	.loc 2 1595 0
	ldr	r2, [r3, #3848]
	str	r2, [r3, #3888]
	pop	{r3, r4, r5, r6, r7, pc}
.L947:
	.loc 2 1582 0 discriminator 3
	uxth	r2, r2
	ldr	r0, [r3, #2424]
	mul	r4, r6, r2
	add	ip, r0, r4
	str	r7, [ip, #4]
	.loc 2 1583 0 discriminator 3
	strh	r1, [r0, r4]	@ movhi
	.loc 2 1584 0 discriminator 3
	ldr	r0, [r3, #2424]
	add	r0, r0, r4
	ldrh	r4, [r3, #86]
	muls	r2, r4, r2
	ldr	r4, [r3, #3856]
	bic	r2, r2, #3
	add	r2, r2, r4
	str	r2, [r0, #8]
	mov	r2, r5
	b	.L946
.L949:
	.align	2
.L948:
	.word	.LANCHOR0
.LFE227:
	.fnend
	.size	FtlL2PDataInit, .-FtlL2PDataInit
	.align	1
	.global	FtlLoadMapInfo
	.syntax unified
	.thumb
	.thumb_func
	.fpu softvfp
	.type	FtlLoadMapInfo, %function
FtlLoadMapInfo:
	.fnstart
.LFB228:
	.loc 2 1599 0
	@ args = 0, pretend = 0, frame = 0
	@ frame_needed = 0, uses_anonymous_args = 0
	push	{r3, lr}
	.save {r3, lr}
.LCFI118:
	.loc 2 1600 0
	bl	FtlL2PDataInit
.LVL742:
	.loc 2 1602 0
	ldr	r0, .L951
	bl	FtlMapTblRecovery
.LVL743:
	.loc 2 1605 0
	movs	r0, #0
	pop	{r3, pc}
.L952:
	.align	2
.L951:
	.word	.LANCHOR0+3864
.LFE228:
	.fnend
	.size	FtlLoadMapInfo, .-FtlLoadMapInfo
	.align	1
	.global	FtlVariablesInit
	.syntax unified
	.thumb
	.thumb_func
	.fpu softvfp
	.type	FtlVariablesInit, %function
FtlVariablesInit:
	.fnstart
.LFB157:
	.loc 3 493 0
	@ args = 0, pretend = 0, frame = 0
	@ frame_needed = 0, uses_anonymous_args = 0
	push	{r3, r4, r5, lr}
	.save {r3, r4, r5, lr}
.LCFI119:
	.loc 3 496 0
	movs	r5, #0
	ldr	r4, .L954
	.loc 3 497 0
	movw	r3, #65535
	.loc 3 502 0
	mov	r1, r5
	ldrh	r2, [r4, #96]
	.loc 3 497 0
	strh	r3, [r4, #3952]	@ movhi
	.loc 3 500 0
	mov	r3, #-1
	.loc 3 502 0
	ldr	r0, [r4, #124]
	.loc 3 500 0
	str	r3, [r4, #3964]
	.loc 3 502 0
	lsls	r2, r2, #1
	.loc 3 496 0
	str	r5, [r4, #3948]
	.loc 3 498 0
	str	r5, [r4, #3956]
	.loc 3 499 0
	str	r5, [r4, #3960]
	.loc 3 501 0
	strh	r5, [r4, #120]	@ movhi
	.loc 3 502 0
	bl	ftl_memset
.LVL744:
	.loc 3 503 0
	ldrh	r2, [r4, #18]
	mov	r1, r5
	ldr	r0, [r4, #2248]
	lsls	r2, r2, #1
	bl	ftl_memset
.LVL745:
	.loc 3 504 0
	ldrh	r2, [r4, #18]
	mov	r1, r5
	ldr	r0, [r4, #3816]
	lsls	r2, r2, #1
	bl	ftl_memset
.LVL746:
.LBB408:
.LBB409:
.LBB410:
	.loc 1 202 0
	addw	r0, r4, #2504
	movs	r1, #48
	bl	__memzero
.LVL747:
.LBE410:
.LBE409:
.LBE408:
.LBB411:
.LBB412:
.LBB413:
	addw	r0, r4, #2616
	mov	r1, #512
	bl	__memzero
.LVL748:
.LBE413:
.LBE412:
.LBE411:
	.loc 3 507 0
	bl	FtlGcBufInit
.LVL749:
	.loc 3 508 0
	bl	FtlL2PDataInit
.LVL750:
	.loc 3 510 0
	mov	r0, r5
	pop	{r3, r4, r5, pc}
.L955:
	.align	2
.L954:
	.word	.LANCHOR0
.LFE157:
	.fnend
	.size	FtlVariablesInit, .-FtlVariablesInit
	.align	1
	.global	SupperBlkListInit
	.syntax unified
	.thumb
	.thumb_func
	.fpu softvfp
	.type	SupperBlkListInit, %function
SupperBlkListInit:
	.fnstart
.LFB235:
	.loc 2 2067 0
	@ args = 0, pretend = 0, frame = 8
	@ frame_needed = 0, uses_anonymous_args = 0
	push	{r0, r1, r2, r4, r5, r6, r7, r8, r9, r10, fp, lr}
	.save {r4, r5, r6, r7, r8, r9, r10, fp, lr}
	.pad #12
.LCFI120:
	.loc 2 2072 0
	movs	r6, #0
	.loc 2 2071 0
	ldr	r4, .L967
	movs	r2, #6
	.loc 2 2077 0
	mov	r9, r6
.LVL751:
	mov	r7, r6
.LVL752:
	.loc 2 2071 0
	movs	r1, #0
	ldrh	r3, [r4, #18]
	.loc 2 2082 0
	add	fp, r4, #36
	.loc 2 2071 0
	ldr	r0, [r4, #2252]
	muls	r2, r3, r2
	bl	ftl_memset
.LVL753:
	.loc 2 2072 0
	str	r6, [r4, #2272]
	.loc 2 2073 0
	str	r6, [r4, #2256]
	.loc 2 2074 0
	str	r6, [r4, #2264]
	.loc 2 2075 0
	strh	r6, [r4, #2268]	@ movhi
	.loc 2 2076 0
	strh	r6, [r4, #2276]	@ movhi
.LVL754:
.L957:
	.loc 2 2079 0 discriminator 1
	ldrh	r3, [r4, #16]
	uxth	r8, r6
	cmp	r8, r3
	bcs	.L963
	.loc 2 2084 0
	mov	r10, #0
	.loc 2 2081 0
	ldrh	r2, [r4, #8]
	.loc 2 2084 0
	ldrh	r3, [r4, #78]
	mov	r5, r10
	b	.L964
.L959:
	.loc 2 2082 0
	mov	r1, r8
	ldrb	r0, [fp, r10]	@ zero_extendqisi2
	stm	sp, {r2, r3}
	bl	V2P_block
.LVL755:
	.loc 2 2083 0
	bl	FtlBbmIsBadBlock
.LVL756:
	ldm	sp, {r2, r3}
	cbnz	r0, .L958
	.loc 2 2084 0
	add	r5, r5, r3
	uxth	r5, r5
.L958:
	add	r10, r10, #1
.L964:
	.loc 2 2081 0 discriminator 1
	uxth	r1, r10
	cmp	r2, r1
	bhi	.L959
	.loc 2 2086 0
	cbz	r5, .L966
	.loc 2 2087 0
	mov	r1, r5
	mov	r0, #32768
	bl	__aeabi_idiv
.LVL757:
.L960:
	.loc 2 2088 0
	ldr	r2, [r4, #2252]
	uxth	r1, r6
	movs	r3, #6
	mla	r3, r3, r1, r2
	strh	r0, [r3, #4]	@ movhi
	.loc 2 2090 0
	ldrh	r3, [r4, #2280]
	cmp	r3, r8
	beq	.L961
	.loc 2 2090 0 is_stmt 0 discriminator 1
	ldrh	r3, [r4, #2328]
	cmp	r3, r8
	beq	.L961
	.loc 2 2091 0 is_stmt 1
	ldrh	r3, [r4, #2376]
	cmp	r3, r8
	beq	.L961
	.loc 2 2094 0
	ldr	r3, [r4, #2260]
	ldrh	r3, [r3, r1, lsl #1]
	cbnz	r3, .L962
	.loc 2 2095 0
	add	r9, r9, #1
.LVL758:
	.loc 2 2096 0
	mov	r0, r8
	.loc 2 2095 0
	uxth	r9, r9
.LVL759:
	.loc 2 2096 0
	bl	INSERT_FREE_LIST
.LVL760:
.L961:
	adds	r6, r6, #1
	b	.L957
.L966:
	mov	r0, r5
	b	.L960
.L962:
	.loc 2 2098 0
	adds	r7, r7, #1
.LVL761:
	.loc 2 2099 0
	mov	r0, r8
	.loc 2 2098 0
	uxth	r7, r7
.LVL762:
	.loc 2 2099 0
	bl	INSERT_DATA_LIST
.LVL763:
	b	.L961
.L963:
	.loc 2 2103 0
	strh	r7, [r4, #2268]	@ movhi
	.loc 2 2105 0
	add	r7, r7, r9
.LVL764:
	cmp	r7, r3
	.loc 2 2104 0
	strh	r9, [r4, #2276]	@ movhi
	.loc 2 2105 0
	ble	.L965
	.loc 2 2105 0 is_stmt 0 discriminator 1
	movw	r2, #2105
	ldr	r1, .L967+4
	ldr	r0, .L967+8
	bl	printk
.LVL765:
.L965:
	.loc 2 2107 0 is_stmt 1
	movs	r0, #0
	add	sp, sp, #12
.LCFI121:
	@ sp needed
	pop	{r4, r5, r6, r7, r8, r9, r10, fp, pc}
.LVL766:
.L968:
	.align	2
.L967:
	.word	.LANCHOR0
	.word	.LANCHOR1+342
	.word	.LC1
.LFE235:
	.fnend
	.size	SupperBlkListInit, .-SupperBlkListInit
	.align	1
	.global	FtlGcPageVarInit
	.syntax unified
	.thumb
	.thumb_func
	.fpu softvfp
	.type	FtlGcPageVarInit, %function
FtlGcPageVarInit:
	.fnstart
.LFB259:
	.loc 5 202 0
	@ args = 0, pretend = 0, frame = 0
	@ frame_needed = 0, uses_anonymous_args = 0
	push	{r4, lr}
	.save {r4, lr}
.LCFI122:
	.loc 5 203 0
	movs	r3, #0
	ldr	r4, .L970
	.loc 5 205 0
	movs	r1, #255
	ldrh	r2, [r4, #82]
	ldr	r0, [r4, #3168]
	.loc 5 203 0
	strh	r3, [r4, #3172]	@ movhi
	.loc 5 204 0
	strh	r3, [r4, #3180]	@ movhi
	.loc 5 205 0
	lsls	r2, r2, #1
	bl	ftl_memset
.LVL767:
	.loc 5 206 0
	ldrh	r3, [r4, #82]
	movs	r2, #12
	ldr	r0, [r4, #3176]
	movs	r1, #255
	muls	r2, r3, r2
	bl	ftl_memset
.LVL768:
	.loc 5 208 0
	pop	{r4, lr}
.LCFI123:
	.loc 5 207 0
	b	FtlGcBufInit
.LVL769:
.L971:
	.align	2
.L970:
	.word	.LANCHOR0
.LFE259:
	.fnend
	.size	FtlGcPageVarInit, .-FtlGcPageVarInit
	.align	1
	.global	FtlGcScanTempBlk
	.syntax unified
	.thumb
	.thumb_func
	.fpu softvfp
	.type	FtlGcScanTempBlk, %function
FtlGcScanTempBlk:
	.fnstart
.LFB260:
	.loc 5 211 0
	@ args = 0, pretend = 0, frame = 24
	@ frame_needed = 0, uses_anonymous_args = 0
.LVL770:
	.loc 5 220 0
	ldr	r3, .L997
	.loc 5 211 0
	push	{r4, r5, r6, r7, r8, r9, r10, fp, lr}
	.save {r4, r5, r6, r7, r8, r9, r10, fp, lr}
.LCFI124:
	.pad #28
	sub	sp, sp, #28
.LCFI125:
	.loc 5 211 0
	mov	r7, r0
	str	r1, [sp, #8]
	.loc 5 220 0
	ldrh	r4, [r3, #4]
.LVL771:
	.loc 5 221 0
	movw	r3, #65535
	cmp	r4, r3
	beq	.L991
	.loc 5 223 0
	cbnz	r4, .L973
.LVL772:
.L974:
	.loc 5 224 0
	bl	FtlGcPageVarInit
.LVL773:
	b	.L975
.LVL774:
.L991:
	.loc 5 222 0
	movs	r4, #0
.L973:
	.loc 5 223 0 discriminator 1
	ldr	r3, .L997+4
	ldr	r2, [sp, #8]
.LVL775:
	ldrh	r3, [r3, #78]
	cmp	r3, r2
	beq	.L974
.L975:
	.loc 5 222 0
	mov	fp, #0
.LVL776:
	.loc 5 228 0
	movw	r8, #65535
.LVL777:
.L985:
	ldrh	r3, [r7]
	.loc 5 226 0
	movs	r0, #0
	strb	r0, [r7, #8]
	.loc 5 228 0
	cmp	r3, r8
	beq	.L976
	.loc 5 231 0
	ldr	r5, .L997+4
.L988:
	.loc 5 234 0
	ldr	r3, [r5, #3792]
	.loc 5 231 0
	movs	r2, #0
.LVL778:
	ldrh	ip, [r5, #8]
	add	lr, r7, #16
	.loc 5 236 0
	ldr	r10, [r5, #3156]
	.loc 5 230 0
	mov	r6, r2
	.loc 5 234 0
	str	r3, [sp, #4]
	mov	r9, #20
	.loc 5 235 0
	ldr	r3, [r5, #3152]
	str	r3, [sp, #12]
	ldrh	r3, [r5, #86]
	str	r3, [sp, #16]
	.loc 5 236 0
	ldrh	r3, [r5, #88]
	str	r3, [sp, #20]
.LVL779:
.L977:
	.loc 5 231 0 discriminator 1
	uxth	r3, r2
.LVL780:
	cmp	ip, r3
	bhi	.L981
	.loc 5 241 0
	mov	r9, #0
	.loc 5 240 0
	movs	r2, #0
	mov	r1, r6
	ldr	r0, [sp, #4]
	bl	FlashReadPages
.LVL781:
.L982:
	.loc 5 241 0 discriminator 1
	uxth	r3, r9
	cmp	r6, r3
	bhi	.L986
	.loc 5 268 0
	ldr	r3, [sp, #8]
.LVL782:
	.loc 5 266 0
	add	fp, fp, #1
	.loc 5 264 0
	adds	r4, r4, #1
.LVL783:
	uxth	r4, r4
.LVL784:
	.loc 5 268 0
	cmp	r3, fp
	bls	.L987
.L989:
	.loc 5 274 0
	ldrh	r3, [r5, #78]
.LVL785:
	cmp	r3, r4
	bhi	.L988
	.loc 5 265 0
	movs	r0, #0
.LVL786:
	b	.L976
.LVL787:
.L981:
	.loc 5 232 0
	ldrh	r3, [lr], #2
.LVL788:
	.loc 5 233 0
	cmp	r3, r8
	beq	.L978
	.loc 5 234 0
	ldr	r1, [sp, #4]
	orr	r3, r4, r3, lsl #10
.LVL789:
	mla	r1, r9, r6, r1
	str	r3, [r1, #4]
	.loc 5 235 0
	ldr	r3, [sp, #16]
	muls	r3, r6, r3
	it	mi
	addmi	r3, r3, #3
	bic	r3, r3, #3
	mov	r0, r3
	ldr	r3, [sp, #12]
	add	r0, r0, r3
	.loc 5 236 0
	ldr	r3, [sp, #20]
	muls	r3, r6, r3
	.loc 5 237 0
	add	r6, r6, #1
.LVL790:
	.loc 5 236 0
	it	mi
	addmi	r3, r3, #3
	.loc 5 237 0
	uxth	r6, r6
.LVL791:
	.loc 5 236 0
	bic	r3, r3, #3
	.loc 5 235 0
	str	r0, [r1, #8]
	.loc 5 236 0
	add	r3, r3, r10
	str	r3, [r1, #12]
.LVL792:
.L978:
	adds	r2, r2, #1
	b	.L977
.LVL793:
.L986:
	.loc 5 242 0
	movs	r3, #20
	ldr	r2, [r5, #3792]
	mul	r10, r3, r9
	str	r2, [sp, #16]
	add	r3, r2, r10
	ldr	r1, [r3, #4]
.LVL794:
	str	r3, [sp, #12]
	.loc 5 243 0
	ubfx	r0, r1, #10, #16
	str	r1, [sp, #4]
	bl	P2V_plane
.LVL795:
	.loc 5 245 0
	ldr	r2, [sp, #16]
	ldr	r2, [r2, r10]
	cbnz	r2, .L983
	.loc 5 247 0
	ldr	r3, [sp, #12]
	add	r9, r9, #1
	.loc 5 248 0
	ldr	r1, [sp, #4]
.LVL796:
	.loc 5 247 0
	ldr	r3, [r3, #12]
.LVL797:
	.loc 5 248 0
	ldrh	r2, [r3]
	cmp	r2, r8
	bne	.L984
	.loc 5 249 0
	movs	r3, #1
.LVL798:
	str	r3, [r5, #3960]
.LVL799:
.L976:
	.loc 5 281 0
	ldr	r3, .L997
	movw	r2, #65535
.LVL800:
	.loc 5 283 0
	strb	r0, [r7, #6]
	.loc 5 284 0
	mov	r1, r4
.LVL801:
	.loc 5 282 0
	strh	r4, [r7, #2]	@ movhi
	.loc 5 281 0
	strh	r2, [r3, #4]	@ movhi
	.loc 5 284 0
	mov	r2, r0
	mov	r0, r7
.LVL802:
	bl	ftl_sb_update_avl_pages
.LVL803:
	.loc 5 285 0
	b	.L990
.LVL804:
.L984:
	.loc 5 252 0
	ldr	r2, [r3, #8]
	ldr	r0, [r3, #12]
	bl	FtlGcUpdatePage
.LVL805:
	b	.L982
.L983:
	.loc 5 256 0
	ldrh	r2, [r7]
	movs	r4, #0
.LVL806:
	ldr	r3, [r5, #2260]
	strh	r4, [r3, r2, lsl #1]	@ movhi
	.loc 5 257 0
	ldrh	r0, [r7]
	bl	INSERT_FREE_LIST
.LVL807:
	.loc 5 258 0
	strh	r8, [r7]	@ movhi
	.loc 5 260 0
	bl	FtlGcPageVarInit
.LVL808:
	.loc 5 261 0
	b	.L985
.LVL809:
.L987:
	.loc 5 268 0 discriminator 1
	ldr	r2, .L997
	ldrh	r3, [r2, #4]
.LVL810:
	cmp	r3, r8
	beq	.L989
	.loc 5 269 0
	add	r3, r3, fp
	strh	r3, [r2, #4]	@ movhi
	.loc 5 270 0
	ldrh	r3, [r5, #78]
	cmp	r3, r4
	bls	.L989
.L990:
	.loc 5 286 0
	mov	r0, #-1
	add	sp, sp, #28
.LCFI126:
	@ sp needed
	pop	{r4, r5, r6, r7, r8, r9, r10, fp, pc}
.LVL811:
.L998:
	.align	2
.L997:
	.word	.LANCHOR2
	.word	.LANCHOR0
.LFE260:
	.fnend
	.size	FtlGcScanTempBlk, .-FtlGcScanTempBlk
	.align	1
	.global	ftl_memcpy
	.syntax unified
	.thumb
	.thumb_func
	.fpu softvfp
	.type	ftl_memcpy, %function
ftl_memcpy:
	.fnstart
.LFB278:
	.loc 1 206 0
	@ args = 0, pretend = 0, frame = 0
	@ frame_needed = 0, uses_anonymous_args = 0
	@ link register save eliminated.
.LVL812:
	.loc 1 207 0
	b	memcpy
.LVL813:
.LFE278:
	.fnend
	.size	ftl_memcpy, .-ftl_memcpy
	.align	1
	.global	FtlBbmTblFlush
	.syntax unified
	.thumb
	.thumb_func
	.fpu softvfp
	.type	FtlBbmTblFlush, %function
FtlBbmTblFlush:
	.fnstart
.LFB176:
	.loc 4 80 0
	@ args = 0, pretend = 0, frame = 0
	@ frame_needed = 0, uses_anonymous_args = 0
	push	{r0, r1, r2, r4, r5, r6, r7, r8, r9, r10, fp, lr}
	.save {r4, r5, r6, r7, r8, r9, r10, fp, lr}
	.pad #12
.LCFI127:
	.loc 4 91 0
	movs	r5, #0
.LVL814:
	.loc 4 87 0
	ldr	r4, .L1009
	.loc 4 89 0
	movs	r1, #0
	.loc 4 87 0
	ldr	r0, [r4, #2244]
	add	r6, r4, #152
	.loc 4 88 0
	ldr	r3, [r4, #3244]
	.loc 4 89 0
	ldrh	r2, [r4, #86]
	.loc 4 87 0
	str	r0, [r4, #3232]
	.loc 4 88 0
	str	r3, [r4, #3236]
	.loc 4 89 0
	bl	ftl_memset
.LVL815:
.L1001:
	.loc 4 91 0 discriminator 1
	ldrh	r3, [r4, #30]
	cmp	r5, r3
	blt	.L1002
	.loc 4 94 0
	ldr	r6, [r4, #3236]
.LVL816:
.LBB419:
.LBB420:
.LBB421:
	.loc 1 202 0
	movs	r2, #16
	movs	r1, #255
.LBE421:
.LBE420:
.LBE419:
	.loc 4 108 0
	ldr	r9, .L1009+12
	.loc 4 109 0
	ldr	r8, .L1009+4
	.loc 4 84 0
	movs	r5, #0
.LVL817:
.LBB426:
.LBB424:
.LBB422:
	.loc 1 202 0
	mov	r0, r6
.LBE422:
.LBE424:
.LBE426:
	.loc 4 129 0
	ldr	r10, .L1009+16
.LBB427:
.LBB425:
.LBB423:
	.loc 1 202 0
	bl	memset
.LVL818:
.LBE423:
.LBE425:
.LBE427:
	.loc 4 97 0
	movw	r3, #61649
	.loc 4 82 0
	mov	r7, r5
.LVL819:
	.loc 4 97 0
	strh	r3, [r6]	@ movhi
	.loc 4 98 0
	ldr	r3, [r4, #136]
	str	r3, [r6, #4]
	.loc 4 99 0
	ldrh	r3, [r4, #128]
	strh	r3, [r6, #2]	@ movhi
	.loc 4 100 0
	ldrh	r3, [r4, #132]
	strh	r3, [r6, #8]	@ movhi
	.loc 4 101 0
	ldrh	r3, [r4, #134]
	strh	r3, [r6, #10]	@ movhi
	.loc 4 102 0
	ldr	r3, [r4, #4]
	strh	r3, [r6, #12]	@ movhi
.L1003:
	.loc 4 104 0
	ldr	r3, [r4, #2244]
	.loc 4 106 0
	mov	fp, #0
	.loc 4 107 0
	ldrh	r1, [r4, #128]
	ldrh	r2, [r4, #130]
	.loc 4 104 0
	str	r3, [r4, #3232]
	.loc 4 105 0
	ldr	r3, [r4, #3244]
	.loc 4 106 0
	str	fp, [r4, #3224]
	.loc 4 105 0
	str	r3, [r4, #3236]
	.loc 4 107 0
	orr	r3, r2, r1, lsl #10
	.loc 4 108 0
	ldrh	r0, [r6, #10]
	.loc 4 107 0
	str	r3, [r4, #3228]
	.loc 4 108 0
	ldrh	r3, [r4, #132]
	str	r0, [sp]
	mov	r0, r9
	bl	printk
.LVL820:
	.loc 4 109 0
	movs	r3, #1
	ldr	r0, .L1009+4
	mov	r2, r3
	mov	r1, r3
	bl	FlashProgPages
.LVL821:
	.loc 4 110 0
	ldrh	r3, [r4, #80]
	ldrh	r2, [r4, #130]
	subs	r3, r3, #1
	cmp	r2, r3
	blt	.L1004
	.loc 4 113 0
	ldr	r3, [r4, #136]
	.loc 4 115 0
	ldrh	r2, [r4, #128]
	.loc 4 121 0
	ldr	r0, [r4, #3760]
	.loc 4 113 0
	adds	r3, r3, #1
	.loc 4 117 0
	strh	fp, [r4, #130]	@ movhi
	.loc 4 113 0
	str	r3, [r4, #136]
	.loc 4 114 0
	str	r3, [r6, #4]
	.loc 4 116 0
	ldrh	r3, [r4, #132]
	.loc 4 115 0
	strh	r2, [r6, #8]	@ movhi
	.loc 4 118 0
	strh	r2, [r4, #132]	@ movhi
	.loc 4 122 0
	movs	r2, #1
	.loc 4 116 0
	strh	r3, [r4, #128]	@ movhi
	.loc 4 122 0
	mov	r1, r2
	.loc 4 119 0
	lsls	r3, r3, #10
	str	r3, [r4, #3228]
	.loc 4 121 0
	str	r3, [r0, #4]
	.loc 4 122 0
	bl	FlashEraseBlocks
.LVL822:
	.loc 4 123 0
	movs	r3, #1
	mov	r0, r8
	mov	r2, r3
	mov	r1, r3
	bl	FlashProgPages
.LVL823:
.L1004:
	.loc 4 126 0
	ldrh	r3, [r4, #130]
	adds	r3, r3, #1
	strh	r3, [r4, #130]	@ movhi
	.loc 4 127 0
	ldr	r3, [r4, #3224]
	adds	r3, r3, #1
	bne	.L1005
	.loc 4 130 0
	adds	r5, r5, #1
.LVL824:
	.loc 4 129 0
	ldr	r1, [r4, #3228]
	.loc 4 130 0
	uxth	r5, r5
.LVL825:
	.loc 4 129 0
	mov	r0, r10
	bl	printk
.LVL826:
	.loc 4 131 0
	cmp	r5, #3
	bls	.L1003
	.loc 4 132 0
	mov	r2, r5
	ldr	r1, [r4, #3228]
	ldr	r0, .L1009+8
	bl	printk
.LVL827:
.L1007:
	b	.L1007
.LVL828:
.L1002:
	.loc 4 92 0 discriminator 3
	ldrh	r2, [r4, #3860]
	ldr	r3, [r4, #3232]
	ldr	r1, [r6, #4]!
	mul	r0, r2, r5
	lsls	r2, r2, #2
	.loc 4 91 0 discriminator 3
	adds	r5, r5, #1
	.loc 4 92 0 discriminator 3
	add	r0, r3, r0, lsl #2
	bl	ftl_memcpy
.LVL829:
	b	.L1001
.LVL830:
.L1008:
	movs	r7, #1
	b	.L1003
.L1005:
	.loc 4 139 0
	cmp	r7, #0
	beq	.L1008
	.loc 4 146 0
	movs	r0, #0
	add	sp, sp, #12
.LCFI128:
	@ sp needed
	pop	{r4, r5, r6, r7, r8, r9, r10, fp, pc}
.LVL831:
.L1010:
	.align	2
.L1009:
	.word	.LANCHOR0
	.word	.LANCHOR0+3224
	.word	.LC92
	.word	.LC90
	.word	.LC91
.LFE176:
	.fnend
	.size	FtlBbmTblFlush, .-FtlBbmTblFlush
	.align	1
	.global	allocate_data_superblock
	.syntax unified
	.thumb
	.thumb_func
	.fpu softvfp
	.type	allocate_data_superblock, %function
allocate_data_superblock:
	.fnstart
.LFB248:
	.loc 2 2531 0
	@ args = 0, pretend = 0, frame = 16
	@ frame_needed = 0, uses_anonymous_args = 0
.LVL832:
	push	{r4, r5, r6, r7, r8, r9, r10, fp, lr}
	.save {r4, r5, r6, r7, r8, r9, r10, fp, lr}
.LCFI129:
	mov	r5, r0
	ldr	r4, .L1046
	.pad #20
	sub	sp, sp, #20
.LCFI130:
	.loc 2 2537 0
	ldr	r9, .L1046+20
.LVL833:
.L1012:
	ldr	r3, .L1046
	ldr	r2, .L1046
	ldrh	r3, [r3, #2276]
	ldrh	r2, [r2, #2268]
	add	r3, r3, r2
	ldr	r2, .L1046
	ldrh	r2, [r2, #16]
	cmp	r3, r2
	ble	.L1013
	.loc 2 2537 0 is_stmt 0 discriminator 1
	movw	r2, #2537
	mov	r1, r9
	ldr	r0, .L1046+4
	bl	printk
.LVL834:
.L1013:
	.loc 2 2539 0 is_stmt 1
	ldr	r3, .L1046+8
	cmp	r5, r3
	bne	.L1038
	.loc 2 2540 0
	ldrh	r3, [r4, #2276]
	ldr	r1, [r4, #3140]
	mul	r2, r1, r3
	lsrs	r1, r3, #1
	adds	r1, r1, #1
	add	r1, r1, r2, lsr #2
	uxth	r1, r1
.LVL835:
	.loc 2 2544 0
	cbz	r1, .L1014
	.loc 2 2545 0
	subs	r1, r1, #1
.LVL836:
	uxth	r1, r1
.LVL837:
.L1014:
	.loc 2 2546 0
	ldr	r0, .L1046+12
	bl	List_pop_index_node
.LVL838:
	ldrh	r3, [r4, #2276]
	mov	r6, r0
	uxth	r8, r0
	cbnz	r3, .L1015
	.loc 2 2546 0 is_stmt 0 discriminator 1
	movw	r2, #2546
	mov	r1, r9
	ldr	r0, .L1046+4
	bl	printk
.LVL839:
.L1015:
	.loc 2 2546 0 discriminator 3
	ldrh	r3, [r4, #2276]
	.loc 2 2550 0 is_stmt 1 discriminator 3
	mov	r0, r5
	.loc 2 2546 0 discriminator 3
	subs	r3, r3, #1
	strh	r3, [r4, #2276]	@ movhi
	.loc 2 2549 0 discriminator 3
	strh	r8, [r5]	@ movhi
	.loc 2 2550 0 discriminator 3
	bl	make_superblock
.LVL840:
	.loc 2 2551 0 discriminator 3
	ldrb	r3, [r5, #7]	@ zero_extendqisi2
	cbnz	r3, .L1016
	.loc 2 2555 0
	ldr	r3, [r4, #2260]
	uxth	r6, r6
	movw	r2, #65535
	.loc 2 2556 0
	mov	r0, r8
	.loc 2 2555 0
	strh	r2, [r3, r6, lsl #1]	@ movhi
	.loc 2 2556 0
	bl	INSERT_DATA_LIST
.LVL841:
	.loc 2 2557 0
	ldrh	r2, [r4, #2268]
	ldrh	r3, [r4, #2276]
	add	r3, r3, r2
	ldrh	r2, [r4, #16]
	cmp	r3, r2
	ble	.L1012
	.loc 2 2557 0 is_stmt 0 discriminator 1
	movw	r2, #2557
	mov	r1, r9
	ldr	r0, .L1046+4
	bl	printk
.LVL842:
	b	.L1012
.L1038:
	movs	r1, #0
.LVL843:
	b	.L1014
.LVL844:
.L1016:
	.loc 2 2560 0 is_stmt 1
	ldrh	r2, [r4, #2268]
	ldrh	r3, [r4, #2276]
	add	r3, r3, r2
	ldrh	r2, [r4, #16]
	cmp	r3, r2
	ble	.L1018
	.loc 2 2560 0 is_stmt 0 discriminator 1
	mov	r2, #2560
	mov	r1, r9
	ldr	r0, .L1046+4
	bl	printk
.LVL845:
.L1018:
	.loc 2 2564 0 is_stmt 1 discriminator 1
	ldr	r1, [r4, #3760]
	mov	r10, #20
	ldrh	r2, [r4, #8]
	add	fp, r5, #16
	movs	r7, #0
	mov	r0, fp
	mov	r3, r1
	mov	ip, r7
	mla	r2, r10, r2, r1
	str	r2, [sp, #4]
.L1019:
	.loc 2 2563 0 discriminator 1
	ldr	r2, [sp, #4]
	cmp	r2, r3
	bne	.L1021
	.loc 2 2571 0
	cbnz	r7, .L1022
	.loc 2 2571 0 is_stmt 0 discriminator 1
	movw	r2, #2571
	mov	r1, r9
	ldr	r0, .L1046+4
	bl	printk
.LVL846:
.L1022:
	.loc 2 2573 0 is_stmt 1
	ldrh	r3, [r4, #2568]
	cmp	r3, r8
	bne	.L1023
	.loc 2 2573 0 is_stmt 0 discriminator 1
	movw	r2, #2573
	mov	r1, r9
	ldr	r0, .L1046+4
	bl	printk
.LVL847:
.L1023:
	.loc 2 2574 0 is_stmt 1
	ldrb	r3, [r5, #8]	@ zero_extendqisi2
	uxth	r6, r6
	.loc 2 2575 0
	ldr	r2, [r4, #2248]
	.loc 2 2574 0
	cmp	r3, #0
	bne	.L1024
	.loc 2 2575 0
	ldrh	r3, [r2, r6, lsl #1]
	cmp	r3, #0
	beq	.L1025
	.loc 2 2576 0
	ldrh	r1, [r4, #68]
	add	r3, r3, r1
.L1045:
	.loc 2 2578 0
	strh	r3, [r2, r6, lsl #1]	@ movhi
	.loc 2 2580 0
	movs	r1, #0
	.loc 2 2579 0
	ldr	r3, [r4, #2480]
	.loc 2 2580 0
	mov	r0, r8
	.loc 2 2579 0
	adds	r3, r3, #1
	str	r3, [r4, #2480]
	.loc 2 2580 0
	bl	ftl_set_blk_mode
.LVL848:
.L1027:
	.loc 2 2587 0
	ldr	r3, [r4, #2248]
	ldr	r2, [r4, #2496]
	.loc 2 2590 0
	ldrh	r0, [r4, #68]
	.loc 2 2587 0
	ldrh	r3, [r3, r6, lsl #1]
	.loc 2 2590 0
	ldrh	r1, [r4, #16]
	.loc 2 2587 0
	cmp	r3, r2
	.loc 2 2590 0
	ldr	r2, [r4, #2480]
	.loc 2 2588 0
	it	hi
	strhi	r3, [r4, #2496]
	.loc 2 2590 0
	ldr	r3, [r4, #2484]
	mla	r0, r2, r0, r3
	bl	__aeabi_uidiv
.LVL849:
	.loc 2 2591 0
	ldr	r2, [r4, #3820]
	.loc 2 2594 0
	ldr	r1, [r4, #3760]
	.loc 2 2590 0
	str	r0, [r4, #2488]
	.loc 2 2591 0
	ldr	r3, [r2, #16]
	.loc 2 2594 0
	ldr	r0, .L1046+16
	.loc 2 2591 0
	adds	r3, r3, #1
	str	r3, [r2, #16]
	movs	r2, #20
	mla	r2, r2, r7, r1
	adds	r3, r1, #4
	adds	r2, r2, #24
.L1029:
	adds	r3, r3, #20
	.loc 2 2593 0 discriminator 1
	cmp	r2, r3
	bne	.L1030
	.loc 2 2595 0
	ldrb	r1, [r5, #8]	@ zero_extendqisi2
	mov	r2, r7
	ldr	r0, [r4, #3760]
	.loc 2 2597 0
	mov	r10, #0
	.loc 2 2595 0
	bl	FlashEraseBlocks
.LVL850:
	.loc 2 2596 0
	mov	r3, r10
.LVL851:
	.loc 2 2598 0
	movs	r1, #20
.L1031:
	.loc 2 2597 0 discriminator 1
	uxth	r2, r10
	cmp	r7, r2
	bhi	.L1033
	.loc 2 2608 0
	cmp	r3, #0
	ble	.L1034
	.loc 2 2609 0
	mov	r0, r8
	bl	update_multiplier_value
.LVL852:
	.loc 2 2610 0
	bl	FtlBbmTblFlush
.LVL853:
.L1034:
	.loc 2 2613 0
	ldrb	r2, [r5, #7]	@ zero_extendqisi2
	cmp	r2, #0
	bne	.L1035
	.loc 2 2615 0
	ldr	r3, [r4, #2260]
.LVL854:
	movw	r2, #65535
	.loc 2 2616 0
	mov	r0, r8
	.loc 2 2615 0
	strh	r2, [r3, r6, lsl #1]	@ movhi
	.loc 2 2616 0
	bl	INSERT_DATA_LIST
.LVL855:
	.loc 2 2617 0
	b	.L1012
.L1021:
	.loc 2 2564 0
	str	ip, [r3, #8]
	.loc 2 2566 0
	movw	lr, #65535
	.loc 2 2565 0
	str	ip, [r3, #12]
	.loc 2 2566 0
	ldrh	r2, [r0], #2
	cmp	r2, lr
	beq	.L1020
	.loc 2 2567 0
	mla	lr, r10, r7, r1
	.loc 2 2568 0
	adds	r7, r7, #1
.LVL856:
	.loc 2 2567 0
	lsls	r2, r2, #10
	.loc 2 2568 0
	uxth	r7, r7
.LVL857:
	.loc 2 2567 0
	str	r2, [lr, #4]
.L1020:
	adds	r3, r3, #20
	b	.L1019
.L1025:
	.loc 2 2578 0
	movs	r3, #2
	b	.L1045
.L1024:
	.loc 2 2582 0
	ldrh	r3, [r2, r6, lsl #1]
.LBB428:
.LBB429:
	mov	r0, r8
.LBE429:
.LBE428:
	adds	r3, r3, #1
	strh	r3, [r2, r6, lsl #1]	@ movhi
	.loc 2 2583 0
	ldr	r3, [r4, #2484]
	adds	r3, r3, #1
	str	r3, [r4, #2484]
.LBB431:
.LBB430:
	bl	ftl_set_blk_mode.part.6
.LVL858:
	b	.L1027
.L1030:
.LBE430:
.LBE431:
	.loc 2 2594 0 discriminator 3
	ldr	r1, [r3, #-20]
	ands	r1, r1, r0
	str	r1, [r3, #-20]
	b	.L1029
.LVL859:
.L1033:
	.loc 2 2598 0
	mul	r2, r1, r10
	ldr	r0, [r4, #3760]
	add	ip, r0, r2
	ldr	r2, [r0, r2]
	adds	r0, r2, #1
	bne	.L1032
	.loc 2 2600 0
	ldr	r0, [ip, #4]
	.loc 2 2599 0
	adds	r3, r3, #1
	str	r1, [sp, #12]
	str	r2, [sp, #8]
	.loc 2 2601 0
	ubfx	r0, r0, #10, #16
	.loc 2 2599 0
	str	r3, [sp, #4]
	.loc 2 2601 0
	bl	FtlBbmMapBadBlock
.LVL860:
	.loc 2 2602 0
	ldr	r2, [sp, #8]
	.loc 2 2603 0
	ldr	r1, [sp, #12]
	ldr	r3, [sp, #4]
.LVL861:
	.loc 2 2602 0
	strh	r2, [fp]	@ movhi
	.loc 2 2603 0
	ldrb	r2, [r5, #7]	@ zero_extendqisi2
	subs	r2, r2, #1
	strb	r2, [r5, #7]
.L1032:
	add	r10, r10, #1
	add	fp, fp, #2
	b	.L1031
.L1035:
	.loc 2 2620 0
	ldrh	r3, [r4, #78]
.LVL862:
	.loc 2 2621 0
	strh	r8, [r5]	@ movhi
	.loc 2 2620 0
	smulbb	r3, r3, r2
	.loc 2 2622 0
	movs	r2, #0
	strh	r2, [r5, #2]	@ movhi
	.loc 2 2623 0
	strb	r2, [r5, #6]
	.loc 2 2624 0
	ldr	r2, [r4, #2472]
	.loc 2 2620 0
	uxth	r3, r3
	strh	r3, [r5, #4]	@ movhi
	.loc 2 2624 0
	str	r2, [r5, #12]
	adds	r2, r2, #1
	str	r2, [r4, #2472]
	.loc 2 2625 0
	ldr	r2, [r4, #2260]
	ldrh	r1, [r5]
	strh	r3, [r2, r1, lsl #1]	@ movhi
	.loc 2 2626 0
	ldrh	r3, [r5, #4]
	cbz	r3, .L1036
	.loc 2 2626 0 is_stmt 0 discriminator 2
	ldrb	r3, [r5, #7]	@ zero_extendqisi2
	cbnz	r3, .L1037
.L1036:
	.loc 2 2626 0 discriminator 3
	movw	r2, #2626
	ldr	r1, .L1046+20
	ldr	r0, .L1046+4
	bl	printk
.LVL863:
.L1037:
	.loc 2 2628 0 is_stmt 1
	movs	r0, #0
	add	sp, sp, #20
.LCFI131:
	@ sp needed
	pop	{r4, r5, r6, r7, r8, r9, r10, fp, pc}
.LVL864:
.L1047:
	.align	2
.L1046:
	.word	.LANCHOR0
	.word	.LC1
	.word	.LANCHOR0+2376
	.word	.LANCHOR0+2272
	.word	-1024
	.word	.LANCHOR1+360
.LFE248:
	.fnend
	.size	allocate_data_superblock, .-allocate_data_superblock
	.align	1
	.global	FtlGcFreeBadSuperBlk
	.syntax unified
	.thumb
	.thumb_func
	.fpu softvfp
	.type	FtlGcFreeBadSuperBlk, %function
FtlGcFreeBadSuperBlk:
	.fnstart
.LFB267:
	.loc 5 390 0
	@ args = 0, pretend = 0, frame = 0
	@ frame_needed = 0, uses_anonymous_args = 0
.LVL865:
	push	{r3, r4, r5, r6, r7, r8, r9, r10, fp, lr}
	.save {r3, r4, r5, r6, r7, r8, r9, r10, fp, lr}
.LCFI132:
	.loc 5 390 0
	mov	r8, r0
	.loc 5 395 0
	ldr	r4, .L1060
	ldrh	r3, [r4, #3186]
	cbz	r3, .L1049
	movs	r7, #0
	addw	r10, r4, #3188
.LVL866:
.L1050:
.LBB434:
.LBB435:
	.loc 5 396 0
	ldrh	r2, [r4, #8]
	uxth	r3, r7
	cmp	r2, r3
	bhi	.L1056
	.loc 5 412 0
	bl	FtlGcReFreshBadBlk
.LVL867:
.L1049:
.LBE435:
.LBE434:
	.loc 5 415 0
	movs	r0, #0
	pop	{r3, r4, r5, r6, r7, r8, r9, r10, fp, pc}
.LVL868:
.L1056:
.LBB437:
.LBB436:
	.loc 5 397 0
	uxtah	r3, r4, r7
	mov	r1, r8
	mov	fp, #0
	ldrb	r0, [r3, #36]	@ zero_extendqisi2
	bl	V2P_block
.LVL869:
	mov	r9, r0
.L1051:
	.loc 5 398 0
	ldrh	r3, [r4, #3186]
	uxth	r5, fp
	cmp	r3, r5
	bhi	.L1055
	adds	r7, r7, #1
	b	.L1050
.L1055:
	.loc 5 399 0
	uxth	r6, fp
	add	r3, r4, r6, lsl #1
	ldrh	r3, [r3, #3188]
	cmp	r3, r9
	bne	.L1052
	.loc 5 401 0
	mov	r1, r9
	ldr	r0, .L1060+4
	bl	printk
.LVL870:
	.loc 5 403 0
	mov	r0, r9
	bl	FtlBbmMapBadBlock
.LVL871:
	.loc 5 404 0
	bl	FtlBbmTblFlush
.LVL872:
	.loc 5 405 0
	ldrh	r1, [r4, #3186]
	add	r3, r10, r6, lsl #1
.L1053:
	cmp	r5, r1
	bcc	.L1054
	.loc 5 407 0
	subs	r1, r1, #1
	strh	r1, [r4, #3186]	@ movhi
.L1052:
	add	fp, fp, #1
	b	.L1051
.L1054:
	.loc 5 406 0
	ldrh	r0, [r3, #2]!
	.loc 5 405 0
	adds	r5, r5, #1
.LVL873:
	uxth	r5, r5
.LVL874:
	.loc 5 406 0
	strh	r0, [r3, #-2]	@ movhi
	b	.L1053
.L1061:
	.align	2
.L1060:
	.word	.LANCHOR0
	.word	.LC93
.LBE436:
.LBE437:
.LFE267:
	.fnend
	.size	FtlGcFreeBadSuperBlk, .-FtlGcFreeBadSuperBlk
	.align	1
	.global	update_vpc_list
	.syntax unified
	.thumb
	.thumb_func
	.fpu softvfp
	.type	update_vpc_list, %function
update_vpc_list:
	.fnstart
.LFB251:
	.loc 2 2687 0
	@ args = 0, pretend = 0, frame = 0
	@ frame_needed = 0, uses_anonymous_args = 0
.LVL875:
	.loc 2 2688 0
	ldr	r2, .L1072
	.loc 2 2687 0
	push	{r3, r4, r5, lr}
	.save {r3, r4, r5, lr}
.LCFI133:
	.loc 2 2687 0
	mov	r5, r0
	mov	r4, r2
	.loc 2 2688 0
	ldr	r3, [r2, #2260]
	ldrh	r3, [r3, r0, lsl #1]
	cmp	r3, #0
	bne	.L1063
	.loc 2 2689 0
	ldrh	r1, [r2, #2568]
	cmp	r1, r0
	bne	.L1064
	.loc 2 2691 0
	movw	r3, #65535
	strh	r3, [r2, #2568]	@ movhi
.L1065:
.LVL876:
.LBB440:
.LBB441:
	.loc 2 2696 0
	mov	r1, r5
	ldr	r0, .L1072+4
	bl	List_remove_node
.LVL877:
	ldrh	r3, [r4, #2268]
	cbnz	r3, .L1067
	movw	r2, #2696
	ldr	r1, .L1072+8
	ldr	r0, .L1072+12
	bl	printk
.LVL878:
.L1067:
	ldrh	r3, [r4, #2268]
	.loc 2 2697 0
	mov	r0, r5
	.loc 2 2696 0
	subs	r3, r3, #1
	strh	r3, [r4, #2268]	@ movhi
	.loc 2 2697 0
	bl	free_data_superblock
.LVL879:
	.loc 2 2698 0
	mov	r0, r5
	bl	FtlGcFreeBadSuperBlk
.LVL880:
	.loc 2 2699 0
	ldrh	r2, [r4, #2268]
	ldrh	r3, [r4, #2276]
	add	r3, r3, r2
	ldrh	r2, [r4, #16]
	cmp	r3, r2
	ble	.L1071
	movw	r2, #2699
	ldr	r1, .L1072+8
	ldr	r0, .L1072+12
	bl	printk
.LVL881:
.L1071:
	movs	r3, #1
	b	.L1062
.LVL882:
.L1064:
.LBE441:
.LBE440:
	.loc 2 2692 0
	ldrh	r1, [r2, #2280]
	cmp	r1, r0
	beq	.L1062
	.loc 2 2692 0 is_stmt 0 discriminator 1
	ldrh	r1, [r2, #2328]
	cmp	r1, r0
	beq	.L1062
	.loc 2 2692 0 discriminator 2
	ldrh	r2, [r2, #2376]
	cmp	r2, r0
	bne	.L1065
.L1062:
	.loc 2 2705 0 is_stmt 1
	mov	r0, r3
	pop	{r3, r4, r5, pc}
.LVL883:
.L1063:
	.loc 2 2702 0
	bl	List_update_data_list
.LVL884:
	.loc 2 2704 0
	movs	r3, #0
	b	.L1062
.L1073:
	.align	2
.L1072:
	.word	.LANCHOR0
	.word	.LANCHOR0+2256
	.word	.LANCHOR1+385
	.word	.LC1
.LFE251:
	.fnend
	.size	update_vpc_list, .-update_vpc_list
	.align	1
	.global	decrement_vpc_count
	.syntax unified
	.thumb
	.thumb_func
	.fpu softvfp
	.type	decrement_vpc_count, %function
decrement_vpc_count:
	.fnstart
.LFB252:
	.loc 2 2708 0
	@ args = 0, pretend = 0, frame = 0
	@ frame_needed = 0, uses_anonymous_args = 0
.LVL885:
	.loc 2 2711 0
	movw	r3, #65535
	.loc 2 2708 0
	push	{r4, r5, r6, lr}
	.save {r4, r5, r6, lr}
.LCFI134:
	.loc 2 2711 0
	cmp	r0, r3
	.loc 2 2708 0
	mov	r4, r0
	ldr	r5, .L1083
	.loc 2 2711 0
	beq	.L1075
	.loc 2 2712 0
	ldr	r3, [r5, #2260]
	ldrh	r2, [r3, r0, lsl #1]
	cbnz	r2, .L1076
	.loc 2 2713 0
	mov	r1, r0
	ldr	r0, .L1083+4
	bl	printk
.LVL886:
	.loc 2 2714 0
	ldr	r3, [r5, #2260]
	ldrh	r6, [r3, r4, lsl #1]
	cbz	r6, .L1077
.L1081:
	.loc 2 2723 0
	movs	r6, #0
.L1074:
	.loc 2 2733 0
	mov	r0, r6
	pop	{r4, r5, r6, pc}
.LVL887:
.L1077:
	.loc 2 2714 0 discriminator 1
	movw	r2, #2714
.L1082:
	.loc 2 2730 0 discriminator 2
	ldr	r1, .L1083+8
	ldr	r0, .L1083+12
	bl	printk
.LVL888:
	b	.L1074
.LVL889:
.L1076:
	.loc 2 2717 0
	subs	r2, r2, #1
	strh	r2, [r3, r0, lsl #1]	@ movhi
.L1075:
	.loc 2 2721 0
	ldrh	r0, [r5, #3952]
	movw	r3, #65535
	cmp	r0, r3
	bne	.L1079
	.loc 2 2722 0
	strh	r4, [r5, #3952]	@ movhi
	b	.L1081
.L1079:
	.loc 2 2724 0
	cmp	r4, r0
	beq	.L1081
	.loc 2 2727 0
	bl	update_vpc_list
.LVL890:
	.loc 2 2730 0
	ldr	r2, [r5, #2252]
	.loc 2 2727 0
	adds	r6, r0, #0
	.loc 2 2730 0
	ldr	r3, [r5, #2256]
	.loc 2 2727 0
	it	ne
	movne	r6, #1
	.loc 2 2729 0
	strh	r4, [r5, #3952]	@ movhi
	.loc 2 2730 0
	subs	r3, r3, r2
	asrs	r2, r3, #1
	ldr	r3, .L1083+16
	muls	r3, r2, r3
	ldr	r2, [r5, #2260]
	uxth	r1, r3
	ldrh	r2, [r2, r1, lsl #1]
	cmp	r2, #0
	bne	.L1074
	.loc 2 2730 0 is_stmt 0 discriminator 1
	cmp	r4, r1
	beq	.L1074
	.loc 2 2730 0 discriminator 2
	movw	r2, #2730
	b	.L1082
.L1084:
	.align	2
.L1083:
	.word	.LANCHOR0
	.word	.LC94
	.word	.LANCHOR1+401
	.word	.LC1
	.word	-1431655765
.LFE252:
	.fnend
	.size	decrement_vpc_count, .-decrement_vpc_count
	.align	1
	.global	FtlWriteDump_data
	.syntax unified
	.thumb
	.thumb_func
	.fpu softvfp
	.type	FtlWriteDump_data, %function
FtlWriteDump_data:
	.fnstart
.LFB218:
	.loc 2 947 0 is_stmt 1
	@ args = 0, pretend = 0, frame = 24
	@ frame_needed = 0, uses_anonymous_args = 0
	push	{r4, r5, r6, r7, r8, r9, r10, lr}
	.save {r4, r5, r6, r7, r8, r9, r10, lr}
.LCFI135:
	.pad #24
	sub	sp, sp, #24
.LCFI136:
	.loc 2 948 0
	ldr	r4, .L1103
	ldrh	r2, [r4, #2284]
	cmp	r2, #0
	beq	.L1086
	.loc 2 948 0 is_stmt 0 discriminator 1
	ldrb	r3, [r4, #2288]	@ zero_extendqisi2
	cmp	r3, #0
	bne	.L1086
	.loc 2 949 0 is_stmt 1
	ldrb	r1, [r4, #2287]	@ zero_extendqisi2
	ldrh	r3, [r4, #78]
	muls	r3, r1, r3
	cmp	r2, r3
	beq	.L1086
.LBB445:
.LBB446:
	.loc 2 956 0
	ldrb	r7, [r4, #2290]	@ zero_extendqisi2
	cbnz	r7, .L1085
	.loc 2 951 0
	ldr	r6, [r4, #2436]
	.loc 2 958 0
	mov	r2, r7
	mov	r1, sp
	.loc 2 953 0
	ldrh	r8, [r4, #8]
	.loc 2 951 0
	subs	r6, r6, #1
.LVL891:
	.loc 2 958 0
	mov	r0, r6
	bl	log2phys
.LVL892:
	.loc 2 961 0
	ldr	r3, [sp]
	.loc 2 964 0
	ldr	r5, [r4, #3244]
	.loc 2 963 0
	ldr	r0, [r4, #2244]
	.loc 2 961 0
	str	r3, [sp, #8]
	.loc 2 967 0
	adds	r3, r3, #1
	.loc 2 962 0
	str	r6, [sp, #20]
	.loc 2 963 0
	str	r0, [sp, #12]
	.loc 2 964 0
	str	r5, [sp, #16]
	.loc 2 966 0
	str	r7, [r5, #4]
	.loc 2 967 0
	beq	.L1088
	.loc 2 969 0
	mov	r2, r7
	movs	r1, #1
	add	r0, sp, #4
	bl	FlashReadPages
.LVL893:
.L1089:
	.loc 2 986 0
	ldr	r9, .L1103+4
	.loc 2 975 0
	movs	r7, #0
	.loc 2 953 0
	lsl	r8, r8, #2
.LVL894:
	.loc 2 987 0
	mov	r10, r7
	.loc 2 975 0
	movw	r3, #61589
	strh	r3, [r5]	@ movhi
.L1090:
	.loc 2 976 0
	cmp	r8, r7
	bne	.L1094
.L1091:
	.loc 2 992 0
	movs	r3, #1
.L1102:
.LBE446:
.LBE445:
	.loc 2 998 0
	strb	r3, [r4, #2290]
.L1085:
	.loc 2 1000 0
	add	sp, sp, #24
.LCFI137:
	@ sp needed
	pop	{r4, r5, r6, r7, r8, r9, r10, pc}
.LVL895:
.L1088:
.LCFI138:
.LBB448:
.LBB447:
	.loc 2 973 0
	ldrh	r2, [r4, #86]
	movs	r1, #255
	bl	ftl_memset
.LVL896:
	b	.L1089
.LVL897:
.L1094:
	.loc 2 978 0
	ldrh	r3, [r4, #2284]
	cmp	r3, #0
	beq	.L1091
	.loc 2 983 0
	ldr	r3, [sp, #8]
	.loc 2 986 0
	mov	r0, r9
	.loc 2 982 0
	str	r6, [r5, #8]
	adds	r7, r7, #1
	.loc 2 983 0
	str	r3, [r5, #12]
	.loc 2 984 0
	ldrh	r3, [r4, #2280]
	strh	r3, [r5, #2]	@ movhi
	.loc 2 986 0
	bl	get_new_active_ppa
.LVL898:
	.loc 2 987 0
	ldr	r3, [r4, #2476]
	.loc 2 988 0
	movs	r1, #1
	.loc 2 986 0
	str	r0, [sp, #8]
	.loc 2 988 0
	add	r0, sp, #4
	.loc 2 987 0
	str	r3, [r5, #4]
	adds	r3, r3, #1
	adds	r2, r3, #1
	it	eq
	moveq	r3, r10
	str	r3, [r4, #2476]
	.loc 2 988 0
	movs	r3, #0
	mov	r2, r3
	bl	FlashProgPages
.LVL899:
	.loc 2 990 0
	ldrh	r0, [r4, #2280]
	bl	decrement_vpc_count
.LVL900:
	b	.L1090
.LVL901:
.L1086:
.LBE447:
.LBE448:
	.loc 2 998 0
	movs	r3, #0
	b	.L1102
.L1104:
	.align	2
.L1103:
	.word	.LANCHOR0
	.word	.LANCHOR0+2280
.LFE218:
	.fnend
	.size	FtlWriteDump_data, .-FtlWriteDump_data
	.align	1
	.global	l2p_flush
	.syntax unified
	.thumb
	.thumb_func
	.fpu softvfp
	.type	l2p_flush, %function
l2p_flush:
	.fnstart
.LFB211:
	.loc 2 740 0
	@ args = 0, pretend = 0, frame = 0
	@ frame_needed = 0, uses_anonymous_args = 0
	push	{r4, r5, r6, lr}
	.save {r4, r5, r6, lr}
.LCFI139:
	.loc 2 746 0
	movs	r4, #0
	ldr	r5, .L1109
	.loc 2 747 0
	movs	r6, #12
	.loc 2 744 0
	bl	FtlWriteDump_data
.LVL902:
.L1106:
	.loc 2 746 0 discriminator 1
	ldrh	r3, [r5, #114]
	uxth	r0, r4
	cmp	r3, r0
	bhi	.L1108
	.loc 2 750 0
	movs	r0, #0
.LVL903:
	pop	{r4, r5, r6, pc}
.LVL904:
.L1108:
	.loc 2 747 0
	ldr	r2, [r5, #2424]
	uxth	r3, r4
	mla	r3, r6, r3, r2
	ldr	r3, [r3, #4]
	cmp	r3, #0
	bge	.L1107
	.loc 2 748 0
	bl	flush_l2p_region
.LVL905:
.L1107:
	adds	r4, r4, #1
	b	.L1106
.L1110:
	.align	2
.L1109:
	.word	.LANCHOR0
.LFE211:
	.fnend
	.size	l2p_flush, .-l2p_flush
	.align	1
	.global	FtlRecoverySuperblock
	.syntax unified
	.thumb
	.thumb_func
	.fpu softvfp
	.type	FtlRecoverySuperblock, %function
FtlRecoverySuperblock:
	.fnstart
.LFB231:
	.loc 2 1656 0
	@ args = 0, pretend = 0, frame = 48
	@ frame_needed = 0, uses_anonymous_args = 0
.LVL906:
	push	{r4, r5, r6, r7, r8, r9, r10, fp, lr}
	.save {r4, r5, r6, r7, r8, r9, r10, fp, lr}
.LCFI140:
	.loc 2 1670 0
	movw	r2, #65535
	ldrh	r3, [r0]
	.loc 2 1656 0
	.pad #52
	sub	sp, sp, #52
.LCFI141:
	.loc 2 1656 0
	mov	fp, r0
	.loc 2 1670 0
	cmp	r3, r2
	beq	.L1236
	.loc 2 1675 0
	ldrh	r3, [r0, #2]
.LVL907:
	.loc 2 1681 0
	ldr	r4, .L1243
	.loc 2 1675 0
	str	r3, [sp, #8]
	.loc 2 1676 0
	ldrb	r3, [r0, #6]	@ zero_extendqisi2
.LVL908:
	.loc 2 1681 0
	ldr	r1, [sp, #8]
.LVL909:
	.loc 2 1676 0
	str	r3, [sp, #24]
	.loc 2 1681 0
	ldrh	r3, [r4, #78]
.LVL910:
	cmp	r3, r1
	mov	r3, #0
	bne	.L1114
	.loc 2 1682 0
	strh	r3, [r0, #4]	@ movhi
.LVL911:
.L1241:
	.loc 2 1989 0
	strb	r3, [fp, #6]
.L1236:
	.loc 2 2010 0
	movs	r0, #0
	add	sp, sp, #52
.LCFI142:
	@ sp needed
	pop	{r4, r5, r6, r7, r8, r9, r10, fp, pc}
.LVL912:
.L1114:
.LCFI143:
	.loc 2 1689 0
	ldrh	r0, [r0, #16]
.LVL913:
.L1115:
	.loc 2 1690 0
	cmp	r0, r2
	uxth	r5, r3
	add	r3, r3, #1
	beq	.L1116
	.loc 2 1697 0
	movs	r1, #1
.LVL914:
	bl	FtlGetLastWrittenPage
.LVL915:
	.loc 2 1705 0
	adds	r7, r0, #1
	.loc 2 1697 0
	mov	r6, r0
.LVL916:
	.loc 2 1705 0
	beq	.L1117
	.loc 2 1721 0
	ldr	r3, [r4, #3152]
	.loc 2 1722 0
	movs	r2, #0
	.loc 2 1717 0
	ldrh	lr, [r4, #8]
	.loc 2 1719 0
	movw	r9, #65535
	.loc 2 1720 0
	ldr	r0, [r4, #3792]
	mov	r10, #20
	.loc 2 1721 0
	str	r3, [sp, #4]
	ldrh	r3, [r4, #86]
	.loc 2 1722 0
	ldr	r8, [r4, #3156]
	ldrh	r7, [r4, #88]
	mov	r4, r2
	.loc 2 1721 0
	str	r3, [sp, #12]
	add	r3, fp, #16
	.loc 2 1722 0
	mov	ip, r3
	str	r3, [sp, #20]
.L1118:
	.loc 2 1717 0 discriminator 1
	uxth	r3, r2
	cmp	lr, r3
	bhi	.L1124
	.loc 2 1728 0
	ldr	r5, .L1243
	.loc 2 1727 0
	movs	r2, #0
	mov	r1, r4
	.loc 2 1666 0
	movw	r9, #65535
	.loc 2 1727 0
	bl	FlashReadPages
.LVL917:
	.loc 2 1728 0
	ldr	r3, [r5, #2476]
	.loc 2 1742 0
	uxth	r2, r6
	.loc 2 1730 0
	ldr	r8, [r5, #3792]
	.loc 2 1742 0
	str	r2, [sp, #12]
	.loc 2 1728 0
	subs	r3, r3, #1
.LVL918:
	str	r3, [sp, #4]
	mov	r7, r8
	.loc 2 1729 0
	movs	r3, #0
.LVL919:
.L1125:
	uxth	r2, r3
.LVL920:
	.loc 2 1729 0 is_stmt 0 discriminator 1
	cmp	r4, r2
	bhi	.L1130
	.loc 2 1745 0 is_stmt 1
	bne	.L1128
	.loc 2 1747 0
	adds	r3, r6, #1
	uxth	r3, r3
.LVL921:
	str	r3, [sp, #16]
.L1237:
	.loc 2 1753 0
	ldr	r0, [r8, #4]
	ubfx	r0, r0, #10, #16
	bl	P2V_plane
.LVL922:
	.loc 2 1758 0
	ldrh	r3, [r5, #78]
	ldr	r2, [sp, #16]
.LVL923:
	.loc 2 1753 0
	str	r0, [sp, #12]
	.loc 2 1758 0
	cmp	r3, r2
	bne	.L1132
	.loc 2 1759 0
	ldrh	r3, [sp, #16]
	strh	r3, [fp, #2]	@ movhi
	.loc 2 1760 0
	movs	r3, #0
	strb	r3, [fp, #6]
	.loc 2 1761 0
	strh	r3, [fp, #4]	@ movhi
.L1132:
	.loc 2 1764 0
	ldr	r3, [sp, #16]
.LVL924:
	ldr	r2, [sp, #8]
.LVL925:
	cmp	r3, r2
	bne	.L1133
	.loc 2 1764 0 is_stmt 0 discriminator 1
	ldr	r3, [sp, #12]
.LVL926:
	ldr	r2, [sp, #24]
.LVL927:
	cmp	r3, r2
	bne	.L1133
	.loc 2 1765 0 is_stmt 1
	ldr	r1, [sp, #16]
	mov	r2, r3
.LVL928:
.L1242:
	.loc 2 2004 0
	mov	r0, fp
.LVL929:
	bl	ftl_sb_update_avl_pages
.LVL930:
	b	.L1236
.LVL931:
.L1116:
	.loc 2 1692 0
	uxth	r1, r3
.LVL932:
	adds	r1, r1, #8
	ldrh	r0, [fp, r1, lsl #1]
	b	.L1115
.LVL933:
.L1117:
	.loc 2 1706 0
	ldr	r3, [sp, #8]
.LVL934:
	cbz	r3, .L1119
	.loc 2 1706 0 is_stmt 0 discriminator 1
	movw	r2, #1706
	ldr	r1, .L1243+4
	ldr	r0, .L1243+8
	bl	printk
.LVL935:
.L1119:
	.loc 2 1707 0 is_stmt 1
	ldr	r3, [sp, #24]
.LVL936:
	cbz	r3, .L1120
	.loc 2 1707 0 is_stmt 0 discriminator 1
	cmp	r5, r3
	beq	.L1120
	.loc 2 1707 0 discriminator 2
	movw	r2, #1707
	ldr	r1, .L1243+4
	ldr	r0, .L1243+8
	bl	printk
.LVL937:
.L1120:
	.loc 2 1708 0 is_stmt 1
	movs	r3, #0
.LVL938:
	strh	r3, [fp, #2]	@ movhi
	b	.L1241
.L1124:
	.loc 2 1718 0
	ldrh	r3, [ip], #2
	.loc 2 1719 0
	cmp	r3, r9
	beq	.L1121
	.loc 2 1720 0
	mla	r1, r10, r4, r0
	orr	r3, r6, r3, lsl #10
	str	r3, [r1, #4]
	.loc 2 1721 0
	ldr	r3, [sp, #12]
	muls	r3, r4, r3
	it	mi
	addmi	r3, r3, #3
	bic	r3, r3, #3
	mov	r5, r3
	ldr	r3, [sp, #4]
	add	r5, r5, r3
	.loc 2 1722 0
	mov	r3, r7
	muls	r3, r4, r3
	.loc 2 1723 0
	add	r4, r4, #1
	.loc 2 1722 0
	it	mi
	addmi	r3, r3, #3
	.loc 2 1723 0
	uxth	r4, r4
	.loc 2 1722 0
	bic	r3, r3, #3
	.loc 2 1721 0
	str	r5, [r1, #8]
	.loc 2 1722 0
	add	r3, r3, r8
	str	r3, [r1, #12]
.L1121:
	adds	r2, r2, #1
	b	.L1118
.LVL939:
.L1130:
	.loc 2 1730 0
	ldr	r2, [r7]
.LVL940:
	cbnz	r2, .L1126
	.loc 2 1731 0
	ldr	r10, [r7, #12]
	.loc 2 1732 0
	ldr	r2, [r10, #4]
	adds	r0, r2, #1
	beq	.L1127
	.loc 2 1733 0
	ldr	r1, [r5, #2476]
	mov	r0, r2
	bl	ftl_cmp_data_ver
.LVL941:
	cbz	r0, .L1127
	.loc 2 1735 0
	adds	r2, r2, #1
	str	r2, [r5, #2476]
.L1127:
	.loc 2 1738 0
	ldr	r2, [r10]
	adds	r2, r2, #1
	bne	.L1129
.LVL942:
.L1128:
	.loc 2 1752 0
	uxth	r2, r6
.LVL943:
	.loc 2 1753 0
	uxth	r3, r3
	.loc 2 1752 0
	str	r2, [sp, #16]
	.loc 2 1753 0
	movs	r2, #20
.LVL944:
	mla	r8, r2, r3, r8
	b	.L1237
.L1126:
	.loc 2 1742 0
	ldr	r9, [sp, #12]
.L1129:
	adds	r3, r3, #1
	adds	r7, r7, #20
	b	.L1125
.LVL945:
.L1133:
	.loc 2 1770 0
	movw	r3, #65535
.LVL946:
	cmp	r9, r3
	bne	.L1134
	.loc 2 1770 0 is_stmt 0 discriminator 1
	ldrb	r3, [fp, #8]	@ zero_extendqisi2
	cmp	r3, #0
	bne	.L1135
.L1134:
.LBB449:
	.loc 2 1775 0 is_stmt 1
	ldr	r3, [r5, #3964]
	.loc 2 1774 0
	uxth	r8, r6
	.loc 2 1778 0
	uxth	r6, r6
.LVL947:
	ldr	r7, .L1243
	.loc 2 1784 0
	movw	r9, #65535
	.loc 2 1775 0
	adds	r3, r3, #1
	.loc 2 1776 0
	itt	eq
	ldreq	r3, [sp, #4]
.LVL948:
	streq	r3, [r5, #3964]
	.loc 2 1778 0
	ldr	r3, [sp, #8]
.LVL949:
	adds	r3, r3, #7
.LVL950:
	cmp	r6, r3
	.loc 2 1779 0
	itet	gt
	subgt	r4, r8, #7
	ldrle	r4, [sp, #8]
	uxthgt	r4, r4
.L1138:
	.loc 2 1780 0 discriminator 1
	cmp	r4, r8
	bhi	.L1145
	.loc 2 1785 0
	movs	r3, #0
	.loc 2 1782 0
	ldrh	lr, [r7, #8]
	.loc 2 1785 0
	ldr	r0, [r7, #3792]
	mov	r6, r3
	ldr	r1, [sp, #20]
	mov	ip, #20
	b	.L1146
.LVL951:
.L1140:
	.loc 2 1783 0
	ldrh	r2, [r1], #2
	.loc 2 1784 0
	cmp	r2, r9
	beq	.L1139
	.loc 2 1785 0
	mla	r10, ip, r6, r0
	.loc 2 1786 0
	adds	r6, r6, #1
	.loc 2 1785 0
	orr	r2, r4, r2, lsl #10
	.loc 2 1786 0
	uxth	r6, r6
	.loc 2 1785 0
	str	r2, [r10, #4]
.L1139:
	adds	r3, r3, #1
.LVL952:
.L1146:
	.loc 2 1782 0 discriminator 1
	uxth	r2, r3
.LVL953:
	cmp	r2, lr
	bcc	.L1140
	.loc 2 1789 0
	movs	r2, #0
	mov	r1, r6
	bl	FlashReadPages
.LVL954:
	.loc 2 1791 0
	ldr	r3, [r7, #3792]
	movs	r2, #20
	mla	r6, r2, r6, r3
.L1141:
	.loc 2 1790 0 discriminator 1
	cmp	r6, r3
	bne	.L1144
	.loc 2 1780 0
	adds	r4, r4, #1
	uxth	r4, r4
	b	.L1138
.L1144:
	.loc 2 1791 0
	ldr	r2, [r3]
	cbnz	r2, .L1135
	.loc 2 1792 0
	ldr	r2, [r3, #12]
	.loc 2 1793 0
	ldrh	r1, [r2]
	cmp	r1, r9
	beq	.L1143
	.loc 2 1795 0
	ldr	r2, [r2, #4]
	adds	r1, r2, #1
	.loc 2 1797 0
	it	ne
	strne	r2, [r7, #3964]
.L1143:
	adds	r3, r3, #20
	b	.L1141
.LVL955:
.L1145:
	.loc 2 1809 0
	mov	r3, #-1
	str	r3, [r7, #3964]
.LVL956:
.L1135:
.LBE449:
	.loc 2 1814 0
	movs	r3, #1
	.loc 2 1815 0
	ldr	r0, .L1243+12
	.loc 2 1814 0
	strh	r3, [r5, #3968]	@ movhi
	.loc 2 1821 0
	ldr	r4, .L1243
	.loc 2 1815 0
	bl	FtlMapBlkWriteDump_data
.LVL957:
	ldr	r5, [sp, #8]
.LVL958:
.L1147:
	.loc 2 1821 0
	ldrh	r6, [r4, #8]
.LVL959:
	movs	r3, #0
	.loc 2 1824 0
	ldr	r0, [r4, #3792]
.LVL960:
	.loc 2 1820 0
	mov	r10, r3
	.loc 2 1821 0
	ldr	r1, [sp, #20]
	.loc 2 1823 0
	movw	r7, #65535
	.loc 2 1824 0
	mov	ip, #20
.L1148:
	.loc 2 1821 0 discriminator 1
	uxth	r2, r3
.LVL961:
	cmp	r6, r2
	bhi	.L1150
	.loc 2 1828 0
	movs	r2, #0
	mov	r1, r10
	bl	FlashReadPages
.LVL962:
	.loc 2 1829 0
	movs	r3, #0
.LVL963:
.L1240:
	str	r3, [sp, #28]
	.loc 2 1829 0 is_stmt 0 discriminator 2
	ldrh	r3, [sp, #28]
	cmp	r10, r3
	bhi	.L1180
	.loc 2 1982 0 is_stmt 1
	adds	r5, r5, #1
	.loc 2 1983 0
	ldrh	r3, [r4, #78]
	.loc 2 1982 0
	uxth	r5, r5
	.loc 2 1983 0
	cmp	r3, r5
	bne	.L1147
	.loc 2 1986 0
	ldrh	r2, [r4, #8]
.LVL964:
	.loc 2 1988 0
	movw	r0, #65535
.LVL965:
	.loc 2 1985 0
	movs	r3, #0
	.loc 2 1984 0
	strh	r5, [fp, #2]	@ movhi
	.loc 2 1985 0
	strh	r3, [fp, #4]	@ movhi
.L1181:
	.loc 2 1986 0 discriminator 1
	uxth	r1, r3
	cmp	r1, r2
	bcs	.L1236
	.loc 2 1987 0
	ldr	r1, [sp, #20]
	ldrh	r4, [r1], #2
	.loc 2 1988 0
	cmp	r4, r0
	.loc 2 1987 0
	str	r1, [sp, #20]
	add	r1, r3, #1
	.loc 2 1988 0
	bne	.L1241
	mov	r3, r1
	b	.L1181
.LVL966:
.L1150:
	.loc 2 1822 0
	ldrh	r2, [r1], #2
	.loc 2 1823 0
	cmp	r2, r7
	beq	.L1149
	.loc 2 1824 0
	mla	lr, ip, r10, r0
	.loc 2 1825 0
	add	r10, r10, #1
	.loc 2 1824 0
	orr	r2, r5, r2, lsl #10
	.loc 2 1825 0
	uxth	r10, r10
	.loc 2 1824 0
	str	r2, [lr, #4]
.L1149:
	adds	r3, r3, #1
	b	.L1148
.L1244:
	.align	2
.L1243:
	.word	.LANCHOR0
	.word	.LANCHOR1+421
	.word	.LC1
	.word	.LANCHOR0+3864
.LVL967:
.L1180:
	ldr	r3, [sp, #28]
	movs	r7, #20
	.loc 2 1830 0
	ldr	r9, [r4, #3792]
.LVL968:
	muls	r7, r3, r7
	add	r8, r9, r7
	ldr	r6, [r8, #4]
.LVL969:
	.loc 2 1831 0
	ubfx	r0, r6, #10, #16
.LVL970:
	.loc 2 1830 0
	str	r6, [sp, #44]
	.loc 2 1831 0
	bl	P2V_plane
.LVL971:
	.loc 2 1833 0
	ldr	r3, [sp, #8]
.LVL972:
	cmp	r5, r3
	bcc	.L1152
	.loc 2 1833 0 is_stmt 0 discriminator 1
	bne	.L1153
	.loc 2 1834 0 is_stmt 1
	ldr	r3, [sp, #24]
.LVL973:
	cmp	r3, r0
	bhi	.L1152
.LVL974:
.L1153:
	.loc 2 1837 0
	ldr	r3, [sp, #16]
.LVL975:
	cmp	r5, r3
	bne	.L1154
	.loc 2 1837 0 is_stmt 0 discriminator 1
	ldr	r3, [sp, #12]
.LVL976:
	cmp	r3, r0
	beq	.L1155
.LVL977:
.L1154:
	.loc 2 1841 0 is_stmt 1
	ldr	r3, [r9, r7]
.LVL978:
	adds	r3, r3, #1
	beq	.L1156
	.loc 2 1842 0
	ldr	r8, [r8, #12]
	.loc 2 1843 0
	movw	r3, #61589
	ldrh	r2, [r8]
	cmp	r2, r3
	beq	.L1157
.LVL979:
.L1164:
.LBB450:
	.loc 2 1876 0
	ldrh	r0, [fp]
.LVL980:
.L1239:
.LBE450:
	.loc 2 1960 0
	bl	decrement_vpc_count
.LVL981:
.L1152:
	ldr	r3, [sp, #28]
.LVL982:
	adds	r3, r3, #1
	b	.L1240
.LVL983:
.L1157:
	.loc 2 1849 0
	ldr	r3, [r8, #4]
.LVL984:
	.loc 2 1850 0
	adds	r6, r3, #1
	.loc 2 1849 0
	str	r3, [sp, #4]
	.loc 2 1850 0
	beq	.L1158
	.loc 2 1851 0 discriminator 1
	ldr	r1, [r4, #2476]
	mov	r0, r3
.LVL985:
	bl	ftl_cmp_data_ver
.LVL986:
	.loc 2 1850 0 discriminator 1
	cbz	r0, .L1158
	.loc 2 1853 0
	ldr	r3, [sp, #4]
	adds	r3, r3, #1
.LVL987:
	str	r3, [r4, #2476]
.LVL988:
.L1158:
	.loc 2 1856 0
	ldrh	r2, [r8]
	movw	r3, #61589
.LVL989:
	cmp	r2, r3
	beq	.L1159
	.loc 2 1856 0 is_stmt 0 discriminator 1
	mov	r2, #1856
	ldr	r1, .L1245
	ldr	r0, .L1245+4
.LVL990:
	bl	printk
.LVL991:
.L1159:
	.loc 2 1857 0 is_stmt 1
	ldr	r6, [r8, #8]
.LVL992:
	.loc 2 1859 0
	add	r1, sp, #40
	.loc 2 1858 0
	ldr	r3, [r8, #12]
	.loc 2 1859 0
	movs	r2, #0
	mov	r0, r6
.LVL993:
	.loc 2 1858 0
	str	r3, [sp, #36]
	.loc 2 1859 0
	bl	log2phys
.LVL994:
	.loc 2 1860 0
	ldr	r1, [r4, #3964]
	adds	r0, r1, #1
	beq	.L1160
	.loc 2 1861 0 discriminator 1
	ldr	r0, [sp, #4]
	bl	ftl_cmp_data_ver
.LVL995:
	.loc 2 1860 0 discriminator 1
	cmp	r0, #0
	beq	.L1160
.LBB451:
	.loc 2 1865 0
	ldr	r3, [sp, #36]
	adds	r2, r3, #1
	beq	.L1161
	.loc 2 1866 0
	ldr	r0, [r4, #3792]
	.loc 2 1868 0
	movs	r2, #0
	movs	r1, #1
	.loc 2 1866 0
	add	r0, r0, r7
	.loc 2 1867 0
	str	r3, [r0, #4]
	.loc 2 1866 0
	ldr	r8, [r0, #12]
	.loc 2 1868 0
	bl	FlashReadPages
.LVL996:
	.loc 2 1881 0
	ldr	r2, [r4, #3792]
	ldr	r1, [r2, r7]
	adds	r3, r2, r7
	adds	r1, r1, #1
	bne	.L1162
.LVL997:
.L1163:
	.loc 2 1913 0
	mov	r3, #-1
.LVL998:
	.loc 2 1914 0
	ldrh	r0, [fp]
	.loc 2 1913 0
	str	r3, [sp, #36]
	.loc 2 1914 0
	bl	decrement_vpc_count
.LVL999:
.L1171:
.LBE451:
	.loc 2 1954 0
	ldr	r0, [sp, #36]
	adds	r1, r0, #1
	beq	.L1152
.L1184:
	.loc 2 1956 0
	ubfx	r0, r0, #10, #16
	bl	P2V_block_in_plane
.LVL1000:
	.loc 2 1957 0
	ldrh	r3, [r4, #16]
	.loc 2 1956 0
	mov	r6, r0
.LVL1001:
	.loc 2 1957 0
	cmp	r3, r0
	bhi	.L1176
	.loc 2 1957 0 is_stmt 0 discriminator 1
	movw	r2, #1957
	ldr	r1, .L1245
	ldr	r0, .L1245+4
	bl	printk
.LVL1002:
.L1176:
	.loc 2 1958 0 is_stmt 1
	ldr	r3, [r4, #2260]
	ldrh	r3, [r3, r6, lsl #1]
	cmp	r3, #0
	beq	.L1177
	.loc 2 1960 0
	mov	r0, r6
	b	.L1239
.LVL1003:
.L1161:
.LBB452:
	.loc 2 1872 0
	ldr	r3, [sp, #44]
	ldr	r2, [sp, #40]
	cmp	r2, r3
	bne	.L1164
	.loc 2 1873 0
	movs	r2, #1
	add	r1, sp, #36
	mov	r0, r6
	bl	log2phys
.LVL1004:
	b	.L1164
.L1162:
	.loc 2 1881 0 discriminator 1
	ldr	r1, [r8, #8]
	cmp	r6, r1
	bne	.L1163
	.loc 2 1869 0 discriminator 2
	ldr	r9, [r8, #4]
.LVL1005:
	.loc 2 1882 0 discriminator 2
	ldr	r0, [r4, #3964]
	mov	r1, r9
	bl	ftl_cmp_data_ver
.LVL1006:
	.loc 2 1881 0 discriminator 2
	cmp	r0, #0
	beq	.L1163
	.loc 2 1883 0
	ldr	r1, [sp, #40]
	ldr	r0, [sp, #44]
	cmp	r1, r0
	bne	.L1166
.LVL1007:
.L1169:
	.loc 2 1909 0
	ldr	r1, [sp, #36]
	mov	r0, r6
	bl	FtlReUsePrevPpa
.LVL1008:
	b	.L1163
.LVL1009:
.L1166:
	.loc 2 1886 0
	ldr	r0, [sp, #36]
.LVL1010:
	cmp	r1, r0
	beq	.L1163
	.loc 2 1887 0
	adds	r0, r1, #1
	beq	.L1167
	.loc 2 1889 0
	str	r1, [r3, #4]
	.loc 2 1890 0
	movs	r2, #0
	movs	r1, #1
	mov	r0, r3
	.loc 2 1888 0
	ldr	r8, [r3, #12]
	.loc 2 1890 0
	bl	FlashReadPages
.LVL1011:
.L1168:
	.loc 2 1895 0
	ldr	r3, [r4, #3792]
	ldr	r3, [r3, r7]
	adds	r3, r3, #1
	beq	.L1169
	.loc 2 1896 0
	ldr	r3, [r8, #4]
.LVL1012:
	.loc 2 1897 0
	ldr	r0, [r4, #3964]
	mov	r1, r3
	bl	ftl_cmp_data_ver
.LVL1013:
	cmp	r0, #0
	beq	.L1169
	.loc 2 1898 0
	mov	r1, r3
	mov	r0, r9
	bl	ftl_cmp_data_ver
.LVL1014:
	cmp	r0, #0
	beq	.L1163
	b	.L1169
.LVL1015:
.L1167:
	.loc 2 1892 0
	str	r1, [r2, r7]
	b	.L1168
.LVL1016:
.L1160:
.LBE452:
	.loc 2 1915 0
	ldr	r3, [sp, #44]
	ldr	r2, [sp, #40]
	cmp	r2, r3
	beq	.L1171
	.loc 2 1917 0
	movs	r2, #1
	add	r1, sp, #44
	mov	r0, r6
	bl	log2phys
.LVL1017:
	.loc 2 1918 0
	ldr	r8, [sp, #40]
	cmp	r8, #-1
	beq	.L1171
	.loc 2 1918 0 is_stmt 0 discriminator 1
	ldr	r3, [sp, #36]
	cmp	r8, r3
	beq	.L1174
	.loc 2 1919 0 is_stmt 1
	ubfx	r0, r8, #10, #16
	bl	P2V_block_in_plane
.LVL1018:
	.loc 2 1921 0
	ldrh	r3, [r4, #2280]
	cmp	r3, r0
	beq	.L1175
	.loc 2 1921 0 is_stmt 0 discriminator 1
	ldrh	r3, [r4, #2328]
	cmp	r3, r0
	beq	.L1175
	.loc 2 1922 0 is_stmt 1
	ldrh	r3, [r4, #2376]
	cmp	r3, r0
	bne	.L1171
.L1175:
.LBB453:
	.loc 2 1927 0
	ldr	r0, [r4, #3792]
	.loc 2 1930 0
	movs	r2, #0
	movs	r1, #1
	.loc 2 1929 0
	str	r8, [r0, #4]
	.loc 2 1927 0
	ldr	r7, [r0, #12]
	.loc 2 1930 0
	bl	FlashReadPages
.LVL1019:
	.loc 2 1933 0
	ldr	r3, [r4, #3792]
	ldr	r3, [r3]
	adds	r3, r3, #1
	beq	.L1171
	.loc 2 1934 0
	ldr	r1, [r7, #4]
	ldr	r0, [sp, #4]
	bl	ftl_cmp_data_ver
.LVL1020:
	cmp	r0, #0
	bne	.L1171
	.loc 2 1941 0
	movs	r2, #1
	add	r1, sp, #40
	mov	r0, r6
	bl	log2phys
.LVL1021:
	b	.L1171
.LVL1022:
.L1177:
.LBE453:
	.loc 2 1962 0
	mov	r1, r6
	ldr	r0, .L1245+8
	bl	printk
.LVL1023:
	b	.L1152
.LVL1024:
.L1156:
	.loc 2 1969 0
	ldr	r3, [r4, #3972]
	cmp	r3, #31
	.loc 2 1970 0
	itttt	ls
	addls	r2, r4, r3, lsl #2
	.loc 2 1971 0
	addls	r3, r3, #1
	strls	r3, [r4, #3972]
	.loc 2 1970 0
	strls	r6, [r2, #3976]
	.loc 2 1973 0
	ldrh	r0, [fp]
.LVL1025:
	bl	decrement_vpc_count
.LVL1026:
	.loc 2 1975 0
	ldr	r3, [r4, #3964]
	adds	r2, r3, #1
	bne	.L1179
	.loc 2 1976 0
	ldr	r3, [sp, #4]
.LVL1027:
.L1238:
	.loc 2 1978 0
	str	r3, [r4, #3964]
	b	.L1152
.LVL1028:
.L1179:
	.loc 2 1977 0
	ldr	r2, [sp, #4]
.LVL1029:
	cmp	r2, r3
	bcs	.L1152
	.loc 2 1978 0
	mov	r3, r2
.LVL1030:
	b	.L1238
.LVL1031:
.L1155:
	.loc 2 2002 0
	ldrb	r3, [sp, #12]	@ zero_extendqisi2
.LVL1032:
	.loc 2 2004 0
	mov	r1, r5
	.loc 2 2003 0
	strh	r5, [fp, #2]	@ movhi
	.loc 2 2004 0
	ldr	r2, [sp, #12]
	.loc 2 2002 0
	strb	r3, [fp, #6]
	b	.L1242
.LVL1033:
.L1174:
	.loc 2 1954 0
	mov	r0, r8
	b	.L1184
.L1246:
	.align	2
.L1245:
	.word	.LANCHOR1+421
	.word	.LC1
	.word	.LC95
.LFE231:
	.fnend
	.size	FtlRecoverySuperblock, .-FtlRecoverySuperblock
	.align	1
	.global	FtlSuperblockPowerLostFix
	.syntax unified
	.thumb
	.thumb_func
	.fpu softvfp
	.type	FtlSuperblockPowerLostFix, %function
FtlSuperblockPowerLostFix:
	.fnstart
.LFB238:
	.loc 2 2156 0
	@ args = 0, pretend = 0, frame = 24
	@ frame_needed = 0, uses_anonymous_args = 0
.LVL1034:
	push	{r4, r5, r6, r7, r8, lr}
	.save {r4, r5, r6, r7, r8, lr}
.LCFI144:
	mov	r4, r0
	ldr	r5, .L1258
	.pad #24
	sub	sp, sp, #24
.LCFI145:
	.loc 2 2162 0
	movs	r6, #7
	.loc 2 2168 0
	mov	r7, #-1
	.loc 2 2176 0
	mov	r8, #0
.L1248:
	.loc 2 2162 0
	subs	r6, r6, #1
	beq	.L1250
	.loc 2 2163 0
	ldrh	r3, [r4, #4]
	cbnz	r3, .L1249
.L1250:
	.loc 2 2183 0
	ldr	r2, [r5, #2260]
	ldrh	r1, [r4]
	ldrh	r0, [r4, #4]
	ldrh	r3, [r2, r1, lsl #1]
	subs	r3, r3, r0
	strh	r3, [r2, r1, lsl #1]	@ movhi
	.loc 2 2184 0
	ldrh	r3, [r5, #78]
	strh	r3, [r4, #2]	@ movhi
	.loc 2 2185 0
	movs	r3, #0
	strb	r3, [r4, #6]
	.loc 2 2186 0
	strh	r3, [r4, #4]	@ movhi
	.loc 2 2188 0
	add	sp, sp, #24
.LCFI146:
	@ sp needed
	pop	{r4, r5, r6, r7, r8, pc}
.LVL1035:
.L1249:
.LCFI147:
	.loc 2 2165 0
	mov	r0, r4
	bl	get_new_active_ppa
.LVL1036:
	str	r0, [sp, #8]
	.loc 2 2166 0
	adds	r0, r0, #1
	beq	.L1250
	.loc 2 2170 0
	ldr	r2, [r5, #3244]
	.loc 2 2179 0
	movs	r1, #1
	.loc 2 2169 0
	ldr	r3, [r5, #2244]
	.loc 2 2179 0
	add	r0, sp, #4
	.loc 2 2168 0
	str	r7, [sp, #20]
	.loc 2 2170 0
	str	r2, [sp, #16]
	.loc 2 2169 0
	str	r3, [sp, #12]
	.loc 2 2174 0
	str	r7, [r2, #12]
	.loc 2 2173 0
	str	r7, [r2, #8]
	.loc 2 2175 0
	ldrh	r3, [r4]
	.loc 2 2176 0
	strh	r8, [r2]	@ movhi
	.loc 2 2175 0
	strh	r3, [r2, #2]	@ movhi
	.loc 2 2178 0
	ldr	r3, [r5, #2476]
	str	r3, [r2, #4]
	adds	r3, r3, #1
	adds	r2, r3, #1
	it	eq
	moveq	r3, r8
	str	r3, [r5, #2476]
	.loc 2 2179 0
	movs	r3, #0
	mov	r2, r3
	bl	FlashProgPages
.LVL1037:
	.loc 2 2180 0
	ldrh	r0, [r4]
	bl	decrement_vpc_count
.LVL1038:
	b	.L1248
.L1259:
	.align	2
.L1258:
	.word	.LANCHOR0
.LFE238:
	.fnend
	.size	FtlSuperblockPowerLostFix, .-FtlSuperblockPowerLostFix
	.align	1
	.global	FtlLoadBbt
	.syntax unified
	.thumb
	.thumb_func
	.fpu softvfp
	.type	FtlLoadBbt, %function
FtlLoadBbt:
	.fnstart
.LFB179:
	.loc 4 173 0
	@ args = 0, pretend = 0, frame = 0
	@ frame_needed = 0, uses_anonymous_args = 0
	push	{r4, r5, r6, r7, r8, lr}
	.save {r4, r5, r6, r7, r8, lr}
.LCFI148:
	.loc 4 196 0
	movw	r8, #61649
	.loc 4 180 0
	ldr	r4, .L1289
	ldr	r3, [r4, #2244]
	.loc 4 186 0
	addw	r7, r4, #3224
	.loc 4 181 0
	ldr	r6, [r4, #3244]
	.loc 4 180 0
	str	r3, [r4, #3232]
	.loc 4 181 0
	str	r6, [r4, #3236]
	.loc 4 183 0
	bl	FtlBbtMemInit
.LVL1039:
	.loc 4 184 0
	ldrh	r5, [r4, #74]
	subs	r5, r5, #1
	uxth	r5, r5
.LVL1040:
.L1261:
	.loc 4 184 0 is_stmt 0 discriminator 1
	ldrh	r3, [r4, #74]
	subs	r3, r3, #16
	cmp	r5, r3
	ble	.L1264
	.loc 4 185 0 is_stmt 1
	lsls	r3, r5, #10
	.loc 4 186 0
	movs	r2, #1
	mov	r1, r2
	mov	r0, r7
	.loc 4 185 0
	str	r3, [r4, #3228]
	.loc 4 186 0
	bl	FlashReadPages
.LVL1041:
	.loc 4 187 0
	ldr	r3, [r4, #3224]
	adds	r3, r3, #1
	bne	.L1262
	.loc 4 188 0
	ldr	r3, [r4, #3228]
	.loc 4 189 0
	movs	r2, #1
	mov	r1, r2
	mov	r0, r7
	.loc 4 188 0
	adds	r3, r3, #1
	str	r3, [r4, #3228]
	.loc 4 189 0
	bl	FlashReadPages
.LVL1042:
.L1262:
	.loc 4 191 0
	ldr	r3, [r4, #3224]
	adds	r3, r3, #1
	beq	.L1263
	.loc 4 196 0
	ldrh	r3, [r6]
	cmp	r3, r8
	bne	.L1263
	.loc 4 199 0
	ldr	r3, [r6, #4]
	.loc 4 198 0
	strh	r5, [r4, #128]	@ movhi
	.loc 4 199 0
	str	r3, [r4, #136]
	.loc 4 200 0
	ldrh	r3, [r6, #8]
	strh	r3, [r4, #132]	@ movhi
.L1264:
	.loc 4 216 0
	ldrh	r3, [r4, #128]
	movw	r2, #65535
	cmp	r3, r2
	beq	.L1278
	.loc 4 222 0
	ldrh	r3, [r4, #132]
	cmp	r3, r2
	beq	.L1268
	.loc 4 224 0
	lsls	r3, r3, #10
	.loc 4 225 0
	movs	r2, #1
	mov	r1, r2
	ldr	r0, .L1289+4
	.loc 4 224 0
	str	r3, [r4, #3228]
	.loc 4 225 0
	bl	FlashReadPages
.LVL1043:
	.loc 4 226 0
	ldr	r3, [r4, #3224]
	adds	r3, r3, #1
	beq	.L1268
	.loc 4 229 0
	ldrh	r2, [r6]
	movw	r3, #61649
	cmp	r2, r3
	bne	.L1268
	.loc 4 229 0 is_stmt 0 discriminator 1
	ldr	r3, [r6, #4]
	ldr	r2, [r4, #136]
	cmp	r3, r2
	bls	.L1268
	.loc 4 231 0 is_stmt 1
	ldrh	r2, [r4, #132]
	.loc 4 232 0
	str	r3, [r4, #136]
	.loc 4 233 0
	ldrh	r3, [r6, #8]
	.loc 4 231 0
	strh	r2, [r4, #128]	@ movhi
	.loc 4 233 0
	strh	r3, [r4, #132]	@ movhi
.L1268:
	.loc 4 245 0
	ldr	r7, .L1289+4
	.loc 4 238 0
	movs	r1, #1
	ldrh	r0, [r4, #128]
	.loc 4 247 0
	movw	r8, #61649
	.loc 4 238 0
	bl	FtlGetLastWrittenPage
.LVL1044:
	sxth	r5, r0
.LVL1045:
	.loc 4 239 0
	adds	r0, r0, #1
	strh	r0, [r4, #130]	@ movhi
.L1270:
	.loc 4 241 0
	cmp	r5, #0
	bge	.L1273
	.loc 4 254 0
	movs	r2, #254
	ldr	r1, .L1289+8
	ldr	r0, .L1289+12
	bl	printk
.LVL1046:
.L1272:
	.loc 4 255 0
	ldrh	r3, [r6, #10]
	.loc 4 257 0
	ldrh	r0, [r6, #12]
	.loc 4 255 0
	strh	r3, [r4, #134]	@ movhi
	.loc 4 257 0
	movw	r3, #65535
	cmp	r0, r3
	beq	.L1275
	.loc 4 259 0
	ldr	r2, [r4, #4]
	cmp	r0, r2
	beq	.L1275
	.loc 4 259 0 is_stmt 0 discriminator 1
	ldrh	r3, [r4, #18]
	lsrs	r3, r3, #2
	cmp	r2, r3
	bcs	.L1275
	.loc 4 261 0 is_stmt 1
	cmp	r0, r3
	bcs	.L1275
	.loc 4 263 0
	bl	FtlSysBlkNumInit
.LVL1047:
.L1275:
	ldr	r6, .L1289+16
	.loc 4 173 0 discriminator 1
	movs	r5, #0
.LVL1048:
.L1276:
	.loc 4 268 0 discriminator 1
	ldrh	r3, [r4, #30]
	cmp	r5, r3
	bcc	.L1277
	.loc 4 275 0
	movs	r0, #0
	pop	{r4, r5, r6, r7, r8, pc}
.LVL1049:
.L1263:
	.loc 4 184 0 discriminator 2
	subs	r5, r5, #1
.LVL1050:
	uxth	r5, r5
.LVL1051:
	b	.L1261
.LVL1052:
.L1273:
	.loc 4 243 0
	ldrh	r3, [r4, #128]
	.loc 4 245 0
	movs	r2, #1
	mov	r1, r2
	mov	r0, r7
	.loc 4 243 0
	orr	r3, r5, r3, lsl #10
	str	r3, [r4, #3228]
	.loc 4 244 0
	ldr	r3, [r4, #2244]
	str	r3, [r4, #3232]
	.loc 4 245 0
	bl	FlashReadPages
.LVL1053:
	.loc 4 247 0
	ldr	r3, [r4, #3224]
	adds	r3, r3, #1
	beq	.L1271
	.loc 4 247 0 is_stmt 0 discriminator 1
	ldrh	r3, [r6]
	cmp	r3, r8
	beq	.L1272
.L1271:
	subs	r5, r5, #1
.LVL1054:
	sxth	r5, r5
.LVL1055:
	b	.L1270
.LVL1056:
.L1277:
	.loc 4 269 0 is_stmt 1 discriminator 3
	ldrh	r2, [r4, #3860]
	ldr	r1, [r4, #3232]
	ldr	r0, [r6, #4]!
	lsls	r2, r2, #2
	mla	r1, r5, r2, r1
	.loc 4 268 0 discriminator 3
	adds	r5, r5, #1
	.loc 4 269 0 discriminator 3
	bl	ftl_memcpy
.LVL1057:
	b	.L1276
.LVL1058:
.L1278:
	.loc 4 218 0
	mov	r0, #-1
	pop	{r4, r5, r6, r7, r8, pc}
.LVL1059:
.L1290:
	.align	2
.L1289:
	.word	.LANCHOR0
	.word	.LANCHOR0+3224
	.word	.LANCHOR1+443
	.word	.LC1
	.word	.LANCHOR0+152
.LFE179:
	.fnend
	.size	FtlLoadBbt, .-FtlLoadBbt
	.align	1
	.global	FtlMakeBbt
	.syntax unified
	.thumb
	.thumb_func
	.fpu softvfp
	.type	FtlMakeBbt, %function
FtlMakeBbt:
	.fnstart
.LFB181:
	.loc 4 317 0
	@ args = 0, pretend = 0, frame = 0
	@ frame_needed = 0, uses_anonymous_args = 0
	push	{r3, r4, r5, r6, r7, r8, r9, r10, fp, lr}
	.save {r3, r4, r5, r6, r7, r8, r9, r10, fp, lr}
.LCFI149:
	.loc 4 327 0
	mov	r8, #0
.LVL1060:
	ldr	r9, .L1310+4
	.loc 4 325 0
	bl	FtlBbtMemInit
.LVL1061:
	.loc 4 327 0
	sub	r5, r9, #156
	sub	r10, r9, #18
	mov	r4, r5
	.loc 4 326 0
	bl	FtlLoadFactoryBbt
.LVL1062:
.L1292:
	.loc 4 327 0 discriminator 1
	ldrh	r3, [r5, #30]
	cmp	r8, r3
	bcc	.L1298
	movs	r5, #0
.L1299:
	.loc 4 381 0 discriminator 1
	ldrh	r3, [r4, #90]
	uxth	r0, r5
	adds	r5, r5, #1
	cmp	r3, r0
	bhi	.L1300
	.loc 4 387 0
	ldrh	r5, [r4, #140]
	.loc 4 396 0
	movw	r6, #65535
	.loc 4 387 0
	subs	r5, r5, #1
	uxth	r5, r5
.L1301:
	.loc 4 387 0 is_stmt 0 discriminator 1
	ldrh	r3, [r4, #140]
	subs	r3, r3, #48
	cmp	r5, r3
	ble	.L1305
	.loc 4 389 0 is_stmt 1
	mov	r0, r5
	bl	FtlBbmIsBadBlock
.LVL1063:
	cmp	r0, #1
	beq	.L1302
	.loc 4 391 0
	mov	r0, r5
	bl	FlashTestBlk
.LVL1064:
	cmp	r0, #0
	beq	.L1303
	.loc 4 393 0
	mov	r0, r5
	bl	FtlBbmMapBadBlock
.LVL1065:
.L1302:
	.loc 4 387 0 discriminator 2
	subs	r5, r5, #1
	uxth	r5, r5
	b	.L1301
.L1298:
	.loc 4 331 0
	ldrh	r3, [r10, #2]!
	movw	r2, #65535
	.loc 4 328 0
	ldr	r0, [r5, #2244]
	.loc 4 329 0
	ldr	fp, [r5, #3244]
	.loc 4 331 0
	cmp	r3, r2
	.loc 4 328 0
	str	r0, [r5, #3232]
	.loc 4 329 0
	str	fp, [r5, #3236]
	.loc 4 331 0
	beq	.L1293
	.loc 4 333 0
	ldrh	r7, [r5, #74]
.LVL1066:
	.loc 4 335 0
	movs	r2, #1
	mov	r1, r2
	ldr	r0, .L1310
	.loc 4 333 0
	mla	r7, r8, r7, r3
.LVL1067:
	.loc 4 334 0
	lsls	r3, r7, #10
	str	r3, [r5, #3228]
	.loc 4 335 0
	bl	FlashReadPages
.LVL1068:
	.loc 4 336 0
	ldrh	r2, [r5, #74]
	ldr	r1, [r5, #3232]
	ldr	r0, [r9]
	adds	r2, r2, #7
	asrs	r2, r2, #3
	bl	ftl_memcpy
.LVL1069:
.L1294:
	.loc 4 376 0 discriminator 2
	uxth	r0, r7
	.loc 4 327 0 discriminator 2
	add	r8, r8, #1
	add	r9, r9, #4
	.loc 4 376 0 discriminator 2
	bl	FtlBbmMapBadBlock
.LVL1070:
	b	.L1292
.L1293:
	.loc 4 340 0
	mov	r1, r8
	bl	FlashGetBadBlockList
.LVL1071:
	.loc 4 341 0
	ldr	r1, [r9]
	ldr	r0, [r5, #3232]
	bl	FtlBbt2Bitmap
.LVL1072:
	.loc 4 343 0
	ldrh	r6, [r5, #74]
.L1296:
	.loc 4 347 0
	subs	r6, r6, #1
	uxth	r6, r6
.L1295:
	.loc 4 345 0
	ldrh	r0, [r4, #74]
	smlabb	r0, r0, r8, r6
	uxth	r0, r0
	bl	FtlBbmIsBadBlock
.LVL1073:
	cmp	r0, #1
	beq	.L1296
.LBB464:
.LBB465:
.LBB466:
	.loc 1 202 0
	movs	r1, #16
	ldr	r0, [r4, #3244]
.LBE466:
.LBE465:
.LBE464:
	.loc 4 349 0
	strh	r6, [r10]	@ movhi
.LBB469:
.LBB468:
.LBB467:
	.loc 1 202 0
	bl	__memzero
.LVL1074:
.LBE467:
.LBE468:
.LBE469:
.LBB470:
.LBB471:
.LBB472:
	mov	r1, #4096
	ldr	r0, [r4, #2244]
	bl	__memzero
.LVL1075:
.LBE472:
.LBE471:
.LBE470:
	.loc 4 352 0
	movw	r3, #61664
	strh	r3, [fp]	@ movhi
	.loc 4 353 0
	movs	r3, #0
	str	r3, [fp, #4]
	.loc 4 354 0
	ldrh	r3, [r10]
	.loc 4 355 0
	ldrh	r7, [r4, #74]
.LVL1076:
	.loc 4 357 0
	ldrh	r2, [r4, #3860]
	.loc 4 354 0
	strh	r3, [fp, #2]	@ movhi
	.loc 4 355 0
	ldrh	r3, [r10]
	.loc 4 357 0
	ldr	r1, [r9]
	lsls	r2, r2, #2
	ldr	r0, [r4, #3232]
	.loc 4 355 0
	mla	r7, r8, r7, r3
.LVL1077:
	.loc 4 356 0
	lsls	r3, r7, #10
	str	r3, [r4, #3228]
	.loc 4 357 0
	bl	ftl_memcpy
.LVL1078:
	.loc 4 358 0
	movs	r2, #1
	ldr	r0, .L1310
	mov	r1, r2
	bl	FlashEraseBlocks
.LVL1079:
	.loc 4 359 0
	movs	r3, #1
	ldr	r0, .L1310
	mov	r2, r3
	mov	r1, r3
	bl	FlashProgPages
.LVL1080:
	.loc 4 360 0
	ldr	r3, [r4, #3224]
	adds	r3, r3, #1
	bne	.L1294
	.loc 4 362 0
	uxth	r0, r7
	bl	FtlBbmMapBadBlock
.LVL1081:
	.loc 4 363 0
	b	.L1295
.L1300:
	.loc 4 383 0 discriminator 3
	bl	FtlBbmMapBadBlock
.LVL1082:
	b	.L1299
.L1303:
	.loc 4 396 0
	ldrh	r3, [r4, #128]
	cmp	r3, r6
	bne	.L1304
	.loc 4 398 0
	strh	r5, [r4, #128]	@ movhi
	b	.L1302
.L1304:
	.loc 4 402 0
	strh	r5, [r4, #132]	@ movhi
.L1305:
	.loc 4 414 0
	ldrh	r3, [r4, #128]
	.loc 4 411 0
	movs	r5, #0
	.loc 4 414 0
	ldr	r0, [r4, #3760]
	.loc 4 416 0
	movs	r1, #1
	.loc 4 413 0
	str	r5, [r4, #136]
	.loc 4 416 0
	movs	r2, #2
	.loc 4 411 0
	strh	r5, [r4, #130]	@ movhi
	.loc 4 414 0
	lsls	r3, r3, #10
	str	r3, [r0, #4]
	.loc 4 415 0
	ldrh	r3, [r4, #132]
	lsls	r3, r3, #10
	str	r3, [r0, #24]
	.loc 4 416 0
	bl	FlashEraseBlocks
.LVL1083:
	.loc 4 418 0
	ldrh	r0, [r4, #128]
	bl	FtlBbmMapBadBlock
.LVL1084:
	.loc 4 419 0
	ldrh	r0, [r4, #132]
	bl	FtlBbmMapBadBlock
.LVL1085:
	.loc 4 421 0
	bl	FtlBbmTblFlush
.LVL1086:
	.loc 4 422 0
	ldr	r3, [r4, #136]
	.loc 4 425 0
	ldrh	r2, [r4, #132]
	.loc 4 426 0
	strh	r5, [r4, #130]	@ movhi
	.loc 4 422 0
	adds	r3, r3, #1
	str	r3, [r4, #136]
	.loc 4 424 0
	ldrh	r3, [r4, #128]
	.loc 4 425 0
	strh	r2, [r4, #128]	@ movhi
	.loc 4 427 0
	strh	r3, [r4, #132]	@ movhi
	.loc 4 429 0
	bl	FtlBbmTblFlush
.LVL1087:
	.loc 4 432 0
	mov	r0, r5
	pop	{r3, r4, r5, r6, r7, r8, r9, r10, fp, pc}
.LVL1088:
.L1311:
	.align	2
.L1310:
	.word	.LANCHOR0+3224
	.word	.LANCHOR0+156
.LFE181:
	.fnend
	.size	FtlMakeBbt, .-FtlMakeBbt
	.align	1
	.global	FtlVendorPartWrite
	.syntax unified
	.thumb
	.thumb_func
	.fpu softvfp
	.type	FtlVendorPartWrite, %function
FtlVendorPartWrite:
	.fnstart
.LFB213:
	.loc 2 786 0
	@ args = 0, pretend = 0, frame = 104
	@ frame_needed = 0, uses_anonymous_args = 0
.LVL1089:
	push	{r4, r5, r6, r7, r8, r9, r10, fp, lr}
	.save {r4, r5, r6, r7, r8, r9, r10, fp, lr}
.LCFI150:
	mov	r10, r2
	.loc 2 794 0
	ldr	r4, .L1324
	adds	r2, r0, r1
.LVL1090:
	.loc 2 786 0
	.pad #108
	sub	sp, sp, #108
.LCFI151:
	.loc 2 786 0
	mov	r8, r0
	mov	r6, r1
	.loc 2 794 0
	ldrh	r3, [r4, #72]
	cmp	r2, r3
	bhi	.L1320
	.loc 2 791 0
	ldrh	r7, [r4, #84]
	mov	r9, #0
	lsr	r7, r0, r7
.LVL1091:
	lsl	fp, r7, #2
.LVL1092:
.L1314:
	.loc 2 797 0
	cbnz	r6, .L1319
.L1312:
	.loc 2 820 0
	mov	r0, r9
	add	sp, sp, #108
.LCFI152:
	@ sp needed
	pop	{r4, r5, r6, r7, r8, r9, r10, fp, pc}
.LVL1093:
.L1319:
.LCFI153:
	.loc 2 798 0
	ldr	r3, [r4, #3844]
	.loc 2 799 0
	mov	r0, r8
	.loc 2 798 0
	ldr	r2, [r3, fp]
.LVL1094:
	.loc 2 799 0
	ldrh	r3, [r4, #34]
	.loc 2 798 0
	str	r2, [sp, #12]
	.loc 2 799 0
	mov	r1, r3
	str	r3, [sp, #8]
	bl	__aeabi_uidivmod
.LVL1095:
	.loc 2 800 0
	ldr	r3, [sp, #8]
	.loc 2 801 0
	ldr	r2, [sp, #12]
.LVL1096:
	.loc 2 799 0
	str	r1, [sp, #4]
	.loc 2 800 0
	subs	r5, r3, r1
.LVL1097:
	uxth	r5, r5
.LVL1098:
	.loc 2 801 0
	cmp	r6, r5
	.loc 2 802 0
	it	cc
	uxthcc	r5, r6
	.loc 2 803 0
	cbz	r2, .L1316
	.loc 2 803 0 is_stmt 0 discriminator 1
	cmp	r5, r3
	beq	.L1316
	.loc 2 805 0 is_stmt 1
	ldr	r3, [r4, #3808]
	.loc 2 807 0
	add	r0, sp, #20
	.loc 2 804 0
	str	r2, [sp, #24]
	.loc 2 807 0
	movs	r2, #1
.LVL1099:
	mov	r1, r2
	.loc 2 805 0
	str	r3, [sp, #28]
	.loc 2 806 0
	add	r3, sp, #40
	str	r3, [sp, #32]
	.loc 2 807 0
	bl	FlashReadPages
.LVL1100:
.L1317:
	.loc 2 811 0
	lsls	r3, r5, #9
	ldr	r0, [r4, #3808]
	mov	r1, r10
	mov	r2, r3
	str	r3, [sp, #8]
	ldr	r3, [sp, #4]
	.loc 2 815 0
	subs	r6, r6, r5
	.loc 2 816 0
	add	r8, r8, r5
	add	fp, fp, #4
	.loc 2 811 0
	add	r0, r0, r3, lsl #9
	bl	ftl_memcpy
.LVL1101:
	.loc 2 812 0
	mov	r1, r7
	ldr	r2, [r4, #3808]
	ldr	r0, .L1324+4
	.loc 2 814 0
	adds	r7, r7, #1
	.loc 2 812 0
	bl	FtlMapWritePage
.LVL1102:
	.loc 2 817 0
	ldr	r3, [sp, #8]
	.loc 2 813 0
	adds	r0, r0, #1
	it	eq
	moveq	r9, #-1
	.loc 2 817 0
	add	r10, r10, r3
	b	.L1314
.LVL1103:
.L1316:
	.loc 2 809 0
	ldrh	r2, [r4, #86]
.LVL1104:
	movs	r1, #0
	ldr	r0, [r4, #3808]
	bl	ftl_memset
.LVL1105:
	b	.L1317
.LVL1106:
.L1320:
	.loc 2 795 0
	mov	r9, #-1
	b	.L1312
.L1325:
	.align	2
.L1324:
	.word	.LANCHOR0
	.word	.LANCHOR0+3908
.LFE213:
	.fnend
	.size	FtlVendorPartWrite, .-FtlVendorPartWrite
	.align	1
	.global	Ftl_save_ext_data
	.syntax unified
	.thumb
	.thumb_func
	.fpu softvfp
	.type	Ftl_save_ext_data, %function
Ftl_save_ext_data:
	.fnstart
.LFB236:
	.loc 2 2110 0
	@ args = 0, pretend = 0, frame = 0
	@ frame_needed = 0, uses_anonymous_args = 0
	@ link register save eliminated.
	.loc 2 2111 0
	ldr	r2, .L1328
	ldr	r3, .L1328+4
	ldr	r1, [r2, #2616]
	cmp	r1, r3
	bne	.L1326
.LBB475:
.LBB476:
	.loc 2 2112 0
	ldr	r3, .L1328+8
	.loc 2 2125 0
	addw	r2, r2, #2616
	movs	r1, #1
	movs	r0, #0
	.loc 2 2112 0
	str	r3, [r2, #4]
	.loc 2 2113 0
	ldr	r3, [r2, #-152]
	str	r3, [r2, #88]
	.loc 2 2114 0
	ldr	r3, [r2, #-148]
	str	r3, [r2, #92]
	.loc 2 2115 0
	ldr	r3, [r2, #-156]
	str	r3, [r2, #8]
	.loc 2 2116 0
	ldr	r3, [r2, #-168]
	str	r3, [r2, #12]
	.loc 2 2117 0
	ldr	r3, [r2, #-176]
	str	r3, [r2, #16]
	.loc 2 2118 0
	ldr	r3, [r2, #-160]
	str	r3, [r2, #20]
	.loc 2 2119 0
	ldr	r3, [r2, #-132]
	str	r3, [r2, #28]
	.loc 2 2120 0
	ldr	r3, [r2, #-124]
	str	r3, [r2, #32]
	.loc 2 2121 0
	ldr	r3, [r2, #-172]
	str	r3, [r2, #36]
	.loc 2 2122 0
	ldr	r3, [r2, #-164]
	str	r3, [r2, #40]
	.loc 2 2123 0
	ldr	r3, [r2, #-120]
	str	r3, [r2, #44]
	.loc 2 2124 0
	ldr	r3, [r2, #-116]
	str	r3, [r2, #48]
	.loc 2 2125 0
	b	FtlVendorPartWrite
.LVL1107:
.L1326:
	bx	lr
.L1329:
	.align	2
.L1328:
	.word	.LANCHOR0
	.word	1179929683
	.word	1342177344
.LBE476:
.LBE475:
.LFE236:
	.fnend
	.size	Ftl_save_ext_data, .-Ftl_save_ext_data
	.align	1
	.global	FtlEctTblFlush
	.syntax unified
	.thumb
	.thumb_func
	.fpu softvfp
	.type	FtlEctTblFlush, %function
FtlEctTblFlush:
	.fnstart
.LFB215:
	.loc 2 861 0
	@ args = 0, pretend = 0, frame = 0
	@ frame_needed = 0, uses_anonymous_args = 0
.LVL1108:
	.loc 2 864 0
	ldr	r2, .L1335
	.loc 2 861 0
	push	{r3, lr}
	.save {r3, lr}
.LCFI154:
	.loc 2 864 0
	ldrh	r3, [r2, #-240]
	cmp	r3, #31
	.loc 2 865 0
	itett	ls
	addls	r3, r3, #1
	.loc 2 862 0
	movhi	r2, #32
.LVL1109:
	.loc 2 865 0
	strhls	r3, [r2, #-240]	@ movhi
.LVL1110:
	.loc 2 866 0
	movls	r2, #1
.LVL1111:
	ldr	r3, .L1335+4
	.loc 2 868 0
	cbnz	r0, .L1332
	.loc 2 868 0 is_stmt 0 discriminator 1
	ldr	r1, [r3, #3820]
	ldr	r0, [r1, #20]
.LVL1112:
	ldr	r1, [r1, #16]
	add	r2, r2, r0
.LVL1113:
	cmp	r1, r2
	bcc	.L1333
.LVL1114:
.L1332:
	.loc 2 870 0 is_stmt 1
	ldr	r2, [r3, #3820]
.LVL1115:
	.loc 2 875 0
	movs	r0, #64
.LVL1116:
	.loc 2 870 0
	ldr	r1, [r2, #16]
	str	r1, [r2, #20]
	.loc 2 871 0
	ldr	r1, .L1335+8
	str	r1, [r2]
	.loc 2 872 0
	ldrh	r1, [r3, #3812]
	ldr	r2, [r3, #3820]
	lsls	r3, r1, #9
	str	r3, [r2, #12]
	.loc 2 873 0
	ldr	r3, [r2, #8]
	adds	r3, r3, #1
	str	r3, [r2, #8]
	.loc 2 874 0
	movs	r3, #0
	str	r3, [r2, #4]
	.loc 2 875 0
	bl	FtlVendorPartWrite
.LVL1117:
	.loc 2 876 0
	bl	Ftl_save_ext_data
.LVL1118:
.L1333:
	.loc 2 878 0
	movs	r0, #0
	pop	{r3, pc}
.L1336:
	.align	2
.L1335:
	.word	.LANCHOR3
	.word	.LANCHOR0
	.word	1112818501
.LFE215:
	.fnend
	.size	FtlEctTblFlush, .-FtlEctTblFlush
	.align	1
	.global	FtlVendorPartRead
	.syntax unified
	.thumb
	.thumb_func
	.fpu softvfp
	.type	FtlVendorPartRead, %function
FtlVendorPartRead:
	.fnstart
.LFB214:
	.loc 2 823 0
	@ args = 0, pretend = 0, frame = 96
	@ frame_needed = 0, uses_anonymous_args = 0
.LVL1119:
	push	{r4, r5, r6, r7, r8, r9, r10, fp, lr}
	.save {r4, r5, r6, r7, r8, r9, r10, fp, lr}
.LCFI155:
	mov	r10, r2
	.loc 2 832 0
	ldr	r5, .L1346
	adds	r2, r0, r1
.LVL1120:
	.loc 2 823 0
	.pad #100
	sub	sp, sp, #100
.LCFI156:
	.loc 2 823 0
	mov	r8, r0
	mov	r7, r1
	.loc 2 832 0
	ldrh	r3, [r5, #72]
	cmp	r2, r3
	bhi	.L1345
	.loc 2 828 0
	ldrh	r6, [r5, #84]
	mov	r9, #0
	lsr	r6, r0, r6
.LVL1121:
	lsls	r6, r6, #2
.LVL1122:
.L1339:
	.loc 2 834 0
	cbnz	r7, .L1344
.L1337:
	.loc 2 857 0
	mov	r0, r9
	add	sp, sp, #100
.LCFI157:
	@ sp needed
	pop	{r4, r5, r6, r7, r8, r9, r10, fp, pc}
.LVL1123:
.L1344:
.LCFI158:
	.loc 2 835 0
	ldr	r3, [r5, #3844]
	.loc 2 836 0
	mov	r0, r8
	ldrh	r4, [r5, #34]
.LVL1124:
	.loc 2 835 0
	ldr	r3, [r3, r6]
.LVL1125:
	.loc 2 836 0
	mov	r1, r4
	.loc 2 835 0
	str	r3, [sp, #4]
	.loc 2 836 0
	bl	__aeabi_uidivmod
.LVL1126:
	.loc 2 837 0
	subs	r4, r4, r1
	.loc 2 838 0
	ldr	r3, [sp, #4]
.LVL1127:
	.loc 2 837 0
	uxth	r4, r4
.LVL1128:
	.loc 2 836 0
	str	r1, [sp]
	.loc 2 838 0
	cmp	r7, r4
	.loc 2 839 0
	it	cc
	uxthcc	r4, r7
	lsl	fp, r4, #9
	.loc 2 840 0
	cbz	r3, .L1341
	.loc 2 841 0
	str	r3, [sp, #16]
	.loc 2 844 0
	movs	r2, #1
	.loc 2 842 0
	ldr	r3, [r5, #3808]
.LVL1129:
	.loc 2 844 0
	mov	r1, r2
	add	r0, sp, #12
	.loc 2 842 0
	str	r3, [sp, #20]
	.loc 2 843 0
	add	r3, sp, #32
	str	r3, [sp, #24]
	.loc 2 844 0
	bl	FlashReadPages
.LVL1130:
	.loc 2 845 0
	ldr	r3, [sp, #12]
	.loc 2 847 0
	mov	r2, fp
	ldr	r1, [r5, #3808]
	mov	r0, r10
	.loc 2 846 0
	adds	r3, r3, #1
	.loc 2 847 0
	ldr	r3, [sp]
	.loc 2 846 0
	it	eq
	moveq	r9, #-1
	.loc 2 847 0
	add	r1, r1, r3, lsl #9
	bl	ftl_memcpy
.LVL1131:
.L1343:
	.loc 2 852 0
	subs	r7, r7, r4
	.loc 2 853 0
	add	r8, r8, r4
	.loc 2 854 0
	add	r10, r10, fp
	adds	r6, r6, #4
	b	.L1339
.LVL1132:
.L1341:
	.loc 2 849 0
	mov	r2, fp
	mov	r1, r3
	mov	r0, r10
	bl	ftl_memset
.LVL1133:
	b	.L1343
.LVL1134:
.L1345:
	.loc 2 833 0
	mov	r9, #-1
	b	.L1337
.L1347:
	.align	2
.L1346:
	.word	.LANCHOR0
.LFE214:
	.fnend
	.size	FtlVendorPartRead, .-FtlVendorPartRead
	.align	1
	.global	FtlLoadEctTbl
	.syntax unified
	.thumb
	.thumb_func
	.fpu softvfp
	.type	FtlLoadEctTbl, %function
FtlLoadEctTbl:
	.fnstart
.LFB221:
	.loc 2 1334 0
	@ args = 0, pretend = 0, frame = 0
	@ frame_needed = 0, uses_anonymous_args = 0
	push	{r4, lr}
	.save {r4, lr}
.LCFI159:
	.loc 2 1335 0
	movs	r0, #64
	ldr	r4, .L1350
	ldr	r2, [r4, #3820]
	ldrh	r1, [r4, #3812]
	bl	FtlVendorPartRead
.LVL1135:
	.loc 2 1336 0
	ldr	r3, [r4, #3820]
	ldr	r2, [r3]
	ldr	r3, .L1350+4
	cmp	r2, r3
	beq	.L1349
.LBB479:
.LBB480:
	.loc 2 1338 0
	ldr	r1, .L1350+8
	ldr	r0, .L1350+12
	bl	printk
.LVL1136:
	.loc 2 1339 0
	ldrh	r2, [r4, #3812]
	movs	r1, #0
	ldr	r0, [r4, #3820]
	lsls	r2, r2, #9
	bl	ftl_memset
.LVL1137:
.L1349:
.LBE480:
.LBE479:
	.loc 2 1344 0
	movs	r0, #0
	pop	{r4, pc}
.L1351:
	.align	2
.L1350:
	.word	.LANCHOR0
	.word	1112818501
	.word	.LC96
	.word	.LC71
.LFE221:
	.fnend
	.size	FtlLoadEctTbl, .-FtlLoadEctTbl
	.align	1
	.global	Ftl_load_ext_data
	.syntax unified
	.thumb
	.thumb_func
	.fpu softvfp
	.type	Ftl_load_ext_data, %function
Ftl_load_ext_data:
	.fnstart
.LFB237:
	.loc 2 2130 0
	@ args = 0, pretend = 0, frame = 0
	@ frame_needed = 0, uses_anonymous_args = 0
	push	{r3, r4, r5, lr}
	.save {r3, r4, r5, lr}
.LCFI160:
	.loc 2 2131 0
	movs	r1, #1
	ldr	r4, .L1355
	movs	r0, #0
	.loc 2 2132 0
	ldr	r5, .L1355+4
	.loc 2 2131 0
	addw	r2, r4, #2616
	bl	FtlVendorPartRead
.LVL1138:
	.loc 2 2132 0
	ldr	r3, [r4, #2616]
	cmp	r3, r5
	beq	.L1353
.LBB486:
.LBB487:
.LBB488:
	.loc 1 202 0
	mov	r1, #512
	addw	r0, r4, #2616
	bl	__memzero
.LVL1139:
.LBE488:
.LBE487:
.LBE486:
	.loc 2 2134 0
	str	r5, [r4, #2616]
.L1353:
	.loc 2 2137 0
	ldr	r3, [r4, #2616]
	cmp	r3, r5
	bne	.L1354
	.loc 2 2138 0
	ldr	r3, [r4, #2704]
	str	r3, [r4, #2464]
	.loc 2 2139 0
	ldr	r3, [r4, #2708]
	str	r3, [r4, #2468]
	.loc 2 2140 0
	ldr	r3, [r4, #2624]
	str	r3, [r4, #2460]
	.loc 2 2141 0
	ldr	r3, [r4, #2628]
	str	r3, [r4, #2448]
	.loc 2 2142 0
	ldr	r3, [r4, #2632]
	str	r3, [r4, #2440]
	.loc 2 2143 0
	ldr	r3, [r4, #2636]
	str	r3, [r4, #2456]
	.loc 2 2144 0
	ldr	r3, [r4, #2644]
	str	r3, [r4, #2484]
	.loc 2 2145 0
	ldr	r3, [r4, #2648]
	str	r3, [r4, #2492]
	.loc 2 2146 0
	ldr	r3, [r4, #2652]
	str	r3, [r4, #2444]
	.loc 2 2147 0
	ldr	r3, [r4, #2656]
	str	r3, [r4, #2452]
	.loc 2 2148 0
	ldr	r3, [r4, #2660]
	str	r3, [r4, #2496]
	.loc 2 2149 0
	ldr	r3, [r4, #2664]
	str	r3, [r4, #2500]
.L1354:
	.loc 2 2152 0
	ldrh	r2, [r4, #68]
	ldr	r3, [r4, #2484]
	ldr	r0, [r4, #2480]
	ldrh	r1, [r4, #16]
	mla	r0, r0, r2, r3
	bl	__aeabi_uidiv
.LVL1140:
	str	r0, [r4, #2488]
	pop	{r3, r4, r5, pc}
.L1356:
	.align	2
.L1355:
	.word	.LANCHOR0
	.word	1179929683
.LFE237:
	.fnend
	.size	Ftl_load_ext_data, .-Ftl_load_ext_data
	.align	1
	.global	FtlVpcTblFlush
	.syntax unified
	.thumb
	.thumb_func
	.fpu softvfp
	.type	FtlVpcTblFlush, %function
FtlVpcTblFlush:
	.fnstart
.LFB219:
	.loc 2 1004 0
	@ args = 0, pretend = 0, frame = 0
	@ frame_needed = 0, uses_anonymous_args = 0
	push	{r4, r5, r6, r7, r8, r9, r10, lr}
	.save {r4, r5, r6, r7, r8, r9, r10, lr}
.LCFI161:
	.loc 2 1016 0
	movs	r5, #0
	.loc 2 1010 0
	ldr	r4, .L1369
	.loc 2 1047 0
	movs	r1, #255
	.loc 2 1005 0
	movw	r7, #65535
.LVL1141:
	.loc 2 1075 0
	ldr	r9, .L1369+16
	.loc 2 1010 0
	ldr	r3, [r4, #2244]
	.loc 2 1056 0
	addw	r8, r4, #3224
	.loc 2 1011 0
	ldr	r6, [r4, #3244]
	.loc 2 1075 0
	ldr	r10, .L1369+20
	.loc 2 1010 0
	str	r3, [r4, #3232]
	.loc 2 1013 0
	ldrh	r3, [r4, #2556]
	.loc 2 1011 0
	str	r6, [r4, #3236]
	.loc 2 1017 0
	str	r5, [r6, #12]
	.loc 2 1013 0
	strh	r3, [r6, #2]	@ movhi
	.loc 2 1014 0
	movw	r3, #61604
	strh	r3, [r6]	@ movhi
	.loc 2 1015 0
	ldr	r3, [r4, #2564]
	.loc 2 1016 0
	str	r5, [r6, #8]
	.loc 2 1025 0
	ldrh	r2, [r4, #2282]
	.loc 2 1015 0
	str	r3, [r6, #4]
	.loc 2 1019 0
	ldr	r3, .L1369+4
	str	r3, [r4, #2504]
	.loc 2 1020 0
	ldr	r3, .L1369+8
	str	r3, [r4, #2508]
	.loc 2 1021 0
	ldrh	r3, [r4, #2562]
	strh	r3, [r4, #2512]	@ movhi
	.loc 2 1022 0
	ldrh	r3, [r4, #30]
	strb	r3, [r4, #2514]
	.loc 2 1024 0
	ldrh	r3, [r4, #2280]
	strh	r3, [r4, #2518]	@ movhi
	.loc 2 1025 0
	ldrb	r3, [r4, #2286]	@ zero_extendqisi2
	orr	r3, r3, r2, lsl #6
	.loc 2 1029 0
	ldrh	r2, [r4, #2330]
	.loc 2 1025 0
	strh	r3, [r4, #2520]	@ movhi
	.loc 2 1026 0
	ldrb	r3, [r4, #2288]	@ zero_extendqisi2
	strb	r3, [r4, #2515]
	.loc 2 1028 0
	ldrh	r3, [r4, #2328]
	strh	r3, [r4, #2522]	@ movhi
	.loc 2 1029 0
	ldrb	r3, [r4, #2334]	@ zero_extendqisi2
	orr	r3, r3, r2, lsl #6
	strh	r3, [r4, #2524]	@ movhi
	.loc 2 1030 0
	ldrb	r3, [r4, #2336]	@ zero_extendqisi2
	strb	r3, [r4, #2516]
	.loc 2 1032 0
	ldrh	r3, [r4, #2376]
	.loc 2 1033 0
	ldrh	r2, [r4, #2378]
	.loc 2 1047 0
	ldr	r0, [r4, #3232]
	.loc 2 1032 0
	strh	r3, [r4, #2526]	@ movhi
	.loc 2 1033 0
	ldrb	r3, [r4, #2382]	@ zero_extendqisi2
	orr	r3, r3, r2, lsl #6
	.loc 2 1047 0
	ldrh	r2, [r4, #86]
	.loc 2 1033 0
	strh	r3, [r4, #2528]	@ movhi
	.loc 2 1034 0
	ldrb	r3, [r4, #2384]	@ zero_extendqisi2
	strb	r3, [r4, #2517]
	.loc 2 1036 0
	ldr	r3, [r4, #2480]
	str	r3, [r4, #2536]
	.loc 2 1041 0
	ldr	r3, [r4, #2472]
	str	r3, [r4, #2544]
	.loc 2 1042 0
	ldr	r3, [r4, #2476]
	str	r3, [r4, #2540]
	.loc 2 1047 0
	bl	ftl_memset
.LVL1142:
	.loc 2 1048 0
	movs	r2, #48
	addw	r1, r4, #2504
	ldr	r0, [r4, #3232]
	bl	ftl_memcpy
.LVL1143:
	.loc 2 1049 0
	ldrh	r2, [r4, #16]
	ldr	r0, [r4, #3232]
	ldr	r1, [r4, #2260]
	lsls	r2, r2, #1
	adds	r0, r0, #48
	bl	ftl_memcpy
.LVL1144:
	.loc 2 1050 0
	ldrh	r0, [r4, #16]
	ldr	r3, [r4, #3232]
	ldr	r1, [r4]
	lsrs	r2, r0, #3
	adds	r0, r0, #24
	lsls	r0, r0, #1
	adds	r2, r2, #4
	bic	r0, r0, #3
	add	r0, r0, r3
	bl	ftl_memcpy
.LVL1145:
	.loc 2 1051 0
	mov	r0, r5
	bl	FtlUpdateVaildLpn
.LVL1146:
.L1358:
	.loc 2 1053 0
	ldr	r3, [r4, #2244]
	.loc 2 1056 0
	mov	r0, r8
	.loc 2 1055 0
	ldrh	r2, [r4, #2556]
	.loc 2 1053 0
	str	r3, [r4, #3232]
	.loc 2 1054 0
	ldr	r3, [r4, #3244]
	str	r3, [r4, #3236]
	.loc 2 1055 0
	ldrh	r3, [r4, #2558]
	orr	r3, r3, r2, lsl #10
	str	r3, [r4, #3228]
	.loc 2 1056 0
	movs	r3, #1
	mov	r2, r3
	mov	r1, r3
	bl	FlashProgPages
.LVL1147:
	.loc 2 1057 0
	ldrh	r3, [r4, #80]
	ldrh	r2, [r4, #2558]
	subs	r3, r3, #1
	cmp	r2, r3
	blt	.L1359
	.loc 2 1059 0
	ldrh	r3, [r4, #2556]
	.loc 2 1058 0
	ldrh	r7, [r4, #2560]
	.loc 2 1059 0
	strh	r3, [r4, #2560]	@ movhi
	.loc 2 1060 0
	movs	r3, #0
	strh	r3, [r4, #2558]	@ movhi
	.loc 2 1061 0
	bl	FtlFreeSysBlkQueueOut
.LVL1148:
	.loc 2 1066 0
	ldr	r3, [r4, #2472]
	.loc 2 1061 0
	strh	r0, [r4, #2556]	@ movhi
	.loc 2 1066 0
	adds	r2, r3, #1
	str	r3, [r4, #2564]
	str	r2, [r4, #2472]
	.loc 2 1067 0
	lsls	r2, r0, #10
	str	r2, [r4, #3228]
	.loc 2 1068 0
	str	r3, [r6, #4]
	.loc 2 1070 0
	movs	r3, #1
	.loc 2 1069 0
	strh	r0, [r6, #2]	@ movhi
	.loc 2 1070 0
	mov	r2, r3
	mov	r1, r3
	mov	r0, r8
	bl	FlashProgPages
.LVL1149:
.L1359:
	.loc 2 1072 0
	ldrh	r3, [r4, #2558]
	.loc 2 1073 0
	ldr	r2, [r4, #3224]
	.loc 2 1072 0
	adds	r3, r3, #1
	uxth	r3, r3
	.loc 2 1073 0
	adds	r2, r2, #1
	.loc 2 1072 0
	strh	r3, [r4, #2558]	@ movhi
	.loc 2 1073 0
	bne	.L1360
	.loc 2 1075 0
	cmp	r3, #1
	bne	.L1361
	.loc 2 1075 0 is_stmt 0 discriminator 1
	movw	r2, #1075
	mov	r1, r9
	mov	r0, r10
	bl	printk
.LVL1150:
.L1361:
	.loc 2 1076 0 is_stmt 1
	ldrh	r3, [r4, #2558]
	.loc 2 1078 0
	adds	r5, r5, #1
.LVL1151:
	uxth	r5, r5
.LVL1152:
	.loc 2 1076 0
	cmp	r3, #1
	.loc 2 1077 0
	ittt	eq
	ldrheq	r3, [r4, #80]
	addeq	r3, r3, #-1
	strheq	r3, [r4, #2558]	@ movhi
	.loc 2 1079 0
	cmp	r5, #3
	bls	.L1358
	.loc 2 1080 0
	mov	r2, r5
	ldr	r1, [r4, #3228]
	ldr	r0, .L1369+12
	bl	printk
.LVL1153:
.L1364:
	b	.L1364
.L1360:
	.loc 2 1086 0
	cmp	r3, #1
	beq	.L1358
	.loc 2 1089 0
	movw	r3, #65535
	cmp	r7, r3
	beq	.L1365
	.loc 2 1090 0
	movs	r1, #1
	mov	r0, r7
	bl	FtlFreeSysBlkQueueIn
.LVL1154:
.L1365:
	.loc 2 1092 0
	movs	r0, #0
	pop	{r4, r5, r6, r7, r8, r9, r10, pc}
.LVL1155:
.L1370:
	.align	2
.L1369:
	.word	.LANCHOR0
	.word	1179929683
	.word	1342177344
	.word	.LC97
	.word	.LANCHOR1+454
	.word	.LC1
.LFE219:
	.fnend
	.size	FtlVpcTblFlush, .-FtlVpcTblFlush
	.align	1
	.global	FtlVpcCheckAndModify
	.syntax unified
	.thumb
	.thumb_func
	.fpu softvfp
	.type	FtlVpcCheckAndModify, %function
FtlVpcCheckAndModify:
	.fnstart
.LFB239:
	.loc 2 2192 0
	@ args = 0, pretend = 0, frame = 8
	@ frame_needed = 0, uses_anonymous_args = 0
	push	{r0, r1, r2, r4, r5, r6, r7, r8, r9, lr}
	.save {r4, r5, r6, r7, r8, r9, lr}
	.pad #12
.LCFI162:
	.loc 2 2199 0
	movs	r5, #0
.LVL1156:
	.loc 2 2198 0
	ldr	r4, .L1383
	.loc 2 2197 0
	ldr	r1, .L1383+4
	ldr	r0, .L1383+8
	bl	printk
.LVL1157:
	.loc 2 2198 0
	ldrh	r2, [r4, #18]
	movs	r1, #0
	ldr	r0, [r4, #3824]
	lsls	r2, r2, #1
	bl	ftl_memset
.LVL1158:
.L1372:
	.loc 2 2199 0 discriminator 1
	ldr	r3, [r4, #2436]
	cmp	r5, r3
	bcc	.L1374
	.loc 2 2209 0 discriminator 1
	ldr	r9, .L1383+12
	movs	r7, #0
	.loc 2 2207 0 discriminator 1
	movw	r8, #65535
.LVL1159:
.L1375:
	.loc 2 2206 0 discriminator 1
	ldrh	r3, [r4, #16]
	uxth	r5, r7
.LVL1160:
	cmp	r3, r5
	bhi	.L1379
	.loc 2 2218 0
	add	sp, sp, #12
.LCFI163:
	@ sp needed
	pop	{r4, r5, r6, r7, r8, r9, pc}
.LVL1161:
.L1374:
.LCFI164:
	.loc 2 2200 0
	movs	r2, #0
	add	r1, sp, #4
	mov	r0, r5
	bl	log2phys
.LVL1162:
	.loc 2 2201 0
	ldr	r0, [sp, #4]
	adds	r3, r0, #1
	beq	.L1373
	.loc 2 2202 0
	ubfx	r0, r0, #10, #16
	bl	P2V_block_in_plane
.LVL1163:
	.loc 2 2203 0
	ldr	r2, [r4, #3824]
	ldrh	r3, [r2, r0, lsl #1]
	adds	r3, r3, #1
	strh	r3, [r2, r0, lsl #1]	@ movhi
.L1373:
	.loc 2 2199 0 discriminator 2
	adds	r5, r5, #1
	b	.L1372
.LVL1164:
.L1379:
	.loc 2 2207 0
	ldr	r3, [r4, #2260]
	uxth	r6, r7
	ldrh	r2, [r3, r6, lsl #1]
	ldr	r3, [r4, #3824]
	ldrh	r3, [r3, r6, lsl #1]
	cmp	r2, r3
	beq	.L1377
	.loc 2 2207 0 is_stmt 0 discriminator 1
	cmp	r2, r8
	beq	.L1377
	.loc 2 2209 0 is_stmt 1
	mov	r1, r6
	mov	r0, r9
	bl	printk
.LVL1165:
	.loc 2 2210 0
	ldrh	r3, [r4, #2280]
	cmp	r3, r5
	beq	.L1377
	.loc 2 2210 0 is_stmt 0 discriminator 1
	ldrh	r3, [r4, #2376]
	cmp	r3, r5
	beq	.L1377
	.loc 2 2210 0 discriminator 2
	ldrh	r3, [r4, #2328]
	cmp	r3, r5
	beq	.L1377
	.loc 2 2211 0 is_stmt 1
	ldr	r3, [r4, #3824]
	.loc 2 2212 0
	mov	r0, r5
	.loc 2 2211 0
	ldrh	r2, [r3, r6, lsl #1]
	ldr	r3, [r4, #2260]
	strh	r2, [r3, r6, lsl #1]	@ movhi
	.loc 2 2212 0
	bl	update_vpc_list
.LVL1166:
	.loc 2 2213 0
	bl	l2p_flush
.LVL1167:
	.loc 2 2214 0
	bl	FtlVpcTblFlush
.LVL1168:
.L1377:
	adds	r7, r7, #1
	b	.L1375
.L1384:
	.align	2
.L1383:
	.word	.LANCHOR0
	.word	.LANCHOR1+469
	.word	.LC87
	.word	.LC98
.LFE239:
	.fnend
	.size	FtlVpcCheckAndModify, .-FtlVpcCheckAndModify
	.align	1
	.global	allocate_new_data_superblock
	.syntax unified
	.thumb
	.thumb_func
	.fpu softvfp
	.type	allocate_new_data_superblock, %function
allocate_new_data_superblock:
	.fnstart
.LFB249:
	.loc 2 2631 0
	@ args = 0, pretend = 0, frame = 0
	@ frame_needed = 0, uses_anonymous_args = 0
.LVL1169:
	push	{r4, r5, r6, lr}
	.save {r4, r5, r6, lr}
.LCFI165:
	.loc 2 2631 0
	mov	r6, r0
	.loc 2 2633 0
	ldr	r4, .L1395
	.loc 2 2632 0
	ldrh	r5, [r0]
.LVL1170:
	.loc 2 2633 0
	ldrh	r3, [r4, #16]
	cmp	r3, r5
	bcs	.L1386
	.loc 2 2633 0 is_stmt 0 discriminator 1
	movw	r2, #2633
	ldr	r1, .L1395+4
	ldr	r0, .L1395+8
	bl	printk
.LVL1171:
.L1386:
	.loc 2 2635 0 is_stmt 1
	movw	r3, #65535
	cmp	r5, r3
	beq	.L1387
	.loc 2 2636 0
	ldr	r3, [r4, #2260]
	.loc 2 2637 0
	mov	r0, r5
	.loc 2 2636 0
	ldrh	r3, [r3, r5, lsl #1]
	cbz	r3, .L1388
	.loc 2 2637 0
	bl	INSERT_DATA_LIST
.LVL1172:
.L1387:
	.loc 2 2642 0
	ldrh	r0, [r4, #3952]
	.loc 2 2641 0
	movs	r3, #1
	strb	r3, [r6, #8]
	.loc 2 2642 0
	movw	r3, #65535
	cmp	r0, r3
	beq	.L1389
	.loc 2 2643 0
	cmp	r5, r0
	bne	.L1390
	.loc 2 2643 0 is_stmt 0 discriminator 1
	ldr	r3, [r4, #2260]
	ldrh	r3, [r3, r0, lsl #1]
	cbz	r3, .L1391
.L1390:
	.loc 2 2644 0 is_stmt 1
	bl	update_vpc_list
.LVL1173:
.L1391:
	.loc 2 2645 0
	movw	r3, #65535
	strh	r3, [r4, #3952]	@ movhi
.L1389:
	.loc 2 2647 0
	mov	r0, r6
	bl	allocate_data_superblock
.LVL1174:
	.loc 2 2648 0
	bl	l2p_flush
.LVL1175:
	.loc 2 2649 0
	movs	r0, #0
	bl	FtlEctTblFlush
.LVL1176:
	.loc 2 2650 0
	bl	FtlVpcTblFlush
.LVL1177:
	.loc 2 2652 0
	movs	r0, #0
	pop	{r4, r5, r6, pc}
.LVL1178:
.L1388:
	.loc 2 2639 0
	bl	INSERT_FREE_LIST
.LVL1179:
	b	.L1387
.L1396:
	.align	2
.L1395:
	.word	.LANCHOR0
	.word	.LANCHOR1+490
	.word	.LC1
.LFE249:
	.fnend
	.size	allocate_new_data_superblock, .-allocate_new_data_superblock
	.align	1
	.global	FtlProgPages
	.syntax unified
	.thumb
	.thumb_func
	.fpu softvfp
	.type	FtlProgPages, %function
FtlProgPages:
	.fnstart
.LFB165:
	.loc 3 902 0
	@ args = 0, pretend = 0, frame = 16
	@ frame_needed = 0, uses_anonymous_args = 0
.LVL1180:
	push	{r4, r5, r6, r7, r8, r9, r10, fp, lr}
	.save {r4, r5, r6, r7, r8, r9, r10, fp, lr}
.LCFI166:
	.loc 3 911 0
	movs	r7, #0
.LVL1181:
	ldr	r6, .L1411
	.loc 3 902 0
	.pad #20
	sub	sp, sp, #20
.LCFI167:
	.loc 3 902 0
	mov	r4, r3
	.loc 3 909 0
	movs	r2, #0
.LVL1182:
	.loc 3 931 0
	ldr	r10, .L1411+8
	.loc 3 902 0
	mov	r5, r0
	.loc 3 931 0
	ldr	fp, .L1411+12
	.loc 3 902 0
	mov	r9, r1
	.loc 3 909 0
	ldrb	r3, [r3, #9]	@ zero_extendqisi2
.LVL1183:
	bl	FlashProgPages
.LVL1184:
.L1398:
	.loc 3 911 0 discriminator 1
	cmp	r7, r9
	beq	.L1405
	.loc 3 917 0
	mov	r8, #0
	b	.L1406
.LVL1185:
.L1401:
	.loc 3 913 0
	ldr	r0, [r5, #4]
	ubfx	r0, r0, #10, #16
	bl	P2V_block_in_plane
.LVL1186:
	.loc 3 914 0
	ldrh	r3, [r4]
	cmp	r3, r0
	bne	.L1399
	.loc 3 915 0
	ldr	r1, [r6, #2260]
	ldrh	r0, [r4, #4]
	ldrh	r2, [r1, r3, lsl #1]
	subs	r2, r2, r0
	strh	r2, [r1, r3, lsl #1]	@ movhi
	.loc 3 916 0
	ldrh	r3, [r6, #78]
	.loc 3 917 0
	strb	r8, [r4, #6]
	.loc 3 918 0
	strh	r8, [r4, #4]	@ movhi
	.loc 3 916 0
	strh	r3, [r4, #2]	@ movhi
.L1399:
	.loc 3 920 0
	ldrh	r3, [r4, #4]
	cbnz	r3, .L1400
	.loc 3 921 0
	mov	r0, r4
	bl	allocate_new_data_superblock
.LVL1187:
.L1400:
	.loc 3 924 0
	ldr	r3, [r6, #2712]
	adds	r3, r3, #1
	str	r3, [r6, #2712]
	.loc 3 925 0
	ldr	r0, [r5, #4]
	ubfx	r0, r0, #10, #16
	bl	FtlGcMarkBadPhyBlk
.LVL1188:
	.loc 3 926 0
	mov	r0, r4
	bl	get_new_active_ppa
.LVL1189:
	.loc 3 928 0
	movs	r2, #0
	.loc 3 927 0
	str	r0, [r5, #4]
	.loc 3 926 0
	str	r0, [sp, #12]
	.loc 3 928 0
	movs	r1, #1
	ldrb	r3, [r4, #9]	@ zero_extendqisi2
	mov	r0, r5
	bl	FlashProgPages
.LVL1190:
.L1406:
	.loc 3 912 0
	ldr	r3, [r5]
.LVL1191:
	adds	r3, r3, #1
	beq	.L1401
	.loc 3 931 0
	ldrb	r2, [r4, #6]	@ zero_extendqisi2
	ldrh	r3, [r6, #8]
	cmp	r2, r3
	bcc	.L1402
	.loc 3 931 0 is_stmt 0 discriminator 1
	movw	r2, #931
	mov	r1, r10
	mov	r0, fp
	bl	printk
.LVL1192:
.L1402:
	.loc 3 932 0 is_stmt 1
	ldr	r3, [r5, #4]
	add	r1, sp, #16
	.loc 3 933 0
	movs	r2, #1
	ldr	r0, [r5, #16]
	.loc 3 932 0
	str	r3, [r1, #-4]!
.LVL1193:
	.loc 3 933 0
	bl	log2phys
.LVL1194:
	.loc 3 935 0
	ldr	r3, [r5, #12]
	ldr	r3, [r3, #12]
.LVL1195:
	.loc 3 937 0
	ubfx	r0, r3, #10, #16
	str	r3, [sp, #4]
	bl	P2V_block_in_plane
.LVL1196:
	.loc 3 938 0
	ldr	r3, [sp, #4]
.LVL1197:
	.loc 3 937 0
	mov	r8, r0
	.loc 3 938 0
	adds	r3, r3, #1
	beq	.L1403
	.loc 3 940 0
	ldr	r3, [r6, #2260]
.LVL1198:
	ldrh	r2, [r3, r0, lsl #1]
	cbnz	r2, .L1404
	.loc 3 941 0
	mov	r1, r0
	ldr	r0, .L1411+4
	bl	printk
.LVL1199:
.L1404:
	.loc 3 942 0
	mov	r0, r8
	bl	decrement_vpc_count
.LVL1200:
.L1403:
	.loc 3 911 0 discriminator 2
	adds	r7, r7, #1
	adds	r5, r5, #20
	b	.L1398
.LVL1201:
.L1405:
	.loc 3 946 0
	ldrb	r2, [r4, #6]	@ zero_extendqisi2
	ldrh	r3, [r6, #8]
.LVL1202:
	cmp	r2, r3
	bcc	.L1397
	.loc 3 946 0 is_stmt 0 discriminator 1
	movw	r2, #946
	ldr	r1, .L1411+8
	ldr	r0, .L1411+12
	bl	printk
.LVL1203:
.L1397:
	.loc 3 947 0 is_stmt 1
	add	sp, sp, #20
.LCFI168:
	@ sp needed
	pop	{r4, r5, r6, r7, r8, r9, r10, fp, pc}
.LVL1204:
.L1412:
	.align	2
.L1411:
	.word	.LANCHOR0
	.word	.LC99
	.word	.LANCHOR1+519
	.word	.LC1
.LFE165:
	.fnend
	.size	FtlProgPages, .-FtlProgPages
	.align	1
	.global	FtlCacheWriteBack
	.syntax unified
	.thumb
	.thumb_func
	.fpu softvfp
	.type	FtlCacheWriteBack, %function
FtlCacheWriteBack:
	.fnstart
.LFB166:
	.loc 3 950 0
	@ args = 0, pretend = 0, frame = 0
	@ frame_needed = 0, uses_anonymous_args = 0
	push	{r4, lr}
	.save {r4, lr}
.LCFI169:
	.loc 3 951 0
	ldr	r4, .L1418
	ldr	r0, [r4, #3948]
	cbz	r0, .L1414
	.loc 3 952 0
	ldr	r3, .L1418+4
	movs	r2, #0
	movs	r1, #1
	ldr	r3, [r3, #-236]
	bl	FtlProgPages
.LVL1205:
	.loc 3 953 0
	movs	r3, #0
	str	r3, [r4, #3948]
.L1414:
	.loc 3 956 0
	movs	r0, #0
	pop	{r4, pc}
.L1419:
	.align	2
.L1418:
	.word	.LANCHOR0
	.word	.LANCHOR3
.LFE166:
	.fnend
	.size	FtlCacheWriteBack, .-FtlCacheWriteBack
	.align	1
	.global	FtlSysFlush
	.syntax unified
	.thumb
	.thumb_func
	.fpu softvfp
	.type	FtlSysFlush, %function
FtlSysFlush:
	.fnstart
.LFB162:
	.loc 3 797 0
	@ args = 0, pretend = 0, frame = 0
	@ frame_needed = 0, uses_anonymous_args = 0
	push	{r3, lr}
	.save {r3, lr}
.LCFI170:
	.loc 3 798 0
	bl	FtlCacheWriteBack
.LVL1206:
	.loc 3 799 0
	bl	l2p_flush
.LVL1207:
	.loc 3 800 0
	movs	r0, #1
	bl	FtlEctTblFlush
.LVL1208:
	.loc 3 801 0
	bl	FtlVpcTblFlush
.LVL1209:
	.loc 3 803 0
	movs	r0, #0
	pop	{r3, pc}
.LFE162:
	.fnend
	.size	FtlSysFlush, .-FtlSysFlush
	.align	1
	.global	sftl_deinit
	.syntax unified
	.thumb
	.thumb_func
	.fpu softvfp
	.type	sftl_deinit, %function
sftl_deinit:
	.fnstart
.LFB163:
	.loc 3 806 0
	@ args = 0, pretend = 0, frame = 0
	@ frame_needed = 0, uses_anonymous_args = 0
	push	{r3, lr}
	.save {r3, lr}
.LCFI171:
	.loc 3 807 0
	ldr	r3, .L1423
	ldr	r3, [r3]
	cmp	r3, #1
	bne	.L1422
	.loc 3 808 0
	bl	FtlSysFlush
.LVL1210:
.L1422:
	.loc 3 810 0
	movs	r0, #0
	pop	{r3, pc}
.L1424:
	.align	2
.L1423:
	.word	.LANCHOR2
.LFE163:
	.fnend
	.size	sftl_deinit, .-sftl_deinit
	.align	1
	.global	FtlDiscard
	.syntax unified
	.thumb
	.thumb_func
	.fpu softvfp
	.type	FtlDiscard, %function
FtlDiscard:
	.fnstart
.LFB168:
	.loc 3 1154 0
	@ args = 0, pretend = 0, frame = 8
	@ frame_needed = 0, uses_anonymous_args = 0
.LVL1211:
	push	{r0, r1, r4, r5, r6, r7, r8, lr}
	.save {r4, r5, r6, r7, r8, lr}
	.pad #8
.LCFI172:
.LVL1212:
	.loc 3 1161 0
	adds	r2, r0, r1
	ldr	r6, .L1440
	.loc 3 1154 0
	mov	r7, r0
	mov	r5, r1
	.loc 3 1161 0
	ldr	r3, [r6, #116]
	cmp	r2, r3
	bhi	.L1433
	.loc 3 1164 0
	cmp	r1, #31
	bhi	.L1427
.LVL1213:
.L1432:
	.loc 3 1165 0
	movs	r0, #0
.L1425:
	.loc 3 1198 0
	add	sp, sp, #8
.LCFI173:
	@ sp needed
	pop	{r4, r5, r6, r7, r8, pc}
.LVL1214:
.L1427:
.LCFI174:
	.loc 3 1167 0
	bl	FtlCacheWriteBack
.LVL1215:
	.loc 3 1169 0
	ldrh	r4, [r6, #34]
	mov	r0, r7
	mov	r1, r4
	bl	__aeabi_uidiv
.LVL1216:
	.loc 3 1170 0
	smulbb	r3, r0, r4
	.loc 3 1169 0
	mov	r8, r0
.LVL1217:
	.loc 3 1170 0
	subs	r7, r7, r3
.LVL1218:
	uxth	r7, r7
.LVL1219:
	.loc 3 1171 0
	cbz	r7, .L1428
	.loc 3 1172 0
	subs	r4, r4, r7
	.loc 3 1173 0
	add	r8, r0, #1
	.loc 3 1172 0
	cmp	r4, r5
	it	cs
	movcs	r4, r5
	uxth	r4, r4
	.loc 3 1174 0
	subs	r5, r5, r4
.L1428:
	.loc 3 1181 0
	ldr	r4, .L1440+4
	.loc 3 1177 0
	mov	r3, #-1
	str	r3, [sp, #4]
.LVL1220:
.L1429:
	.loc 3 1178 0
	ldrh	r3, [r6, #34]
	cmp	r5, r3
	bcs	.L1431
	.loc 3 1191 0
	ldr	r3, .L1440+4
	ldr	r2, [r3, #-232]
	cmp	r2, #32
	bls	.L1432
	.loc 3 1193 0
	movs	r4, #0
	str	r4, [r3, #-232]
	.loc 3 1194 0
	bl	l2p_flush
.LVL1221:
	.loc 3 1195 0
	bl	FtlVpcTblFlush
.LVL1222:
	b	.L1432
.L1431:
	.loc 3 1179 0
	movs	r2, #0
	mov	r1, sp
	mov	r0, r8
	bl	log2phys
.LVL1223:
	.loc 3 1180 0
	ldr	r3, [sp]
	adds	r3, r3, #1
.LVL1224:
	beq	.L1430
	.loc 3 1181 0
	ldr	r3, [r4, #-232]
.LVL1225:
	.loc 3 1183 0
	movs	r2, #1
	add	r1, sp, #4
	mov	r0, r8
	.loc 3 1181 0
	adds	r3, r3, #1
	str	r3, [r4, #-232]
	.loc 3 1182 0
	ldr	r3, [r6, #2444]
	adds	r3, r3, #1
	str	r3, [r6, #2444]
	.loc 3 1183 0
	bl	log2phys
.LVL1226:
	.loc 3 1184 0
	ldr	r0, [sp]
	ubfx	r0, r0, #10, #16
	bl	P2V_block_in_plane
.LVL1227:
	.loc 3 1185 0
	bl	decrement_vpc_count
.LVL1228:
.L1430:
	.loc 3 1188 0
	ldrh	r3, [r6, #34]
.LVL1229:
	.loc 3 1187 0
	add	r8, r8, #1
	.loc 3 1188 0
	subs	r5, r5, r3
	b	.L1429
.LVL1230:
.L1433:
	.loc 3 1162 0
	mov	r0, #-1
	b	.L1425
.L1441:
	.align	2
.L1440:
	.word	.LANCHOR0
	.word	.LANCHOR3
.LFE168:
	.fnend
	.size	FtlDiscard, .-FtlDiscard
	.align	1
	.global	FtlGcFreeTempBlock
	.syntax unified
	.thumb
	.thumb_func
	.fpu softvfp
	.type	FtlGcFreeTempBlock, %function
FtlGcFreeTempBlock:
	.fnstart
.LFB258:
	.loc 5 112 0
	@ args = 0, pretend = 0, frame = 8
	@ frame_needed = 0, uses_anonymous_args = 0
.LVL1231:
	push	{r0, r1, r2, r4, r5, r6, r7, r8, r9, r10, fp, lr}
	.save {r4, r5, r6, r7, r8, r9, r10, fp, lr}
	.pad #12
.LCFI175:
.LVL1232:
	.loc 5 119 0
	movw	r2, #65535
	.loc 5 115 0
	ldr	r4, .L1468
	.loc 5 119 0
	ldrh	r5, [r4, #2376]
	.loc 5 115 0
	ldrh	r1, [r4, #78]
.LVL1233:
	.loc 5 119 0
	cmp	r5, r2
	bne	.L1443
.LVL1234:
.L1453:
	.loc 5 153 0
	ldrh	r2, [r4, #2376]
	.loc 5 152 0
	movs	r3, #0
	str	r3, [r4, #3960]
	.loc 5 153 0
	movw	r3, #65535
	cmp	r2, r3
	bne	.L1466
.L1444:
	.loc 5 154 0
	movs	r0, #0
.L1442:
	.loc 5 199 0
	add	sp, sp, #12
.LCFI176:
	@ sp needed
	pop	{r4, r5, r6, r7, r8, r9, r10, fp, pc}
.LVL1235:
.L1443:
.LCFI177:
	.loc 5 121 0
	cbz	r0, .L1446
	.loc 5 123 0
	ldr	r3, .L1468+4
	ldrh	r0, [r3, #4]
.LVL1236:
	cmp	r0, r2
	beq	.L1447
.L1448:
	.loc 5 122 0
	movs	r1, #2
.LVL1237:
.L1446:
	.loc 5 131 0
	ldr	r0, .L1468+8
.LVL1238:
	bl	FtlGcScanTempBlk
.LVL1239:
	str	r0, [sp, #4]
.LVL1240:
	.loc 5 132 0
	adds	r0, r0, #1
	beq	.L1449
	.loc 5 135 0
	ldr	r2, [r4, #2248]
	ldrh	r3, [r2, r5, lsl #1]
	cmp	r3, #4
	bls	.L1450
	.loc 5 136 0
	subs	r3, r3, #5
	.loc 5 137 0
	movs	r0, #1
	.loc 5 136 0
	strh	r3, [r2, r5, lsl #1]	@ movhi
	.loc 5 137 0
	bl	FtlEctTblFlush
.LVL1241:
.L1450:
	.loc 5 139 0
	ldr	r3, [r4, #3960]
	cbnz	r3, .L1451
	.loc 5 140 0
	ldr	r3, [r4, #2712]
	.loc 5 141 0
	ldr	r0, [sp, #4]
	.loc 5 140 0
	adds	r3, r3, #1
	.loc 5 141 0
	ubfx	r0, r0, #10, #16
	.loc 5 140 0
	str	r3, [r4, #2712]
	.loc 5 141 0
	bl	FtlBbmMapBadBlock
.LVL1242:
	.loc 5 142 0
	bl	FtlBbmTblFlush
.LVL1243:
.L1451:
	.loc 5 144 0
	movs	r3, #0
	str	r3, [r4, #3960]
.L1462:
	.loc 5 149 0
	movs	r0, #1
	b	.L1442
.LVL1244:
.L1447:
	.loc 5 124 0
	movs	r2, #0
	strh	r2, [r3, #4]	@ movhi
	.loc 5 125 0
	ldrh	r3, [r4, #2276]
	cmp	r3, #17
	bhi	.L1448
	b	.L1446
.LVL1245:
.L1449:
	.loc 5 148 0
	ldr	r3, .L1468+4
	ldrh	r2, [r3, #4]
	movw	r3, #65535
	cmp	r2, r3
	bne	.L1462
	b	.L1453
.LVL1246:
.L1466:
	.loc 5 160 0
	bl	FtlCacheWriteBack
.LVL1247:
	.loc 5 162 0
	ldrb	r1, [r4, #2383]	@ zero_extendqisi2
	ldrh	r3, [r4, #78]
	ldrh	r2, [r4, #3180]
	muls	r3, r1, r3
	cmp	r2, r3
	beq	.L1454
	.loc 5 162 0 is_stmt 0 discriminator 1
	movs	r2, #162
	ldr	r1, .L1468+12
	ldr	r0, .L1468+16
	bl	printk
.LVL1248:
.L1454:
	.loc 5 163 0 is_stmt 1
	ldrb	r3, [r4, #2383]	@ zero_extendqisi2
	.loc 5 165 0
	movs	r6, #0
	.loc 5 163 0
	ldrh	r0, [r4, #78]
	.loc 5 166 0
	mov	r9, #12
	.loc 5 163 0
	ldr	r2, [r4, #2260]
	ldrh	r1, [r4, #2376]
	.loc 5 168 0
	ldr	r10, .L1468+12
	.loc 5 163 0
	smulbb	r3, r3, r0
	.loc 5 168 0
	ldr	fp, .L1468+16
	.loc 5 163 0
	strh	r3, [r2, r1, lsl #1]	@ movhi
	.loc 5 164 0
	ldr	r2, [r4, #2460]
	ldrh	r3, [r4, #3180]
	add	r3, r3, r2
	str	r3, [r4, #2460]
.LVL1249:
.L1455:
	.loc 5 165 0 discriminator 1
	ldrh	r2, [r4, #3180]
	uxth	r3, r6
	cmp	r2, r3
	bhi	.L1459
	.loc 5 181 0
	movw	r0, #65535
	bl	decrement_vpc_count
.LVL1250:
	.loc 5 182 0
	ldrh	r0, [r4, #2376]
	ldr	r3, [r4, #2260]
	ldrh	r3, [r3, r0, lsl #1]
	cmp	r3, #0
	beq	.L1460
	.loc 5 183 0
	bl	INSERT_DATA_LIST
.LVL1251:
.L1461:
	.loc 5 187 0
	movs	r5, #0
.LVL1252:
	.loc 5 186 0
	movw	r6, #65535
	strh	r6, [r4, #2376]	@ movhi
	.loc 5 187 0
	strh	r5, [r4, #3180]	@ movhi
	.loc 5 188 0
	strh	r5, [r4, #3172]	@ movhi
	.loc 5 189 0
	bl	l2p_flush
.LVL1253:
	.loc 5 190 0
	bl	FtlVpcTblFlush
.LVL1254:
	.loc 5 191 0
	ldrh	r3, [r4, #2552]
	ldrh	r2, [r4, #2276]
	add	r3, r3, r3, lsl #1
	cmp	r2, r3, asr #2
	ble	.L1444
	.loc 5 193 0
	movs	r3, #20
	.loc 5 192 0
	strh	r6, [r4, #2568]	@ movhi
	.loc 5 193 0
	strh	r3, [r4, #3128]	@ movhi
	b	.L1444
.LVL1255:
.L1459:
	.loc 5 166 0
	uxth	r7, r6
	ldr	r8, [r4, #3176]
	.loc 5 168 0
	ldr	r3, [r4, #2436]
	.loc 5 166 0
	mul	r7, r9, r7
	add	r5, r8, r7
	.loc 5 168 0
	ldr	r2, [r5, #8]
	cmp	r2, r3
	bcc	.L1456
	.loc 5 168 0 is_stmt 0 discriminator 1
	movs	r2, #168
	mov	r1, r10
	mov	r0, fp
	bl	printk
.LVL1256:
.L1456:
	.loc 5 169 0 is_stmt 1
	movs	r2, #0
	add	r1, sp, #4
	ldr	r0, [r5, #8]
	bl	log2phys
.LVL1257:
	.loc 5 170 0
	ldr	r3, [sp, #4]
	ldr	r0, [r8, r7]
	cmp	r0, r3
	bne	.L1457
	.loc 5 171 0
	ubfx	r0, r0, #10, #16
	bl	P2V_block_in_plane
.LVL1258:
	.loc 5 172 0
	movs	r2, #1
	.loc 5 171 0
	mov	r7, r0
	.loc 5 172 0
	adds	r1, r5, #4
	ldr	r0, [r5, #8]
	bl	log2phys
.LVL1259:
	.loc 5 173 0
	mov	r0, r7
.L1467:
	.loc 5 177 0
	bl	decrement_vpc_count
.LVL1260:
.L1458:
	adds	r6, r6, #1
	b	.L1455
.L1457:
	.loc 5 175 0
	ldr	r2, [r5, #4]
	cmp	r3, r2
	beq	.L1458
	.loc 5 177 0
	ldrh	r0, [r4, #2376]
	b	.L1467
.L1460:
	.loc 5 185 0
	bl	INSERT_FREE_LIST
.LVL1261:
	b	.L1461
.L1469:
	.align	2
.L1468:
	.word	.LANCHOR0
	.word	.LANCHOR2
	.word	.LANCHOR0+2376
	.word	.LANCHOR1+532
	.word	.LC1
.LFE258:
	.fnend
	.size	FtlGcFreeTempBlock, .-FtlGcFreeTempBlock
	.align	1
	.global	FtlGcPageRecovery
	.syntax unified
	.thumb
	.thumb_func
	.fpu softvfp
	.type	FtlGcPageRecovery, %function
FtlGcPageRecovery:
	.fnstart
.LFB261:
	.loc 5 289 0
	@ args = 0, pretend = 0, frame = 0
	@ frame_needed = 0, uses_anonymous_args = 0
	push	{r4, lr}
	.save {r4, lr}
.LCFI178:
	.loc 5 290 0
	ldr	r4, .L1472
	ldrh	r1, [r4, #78]
	addw	r0, r4, #2376
	bl	FtlGcScanTempBlk
.LVL1262:
	.loc 5 291 0
	ldrh	r2, [r4, #2378]
	ldrh	r3, [r4, #78]
	cmp	r2, r3
	bcc	.L1470
.LBB491:
.LBB492:
	.loc 5 293 0
	addw	r0, r4, #3864
	bl	FtlMapBlkWriteDump_data
.LVL1263:
	.loc 5 294 0
	movs	r0, #0
	bl	FtlGcFreeTempBlock
.LVL1264:
	.loc 5 295 0
	movs	r3, #0
	str	r3, [r4, #3960]
.L1470:
	pop	{r4, pc}
.L1473:
	.align	2
.L1472:
	.word	.LANCHOR0
.LBE492:
.LBE491:
.LFE261:
	.fnend
	.size	FtlGcPageRecovery, .-FtlGcPageRecovery
	.align	1
	.global	FtlPowerLostRecovery
	.syntax unified
	.thumb
	.thumb_func
	.fpu softvfp
	.type	FtlPowerLostRecovery, %function
FtlPowerLostRecovery:
	.fnstart
.LFB233:
	.loc 2 2032 0
	@ args = 0, pretend = 0, frame = 0
	@ frame_needed = 0, uses_anonymous_args = 0
	push	{r4, r5, r6, lr}
	.save {r4, r5, r6, lr}
.LCFI179:
	.loc 2 2033 0
	movs	r5, #0
	ldr	r4, .L1475
	.loc 2 2035 0
	addw	r6, r4, #2280
	.loc 2 2033 0
	str	r5, [r4, #3972]
	.loc 2 2035 0
	mov	r0, r6
	.loc 2 2037 0
	addw	r4, r4, #2328
	.loc 2 2035 0
	bl	FtlRecoverySuperblock
.LVL1265:
	.loc 2 2036 0
	mov	r0, r6
	bl	FtlSlcSuperblockCheck
.LVL1266:
	.loc 2 2037 0
	mov	r0, r4
	bl	FtlRecoverySuperblock
.LVL1267:
	.loc 2 2038 0
	mov	r0, r4
	bl	FtlSlcSuperblockCheck
.LVL1268:
	.loc 2 2039 0
	bl	FtlGcPageRecovery
.LVL1269:
	.loc 2 2040 0
	movw	r0, #65535
	bl	decrement_vpc_count
.LVL1270:
	.loc 2 2042 0
	mov	r0, r5
	pop	{r4, r5, r6, pc}
.L1476:
	.align	2
.L1475:
	.word	.LANCHOR0
.LFE233:
	.fnend
	.size	FtlPowerLostRecovery, .-FtlPowerLostRecovery
	.align	1
	.global	Ftl_gc_temp_data_write_back
	.syntax unified
	.thumb
	.thumb_func
	.fpu softvfp
	.type	Ftl_gc_temp_data_write_back, %function
Ftl_gc_temp_data_write_back:
	.fnstart
.LFB263:
	.loc 5 316 0
	@ args = 0, pretend = 0, frame = 0
	@ frame_needed = 0, uses_anonymous_args = 0
	push	{r4, r5, r6, lr}
	.save {r4, r5, r6, lr}
.LCFI180:
	.loc 5 320 0
	movs	r3, #0
	ldr	r4, .L1484
	.loc 5 321 0
	movs	r5, #0
	.loc 5 322 0
	movs	r6, #20
	.loc 5 320 0
	mov	r2, r3
	ldr	r1, [r4, #3144]
	ldr	r0, [r4, #3796]
	bl	FlashProgPages
.LVL1271:
.L1478:
	.loc 5 321 0 discriminator 1
	ldr	r1, [r4, #3144]
	uxth	r3, r5
	cmp	r1, r3
	bhi	.L1481
	.loc 5 335 0
	ldr	r0, [r4, #3796]
	bl	FtlGcBufFree
.LVL1272:
	.loc 5 337 0
	ldrh	r3, [r4, #2380]
	.loc 5 336 0
	movs	r0, #0
	str	r0, [r4, #3144]
	.loc 5 337 0
	cbnz	r3, .L1477
	.loc 5 338 0
	movs	r0, #1
