/*
 * Copyright (c) 2016-2018, Fuzhou Rockchip Electronics Co., Ltd
 *
 * This program is free software; you can redistribute it and/or modify
 * it under the terms of the GNU General Public License as published by
 * the Free Software Foundation; either version 2 of the License, or
 * (at your option) any later version.
 * date: 2019-09-29
 * function: rk ftl v5 for rockchip soc base on arm v7 to support MLC NAND.
 */
	.arch armv7-a
	.fpu softvfp
	.eabi_attribute 20, 1
	.eabi_attribute 21, 1
	.eabi_attribute 23, 3
	.eabi_attribute 24, 1
	.eabi_attribute 25, 1
	.eabi_attribute 26, 2
	.eabi_attribute 30, 4
	.eabi_attribute 34, 1
	.eabi_attribute 18, 2
	.file	"rk_ftlv5_arm_v7.S"
#APP
	.text
	.align	2
	.global	FlashMemCmp8
	.type	FlashMemCmp8, %function
FlashMemCmp8:
	.fnstart
	@ args = 0, pretend = 0, frame = 0
	@ frame_needed = 0, uses_anonymous_args = 0
	ldr	r3, .L11
	str	lr, [sp, #-4]!
	.save {lr}
	ldrb	r3, [r3]	@ zero_extendqisi2
	cmp	r3, #0
	beq	.L4
	ldrb	r3, [r1, #1]	@ zero_extendqisi2
	ldrb	ip, [r0, #1]	@ zero_extendqisi2
	cmp	ip, r3
	movne	r3, #0
	beq	.L8
.L4:
	cmp	r3, r2
	beq	.L8
	ldrb	lr, [r0, r3]	@ zero_extendqisi2
	ldrb	ip, [r1, r3]	@ zero_extendqisi2
	add	r3, r3, #1
	cmp	lr, ip
	beq	.L4
	mov	r0, r3
	ldr	pc, [sp], #4
.L8:
	mov	r0, #0
	ldr	pc, [sp], #4
.L12:
	.align	2
.L11:
	.word	.LANCHOR0
	.fnend
	.size	FlashMemCmp8, .-FlashMemCmp8
	.align	2
	.global	FlashRsvdBlkChk
	.type	FlashRsvdBlkChk, %function
FlashRsvdBlkChk:
	.fnstart
	@ args = 0, pretend = 0, frame = 0
	@ frame_needed = 0, uses_anonymous_args = 0
	@ link register save eliminated.
	ldr	r3, .L14
	ldrb	r2, [r3, #1]	@ zero_extendqisi2
	ldr	r3, [r3, #4]
	mul	r3, r3, r2
	cmp	r1, r3
	movcs	r2, #0
	movcc	r2, #1
	cmp	r0, #0
	movne	r2, #0
	eor	r0, r2, #1
	bx	lr
.L15:
	.align	2
.L14:
	.word	.LANCHOR0
	.fnend
	.size	FlashRsvdBlkChk, .-FlashRsvdBlkChk
	.align	2
	.global	FlashGetRandomizer
	.type	FlashGetRandomizer, %function
FlashGetRandomizer:
	.fnstart
	@ args = 0, pretend = 0, frame = 0
	@ frame_needed = 0, uses_anonymous_args = 0
	and	r3, r1, #127
	ldr	r2, .L25
	stmfd	sp!, {r4, lr}
	.save {r4, lr}
	mov	r3, r3, asl #1
	ldrh	r4, [r2, r3]
	ldr	r3, .L25+4
	ldrb	r3, [r3, #8]	@ zero_extendqisi2
	cmp	r3, #0
	beq	.L17
	bl	FlashRsvdBlkChk
	cmp	r0, #0
	orrne	r4, r4, #-1073741824
.L17:
	mov	r0, r4
	ldmfd	sp!, {r4, pc}
.L26:
	.align	2
.L25:
	.word	.LANCHOR1
	.word	.LANCHOR0
	.fnend
	.size	FlashGetRandomizer, .-FlashGetRandomizer
	.align	2
	.global	FlashSetRandomizer
	.type	FlashSetRandomizer, %function
FlashSetRandomizer:
	.fnstart
	@ args = 0, pretend = 0, frame = 0
	@ frame_needed = 0, uses_anonymous_args = 0
	and	r3, r1, #127
	ldr	r2, .L36
	stmfd	sp!, {r4, r5, r6, lr}
	.save {r4, r5, r6, lr}
	mov	r3, r3, asl #1
	mov	r6, r0
	ldrh	r5, [r2, r3]
	ldr	r3, .L36+4
	ldrb	r2, [r3, #8]	@ zero_extendqisi2
	mov	r4, r3
	cmp	r2, #0
	beq	.L28
	bl	FlashRsvdBlkChk
	cmp	r0, #0
	orrne	r5, r5, #-1073741824
.L28:
	add	r4, r4, r6, asl #3
	ldr	r3, [r4, #12]
	str	r5, [r3, #336]
	ldmfd	sp!, {r4, r5, r6, pc}
.L37:
	.align	2
.L36:
	.word	.LANCHOR1
	.word	.LANCHOR0
	.fnend
	.size	FlashSetRandomizer, .-FlashSetRandomizer
	.align	2
	.global	FlashBlockAlignInit
	.type	FlashBlockAlignInit, %function
FlashBlockAlignInit:
	.fnstart
	@ args = 0, pretend = 0, frame = 0
	@ frame_needed = 0, uses_anonymous_args = 0
	@ link register save eliminated.
	cmp	r0, #256
	ldr	r3, .L43
	movhi	r2, #512
	bhi	.L42
	cmp	r0, #128
	strls	r0, [r3, #4]
	bxls	lr
	mov	r2, #256
.L42:
	str	r2, [r3, #4]
	bx	lr
.L44:
	.align	2
.L43:
	.word	.LANCHOR0
	.fnend
	.size	FlashBlockAlignInit, .-FlashBlockAlignInit
	.align	2
	.global	FlashReadCmd
	.type	FlashReadCmd, %function
FlashReadCmd:
	.fnstart
	@ args = 0, pretend = 0, frame = 0
	@ frame_needed = 0, uses_anonymous_args = 0
	@ link register save eliminated.
	ldr	ip, .L46
	mov	r2, r1, lsr #16
	add	ip, ip, r0, asl #3
	ldr	r3, [ip, #12]
	ldrb	ip, [ip, #16]	@ zero_extendqisi2
	add	r3, r3, ip, asl #8
	mov	ip, #0
	str	ip, [r3, #2056]
	str	ip, [r3, #2052]
	str	ip, [r3, #2052]
	uxtb	ip, r1
	str	ip, [r3, #2052]
	mov	ip, r1, lsr #8
	str	ip, [r3, #2052]
	str	r2, [r3, #2052]
	mov	r2, #48
	str	r2, [r3, #2056]
	b	FlashSetRandomizer
.L47:
	.align	2
.L46:
	.word	.LANCHOR0
	.fnend
	.size	FlashReadCmd, .-FlashReadCmd
	.align	2
	.global	FlashReadDpDataOutCmd
	.type	FlashReadDpDataOutCmd, %function
FlashReadDpDataOutCmd:
	.fnstart
	@ args = 0, pretend = 0, frame = 0
	@ frame_needed = 0, uses_anonymous_args = 0
	ldr	ip, .L53
	stmfd	sp!, {r4, lr}
	.save {r4, lr}
	add	r3, ip, r0, asl #3
	ldrb	ip, [ip, #60]	@ zero_extendqisi2
	uxtb	r4, r1
	ldr	r2, [r3, #12]
	mov	lr, r1, lsr #8
	ldrb	r3, [r3, #16]	@ zero_extendqisi2
	cmp	ip, #1
	mov	ip, r1, lsr #16
	mov	r3, r3, asl #8
	add	r3, r2, r3
	bne	.L49
	mov	r2, #6
	str	r2, [r3, #2056]
	mov	r2, #0
	str	r2, [r3, #2052]
	str	r2, [r3, #2052]
	str	r4, [r3, #2052]
	str	lr, [r3, #2052]
	str	ip, [r3, #2052]
	b	.L52
.L49:
	mov	r2, #0
	str	r2, [r3, #2056]
	str	r2, [r3, #2052]
	str	r2, [r3, #2052]
	str	r4, [r3, #2052]
	str	lr, [r3, #2052]
	str	ip, [r3, #2052]
	mov	ip, #5
	str	ip, [r3, #2056]
	str	r2, [r3, #2052]
	str	r2, [r3, #2052]
.L52:
	mov	r2, #224
	str	r2, [r3, #2056]
	ldmfd	sp!, {r4, lr}
	b	FlashSetRandomizer
.L54:
	.align	2
.L53:
	.word	.LANCHOR0
	.fnend
	.size	FlashReadDpDataOutCmd, .-FlashReadDpDataOutCmd
	.align	2
	.global	FlashProgFirstCmd
	.type	FlashProgFirstCmd, %function
FlashProgFirstCmd:
	.fnstart
	@ args = 0, pretend = 0, frame = 0
	@ frame_needed = 0, uses_anonymous_args = 0
	@ link register save eliminated.
	ldr	ip, .L56
	mov	r2, r1, lsr #16
	add	ip, ip, r0, asl #3
	ldr	r3, [ip, #12]
	ldrb	ip, [ip, #16]	@ zero_extendqisi2
	add	r3, r3, ip, asl #8
	mov	ip, #128
	str	ip, [r3, #2056]
	mov	ip, #0
	str	ip, [r3, #2052]
	str	ip, [r3, #2052]
	uxtb	ip, r1
	str	ip, [r3, #2052]
	mov	ip, r1, lsr #8
	str	ip, [r3, #2052]
	str	r2, [r3, #2052]
	b	FlashSetRandomizer
.L57:
	.align	2
.L56:
	.word	.LANCHOR0
	.fnend
	.size	FlashProgFirstCmd, .-FlashProgFirstCmd
	.align	2
	.global	FlashEraseCmd
	.type	FlashEraseCmd, %function
FlashEraseCmd:
	.fnstart
	@ args = 0, pretend = 0, frame = 0
	@ frame_needed = 0, uses_anonymous_args = 0
	str	lr, [sp, #-4]!
	.save {lr}
	cmp	r2, #0
	ldr	lr, .L64
	add	r0, lr, r0, asl #3
	ldrb	r3, [r0, #16]	@ zero_extendqisi2
	ldr	ip, [r0, #12]
	mov	r3, r3, asl #8
	beq	.L59
	add	r2, ip, r3
	mov	r0, #96
	str	r0, [r2, #2056]
	uxtb	r0, r1
	str	r0, [r2, #2052]
	mov	r0, r1, lsr #8
	str	r0, [r2, #2052]
	mov	r0, r1, lsr #16
	str	r0, [r2, #2052]
	ldr	r2, [lr, #4]
	add	r1, r1, r2
.L59:
	add	r3, ip, r3
	mov	r2, #96
	str	r2, [r3, #2056]
	uxtb	r2, r1
	str	r2, [r3, #2052]
	mov	r2, r1, lsr #8
	mov	r1, r1, lsr #16
	str	r2, [r3, #2052]
	str	r1, [r3, #2052]
	mov	r2, #208
	str	r2, [r3, #2056]
	ldr	pc, [sp], #4
.L65:
	.align	2
.L64:
	.word	.LANCHOR0
	.fnend
	.size	FlashEraseCmd, .-FlashEraseCmd
	.align	2
	.global	FlashProgDpSecondCmd
	.type	FlashProgDpSecondCmd, %function
FlashProgDpSecondCmd:
	.fnstart
	@ args = 0, pretend = 0, frame = 0
	@ frame_needed = 0, uses_anonymous_args = 0
	ldr	ip, .L68
	mov	r2, r1, lsr #16
	str	lr, [sp, #-4]!
	.save {lr}
	add	lr, ip, r0, asl #3
	ldrb	ip, [ip, #55]	@ zero_extendqisi2
	ldr	r3, [lr, #12]
	ldrb	lr, [lr, #16]	@ zero_extendqisi2
	add	r3, r3, lr, asl #8
	str	ip, [r3, #2056]
	mov	ip, #0
	str	ip, [r3, #2052]
	str	ip, [r3, #2052]
	uxtb	ip, r1
	str	ip, [r3, #2052]
	mov	ip, r1, lsr #8
	str	ip, [r3, #2052]
	str	r2, [r3, #2052]
	ldr	lr, [sp], #4
	b	FlashSetRandomizer
.L69:
	.align	2
.L68:
	.word	.LANCHOR0
	.fnend
	.size	FlashProgDpSecondCmd, .-FlashProgDpSecondCmd
	.align	2
	.global	FlashProgSecondCmd
	.type	FlashProgSecondCmd, %function
FlashProgSecondCmd:
	.fnstart
	@ args = 0, pretend = 0, frame = 0
	@ frame_needed = 0, uses_anonymous_args = 0
	stmfd	sp!, {r3, r4, r5, lr}
	.save {r3, r4, r5, lr}
	ldr	r3, .L72
	add	r0, r3, r0, asl #3
	ldr	r3, .L72+4
	ldrb	r5, [r0, #16]	@ zero_extendqisi2
	ldr	r4, [r0, #12]
	ldr	r3, [r3, #4]
	add	r4, r4, r5, asl #8
	ldr	r0, .L72+8
	blx	r3
	mov	r3, #16
	str	r3, [r4, #2056]
	ldmfd	sp!, {r3, r4, r5, pc}
.L73:
	.align	2
.L72:
	.word	.LANCHOR0
	.word	arm_delay_ops
	.word	64424500
	.fnend
	.size	FlashProgSecondCmd, .-FlashProgSecondCmd
	.align	2
	.global	FlashProgDpFirstCmd
	.type	FlashProgDpFirstCmd, %function
FlashProgDpFirstCmd:
	.fnstart
	@ args = 0, pretend = 0, frame = 0
	@ frame_needed = 0, uses_anonymous_args = 0
	@ link register save eliminated.
	ldr	r2, .L75
	add	r0, r2, r0, asl #3
	ldrb	r2, [r2, #54]	@ zero_extendqisi2
	ldrb	r1, [r0, #16]	@ zero_extendqisi2
	ldr	r3, [r0, #12]
	add	r3, r3, r1, asl #8
	str	r2, [r3, #2056]
	bx	lr
.L76:
	.align	2
.L75:
	.word	.LANCHOR0
	.fnend
	.size	FlashProgDpFirstCmd, .-FlashProgDpFirstCmd
	.align	2
	.global	js_hash
	.type	js_hash, %function
js_hash:
	.fnstart
	@ args = 0, pretend = 0, frame = 0
	@ frame_needed = 0, uses_anonymous_args = 0
	@ link register save eliminated.
	ldr	r3, .L81
	add	r1, r0, r1
.L78:
	cmp	r0, r1
	beq	.L80
	mov	r2, r3, asl #5
	ldrb	ip, [r0], #1	@ zero_extendqisi2
	add	r2, r2, r3, lsr #2
	add	r2, r2, ip
	eor	r3, r3, r2
	b	.L78
.L80:
	mov	r0, r3
	bx	lr
.L82:
	.align	2
.L81:
	.word	1204201446
	.fnend
	.size	js_hash, .-js_hash
	.align	2
	.global	FlashLoadIdbInfo
	.type	FlashLoadIdbInfo, %function
FlashLoadIdbInfo:
	.fnstart
	@ args = 0, pretend = 0, frame = 0
	@ frame_needed = 0, uses_anonymous_args = 0
	@ link register save eliminated.
	mov	r0, #0
	bx	lr
	.fnend
	.size	FlashLoadIdbInfo, .-FlashLoadIdbInfo
	.align	2
	.global	BuildFlashLsbPageTable
	.type	BuildFlashLsbPageTable, %function
BuildFlashLsbPageTable:
	.fnstart
	@ args = 0, pretend = 0, frame = 0
	@ frame_needed = 0, uses_anonymous_args = 0
	cmp	r0, #0
	stmfd	sp!, {r4, lr}
	.save {r4, lr}
	mov	r4, r1
	bne	.L85
	ldr	r3, .L115
.L86:
	mov	r2, r0, asl #1
	strh	r0, [r2, r3]	@ movhi
	add	r0, r0, #1
	cmp	r0, #256
	bne	.L86
.L90:
	mov	r2, #1024
	ldr	r0, .L115+4
	mov	r1, #255
	uxth	r4, r4
	bl	ftl_memset
	ldr	r2, .L115
	mov	r3, #0
	add	r0, r2, #512
	b	.L87
.L85:
	cmp	r0, #1
	bne	.L88
	ldr	ip, .L115
	mov	r3, #0
.L89:
	uxth	r2, r3
	mov	lr, r3, asl #1
	cmp	r2, #3
	movls	r0, #0
	movhi	r0, #1
	bics	r1, r0, r3
	add	r3, r3, #1
	movne	r1, #2
	moveq	r1, #3
	cmp	r0, #0
	rsb	r1, r1, r2, asl #1
	movne	r2, r1
	cmp	r3, #256
	strh	r2, [lr, ip]	@ movhi
	bne	.L89
	b	.L90
.L88:
	cmp	r0, #2
	bne	.L91
	ldr	r1, .L115
	mov	r3, #0
.L92:
	uxth	r2, r3
	mov	r0, r3, asl #1
	cmp	r2, #1
	add	r3, r3, #1
	mov	ip, r2, asl #1
	subhi	r2, ip, #1
	cmp	r3, #256
	strh	r2, [r0, r1]	@ movhi
	bne	.L92
	b	.L90
.L91:
	cmp	r0, #3
	bne	.L93
	ldr	ip, .L115
	mov	r3, #0
.L94:
	uxth	r2, r3
	mov	lr, r3, asl #1
	cmp	r2, #5
	movls	r0, #0
	movhi	r0, #1
	bics	r1, r0, r3
	add	r3, r3, #1
	movne	r1, #4
	moveq	r1, #5
	cmp	r0, #0
	rsb	r1, r1, r2, asl #1
	movne	r2, r1
	cmp	r3, #256
	strh	r2, [lr, ip]	@ movhi
	bne	.L94
	b	.L90
.L93:
	cmp	r0, #4
	mov	r3, #0
	bne	.L95
	ldr	r2, .L115+8
	strh	r3, [r2, #76]	@ movhi
	mov	r3, #1
	strh	r0, [r2, #84]	@ movhi
	strh	r3, [r2, #78]	@ movhi
	mov	r3, #2
	strh	r3, [r2, #80]	@ movhi
	mov	r3, #3
	strh	r3, [r2, #82]	@ movhi
	mov	r3, #5
	strh	r3, [r2, #86]	@ movhi
	mov	r3, #7
	strh	r3, [r2, #88]	@ movhi
	mov	r3, #8
	strh	r3, [r2, #90]!	@ movhi
.L96:
	tst	r3, #1
	movne	r1, #7
	moveq	r1, #6
	rsb	r1, r1, r3, asl #1
	add	r3, r3, #1
	strh	r1, [r2, #2]!	@ movhi
	uxth	r3, r3
	cmp	r3, #256
	bne	.L96
	b	.L90
.L95:
	cmp	r0, #5
	bne	.L97
	ldr	r2, .L115
.L98:
	mov	r1, r3, asl #1
	strh	r3, [r1, r2]	@ movhi
	add	r3, r3, #1
	cmp	r3, #16
	bne	.L98
	ldr	r2, .L115+12
.L99:
	strh	r3, [r2, #2]!	@ movhi
	add	r3, r3, #2
	uxth	r3, r3
	cmp	r3, #496
	bne	.L99
	b	.L90
.L97:
	cmp	r0, #6
	bne	.L100
	ldr	r1, .L115+16
.L101:
	cmp	r3, #5
	add	r2, r3, r3, asl #1
	movls	r0, #0
	movhi	r0, #1
	bics	ip, r0, r3
	movne	ip, #10
	moveq	ip, #12
	cmp	r0, #0
	subne	r2, r2, ip
	moveq	r2, r3
	add	r3, r3, #1
	strh	r2, [r1, #2]!	@ movhi
	uxth	r3, r3
	cmp	r3, #256
	bne	.L101
	b	.L90
.L100:
	cmp	r0, #9
	bne	.L90
	ldr	r2, .L115+8
	movw	r1, #509
	strh	r3, [r2, #76]	@ movhi
	mov	r3, #1
	strh	r3, [r2, #78]	@ movhi
	mov	r3, #2
	strh	r3, [r2, #80]!	@ movhi
	mov	r3, #3
.L102:
	strh	r3, [r2, #2]!	@ movhi
	add	r3, r3, #2
	uxth	r3, r3
	cmp	r3, r1
	bne	.L102
	b	.L90
.L87:
	uxth	r1, r3
	cmp	r1, r4
	bcs	.L114
	mov	r1, r3, asl #1
	add	r3, r3, #1
	ldrh	r1, [r1, r2]
	mov	ip, r1, asl #1
	strh	r1, [r0, ip]	@ movhi
	b	.L87
.L114:
	ldmfd	sp!, {r4, pc}
.L116:
	.align	2
.L115:
	.word	.LANCHOR0+76
	.word	.LANCHOR0+588
	.word	.LANCHOR0
	.word	.LANCHOR0+106
	.word	.LANCHOR0+74
	.fnend
	.size	BuildFlashLsbPageTable, .-BuildFlashLsbPageTable
	.align	2
	.global	FlashPrintInfo
	.type	FlashPrintInfo, %function
FlashPrintInfo:
	.fnstart
	@ args = 0, pretend = 0, frame = 0
	@ frame_needed = 0, uses_anonymous_args = 0
	@ link register save eliminated.
	bx	lr
	.fnend
	.size	FlashPrintInfo, .-FlashPrintInfo
	.align	2
	.global	FlashDieInfoInit
	.type	FlashDieInfoInit, %function
FlashDieInfoInit:
	.fnstart
	@ args = 0, pretend = 0, frame = 0
	@ frame_needed = 0, uses_anonymous_args = 0
	stmfd	sp!, {r3, r4, r5, r6, r7, r8, r9, lr}
	.save {r3, r4, r5, r6, r7, r8, r9, lr}
	mov	r5, #0
	ldr	r3, .L133
	ldr	r4, .L133+4
	ldr	r9, .L133+8
	ldrh	r0, [r3, #10]
	strb	r5, [r4, #1612]
	strb	r5, [r4, #1613]
	bl	FlashBlockAlignInit
	mov	r1, r5
	mov	r2, #8
	add	r0, r4, #1616
	bl	ftl_memset
	mov	r1, r5
	mov	r2, #32
	ldr	r0, .L133+12
	bl	ftl_memset
	ldr	r0, .L133+16
	mov	r1, r5
	mov	r2, #128
	bl	ftl_memset
	ldr	r7, [r4, #1784]
	add	r6, r7, #1
.L120:
	mov	r0, r6
	add	r1, r9, r5, asl #3
	ldrb	r2, [r7]	@ zero_extendqisi2
	bl	FlashMemCmp8
	ldr	r8, .L133+8
	cmp	r0, #0
	bne	.L119
	ldrb	r3, [r4, #1612]	@ zero_extendqisi2
	add	r2, r4, r3, asl #2
	str	r0, [r2, #1624]
	add	r2, r3, #1
	add	r3, r4, r3
	strb	r2, [r4, #1612]
	strb	r5, [r3, #1616]
.L119:
	add	r5, r5, #1
	cmp	r5, #4
	bne	.L120
	ldrb	r3, [r4, #1612]	@ zero_extendqisi2
	strb	r3, [r4, #1613]
	ldrb	r3, [r7, #8]	@ zero_extendqisi2
	cmp	r3, #2
	beq	.L121
.L125:
	ldrb	r3, [r7, #13]	@ zero_extendqisi2
	ldrb	r2, [r4, #1612]	@ zero_extendqisi2
	smulbb	r2, r2, r3
	ldrh	r3, [r7, #14]
	smulbb	r3, r2, r3
	movw	r2, #1788
	strh	r3, [r4, r2]	@ movhi
	ldmfd	sp!, {r3, r4, r5, r6, r7, r8, r9, pc}
.L121:
	ldr	r3, .L133+4
	mov	r5, #0
	ldr	r9, [r3, #4]
.L124:
	mov	r0, r6
	add	r1, r8, r5, asl #3
	ldrb	r2, [r7]	@ zero_extendqisi2
	bl	FlashMemCmp8
	cmp	r0, #0
	bne	.L122
	ldrb	r1, [r7, #13]	@ zero_extendqisi2
	ldrh	r3, [r7, #14]
	ldrb	r2, [r4, #1612]	@ zero_extendqisi2
	mul	r1, r9, r1
	and	r3, r3, #65280
	add	r0, r4, r2, asl #2
	mul	r3, r3, r1
	str	r3, [r0, #1624]
	ldrb	r1, [r7, #23]	@ zero_extendqisi2
	cmp	r1, #0
	movne	r3, r3, asl #1
	strne	r3, [r0, #1624]
	add	r3, r2, #1
	add	r2, r4, r2
	strb	r3, [r4, #1612]
	strb	r5, [r2, #1616]
.L122:
	add	r5, r5, #1
	cmp	r5, #4
	bne	.L124
	b	.L125
.L134:
	.align	2
.L133:
	.word	.LANCHOR1+256
	.word	.LANCHOR0
	.word	IDByte
	.word	.LANCHOR0+1624
	.word	.LANCHOR0+1656
	.fnend
	.size	FlashDieInfoInit, .-FlashDieInfoInit
	.align	2
	.global	FlashReadIdbData
	.type	FlashReadIdbData, %function
FlashReadIdbData:
	.fnstart
	@ args = 0, pretend = 0, frame = 0
	@ frame_needed = 0, uses_anonymous_args = 0
	stmfd	sp!, {r3, lr}
	.save {r3, lr}
	mov	r2, #2048
	ldr	r1, .L137
	bl	ftl_memcpy
	mov	r0, #0
	ldmfd	sp!, {r3, pc}
.L138:
	.align	2
.L137:
	.word	.LANCHOR0+1792
	.fnend
	.size	FlashReadIdbData, .-FlashReadIdbData
	.align	2
	.global	FlashLoadPhyInfoInRam
	.type	FlashLoadPhyInfoInRam, %function
FlashLoadPhyInfoInRam:
	.fnstart
	@ args = 0, pretend = 0, frame = 0
	@ frame_needed = 0, uses_anonymous_args = 0
	stmfd	sp!, {r3, r4, r5, r6, r7, r8, r9, lr}
	.save {r3, r4, r5, r6, r7, r8, r9, lr}
	mov	r6, #0
	ldr	r8, .L152
.L143:
	mov	r4, r6, asl #5
	ldr	r1, .L152+4
	add	r0, r4, #1
	ldrb	r2, [r8, r6, asl #5]	@ zero_extendqisi2
	add	r0, r8, r0
	ldr	r5, .L152+8
	bl	FlashMemCmp8
	add	r9, r5, #288
	subs	r7, r0, #0
	bne	.L140
	adds	r9, r9, r4
	beq	.L146
	add	r4, r5, r4
	add	r5, r5, #2880
	ldrb	r3, [r4, #310]	@ zero_extendqisi2
	mov	r4, r7
	b	.L145
.L140:
	add	r6, r6, #1
	cmp	r6, #81
	bne	.L143
	b	.L146
.L151:
	add	r4, r4, #1
	cmp	r4, #4
	beq	.L144
.L145:
	ldrb	r2, [r5, r4, asl #5]	@ zero_extendqisi2
	cmp	r2, r3
	bne	.L151
.L144:
	ldr	r6, .L152+12
	mov	r2, #32
	ldr	r1, .L152+16
	ldr	r0, .L152+20
	add	r1, r1, r4, asl #5
	bl	ftl_memcpy
	mov	r0, r6
	mov	r1, r9
	mov	r2, #32
	bl	ftl_memcpy
	ldrh	r0, [r6, #10]
	bl	FlashBlockAlignInit
	b	.L141
.L146:
	mvn	r7, #0
.L141:
	mov	r0, r7
	ldmfd	sp!, {r3, r4, r5, r6, r7, r8, r9, pc}
.L153:
	.align	2
.L152:
	.word	.LANCHOR1+288
	.word	IDByte
	.word	.LANCHOR1
	.word	.LANCHOR1+256
	.word	.LANCHOR1+2880
	.word	.LANCHOR0+44
	.fnend
	.size	FlashLoadPhyInfoInRam, .-FlashLoadPhyInfoInRam
	.align	2
	.global	ftl_flash_suspend
	.type	ftl_flash_suspend, %function
ftl_flash_suspend:
	.fnstart
	@ args = 0, pretend = 0, frame = 0
	@ frame_needed = 0, uses_anonymous_args = 0
	@ link register save eliminated.
	ldr	r3, .L155
	ldr	r2, [r3, #3840]
	ldr	r1, [r2]
	str	r1, [r3, #3844]
	ldr	r1, [r2, #4]
	str	r1, [r3, #3848]
	ldr	r1, [r2, #8]
	str	r1, [r3, #3852]
	ldr	r1, [r2, #12]
	str	r1, [r3, #3856]
	ldr	r1, [r2, #304]
	str	r1, [r3, #3860]
	ldr	r1, [r2, #308]
	str	r1, [r3, #3864]
	ldr	r1, [r2, #336]
	ldr	r2, [r2, #344]
	str	r1, [r3, #3868]
	str	r2, [r3, #3872]
	bx	lr
.L156:
	.align	2
.L155:
	.word	.LANCHOR0
	.fnend
	.size	ftl_flash_suspend, .-ftl_flash_suspend
	.global	__aeabi_uidiv
	.align	2
	.global	LogAddr2PhyAddr
	.type	LogAddr2PhyAddr, %function
LogAddr2PhyAddr:
	.fnstart
	@ args = 4, pretend = 0, frame = 8
	@ frame_needed = 0, uses_anonymous_args = 0
	stmfd	sp!, {r0, r1, r2, r4, r5, r6, r7, r8, r9, r10, fp, lr}
	.save {r4, r5, r6, r7, r8, r9, r10, fp, lr}
	.pad #12
	mov	r9, r3
	ldr	r3, .L163
	mov	r10, r1
	ldr	r7, .L163+4
	mov	r6, r0
	ldr	ip, [r0, #4]
	mov	r8, r2
	ldrh	r4, [r3, #12]
	ldrh	r3, [r3, #14]
	bic	ip, ip, #-2147483648
	ldrh	fp, [r7, #4]
	ubfx	r5, ip, #10, #16
	str	ip, [sp, #4]
	smulbb	r4, r4, r3
	ldrb	r3, [r7]	@ zero_extendqisi2
	mov	r0, r5
	cmp	r3, #1
	moveq	fp, fp, asl #1
	uxth	r4, r4
	uxtheq	fp, fp
	mov	r1, r4
	bl	__aeabi_uidiv
	cmp	r10, #1
	uxth	r0, r0
	ldr	ip, [sp, #4]
	smulbb	r4, r0, r4
	rsb	r5, r4, r5
	ubfx	r4, ip, #0, #10
	uxth	r5, r5
	bne	.L159
	ldrb	r3, [r7, #3904]	@ zero_extendqisi2
	cmp	r3, #0
	ldreq	r3, .L163+4
	addeq	r4, r3, r4, asl #1
	ldreqh	r4, [r4, #76]
.L159:
	add	ip, r7, r0, asl #2
	ldrb	r3, [sp, #48]	@ zero_extendqisi2
	ldr	r1, [ip, #1624]
	cmp	r3, #1
	mla	r1, fp, r5, r1
	add	r4, r1, r4
	str	r4, [r8]
	str	r0, [r9]
	movls	r0, #0
	ldrhi	r0, [r6, #4]
	ldrhi	r3, [r6, #40]
	addhi	r0, r0, #1024
	rsbhi	r0, r3, r0
	clzhi	r0, r0
	movhi	r0, r0, lsr #5
	add	sp, sp, #12
	@ sp needed
	ldmfd	sp!, {r4, r5, r6, r7, r8, r9, r10, fp, pc}
.L164:
	.align	2
.L163:
	.word	.LANCHOR0+3876
	.word	.LANCHOR0
	.fnend
	.size	LogAddr2PhyAddr, .-LogAddr2PhyAddr
	.align	2
	.global	ftl_read_flash_info
	.type	ftl_read_flash_info, %function
ftl_read_flash_info:
	.fnstart
	@ args = 0, pretend = 0, frame = 0
	@ frame_needed = 0, uses_anonymous_args = 0
	stmfd	sp!, {r4, lr}
	.save {r4, lr}
	mov	r1, #0
	mov	r2, #11
	mov	r4, r0
	bl	ftl_memset
	ldr	r3, .L170
	mov	ip, #1
	add	r3, r3, #1616
	ldr	r2, [r3, #168]
	ldrb	r1, [r2, #9]	@ zero_extendqisi2
	ldr	r2, [r3, #-1612]
	smulbb	r2, r1, r2
	strh	r2, [r4, #4]	@ unaligned
	ldrb	r2, [r3, #2289]	@ zero_extendqisi2
	strb	r2, [r4, #7]
	ldr	r2, [r3, #2292]
	str	r2, [r4]	@ unaligned
	ldr	r2, [r3, #168]
	ldrb	r0, [r3, #-4]	@ zero_extendqisi2
	ldrb	r1, [r2, #9]	@ zero_extendqisi2
	strb	r1, [r4, #6]
	mov	r1, #32
	strb	r1, [r4, #8]
	ldrb	r2, [r2, #7]	@ zero_extendqisi2
	strb	r2, [r4, #9]
	mov	r2, #0
	strb	r2, [r4, #10]
.L166:
	uxtb	r1, r2
	cmp	r1, r0
	bcs	.L169
	ldrb	lr, [r2, r3]	@ zero_extendqisi2
	add	r2, r2, #1
	ldrb	r1, [r4, #10]	@ zero_extendqisi2
	orr	r1, r1, ip, asl lr
	strb	r1, [r4, #10]
	b	.L166
.L169:
	ldmfd	sp!, {r4, pc}
.L171:
	.align	2
.L170:
	.word	.LANCHOR0
	.fnend
	.size	ftl_read_flash_info, .-ftl_read_flash_info
	.align	2
	.global	FlashScheduleEnSet
	.type	FlashScheduleEnSet, %function
FlashScheduleEnSet:
	.fnstart
	@ args = 0, pretend = 0, frame = 0
	@ frame_needed = 0, uses_anonymous_args = 0
	@ link register save eliminated.
	ldr	r3, .L173
	ldr	r2, [r3, #3912]
	str	r0, [r3, #3912]
	mov	r0, r2
	bx	lr
.L174:
	.align	2
.L173:
	.word	.LANCHOR0
	.fnend
	.size	FlashScheduleEnSet, .-FlashScheduleEnSet
	.align	2
	.global	FlashGetPageSize
	.type	FlashGetPageSize, %function
FlashGetPageSize:
	.fnstart
	@ args = 0, pretend = 0, frame = 0
	@ frame_needed = 0, uses_anonymous_args = 0
	@ link register save eliminated.
	ldr	r3, .L176
	ldr	r3, [r3, #1784]
	ldrb	r0, [r3, #9]	@ zero_extendqisi2
	bx	lr
.L177:
	.align	2
.L176:
	.word	.LANCHOR0
	.fnend
	.size	FlashGetPageSize, .-FlashGetPageSize
	.align	2
	.global	NandcReadDontCaseBusyEn
	.type	NandcReadDontCaseBusyEn, %function
NandcReadDontCaseBusyEn:
	.fnstart
	@ args = 0, pretend = 0, frame = 0
	@ frame_needed = 0, uses_anonymous_args = 0
	@ link register save eliminated.
	bx	lr
	.fnend
	.size	NandcReadDontCaseBusyEn, .-NandcReadDontCaseBusyEn
	.align	2
	.global	NandcGetChipIf
	.type	NandcGetChipIf, %function
NandcGetChipIf:
	.fnstart
	@ args = 0, pretend = 0, frame = 0
	@ frame_needed = 0, uses_anonymous_args = 0
	@ link register save eliminated.
	ldr	r3, .L180
	add	r0, r3, r0, asl #3
	ldrb	r2, [r0, #16]	@ zero_extendqisi2
	ldr	r0, [r0, #12]
	add	r2, r2, #8
	add	r0, r0, r2, asl #8
	bx	lr
.L181:
	.align	2
.L180:
	.word	.LANCHOR0
	.fnend
	.size	NandcGetChipIf, .-NandcGetChipIf
	.align	2
	.global	NandcSetDdrPara
	.type	NandcSetDdrPara, %function
NandcSetDdrPara:
	.fnstart
	@ args = 0, pretend = 0, frame = 0
	@ frame_needed = 0, uses_anonymous_args = 0
	@ link register save eliminated.
	ldr	r3, .L183
	ldr	r2, [r3, #3840]
	mov	r3, r0, asl #8
	orr	r0, r3, r0, asl #16
	orr	r3, r0, #1
	str	r3, [r2, #304]
	bx	lr
.L184:
	.align	2
.L183:
	.word	.LANCHOR0
	.fnend
	.size	NandcSetDdrPara, .-NandcSetDdrPara
	.align	2
	.global	NandcSetDdrDiv
	.type	NandcSetDdrDiv, %function
NandcSetDdrDiv:
	.fnstart
	@ args = 0, pretend = 0, frame = 0
	@ frame_needed = 0, uses_anonymous_args = 0
	@ link register save eliminated.
	ldr	r3, .L186
	orr	r0, r0, #16640
	ldr	r3, [r3, #3840]
	str	r0, [r3, #344]
	bx	lr
.L187:
	.align	2
.L186:
	.word	.LANCHOR0
	.fnend
	.size	NandcSetDdrDiv, .-NandcSetDdrDiv
	.align	2
	.global	NandcSetDdrMode
	.type	NandcSetDdrMode, %function
NandcSetDdrMode:
	.fnstart
	@ args = 0, pretend = 0, frame = 0
	@ frame_needed = 0, uses_anonymous_args = 0
	@ link register save eliminated.
	ldr	r3, .L191
	cmp	r0, #0
	ldr	r2, [r3, #3840]
	ldr	r3, [r2]
	bfieq	r3, r0, #13, #1
	orrne	r3, r3, #253952
	str	r3, [r2]
	bx	lr
.L192:
	.align	2
.L191:
	.word	.LANCHOR0
	.fnend
	.size	NandcSetDdrMode, .-NandcSetDdrMode
	.align	2
	.global	NandcSetMode
	.type	NandcSetMode, %function
NandcSetMode:
	.fnstart
	@ args = 0, pretend = 0, frame = 0
	@ frame_needed = 0, uses_anonymous_args = 0
	@ link register save eliminated.
	ldr	r3, .L200
	ands	r1, r0, #6
	ldr	r2, [r3, #3840]
	ldr	r3, [r2]
	bfieq	r3, r1, #13, #1
	beq	.L196
	orr	r3, r3, #24576
	movw	r1, #8322
	bfc	r3, #15, #1
	str	r1, [r2, #344]
	orr	r3, r3, #196608
	ldr	r1, .L200+4
	tst	r0, #4
	orrne	r3, r3, #32768
	str	r1, [r2, #304]
	mov	r1, #38
	str	r1, [r2, #308]
	mov	r1, #39
	str	r1, [r2, #308]
.L196:
	str	r3, [r2]
	mov	r0, #0
	bx	lr
.L201:
	.align	2
.L200:
	.word	.LANCHOR0
	.word	1052675
	.fnend
	.size	NandcSetMode, .-NandcSetMode
	.align	2
	.global	NandcFlashCs
	.type	NandcFlashCs, %function
NandcFlashCs:
	.fnstart
	@ args = 0, pretend = 0, frame = 0
	@ frame_needed = 0, uses_anonymous_args = 0
	@ link register save eliminated.
	ldr	r2, .L203
	add	r0, r2, r0, asl #3
	mov	r2, #1
	ldr	r1, [r0, #12]
	ldrb	r0, [r0, #16]	@ zero_extendqisi2
	ldr	r3, [r1]
	mov	r2, r2, asl r0
	bfi	r3, r2, #0, #8
	str	r3, [r1]
	bx	lr
.L204:
	.align	2
.L203:
	.word	.LANCHOR0
	.fnend
	.size	NandcFlashCs, .-NandcFlashCs
	.align	2
	.global	NandcFlashDeCs
	.type	NandcFlashDeCs, %function
NandcFlashDeCs:
	.fnstart
	@ args = 0, pretend = 0, frame = 0
	@ frame_needed = 0, uses_anonymous_args = 0
	@ link register save eliminated.
	ldr	r3, .L206
	add	r0, r3, r0, asl #3
	ldr	r2, [r0, #12]
	ldr	r3, [r2]
	bfc	r3, #0, #8
	bfc	r3, #17, #1
	str	r3, [r2]
	bx	lr
.L207:
	.align	2
.L206:
	.word	.LANCHOR0
	.fnend
	.size	NandcFlashDeCs, .-NandcFlashDeCs
	.align	2
	.global	NandcDelayns
	.type	NandcDelayns, %function
NandcDelayns:
	.fnstart
	@ args = 0, pretend = 0, frame = 0
	@ frame_needed = 0, uses_anonymous_args = 0
	stmfd	sp!, {r3, lr}
	.save {r3, lr}
	add	r0, r0, #996
	ldr	r3, .L210
	add	r0, r0, #3
	umull	r0, r1, r0, r3
	ldr	r3, .L210+4
	ldr	r3, [r3, #8]
	mov	r0, r1, lsr #6
	blx	r3
	mov	r0, #0
	ldmfd	sp!, {r3, pc}
.L211:
	.align	2
.L210:
	.word	274877907
	.word	arm_delay_ops
	.fnend
	.size	NandcDelayns, .-NandcDelayns
	.align	2
	.global	FlashReadStatus
	.type	FlashReadStatus, %function
FlashReadStatus:
	.fnstart
	@ args = 0, pretend = 0, frame = 0
	@ frame_needed = 0, uses_anonymous_args = 0
	stmfd	sp!, {r3, r4, r5, lr}
	.save {r3, r4, r5, lr}
	mov	r2, #112
	ldr	r3, .L214
	add	r0, r3, r0, asl #3
	ldrb	r4, [r0, #16]	@ zero_extendqisi2
	ldr	r5, [r0, #12]
	mov	r0, #80
	add	r3, r5, r4, asl #8
	add	r4, r4, #8
	str	r2, [r3, #2056]
	bl	NandcDelayns
	ldr	r0, [r5, r4, asl #8]
	ldmfd	sp!, {r3, r4, r5, pc}
.L215:
	.align	2
.L214:
	.word	.LANCHOR0
	.fnend
	.size	FlashReadStatus, .-FlashReadStatus
	.align	2
	.global	ToshibaSetRRPara
	.type	ToshibaSetRRPara, %function
ToshibaSetRRPara:
	.fnstart
	@ args = 0, pretend = 0, frame = 0
	@ frame_needed = 0, uses_anonymous_args = 0
	stmfd	sp!, {r4, r5, r6, r7, r8, r9, r10, lr}
	.save {r4, r5, r6, r7, r8, r9, r10, lr}
	add	r7, r1, r1, asl #2
	ldr	r8, .L226
	mov	r5, r0
	ldr	r10, .L226+4
	mov	r6, r1
	add	r9, r8, #3008
	mov	r4, #0
.L217:
	ldrb	r3, [r10]	@ zero_extendqisi2
	cmp	r4, r3
	bcs	.L225
	mov	r3, #85
	str	r3, [r5, #8]
	ldrsb	r3, [r4, r9]
	mov	r0, #200
	str	r3, [r5, #4]
	bl	NandcDelayns
	ldr	r3, .L226+8
	ldrb	r3, [r3]	@ zero_extendqisi2
	cmp	r3, #34
	addeq	r3, r4, r7
	addeq	r3, r9, r3
	beq	.L224
	cmp	r3, #35
	addne	r3, r8, r6
	addne	r3, r3, #3152
	ldrnesb	r3, [r3]
	bne	.L223
	ldr	r3, .L226+12
	add	r2, r4, r7
	add	r3, r3, r2
.L224:
	ldrsb	r3, [r3, #5]
.L223:
	str	r3, [r5]
	add	r4, r4, #1
	b	.L217
.L225:
	ldmfd	sp!, {r4, r5, r6, r7, r8, r9, r10, pc}
.L227:
	.align	2
.L226:
	.word	.LANCHOR1
	.word	g_maxRegNum
	.word	g_retryMode
	.word	.LANCHOR1+3056
	.fnend
	.size	ToshibaSetRRPara, .-ToshibaSetRRPara
	.align	2
	.global	SamsungSetRRPara
	.type	SamsungSetRRPara, %function
SamsungSetRRPara:
	.fnstart
	@ args = 0, pretend = 0, frame = 0
	@ frame_needed = 0, uses_anonymous_args = 0
	ldr	r3, .L233
	stmfd	sp!, {r4, r5, r6, r7, r8, r9, r10, lr}
	.save {r4, r5, r6, r7, r8, r9, r10, lr}
	add	r1, r3, r1, asl #2
	ldr	r8, .L233+4
	mov	r4, #0
	add	r5, r1, #3
	mov	r6, r0
	mov	r7, r3
	mov	r9, #161
	mov	r10, r4
.L229:
	ldrb	r3, [r8]	@ zero_extendqisi2
	cmp	r4, r3
	bcs	.L232
	str	r9, [r6, #8]
	mov	r0, #300
	str	r10, [r6]
	ldrsb	r3, [r4, r7]
	add	r4, r4, #1
	str	r3, [r6]
	ldrsb	r3, [r5, #1]!
	str	r3, [r6]
	bl	NandcDelayns
	b	.L229
.L232:
	ldmfd	sp!, {r4, r5, r6, r7, r8, r9, r10, pc}
.L234:
	.align	2
.L233:
	.word	.LANCHOR1+3160
	.word	g_maxRegNum
	.fnend
	.size	SamsungSetRRPara, .-SamsungSetRRPara
	.align	2
	.global	HynixSetRRPara
	.type	HynixSetRRPara, %function
HynixSetRRPara:
	.fnstart
	@ args = 0, pretend = 0, frame = 8
	@ frame_needed = 0, uses_anonymous_args = 0
	stmfd	sp!, {r0, r1, r2, r4, r5, r6, r7, r8, r9, r10, fp, lr}
	.save {r4, r5, r6, r7, r8, r9, r10, fp, lr}
	.pad #12
	mov	r5, r3
	ldr	r3, .L244
	mov	r10, r2
	ldr	r4, .L244+4
	mov	r6, r0
	mov	r9, r1
	ldr	r2, [r3, #1784]
	ldrb	r8, [r2, #19]	@ zero_extendqisi2
	mov	r2, r0, asl #3
	cmp	r8, #6
	addeq	r4, r4, r0, asl #6
	addeq	r4, r4, #20
	addeq	r4, r4, r5, asl #2
	beq	.L237
	cmp	r8, #7
	bne	.L238
	mov	r8, #160
	add	r1, r5, r5, asl #2
	mla	r4, r8, r0, r4
	add	r4, r4, #28
	add	r4, r4, r1, asl #1
	b	.L237
.L238:
	cmp	r8, #8
	addne	r1, r5, r2
	addeq	r1, r5, r5, asl #2
	ldreq	r4, .L244+8
	addne	r4, r4, r1, asl #3
	addeq	r4, r4, r1
	addne	r4, r4, #20
.L237:
	add	r3, r3, r2
	mov	r0, r6
	sub	r9, r9, #1
	sub	r4, r4, #1
	ldrb	fp, [r3, #16]	@ zero_extendqisi2
	ldr	r8, [r3, #12]
	bl	NandcFlashCs
	sub	r2, r10, #1
	add	r10, r10, r9
	mov	fp, fp, asl #8
	mov	r3, #54
	add	r7, r8, fp
	str	r3, [r7, #2056]
.L240:
	cmp	r2, r10
	beq	.L243
	ldrb	r3, [r2, #1]!	@ zero_extendqisi2
	mov	r0, #200
	str	r3, [r7, #2052]
	str	r2, [sp, #4]
	bl	NandcDelayns
	ldrsb	r3, [r4, #1]!
	str	r3, [r7, #2048]
	ldr	r2, [sp, #4]
	b	.L240
.L243:
	add	r8, r8, fp
	mov	r3, #22
	mov	r0, r6
	str	r3, [r8, #2056]
	bl	NandcFlashDeCs
	ldr	r3, .L244+12
	add	r6, r3, r6
	strb	r5, [r6, #-3416]
	add	sp, sp, #12
	@ sp needed
	ldmfd	sp!, {r4, r5, r6, r7, r8, r9, r10, fp, pc}
.L245:
	.align	2
.L244:
	.word	.LANCHOR0
	.word	.LANCHOR0+3916
	.word	.LANCHOR0+3944
	.word	.LANCHOR2
	.fnend
	.size	HynixSetRRPara, .-HynixSetRRPara
	.align	2
	.global	FlashSetReadRetryDefault
	.type	FlashSetReadRetryDefault, %function
FlashSetReadRetryDefault:
	.fnstart
	@ args = 0, pretend = 0, frame = 0
	@ frame_needed = 0, uses_anonymous_args = 0
	ldr	r3, .L254
	ldr	r2, [r3, #1784]
	ldrb	r2, [r2, #19]	@ zero_extendqisi2
	sub	r2, r2, #1
	cmp	r2, #7
	bxhi	lr
	stmfd	sp!, {r4, r5, r6, lr}
	.save {r4, r5, r6, lr}
	mov	r5, r3
	ldr	r6, .L254+4
	mov	r4, #0
.L247:
	ldrb	r3, [r6, r4, asl #3]	@ zero_extendqisi2
	uxtb	r0, r4
	cmp	r3, #173
	bne	.L248
	ldrb	r1, [r5, #3917]	@ zero_extendqisi2
	mov	r3, #0
	ldr	r2, .L254+8
	bl	HynixSetRRPara
.L248:
	add	r4, r4, #1
	cmp	r4, #4
	bne	.L247
	ldmfd	sp!, {r4, r5, r6, pc}
.L255:
	.align	2
.L254:
	.word	.LANCHOR0
	.word	IDByte
	.word	.LANCHOR0+3920
	.fnend
	.size	FlashSetReadRetryDefault, .-FlashSetReadRetryDefault
	.align	2
	.global	FlashReadStatusEN
	.type	FlashReadStatusEN, %function
FlashReadStatusEN:
	.fnstart
	@ args = 0, pretend = 0, frame = 0
	@ frame_needed = 0, uses_anonymous_args = 0
	ldr	ip, .L267
	stmfd	sp!, {r3, r4, r5, lr}
	.save {r3, r4, r5, lr}
	add	r0, ip, r0, asl #3
	ldr	r3, [ip, #1784]
	ldrb	r5, [r0, #16]	@ zero_extendqisi2
	ldr	r4, [r0, #12]
	ldrb	r3, [r3, #8]	@ zero_extendqisi2
	cmp	r3, #2
	mov	r3, r5, asl #8
	addne	r3, r4, r3
	add	r5, r5, #8
	movne	r2, #112
	strne	r2, [r3, #2056]
	bne	.L261
	cmp	r2, #0
	add	r3, r4, r3
	ldrneb	r2, [ip, #58]	@ zero_extendqisi2
	ldreqb	r2, [ip, #57]	@ zero_extendqisi2
	str	r2, [r3, #2056]
	ldrb	r0, [ip, #59]	@ zero_extendqisi2
	cmp	r0, #0
	addne	ip, r4, r5, asl #8
	movne	r2, #0
	beq	.L261
.L260:
	cmp	r2, r0
	bcs	.L261
	mov	r3, r2, asl #3
	add	r2, r2, #1
	mov	r3, r1, lsr r3
	uxtb	r3, r3
	str	r3, [ip, #4]
	b	.L260
.L261:
	mov	r0, #80
	bl	NandcDelayns
	ldr	r0, [r4, r5, asl #8]
	uxtb	r0, r0
	ldmfd	sp!, {r3, r4, r5, pc}
.L268:
	.align	2
.L267:
	.word	.LANCHOR0
	.fnend
	.size	FlashReadStatusEN, .-FlashReadStatusEN
	.align	2
	.global	FlashWaitReadyEN
	.type	FlashWaitReadyEN, %function
FlashWaitReadyEN:
	.fnstart
	@ args = 0, pretend = 0, frame = 0
	@ frame_needed = 0, uses_anonymous_args = 0
	stmfd	sp!, {r4, r5, r6, lr}
	.save {r4, r5, r6, lr}
	mov	r4, r0
	mov	r5, r1
	mov	r6, r2
.L273:
	mov	r0, r4
	mov	r1, r5
	mov	r2, r6
	bl	FlashReadStatusEN
	cmp	r0, #255
	beq	.L273
	tst	r0, #64
	beq	.L273
	ldmfd	sp!, {r4, r5, r6, pc}
	.fnend
	.size	FlashWaitReadyEN, .-FlashWaitReadyEN
	.align	2
	.global	FlashWaitCmdDone
	.type	FlashWaitCmdDone, %function
FlashWaitCmdDone:
	.fnstart
	@ args = 0, pretend = 0, frame = 0
	@ frame_needed = 0, uses_anonymous_args = 0
	stmfd	sp!, {r3, r4, r5, r6, r7, lr}
	.save {r3, r4, r5, r6, r7, lr}
	ldr	r5, .L285
	add	r4, r5, r0, asl #4
	ldr	r3, [r4, #1664]
	ldrb	r7, [r4, #1656]	@ zero_extendqisi2
	cmp	r3, #0
	beq	.L279
	mov	r6, r0
	mov	r0, r7
	add	r5, r5, r6, asl #2
	bl	NandcFlashCs
	ldr	r1, [r4, #1660]
	mov	r0, r7
	ldr	r2, [r5, #1624]
	adds	r2, r2, #0
	movne	r2, #1
	bl	FlashWaitReadyEN
	mov	r5, r0
	mov	r0, r7
	bl	NandcFlashDeCs
	ldr	r2, [r4, #1664]
	sbfx	r3, r5, #0, #1
	str	r3, [r2]
	mov	r2, #0
	ldr	r1, [r4, #1668]
	str	r2, [r4, #1664]
	cmp	r1, r2
	strne	r3, [r1]
	strne	r2, [r4, #1668]
.L279:
	mov	r0, #0
	ldmfd	sp!, {r3, r4, r5, r6, r7, pc}
.L286:
	.align	2
.L285:
	.word	.LANCHOR0
	.fnend
	.size	FlashWaitCmdDone, .-FlashWaitCmdDone
	.align	2
	.type	flash_read_ecc, %function
flash_read_ecc:
	.fnstart
	@ args = 0, pretend = 0, frame = 0
	@ frame_needed = 0, uses_anonymous_args = 0
	ldr	r2, .L289
	stmfd	sp!, {r4, lr}
	.save {r4, lr}
	add	r0, r2, r0, asl #3
	ldrb	r4, [r0, #16]	@ zero_extendqisi2
	ldr	r3, [r0, #12]
	mov	r0, #80
	add	r4, r3, r4, asl #8
	mov	r3, #122
	str	r3, [r4, #2056]
	bl	NandcDelayns
	ldr	r3, [r4, #2048]
	ldr	r0, [r4, #2048]
	and	r3, r3, #15
	and	r0, r0, #15
	cmp	r0, r3
	movcc	r0, r3
	ldr	r3, [r4, #2048]
	and	r3, r3, #15
	cmp	r0, r3
	movcc	r0, r3
	ldr	r3, [r4, #2048]
	and	r3, r3, #15
	cmp	r0, r3
	movcc	r0, r3
	ldmfd	sp!, {r4, pc}
.L290:
	.align	2
.L289:
	.word	.LANCHOR0
	.fnend
	.size	flash_read_ecc, .-flash_read_ecc
	.align	2
	.global	NandcWaitFlashReadyNoDelay
	.type	NandcWaitFlashReadyNoDelay, %function
NandcWaitFlashReadyNoDelay:
	.fnstart
	@ args = 0, pretend = 0, frame = 8
	@ frame_needed = 0, uses_anonymous_args = 0
	ldr	r3, .L297
	stmfd	sp!, {r0, r1, r2, r4, r5, lr}
	.save {r4, r5, lr}
	.pad #12
	add	r0, r3, r0, asl #3
	ldr	r4, .L297+4
	ldr	r5, [r0, #12]
.L293:
	ldr	r3, [r5]
	str	r3, [sp, #4]
	ldr	r3, [sp, #4]
	tst	r3, #512
	bne	.L294
	mov	r0, #10
	bl	NandcDelayns
	subs	r4, r4, #1
	bne	.L293
	mvn	r0, #0
	b	.L292
.L294:
	mov	r0, #0
.L292:
	add	sp, sp, #12
	@ sp needed
	ldmfd	sp!, {r4, r5, pc}
.L298:
	.align	2
.L297:
	.word	.LANCHOR0
	.word	100000
	.fnend
	.size	NandcWaitFlashReadyNoDelay, .-NandcWaitFlashReadyNoDelay
	.align	2
	.global	NandcWaitFlashReady
	.type	NandcWaitFlashReady, %function
NandcWaitFlashReady:
	.fnstart
	@ args = 0, pretend = 0, frame = 8
	@ frame_needed = 0, uses_anonymous_args = 0
	ldr	r3, .L305
	stmfd	sp!, {r0, r1, r2, r4, r5, lr}
	.save {r4, r5, lr}
	.pad #12
	add	r0, r3, r0, asl #3
	ldr	r4, .L305+4
	ldr	r5, [r0, #12]
	mov	r0, #150
	bl	NandcDelayns
.L301:
	ldr	r3, [r5]
	str	r3, [sp, #4]
	ldr	r3, [sp, #4]
	tst	r3, #512
	bne	.L302
	mov	r0, #10
	bl	NandcDelayns
	subs	r4, r4, #1
	bne	.L301
	mvn	r0, #0
	b	.L300
.L302:
	mov	r0, #0
.L300:
	add	sp, sp, #12
	@ sp needed
	ldmfd	sp!, {r4, r5, pc}
.L306:
	.align	2
.L305:
	.word	.LANCHOR0
	.word	100000
	.fnend
	.size	NandcWaitFlashReady, .-NandcWaitFlashReady
	.align	2
	.global	FlashReset
	.type	FlashReset, %function
FlashReset:
	.fnstart
	@ args = 0, pretend = 0, frame = 0
	@ frame_needed = 0, uses_anonymous_args = 0
	ldr	r3, .L309
	stmfd	sp!, {r4, r5, r6, lr}
	.save {r4, r5, r6, lr}
	add	r3, r3, r0, asl #3
	mov	r4, r0
	ldrb	r6, [r3, #16]	@ zero_extendqisi2
	ldr	r5, [r3, #12]
	bl	NandcFlashCs
	mov	r3, #255
	mov	r0, r4
	add	r5, r5, r6, asl #8
	str	r3, [r5, #2056]
	bl	NandcWaitFlashReady
	mov	r0, r4
	ldmfd	sp!, {r4, r5, r6, lr}
	b	NandcFlashDeCs
.L310:
	.align	2
.L309:
	.word	.LANCHOR0
	.fnend
	.size	FlashReset, .-FlashReset
	.align	2
	.global	flash_enter_slc_mode
	.type	flash_enter_slc_mode, %function
flash_enter_slc_mode:
	.fnstart
	@ args = 0, pretend = 0, frame = 0
	@ frame_needed = 0, uses_anonymous_args = 0
	stmfd	sp!, {r3, r4, r5, lr}
	.save {r3, r4, r5, lr}
	ldr	r4, .L314
	ldrb	r3, [r4, #3904]	@ zero_extendqisi2
	cmp	r3, #0
	ldmeqfd	sp!, {r3, r4, r5, pc}
	mov	r5, r0
	bl	NandcFlashCs
	add	r3, r4, r5, asl #3
	mov	r0, #100
	ldr	r4, [r3, #12]
	ldrb	r3, [r3, #16]	@ zero_extendqisi2
	add	r4, r4, r3, asl #8
	mov	r3, #239
	str	r3, [r4, #2056]
	mov	r3, #145
	str	r3, [r4, #2052]
	bl	NandcDelayns
	mov	r3, #0
	mov	r2, #1
	str	r3, [r4, #2048]
	mov	r0, #100
	str	r2, [r4, #2048]
	str	r3, [r4, #2048]
	str	r3, [r4, #2048]
	bl	NandcDelayns
	mov	r0, r5
	bl	NandcWaitFlashReadyNoDelay
	mov	r3, #218
	mov	r0, r5
	str	r3, [r4, #2056]
	ldmfd	sp!, {r3, r4, r5, lr}
	b	NandcWaitFlashReady
.L315:
	.align	2
.L314:
	.word	.LANCHOR0
	.fnend
	.size	flash_enter_slc_mode, .-flash_enter_slc_mode
	.align	2
	.global	flash_exit_slc_mode
	.type	flash_exit_slc_mode, %function
flash_exit_slc_mode:
	.fnstart
	@ args = 0, pretend = 0, frame = 0
	@ frame_needed = 0, uses_anonymous_args = 0
	stmfd	sp!, {r3, r4, r5, lr}
	.save {r3, r4, r5, lr}
	ldr	r4, .L319
	ldrb	r3, [r4, #3904]	@ zero_extendqisi2
	cmp	r3, #0
	ldmeqfd	sp!, {r3, r4, r5, pc}
	mov	r5, r0
	bl	NandcFlashCs
	add	r3, r4, r5, asl #3
	mov	r0, #100
	ldr	r4, [r3, #12]
	ldrb	r3, [r3, #16]	@ zero_extendqisi2
	add	r4, r4, r3, asl #8
	mov	r3, #239
	str	r3, [r4, #2056]
	mov	r3, #145
	str	r3, [r4, #2052]
	bl	NandcDelayns
	mov	r3, #2
	mov	r0, #100
	str	r3, [r4, #2048]
	mov	r3, #1
	str	r3, [r4, #2048]
	mov	r3, #0
	str	r3, [r4, #2048]
	str	r3, [r4, #2048]
	bl	NandcDelayns
	mov	r0, r5
	bl	NandcWaitFlashReadyNoDelay
	mov	r3, #223
	mov	r0, r5
	str	r3, [r4, #2056]
	ldmfd	sp!, {r3, r4, r5, lr}
	b	NandcWaitFlashReady
.L320:
	.align	2
.L319:
	.word	.LANCHOR0
	.fnend
	.size	flash_exit_slc_mode, .-flash_exit_slc_mode
	.align	2
	.global	FlashEraseBlock
	.type	FlashEraseBlock, %function
FlashEraseBlock:
	.fnstart
	@ args = 0, pretend = 0, frame = 0
	@ frame_needed = 0, uses_anonymous_args = 0
	stmfd	sp!, {r4, r5, r6, lr}
	.save {r4, r5, r6, lr}
	mov	r4, r0
	mov	r5, r1
	mov	r6, r2
	bl	NandcWaitFlashReady
	mov	r0, r4
	bl	NandcFlashCs
	mov	r2, r6
	mov	r1, r5
	mov	r0, r4
	bl	FlashEraseCmd
	mov	r0, r4
	bl	NandcWaitFlashReady
	mov	r1, r5
	mov	r0, r4
	bl	FlashReadStatus
	mov	r5, r0
	mov	r0, r4
	bl	NandcFlashDeCs
	and	r0, r5, #1
	ldmfd	sp!, {r4, r5, r6, pc}
	.fnend
	.size	FlashEraseBlock, .-FlashEraseBlock
	.align	2
	.global	FlashSetInterfaceMode
	.type	FlashSetInterfaceMode, %function
FlashSetInterfaceMode:
	.fnstart
	@ args = 0, pretend = 0, frame = 8
	@ frame_needed = 0, uses_anonymous_args = 0
	ldr	r3, .L346
	stmfd	sp!, {r0, r1, r2, r4, r5, r6, r7, r8, r9, r10, fp, lr}
	.save {r4, r5, r6, r7, r8, r9, r10, fp, lr}
	.pad #12
	mov	lr, #0
	ldrb	r2, [r3, #-3412]	@ zero_extendqisi2
	mov	r4, #239
	ldr	r7, .L346+4
	mov	r5, #128
	and	r3, r2, #1
	and	r2, r2, #4
	str	r3, [sp, #4]
	mov	r6, #1
	uxtb	r3, r2
	mov	r8, #35
	mov	r2, lr
	mov	r9, #32
	mov	r10, #5
	str	r3, [sp]
.L333:
	ldr	r3, .L346+8
	ldrb	ip, [lr, r7]	@ zero_extendqisi2
	ldr	r1, [r3, lr]!
	cmp	ip, #69
	cmpne	ip, #152
	ldrb	r3, [r3, #4]	@ zero_extendqisi2
	beq	.L324
	cmp	ip, #44
	cmpne	ip, #173
	bne	.L325
.L324:
	cmp	r0, #1
	bne	.L326
	ldr	fp, [sp, #4]
	cmp	fp, #0
	beq	.L325
	mov	r3, r3, asl #8
	cmp	ip, #173
	add	fp, r1, r3
	str	r4, [fp, #2056]
	streq	r0, [fp, #2052]
	beq	.L345
	cmp	ip, #44
	streq	r0, [fp, #2052]
	strne	r5, [fp, #2052]
	streq	r10, [fp, #2048]
	strne	r0, [fp, #2048]
	b	.L331
.L326:
	ldr	fp, [sp]
	cmp	fp, #0
	beq	.L325
	mov	r3, r3, asl #8
	cmp	ip, #173
	add	fp, r1, r3
	str	r4, [fp, #2056]
	streq	r6, [fp, #2052]
	streq	r9, [fp, #2048]
	beq	.L331
	cmp	ip, #44
	streq	r6, [fp, #2052]
	streq	r8, [fp, #2048]
	beq	.L331
	str	r5, [fp, #2052]
.L345:
	str	r2, [fp, #2048]
.L331:
	add	r3, r1, r3
	str	r2, [r3, #2048]
	str	r2, [r3, #2048]
	str	r2, [r3, #2048]
.L325:
	add	lr, lr, #8
	cmp	lr, #32
	bne	.L333
	mov	r0, #0
	bl	NandcWaitFlashReady
	mov	r0, #0
	add	sp, sp, #12
	@ sp needed
	ldmfd	sp!, {r4, r5, r6, r7, r8, r9, r10, fp, pc}
.L347:
	.align	2
.L346:
	.word	.LANCHOR2
	.word	IDByte
	.word	.LANCHOR0+12
	.fnend
	.size	FlashSetInterfaceMode, .-FlashSetInterfaceMode
	.align	2
	.global	FlashReadSpare
	.type	FlashReadSpare, %function
FlashReadSpare:
	.fnstart
	@ args = 0, pretend = 0, frame = 0
	@ frame_needed = 0, uses_anonymous_args = 0
	ldr	ip, .L350
	stmfd	sp!, {r3, r4, r5, lr}
	.save {r3, r4, r5, lr}
	add	ip, ip, r0, asl #3
	ldr	r3, .L350+4
	mov	r5, r2
	ldrb	r2, [ip, #16]	@ zero_extendqisi2
	ldr	r4, [ip, #12]
	ldrb	r3, [r3, #265]	@ zero_extendqisi2
	add	r4, r4, r2, asl #8
	mov	r2, #0
	mov	r3, r3, asl #9
	str	r2, [r4, #2056]
	str	r3, [r4, #2052]
	mov	r3, r3, lsr #8
	str	r3, [r4, #2052]
	uxtb	r3, r1
	str	r3, [r4, #2052]
	mov	r3, r1, lsr #8
	mov	r1, r1, lsr #16
	str	r3, [r4, #2052]
	mov	r3, #48
	str	r1, [r4, #2052]
	str	r3, [r4, #2056]
	bl	NandcWaitFlashReady
	ldr	r3, [r4, #2048]
	strb	r3, [r5]
	ldmfd	sp!, {r3, r4, r5, pc}
.L351:
	.align	2
.L350:
	.word	.LANCHOR0
	.word	.LANCHOR1
	.fnend
	.size	FlashReadSpare, .-FlashReadSpare
	.align	2
	.global	SandiskProgTestBadBlock
	.type	SandiskProgTestBadBlock, %function
SandiskProgTestBadBlock:
	.fnstart
	@ args = 0, pretend = 0, frame = 0
	@ frame_needed = 0, uses_anonymous_args = 0
	ldr	r2, .L354
	stmfd	sp!, {r4, lr}
	.save {r4, lr}
	add	r2, r2, r0, asl #3
	ldrb	r4, [r2, #16]	@ zero_extendqisi2
	ldr	r3, [r2, #12]
	add	r4, r3, r4, asl #8
	mov	r3, #162
	str	r3, [r4, #2056]
	mov	r3, #128
	str	r3, [r4, #2056]
	mov	r3, #0
	str	r3, [r4, #2052]
	str	r3, [r4, #2052]
	uxtb	r3, r1
	str	r3, [r4, #2052]
	mov	r3, r1, lsr #8
	mov	r1, r1, lsr #16
	str	r3, [r4, #2052]
	str	r1, [r4, #2052]
	mov	r3, #16
	str	r3, [r4, #2056]
	bl	NandcWaitFlashReady
	mov	r3, #112
	mov	r0, #80
	str	r3, [r4, #2056]
	bl	NandcDelayns
	ldr	r0, [r4, #2048]
	and	r0, r0, #1
	ldmfd	sp!, {r4, pc}
.L355:
	.align	2
.L354:
	.word	.LANCHOR0
	.fnend
	.size	SandiskProgTestBadBlock, .-SandiskProgTestBadBlock
	.align	2
	.global	SandiskSetRRPara
	.type	SandiskSetRRPara, %function
SandiskSetRRPara:
	.fnstart
	@ args = 0, pretend = 0, frame = 0
	@ frame_needed = 0, uses_anonymous_args = 0
	stmfd	sp!, {r3, r4, r5, lr}
	.save {r3, r4, r5, lr}
	mov	r3, #239
	mov	r5, r0
	str	r3, [r0, #8]
	mov	r3, #17
	str	r3, [r0, #4]
	mov	r0, #200
	mov	r4, r1
	bl	NandcDelayns
	ldr	r1, .L364
	ldr	r0, .L364+4
	add	r4, r4, r4, asl #2
	ldr	ip, .L364+8
	sub	lr, r1, #48
	mov	r2, #0
.L357:
	ldrb	r3, [r0]	@ zero_extendqisi2
	cmp	r2, r3
	bcs	.L363
	ldrb	r3, [ip]	@ zero_extendqisi2
	cmp	r3, #67
	add	r3, r2, r4
	addeq	r3, lr, r3
	addne	r3, r1, r3
	add	r2, r2, #1
	ldrsb	r3, [r3, #5]
	str	r3, [r5]
	b	.L357
.L363:
	mov	r0, #0
	ldmfd	sp!, {r3, r4, r5, lr}
	b	NandcWaitFlashReady
.L365:
	.align	2
.L364:
	.word	.LANCHOR1+3056
	.word	g_maxRegNum
	.word	g_retryMode
	.fnend
	.size	SandiskSetRRPara, .-SandiskSetRRPara
	.align	2
	.global	micron_auto_read_calibration_config
	.type	micron_auto_read_calibration_config, %function
micron_auto_read_calibration_config:
	.fnstart
	@ args = 0, pretend = 0, frame = 0
	@ frame_needed = 0, uses_anonymous_args = 0
	stmfd	sp!, {r3, r4, r5, lr}
	.save {r3, r4, r5, lr}
	mov	r4, r0
	mov	r5, r1
	bl	NandcWaitFlashReady
	ldr	r3, .L368
	mov	r0, #200
	add	r2, r3, r4, asl #3
	ldrb	r4, [r2, #16]	@ zero_extendqisi2
	ldr	r3, [r2, #12]
	add	r4, r3, r4, asl #8
	mov	r3, #239
	str	r3, [r4, #2056]
	mov	r3, #150
	str	r3, [r4, #2052]
	bl	NandcDelayns
	str	r5, [r4, #2048]
	mov	r3, #0
	str	r3, [r4, #2048]
	str	r3, [r4, #2048]
	str	r3, [r4, #2048]
	ldmfd	sp!, {r3, r4, r5, pc}
.L369:
	.align	2
.L368:
	.word	.LANCHOR0
	.fnend
	.size	micron_auto_read_calibration_config, .-micron_auto_read_calibration_config
	.align	2
	.global	FlashEraseSLc2KBlocks
	.type	FlashEraseSLc2KBlocks, %function
FlashEraseSLc2KBlocks:
	.fnstart
	@ args = 0, pretend = 0, frame = 16
	@ frame_needed = 0, uses_anonymous_args = 0
	stmfd	sp!, {r4, r5, r6, r7, r8, r9, r10, lr}
	.save {r4, r5, r6, r7, r8, r9, r10, lr}
	mov	r5, #0
	ldr	r7, .L383
	.pad #24
	sub	sp, sp, #24
	ldr	r9, .L383+4
	mov	r6, r0
	mov	r10, r1
	mov	r8, r5
	ldr	r3, [r7]
	str	r3, [sp, #20]
.L371:
	cmp	r8, r10
	beq	.L382
	rsb	r3, r8, r10
	add	r2, sp, #12
	add	r0, r6, r5
	mov	r1, #0
	uxtb	r3, r3
	str	r3, [sp]
	add	r3, sp, #16
	bl	LogAddr2PhyAddr
	ldrb	r2, [r9, #1612]	@ zero_extendqisi2
	ldr	r3, [sp, #16]
	cmp	r3, r2
	mvncs	r3, #0
	strcs	r3, [r6, r5]
	bcs	.L373
	add	r2, r9, r3
	add	r3, r9, r3, asl #4
	ldrb	r4, [r2, #1616]	@ zero_extendqisi2
	strb	r4, [r3, #1656]
	mov	r0, r4
	bl	NandcWaitFlashReady
	mov	r0, r4
	bl	NandcFlashCs
	mov	r2, #0
	mov	r0, r4
	ldr	r1, [sp, #12]
	bl	FlashEraseCmd
	mov	r0, r4
	bl	NandcWaitFlashReady
	mov	r0, r4
	ldr	r1, [sp, #12]
	bl	FlashReadStatus
	mov	r2, #0
	ldr	r3, [sp, #12]
	sbfx	r0, r0, #0, #1
	str	r0, [r6, r5]
	mov	r0, r4
	ldr	r1, [r9, #4]
	add	r1, r1, r3
	bl	FlashEraseCmd
	mov	r0, r4
	bl	NandcWaitFlashReady
	mov	r0, r4
	ldr	r1, [sp, #12]
	bl	FlashReadStatus
	tst	r0, #1
	mvnne	r3, #0
	strne	r3, [r6, r5]
	ldr	r3, [r6, r5]
	cmn	r3, #1
	bne	.L375
	ldr	r0, .L383+8
	ldr	r1, [sp, #12]
	bl	printk
.L375:
	mov	r0, r4
	bl	NandcFlashDeCs
.L373:
	add	r8, r8, #1
	add	r5, r5, #36
	b	.L371
.L382:
	ldr	r2, [sp, #20]
	mov	r0, #0
	ldr	r3, [r7]
	cmp	r2, r3
	beq	.L377
	bl	__stack_chk_fail
.L377:
	add	sp, sp, #24
	@ sp needed
	ldmfd	sp!, {r4, r5, r6, r7, r8, r9, r10, pc}
.L384:
	.align	2
.L383:
	.word	__stack_chk_guard
	.word	.LANCHOR0
	.word	.LC1
	.fnend
	.size	FlashEraseSLc2KBlocks, .-FlashEraseSLc2KBlocks
	.align	2
	.global	HynixGetReadRetryDefault
	.type	HynixGetReadRetryDefault, %function
HynixGetReadRetryDefault:
	.fnstart
	@ args = 0, pretend = 0, frame = 40
	@ frame_needed = 0, uses_anonymous_args = 0
	stmfd	sp!, {r4, r5, r6, r7, r8, r9, r10, fp, lr}
	.save {r4, r5, r6, r7, r8, r9, r10, fp, lr}
	cmp	r0, #2
	ldr	r7, .L494
	mvn	r3, #83
	mvn	r1, #82
	mvn	r2, #81
	.pad #44
	sub	sp, sp, #44
	mov	r4, r0
	strb	r3, [r7, #3920]
	mvn	r3, #80
	strb	r0, [r7, #3916]
	strb	r1, [r7, #3921]
	strb	r2, [r7, #3922]
	strb	r3, [r7, #3923]
	bne	.L386
	mvn	r3, #88
	strb	r3, [r7, #3920]
	ldr	r3, .L494+4
	mvn	r2, #8
	mov	r5, #7
	strb	r2, [r3, #3241]
	b	.L447
.L386:
	cmp	r0, #3
	bne	.L388
	mvn	r3, #79
	strb	r3, [r7, #3920]
	mvn	r3, #78
	strb	r3, [r7, #3921]
	mvn	r3, #77
	strb	r3, [r7, #3922]
	mvn	r3, #76
	strb	r3, [r7, #3923]
	mvn	r3, #75
	strb	r3, [r7, #3924]
	mvn	r3, #74
	strb	r3, [r7, #3925]
	mvn	r3, #73
	strb	r3, [r7, #3926]
	mvn	r3, #72
	b	.L488
.L388:
	cmp	r0, #4
	bne	.L389
	mvn	r0, #51
	strb	r1, [r7, #3925]
	strb	r0, [r7, #3920]
	mvn	r0, #64
	strb	r2, [r7, #3926]
	strb	r0, [r7, #3921]
	mvn	r0, #85
	strb	r0, [r7, #3922]
	mvn	r0, #84
	strb	r0, [r7, #3923]
	mvn	r0, #50
	strb	r0, [r7, #3924]
.L488:
	mov	r5, #8
	strb	r3, [r7, #3927]
	mov	r6, r5
	b	.L387
.L389:
	cmp	r0, #5
	bne	.L390
	mov	r3, #56
	mov	r5, #8
	strb	r3, [r7, #3920]
	mov	r3, #57
	strb	r3, [r7, #3921]
	mov	r3, #58
	strb	r3, [r7, #3922]
	mov	r3, #59
	strb	r3, [r7, #3923]
	b	.L447
.L390:
	cmp	r0, #6
	bne	.L391
	mov	r3, #14
	mov	r5, #12
	strb	r3, [r7, #3920]
	mov	r3, #15
	strb	r3, [r7, #3921]
	mov	r3, #16
	strb	r3, [r7, #3922]
	mov	r3, #17
	strb	r3, [r7, #3923]
	b	.L447
.L391:
	cmp	r0, #7
	bne	.L392
	mvn	r3, #79
	mov	r5, #12
	strb	r3, [r7, #3920]
	mov	r6, #10
	mvn	r3, #78
	strb	r3, [r7, #3921]
	mvn	r3, #77
	strb	r3, [r7, #3922]
	mvn	r3, #76
	strb	r3, [r7, #3923]
	mvn	r3, #75
	strb	r3, [r7, #3924]
	mvn	r3, #74
	strb	r3, [r7, #3925]
	mvn	r3, #73
	strb	r3, [r7, #3926]
	mvn	r3, #72
	strb	r3, [r7, #3927]
	mvn	r3, #43
	strb	r3, [r7, #3928]
	mvn	r3, #42
	strb	r3, [r7, #3929]
	b	.L387
.L392:
	cmp	r0, #8
	mov	r5, #7
	bne	.L447
	mov	r3, #6
	strb	r5, [r7, #3921]
	strb	r3, [r7, #3920]
	mov	r5, #50
	mov	r3, #9
	strb	r0, [r7, #3922]
	strb	r3, [r7, #3923]
	mov	r6, #5
	mov	r3, #10
	strb	r3, [r7, #3924]
	b	.L387
.L447:
	mov	r6, #4
.L387:
	sub	r3, r4, #1
	cmp	r3, #1
	bhi	.L484
	ldr	r10, .L494+8
	mov	r9, #0
.L393:
	ldrb	r1, [r7, #1612]	@ zero_extendqisi2
	uxtb	r2, r9
	ldr	r3, .L494
	cmp	r1, r2
	bls	.L400
	add	r2, r3, r2
	ldr	r4, .L494+12
	ldr	r1, .L494+16
	mov	ip, #55
	ldrb	r2, [r2, #1616]	@ zero_extendqisi2
	add	r3, r3, r2, asl #3
	add	r4, r4, r2, asl #6
	add	r4, r4, #20
	ldrb	r8, [r3, #16]	@ zero_extendqisi2
	ldr	r0, [r3, #12]
	mov	fp, r4
	mov	r2, r4
	add	r8, r0, r8, asl #8
.L395:
	str	ip, [r8, #2056]
	mov	r0, #80
	ldrb	r3, [r1, #1]!	@ zero_extendqisi2
	str	r2, [sp, #12]
	str	ip, [sp, #8]
	str	r3, [r8, #2052]
	str	r1, [sp, #4]
	str	r1, [sp, #16]
	bl	NandcDelayns
	ldr	r3, [r8, #2048]
	ldr	r2, [sp, #12]
	ldmib	sp, {r1, ip}
	strb	r3, [r2], #1
	rsb	r3, r4, r2
	uxtb	r3, r3
	cmp	r3, r6
	bcc	.L395
	mov	r2, #0
.L396:
	add	r0, r10, r2
	mov	r3, #1
.L397:
	ldrb	r1, [r0, r3, asl #2]	@ zero_extendqisi2
	ldrb	ip, [fp]	@ zero_extendqisi2
	add	r1, r1, ip
	strb	r1, [fp, r3, asl #3]
	add	r3, r3, #1
	cmp	r3, #7
	bne	.L397
	add	r2, r2, #1
	add	fp, fp, #1
	cmp	r2, #4
	bne	.L396
	mov	r3, #0
	add	r9, r9, #1
	strb	r3, [r4, #16]
	strb	r3, [r4, #24]
	strb	r3, [r4, #32]
	strb	r3, [r4, #40]
	strb	r3, [r4, #48]
	strb	r3, [r4, #41]
	strb	r3, [r4, #49]
	b	.L393
.L484:
	sub	r3, r4, #3
	cmp	r3, #5
	bhi	.L400
	smulbb	r2, r6, r5
	mov	r3, r2, asl #4
	mov	r2, r2, asr #1
	str	r3, [sp, #36]
	mov	r3, r2, asl #1
	str	r3, [sp, #8]
	mov	r3, #0
.L492:
	str	r3, [sp, #16]
	ldrb	r3, [sp, #16]	@ zero_extendqisi2
	str	r3, [sp, #12]
	ldr	r3, .L494
	ldr	r2, [sp, #12]
	ldrb	r3, [r3, #1612]	@ zero_extendqisi2
	cmp	r3, r2
	bhi	.L445
.L400:
	ldr	r3, .L494
	strb	r6, [r3, #3917]
	strb	r5, [r3, #3918]
	add	sp, sp, #44
	@ sp needed
	ldmfd	sp!, {r4, r5, r6, r7, r8, r9, r10, fp, pc}
.L445:
	ldr	r2, [sp, #12]
	ldr	r3, .L494
	add	r3, r3, r2
	ldrb	r10, [r3, #1616]	@ zero_extendqisi2
	ldr	r3, .L494
	add	r3, r3, r10, asl #3
	mov	r0, r10
	ldrb	fp, [r3, #16]	@ zero_extendqisi2
	ldr	r8, [r3, #12]
	mov	r3, #255
	mov	r9, fp, asl #8
	add	r7, r8, r9
	str	r3, [r7, #2056]
	bl	NandcWaitFlashReady
	cmp	r4, #7
	ldreq	r3, .L494+12
	moveq	r7, #160
	mlaeq	r7, r7, r10, r3
	addeq	r3, r7, #28
	beq	.L489
.L402:
	cmp	r4, #8
	beq	.L404
	ldr	r3, .L494+12
	add	r7, r3, r10, asl #6
	add	r3, r7, #20
.L489:
	str	r3, [sp, #20]
	cmp	r4, #4
	add	r3, r8, fp, asl #8
	mov	r2, #54
	str	r2, [r3, #2056]
	bne	.L405
	add	r9, r8, r9
	mov	r3, #255
	str	r3, [r9, #2052]
	mov	r3, #64
	str	r3, [r9, #2048]
	mov	r3, #204
	b	.L490
.L405:
	sub	r2, r4, #5
	cmp	r2, #1
	bhi	.L407
	ldr	r2, .L494
	ldrb	r2, [r2, #3920]	@ zero_extendqisi2
	str	r2, [r3, #2052]
	mov	r2, #82
	str	r2, [r3, #2048]
	b	.L406
.L407:
	cmp	r4, #7
	bne	.L406
	add	r9, r8, r9
	mov	r3, #174
	str	r3, [r9, #2052]
	mov	r3, #0
	str	r3, [r9, #2048]
	mov	r3, #176
.L490:
	str	r3, [r9, #2052]
	mov	r3, #77
	str	r3, [r9, #2048]
.L406:
	add	r3, r8, fp, asl #8
	cmp	r4, #6
	mov	r2, #22
	str	r2, [r3, #2056]
	mov	r2, #23
	str	r2, [r3, #2056]
	mov	r2, #4
	str	r2, [r3, #2056]
	mov	r2, #25
	str	r2, [r3, #2056]
	mov	r2, #0
	str	r2, [r3, #2056]
	str	r2, [r3, #2052]
	str	r2, [r3, #2052]
	moveq	r2, #31
	str	r2, [r3, #2052]
	mov	r2, #2
	str	r2, [r3, #2052]
	mov	r2, #0
	str	r2, [r3, #2052]
.L446:
	add	r3, r8, fp, asl #8
	mov	r2, #48
	mov	r0, r10
	str	r2, [r3, #2056]
	bl	NandcWaitFlashReady
	sub	r3, r4, #5
	cmp	r3, #1
	movhi	r3, #0
	movls	r3, #1
	str	r3, [sp, #24]
	sub	r3, r4, #8
	clz	r3, r3
	mov	r3, r3, lsr #5
	str	r3, [sp, #4]
	ldr	r2, [sp, #4]
	ldr	r3, [sp, #24]
	orrs	r3, r3, r2
	movne	ip, #16
	bne	.L410
	cmp	r4, #7
	movne	ip, #2
	moveq	ip, #32
.L410:
	ldr	r3, .L494+20
	add	r0, r8, fp, asl #8
	ldr	r3, [r3, #-3408]
	mov	r1, r3
.L411:
	ldr	r2, [r0, #2048]
	strb	r2, [r1], #1
	rsb	r2, r3, r1
	uxtb	r2, r2
	cmp	r2, ip
	bcc	.L411
	ldr	r2, [sp, #4]
	cmp	r2, #0
	beq	.L412
	mov	r2, #0
.L414:
	ldrb	ip, [r3, r2, asl #2]	@ zero_extendqisi2
	uxtb	r1, r2
	cmp	ip, #50
	beq	.L413
	add	ip, r3, r2, asl #2
	ldrb	ip, [ip, #1]	@ zero_extendqisi2
	cmp	ip, #5
	beq	.L413
	add	r2, r2, #1
	cmp	r2, #8
	bne	.L414
	b	.L415
.L413:
	cmp	r1, #6
	bls	.L416
.L415:
	ldr	r0, .L494+24
	mov	r1, #0
	bl	printk
.L417:
	b	.L417
.L412:
	cmp	r4, #7
	bne	.L418
	ldr	r2, [sp, #4]
.L420:
	ldrb	ip, [r3, r2, asl #2]	@ zero_extendqisi2
	uxtb	r1, r2
	cmp	ip, #12
	beq	.L419
	add	ip, r3, r2, asl #2
	ldrb	ip, [ip, #1]	@ zero_extendqisi2
	cmp	ip, #10
	beq	.L419
	add	r2, r2, #1
	cmp	r2, #8
	bne	.L420
	b	.L421
.L419:
	cmp	r1, #7
	bne	.L416
.L421:
	ldr	r0, .L494+24
	mov	r1, #0
	bl	printk
.L422:
	b	.L422
.L418:
	cmp	r4, #6
	bne	.L416
	sub	r2, r3, #1
	add	r3, r3, #7
.L423:
	ldrb	r1, [r2, #1]!	@ zero_extendqisi2
	cmp	r1, #12
	beq	.L416
	ldrb	r1, [r2, #8]	@ zero_extendqisi2
	cmp	r1, #4
	beq	.L416
	cmp	r2, r3
	bne	.L423
	ldr	r0, .L494+24
	mov	r1, #0
	bl	printk
.L425:
	b	.L425
.L416:
	ldr	r1, .L494+20
	ldr	ip, [sp, #36]
	ldr	r2, [r1, #-3408]
	add	ip, r2, ip
	mov	r3, r2
.L426:
	cmp	r3, ip
	ldrne	lr, [r0, #2048]
	strneb	lr, [r3], #1
	bne	.L426
.L493:
	ldr	r3, [r1, #-3408]
	mov	r0, #8
	ldr	r1, [sp, #8]
	add	r1, r3, r1
	str	r1, [sp, #28]
.L429:
	ldr	ip, [sp, #8]
	add	lr, r1, ip
.L428:
	ldrh	ip, [r1]
	mvn	ip, ip
	strh	ip, [r1], #2	@ movhi
	cmp	r1, lr
	bne	.L428
	ldr	ip, [sp, #8]
	subs	r0, r0, #1
	add	r1, r1, ip
	bne	.L429
.L430:
	mov	ip, #0
	mov	r0, ip
.L433:
	mov	r1, #1
	mov	lr, #0
	mov	r1, r1, asl r0
	mov	r7, #16
	str	r7, [sp, #32]
	mov	r7, lr
.L431:
	ldrh	r9, [r3, lr]
	and	r9, r9, r1
	cmp	r9, r1
	addeq	r7, r7, #1
	ldr	r9, [sp, #8]
	add	lr, lr, r9
	ldr	r9, [sp, #32]
	subs	r9, r9, #1
	str	r9, [sp, #32]
	bne	.L431
	cmp	r7, #8
	add	r0, r0, #1
	orrhi	ip, ip, r1
	uxthhi	ip, ip
	cmp	r0, #16
	bne	.L433
	ldr	r1, [sp, #28]
	strh	ip, [r3], #2	@ movhi
	cmp	r3, r1
	bne	.L430
	ldr	r3, .L494+20
	ldr	r1, [r3, #-3408]
	mov	r3, #0
	sub	r0, r1, #4
	add	ip, r1, #28
.L435:
	ldr	lr, [r0, #4]!
	cmp	lr, #0
	addeq	r3, r3, #1
	cmp	r0, ip
	bne	.L435
	cmp	r3, #7
	ble	.L436
	ldr	r0, .L494+28
	mov	r2, #1
	mov	r3, #1024
	bl	rknand_print_hex
	ldr	r0, .L494+24
	mov	r1, #0
	bl	printk
.L437:
	b	.L437
.L436:
	cmp	r4, #6
	moveq	r0, #4
	beq	.L438
	cmp	r4, #7
	moveq	r0, #10
	beq	.L438
	ldr	r3, [sp, #4]
	cmp	r3, #0
	moveq	r0, #8
	movne	r0, #5
.L438:
	sub	r9, r6, #1
	ldr	r1, [sp, #20]
	mov	ip, #0
	uxtb	r9, r9
	add	r9, r9, #1
.L439:
	mov	r7, r1
	mov	r3, r2
.L440:
	ldrb	lr, [r3], #1	@ zero_extendqisi2
	strb	lr, [r7], #1
	rsb	lr, r2, r3
	uxtb	lr, lr
	cmp	lr, r6
	bcc	.L440
	add	ip, ip, #1
	add	r2, r2, r9
	cmp	ip, r5
	add	r1, r1, r0
	blt	.L439
	add	r7, r8, fp, asl #8
	mov	r3, #255
	mov	r0, r10
	str	r3, [r7, #2056]
	bl	NandcWaitFlashReady
	ldr	r3, [sp, #24]
	cmp	r3, #0
	beq	.L442
	mov	r3, #54
	str	r3, [r7, #2056]
	ldr	r3, .L494
	mvn	r1, #0
	ldr	r0, [sp, #12]
	ldrb	r3, [r3, #3920]	@ zero_extendqisi2
	str	r3, [r7, #2052]
	mov	r3, #0
	str	r3, [r7, #2048]
	mov	r3, #22
	str	r3, [r7, #2056]
	bl	FlashReadCmd
	b	.L443
.L442:
	ldr	r3, [sp, #4]
	cmp	r3, #0
	movne	r3, #190
	moveq	r3, #56
	str	r3, [r7, #2056]
.L443:
	mov	r0, r10
	bl	NandcWaitFlashReady
	ldr	r3, [sp, #16]
	add	r3, r3, #1
	b	.L492
.L404:
	mov	r3, #120
	mov	r2, #23
	str	r3, [r7, #2056]
	mov	r1, #25
	mov	r3, #0
	str	r3, [r7, #2052]
	str	r3, [r7, #2052]
	str	r3, [r7, #2052]
	str	r2, [r7, #2056]
	mov	r2, #4
	str	r2, [r7, #2056]
	str	r1, [r7, #2056]
	mov	r1, #218
	str	r1, [r7, #2056]
	mov	r1, #21
	str	r3, [r7, #2056]
	str	r3, [r7, #2052]
	str	r3, [r7, #2052]
	str	r1, [r7, #2052]
	str	r2, [r7, #2052]
	str	r3, [r7, #2052]
	ldr	r3, .L494+32
	str	r3, [sp, #20]
	b	.L446
.L495:
	.align	2
.L494:
	.word	.LANCHOR0
	.word	.LANCHOR1
	.word	.LANCHOR1+3224
	.word	.LANCHOR0+3916
	.word	.LANCHOR0+3919
	.word	.LANCHOR2
	.word	.LC2
	.word	.LC3
	.word	.LANCHOR0+3944
	.fnend
	.size	HynixGetReadRetryDefault, .-HynixGetReadRetryDefault
	.align	2
	.global	FlashGetReadRetryDefault
	.type	FlashGetReadRetryDefault, %function
FlashGetReadRetryDefault:
	.fnstart
	@ args = 0, pretend = 0, frame = 0
	@ frame_needed = 0, uses_anonymous_args = 0
	@ link register save eliminated.
	subs	r3, r0, #0
	bxeq	lr
	sub	r2, r3, #1
	cmp	r2, #7
	bhi	.L498
	b	HynixGetReadRetryDefault
.L498:
	cmp	r3, #49
	bne	.L499
	ldr	r0, .L510
	mov	r2, #64
	ldr	r1, .L510+4
	add	r0, r0, #3920
	strb	r3, [r0, #-4]
	mov	r3, #4
	strb	r3, [r0, #-3]
	mov	r3, #15
	strb	r3, [r0, #-2]
	b	.L508
.L499:
	sub	r2, r3, #65
	cmp	r3, #33
	cmpne	r2, #1
	ldrls	r0, .L510
	strlsb	r3, [r0, #3916]
	movls	r3, #4
	bls	.L509
.L500:
	cmp	r3, #34
	cmpne	r3, #67
	bne	.L501
	ldr	r0, .L510
	strb	r3, [r0, #3916]
	mov	r3, #5
.L509:
	strb	r3, [r0, #3917]
	mov	r2, #45
	mov	r3, #7
	add	r0, r0, #3920
	strb	r3, [r0, #-2]
	ldr	r1, .L510+8
	b	.L508
.L501:
	cmp	r3, #35
	cmpne	r3, #68
	bxne	lr
	ldr	r0, .L510
	mov	r2, #95
	ldr	r1, .L510+12
	add	r0, r0, #3920
	strb	r3, [r0, #-4]
	mov	r3, #5
	strb	r3, [r0, #-3]
	mov	r3, #17
	strb	r3, [r0, #-2]
.L508:
	b	ftl_memcpy
.L511:
	.align	2
.L510:
	.word	.LANCHOR0
	.word	.LANCHOR1+3160
	.word	.LANCHOR1+3008
	.word	.LANCHOR1+3056
	.fnend
	.size	FlashGetReadRetryDefault, .-FlashGetReadRetryDefault
	.align	2
	.global	FlashReadDpCmd
	.type	FlashReadDpCmd, %function
FlashReadDpCmd:
	.fnstart
	@ args = 0, pretend = 0, frame = 0
	@ frame_needed = 0, uses_anonymous_args = 0
	stmfd	sp!, {r3, r4, r5, r6, r7, r8, r9, r10, fp, lr}
	.save {r3, r4, r5, r6, r7, r8, r9, r10, fp, lr}
	mov	r6, r1
	ldr	r3, .L517
	mov	r7, r0
	uxtb	lr, r6
	mov	ip, r6, lsr #8
	add	r1, r3, r0, asl #3
	uxtb	r9, r2
	ldrb	r10, [r3, #52]	@ zero_extendqisi2
	mov	r8, r2, lsr #8
	ldrb	r4, [r1, #16]	@ zero_extendqisi2
	mov	r5, r2, lsr #16
	ldr	fp, [r1, #12]
	ldrb	r1, [r3, #60]	@ zero_extendqisi2
	mov	r4, r4, asl #8
	ldrb	r3, [r3, #53]	@ zero_extendqisi2
	cmp	r1, #1
	add	r4, fp, r4
	mov	r1, r6, lsr #16
	str	r10, [r4, #2056]
	bne	.L513
	mov	r10, #0
	str	r10, [r4, #2052]
	str	r10, [r4, #2052]
	str	lr, [r4, #2052]
	str	ip, [r4, #2052]
	str	r1, [r4, #2052]
	str	r3, [r4, #2056]
	bl	NandcWaitFlashReady
	str	r10, [r4, #2056]
	str	r10, [r4, #2052]
	str	r10, [r4, #2052]
	b	.L516
.L513:
	str	lr, [r4, #2052]
	str	ip, [r4, #2052]
	str	r1, [r4, #2052]
	str	r3, [r4, #2056]
.L516:
	str	r9, [r4, #2052]
	mov	r3, #48
	str	r8, [r4, #2052]
	mov	r0, r7
	str	r5, [r4, #2052]
	mov	r1, r6
	str	r3, [r4, #2056]
	ldmfd	sp!, {r3, r4, r5, r6, r7, r8, r9, r10, fp, lr}
	b	FlashSetRandomizer
.L518:
	.align	2
.L517:
	.word	.LANCHOR0
	.fnend
	.size	FlashReadDpCmd, .-FlashReadDpCmd
	.align	2
	.global	ftl_flash_de_init
	.type	ftl_flash_de_init, %function
ftl_flash_de_init:
	.fnstart
	@ args = 0, pretend = 0, frame = 0
	@ frame_needed = 0, uses_anonymous_args = 0
	stmfd	sp!, {r3, r4, r5, lr}
	.save {r3, r4, r5, lr}
	mov	r0, #0
	bl	NandcWaitFlashReady
	bl	FlashSetReadRetryDefault
	ldr	r3, .L530
	ldr	r0, [r3, #-3404]
	mov	r4, r3
	cmp	r0, #0
	beq	.L520
	mov	r0, #0
	bl	flash_enter_slc_mode
	b	.L521
.L520:
	bl	flash_exit_slc_mode
.L521:
	ldrb	r3, [r4, #-3400]	@ zero_extendqisi2
	ldr	r5, .L530
	cmp	r3, #0
	beq	.L522
	ldrb	r3, [r5, #-3412]	@ zero_extendqisi2
	tst	r3, #1
	beq	.L522
	mov	r0, #1
	bl	FlashSetInterfaceMode
	mov	r0, #1
	bl	NandcSetMode
	mov	r3, #0
	strb	r3, [r5, #-3400]
.L522:
	ldr	r3, .L530+4
	mov	r0, #0
	ldr	r3, [r3, #12]
	str	r0, [r3, #336]
	ldmfd	sp!, {r3, r4, r5, pc}
.L531:
	.align	2
.L530:
	.word	.LANCHOR2
	.word	.LANCHOR0
	.fnend
	.size	ftl_flash_de_init, .-ftl_flash_de_init
	.align	2
	.global	NandcRandmzSel
	.type	NandcRandmzSel, %function
NandcRandmzSel:
	.fnstart
	@ args = 0, pretend = 0, frame = 0
	@ frame_needed = 0, uses_anonymous_args = 0
	@ link register save eliminated.
	ldr	r3, .L533
	add	r0, r3, r0, asl #3
	ldr	r3, [r0, #12]
	str	r1, [r3, #336]
	bx	lr
.L534:
	.align	2
.L533:
	.word	.LANCHOR0
	.fnend
	.size	NandcRandmzSel, .-NandcRandmzSel
	.global	__aeabi_idiv
	.align	2
	.global	NandcTimeCfg
	.type	NandcTimeCfg, %function
NandcTimeCfg:
	.fnstart
	@ args = 0, pretend = 0, frame = 0
	@ frame_needed = 0, uses_anonymous_args = 0
	stmfd	sp!, {r4, lr}
	.save {r4, lr}
	mov	r4, r0
	mov	r0, #0
	bl	rknand_get_clk_rate
	ldr	r1, .L546
	bl	__aeabi_idiv
	ldr	r3, .L546+4
	ldr	r3, [r3, #3840]
	cmp	r0, #250
	movwgt	r2, #8354
	bgt	.L544
	cmp	r0, #220
	bgt	.L545
	cmp	r0, #185
	movwgt	r2, #4226
	bgt	.L544
	cmp	r0, #160
	movwgt	r2, #4194
	bgt	.L544
	cmp	r4, #35
	movwls	r2, #4193
	bls	.L544
	cmp	r4, #99
	movwls	r2, #4225
	bls	.L544
.L545:
	movw	r2, #8322
.L544:
	str	r2, [r3, #4]
	ldmfd	sp!, {r4, pc}
.L547:
	.align	2
.L546:
	.word	1000000
	.word	.LANCHOR0
	.fnend
	.size	NandcTimeCfg, .-NandcTimeCfg
	.align	2
	.global	FlashTimingCfg
	.type	FlashTimingCfg, %function
FlashTimingCfg:
	.fnstart
	@ args = 0, pretend = 0, frame = 0
	@ frame_needed = 0, uses_anonymous_args = 0
	@ link register save eliminated.
	sub	r3, r0, #4160
	sub	r3, r3, #33
	bic	r3, r3, #32
	cmp	r3, #1
	bls	.L549
	movw	r3, #8322
	cmp	r0, r3
	bne	.L550
.L549:
	ldr	r3, .L551
	ldr	r3, [r3, #3840]
	str	r0, [r3, #4]
.L550:
	ldr	r3, .L551+4
	ldrb	r0, [r3, #277]	@ zero_extendqisi2
	b	NandcTimeCfg
.L552:
	.align	2
.L551:
	.word	.LANCHOR0
	.word	.LANCHOR1
	.fnend
	.size	FlashTimingCfg, .-FlashTimingCfg
	.align	2
	.global	NandcInit
	.type	NandcInit, %function
NandcInit:
	.fnstart
	@ args = 0, pretend = 0, frame = 0
	@ frame_needed = 0, uses_anonymous_args = 0
	ldr	r3, .L556
	mov	r1, #0
	stmfd	sp!, {r4, r5, r6, lr}
	.save {r4, r5, r6, lr}
	mov	r2, #1
	str	r1, [r3, #16]
	mov	r4, r3
	str	r0, [r3, #12]
	mov	r6, #0
	str	r2, [r3, #24]
	mov	r2, #2
	str	r0, [r3, #20]
	str	r2, [r3, #32]
	mov	r2, #3
	str	r0, [r3, #28]
	str	r0, [r3, #36]
	str	r0, [r3, #3840]
	str	r2, [r3, #40]
	ldr	r2, [r0]
	ldr	r5, .L556+4
	and	r2, r2, #253952
	ubfx	ip, r2, #13, #1
	bfi	r2, r1, #13, #1
	ldr	r1, [r0, #352]
	orr	r2, r2, #256
	str	ip, [r5, #-3396]
	movw	ip, #2049
	ubfx	r1, r1, #16, #4
	str	r1, [r5, #-3392]
	ldr	r1, [r0, #352]
	cmp	r1, ip
	str	r1, [r5, #-3388]
	moveq	r3, #8
	streq	r3, [r5, #-3392]
	str	r2, [r0]
	mov	r0, #40
	ldr	r3, [r4, #3840]
	str	r6, [r3, #336]
	bl	NandcTimeCfg
	ldr	r3, [r4, #3840]
	movw	r2, #8322
	mov	r0, #36864
	str	r2, [r3, #344]
	ldr	r2, .L556+8
	str	r2, [r3, #304]
	bl	ftl_malloc
	str	r6, [r5, #-3356]
	str	r6, [r5, #-3348]
	str	r0, [r5, #-3384]
	str	r0, [r5, #-3380]
	add	r0, r0, #32768
	str	r0, [r5, #-3376]
	ldmfd	sp!, {r4, r5, r6, pc}
.L557:
	.align	2
.L556:
	.word	.LANCHOR0
	.word	.LANCHOR2
	.word	1579009
	.fnend
	.size	NandcInit, .-NandcInit
	.align	2
	.global	NandcGetTimeCfg
	.type	NandcGetTimeCfg, %function
NandcGetTimeCfg:
	.fnstart
	@ args = 0, pretend = 0, frame = 0
	@ frame_needed = 0, uses_anonymous_args = 0
	ldr	ip, .L560
	str	lr, [sp, #-4]!
	.save {lr}
	ldr	lr, [ip, #3840]
	ldr	lr, [lr, #4]
	str	lr, [r0]
	ldr	r0, [ip, #3840]
	ldr	r0, [r0]
	str	r0, [r1]
	ldr	r1, [ip, #3840]
	ldr	r1, [r1, #304]
	str	r1, [r2]
	ldr	r1, [ip, #3840]
	ldr	r2, [r1, #308]
	ldr	r1, [r1, #344]
	uxtb	r2, r2
	orr	r2, r2, r1, asl #16
	str	r2, [r3]
	ldr	pc, [sp], #4
.L561:
	.align	2
.L560:
	.word	.LANCHOR0
	.fnend
	.size	NandcGetTimeCfg, .-NandcGetTimeCfg
	.align	2
	.global	NandcBchSel
	.type	NandcBchSel, %function
NandcBchSel:
	.fnstart
	@ args = 0, pretend = 0, frame = 0
	@ frame_needed = 0, uses_anonymous_args = 0
	@ link register save eliminated.
	ldr	r3, .L570
	mov	r1, #16
	cmp	r0, r1
	ldr	r2, [r3, #3840]
	mov	r3, #1
	str	r3, [r2, #8]
	ldr	r3, .L570+4
	str	r0, [r3, #-3344]
	mov	r3, #0
	bfi	r3, r1, #8, #8
	bfc	r3, #18, #1
	bne	.L563
.L566:
	bfc	r3, #4, #1
	b	.L564
.L563:
	cmp	r0, #24
	orreq	r3, r3, #16
	beq	.L564
	cmp	r0, #40
	orr	r3, r3, #262144
	orr	r3, r3, #16
	beq	.L566
.L564:
	orr	r3, r3, #1
	str	r3, [r2, #12]
	bx	lr
.L571:
	.align	2
.L570:
	.word	.LANCHOR0
	.word	.LANCHOR2
	.fnend
	.size	NandcBchSel, .-NandcBchSel
	.align	2
	.global	FlashBchSel
	.type	FlashBchSel, %function
FlashBchSel:
	.fnstart
	@ args = 0, pretend = 0, frame = 0
	@ frame_needed = 0, uses_anonymous_args = 0
	@ link register save eliminated.
	ldr	r3, .L573
	strb	r0, [r3, #3905]
	b	NandcBchSel
.L574:
	.align	2
.L573:
	.word	.LANCHOR0
	.fnend
	.size	FlashBchSel, .-FlashBchSel
	.align	2
	.global	ftl_flash_resume
	.type	ftl_flash_resume, %function
ftl_flash_resume:
	.fnstart
	@ args = 0, pretend = 0, frame = 0
	@ frame_needed = 0, uses_anonymous_args = 0
	ldr	r3, .L584
	stmfd	sp!, {r4, r5, r6, lr}
	.save {r4, r5, r6, lr}
	mov	r5, #0
	ldr	r2, [r3, #3840]
	mov	r4, r3
	ldr	r1, [r3, #3844]
	ldr	r6, .L584+4
	str	r1, [r2]
	ldr	r1, [r3, #3848]
	ldr	r2, [r3, #3840]
	str	r1, [r2, #4]
	ldr	r1, [r3, #3852]
	str	r1, [r2, #8]
	ldr	r1, [r3, #3856]
	str	r1, [r2, #12]
	ldr	r1, [r3, #3860]
	str	r1, [r2, #304]
	ldr	r1, [r3, #3864]
	str	r1, [r2, #308]
	ldr	r1, [r3, #3868]
	str	r1, [r2, #336]
	ldr	r1, [r3, #3872]
	str	r1, [r2, #344]
.L577:
	ldrb	r3, [r6, r5, asl #3]	@ zero_extendqisi2
	sub	r3, r3, #1
	uxtb	r3, r3
	cmp	r3, #253
	bhi	.L576
	uxtb	r0, r5
	bl	FlashReset
.L576:
	add	r5, r5, #1
	cmp	r5, #4
	bne	.L577
	ldr	r5, .L584+8
	ldrb	r3, [r5, #-3400]	@ zero_extendqisi2
	cmp	r3, #0
	beq	.L578
	mov	r0, #1
	bl	NandcSetMode
	ldrb	r0, [r5, #-3412]	@ zero_extendqisi2
	bl	FlashSetInterfaceMode
	ldrb	r0, [r5, #-3412]	@ zero_extendqisi2
	bl	NandcSetMode
	ldrb	r0, [r4, #3861]	@ zero_extendqisi2
	bl	NandcSetDdrPara
.L578:
	ldr	r3, [r4, #1784]
	ldmfd	sp!, {r4, r5, r6, lr}
	ldrb	r0, [r3, #20]	@ zero_extendqisi2
	b	FlashBchSel
.L585:
	.align	2
.L584:
	.word	.LANCHOR0
	.word	IDByte
	.word	.LANCHOR2
	.fnend
	.size	ftl_flash_resume, .-ftl_flash_resume
	.align	2
	.global	ftl_nandc_get_irq_status
	.type	ftl_nandc_get_irq_status, %function
ftl_nandc_get_irq_status:
	.fnstart
	@ args = 0, pretend = 0, frame = 0
	@ frame_needed = 0, uses_anonymous_args = 0
	@ link register save eliminated.
	ldr	r0, [r0, #372]
	bx	lr
	.fnend
	.size	ftl_nandc_get_irq_status, .-ftl_nandc_get_irq_status
	.align	2
	.global	NandcIqrWaitFlashReady
	.type	NandcIqrWaitFlashReady, %function
NandcIqrWaitFlashReady:
	.fnstart
	@ args = 0, pretend = 0, frame = 0
	@ frame_needed = 0, uses_anonymous_args = 0
	stmfd	sp!, {r4, lr}
	.save {r4, lr}
	mov	r4, r0
	bl	rk_nandc_rb_irq_flag_init
	ldr	r3, [r4, #368]
	orr	r3, r3, #2
	str	r3, [r4, #368]
	ldr	r3, [r4, #364]
	orr	r3, r3, #2
	str	r3, [r4, #364]
	ldr	r3, [r4]
	tst	r3, #512
	bne	.L588
	mov	r0, r4
	ldmfd	sp!, {r4, lr}
	b	wait_for_nand_flash_ready
.L588:
	ldr	r3, [r4, #368]
	orr	r3, r3, #2
	str	r3, [r4, #368]
	ldr	r3, [r4, #364]
	bic	r3, r3, #2
	str	r3, [r4, #364]
	ldmfd	sp!, {r4, pc}
	.fnend
	.size	NandcIqrWaitFlashReady, .-NandcIqrWaitFlashReady
	.align	2
	.global	FlashEraseBlocks
	.type	FlashEraseBlocks, %function
FlashEraseBlocks:
	.fnstart
	@ args = 0, pretend = 0, frame = 24
	@ frame_needed = 0, uses_anonymous_args = 0
	stmfd	sp!, {r4, r5, r6, r7, r8, r9, r10, fp, lr}
	.save {r4, r5, r6, r7, r8, r9, r10, fp, lr}
	mov	r8, r2
	ldr	r4, .L627
	.pad #36
	sub	sp, sp, #36
	ldr	r3, .L627+4
	mov	r9, r0
	mov	r10, r1
	ldrb	r5, [r4]	@ zero_extendqisi2
	ldr	r2, [r3]
	cmp	r5, #0
	str	r3, [sp, #12]
	str	r2, [sp, #28]
	beq	.L591
	mov	r1, r8
	bl	FlashEraseSLc2KBlocks
	b	.L592
.L600:
	mov	r3, #36
	mov	r1, #0
	mul	fp, r3, r5
	rsb	r3, r5, r8
	add	r2, sp, #20
	uxtb	r3, r3
	str	r3, [sp]
	add	r6, r9, fp
	add	r3, sp, #24
	mov	r0, r6
	bl	LogAddr2PhyAddr
	ldrb	r3, [r4, #1612]	@ zero_extendqisi2
	mov	r7, r0
	ldr	r0, [sp, #24]
	cmp	r0, r3
	mvncs	r3, #0
	strcs	r3, [r9, fp]
	bcc	.L624
.L594:
	add	r5, r5, #1
.L591:
	cmp	r5, r8
	bcc	.L600
	b	.L625
.L624:
	ldr	r3, .L627+8
	ldrb	r3, [r3, #-3340]	@ zero_extendqisi2
	cmp	r3, #0
	add	r3, r4, r0, asl #4
	ldr	r3, [r3, #1664]
	moveq	r7, #0
	cmp	r3, #0
	beq	.L596
	uxtb	r0, r0
	bl	FlashWaitCmdDone
.L596:
	ldr	r2, [sp, #24]
	mov	r0, #0
	cmp	r7, #0
	addne	ip, fp, #36
	mov	r3, r2, asl #4
	add	r2, r4, r2
	add	r1, r4, r3
	add	r3, r4, r3
	addne	ip, r9, ip
	str	r0, [r1, #1668]
	str	r6, [r1, #1664]
	ldr	r0, [sp, #20]
	ldrb	r6, [r2, #1616]	@ zero_extendqisi2
	strne	ip, [r1, #1668]
	str	r0, [r1, #1660]
	strb	r6, [r3, #1656]
	mov	r0, r6
	bl	NandcFlashCs
	cmp	r10, #1
	mov	r0, r6
	bne	.L598
	ldr	r3, .L627
	ldrb	r3, [r3, #3904]	@ zero_extendqisi2
	cmp	r3, #0
	beq	.L598
	bl	flash_enter_slc_mode
	b	.L599
.L598:
	bl	flash_exit_slc_mode
.L599:
	ldr	r3, [sp, #24]
	mov	r0, r6
	ldr	r1, [sp, #20]
	add	r5, r5, r7
	add	r3, r4, r3, asl #2
	ldr	r2, [r3, #1624]
	adds	r2, r2, #0
	movne	r2, #1
	bl	FlashWaitReadyEN
	mov	r0, r6
	mov	r2, r7
	ldr	r1, [sp, #20]
	bl	FlashEraseCmd
	mov	r0, r6
	bl	NandcFlashDeCs
	b	.L594
.L625:
	ldr	r0, [r4, #3840]
	mov	r5, #0
	bl	NandcIqrWaitFlashReady
	ldr	r6, .L627
	ldr	r7, .L627+12
.L601:
	ldrb	r3, [r4, #1612]	@ zero_extendqisi2
	cmp	r5, r3
	bcs	.L626
	uxtb	r0, r5
	bl	FlashWaitCmdDone
	cmp	r10, #1
	bne	.L602
	ldrb	r3, [r6, #3904]	@ zero_extendqisi2
	cmp	r3, #0
	beq	.L602
	ldrb	r0, [r7, r5, asl #4]	@ zero_extendqisi2
	bl	flash_exit_slc_mode
.L602:
	add	r5, r5, #1
	b	.L601
.L626:
	ldr	r3, .L627+8
	ldr	r3, [r3, #-3336]
	cmp	r3, #0
	bne	.L604
.L606:
	mov	r0, #0
	b	.L592
.L604:
	ldr	r3, .L627+16
	ldrb	r3, [r3]	@ zero_extendqisi2
	cmp	r3, #69
	bne	.L606
	mov	r3, #0
	mov	r2, #36
	mov	r1, r3
.L605:
	cmp	r3, r8
	beq	.L606
	mul	r0, r2, r3
	add	r3, r3, #1
	str	r1, [r9, r0]
	b	.L605
.L592:
	ldr	r3, [sp, #12]
	ldr	r2, [sp, #28]
	ldr	r3, [r3]
	cmp	r2, r3
	beq	.L608
	bl	__stack_chk_fail
.L608:
	add	sp, sp, #36
	@ sp needed
	ldmfd	sp!, {r4, r5, r6, r7, r8, r9, r10, fp, pc}
.L628:
	.align	2
.L627:
	.word	.LANCHOR0
	.word	__stack_chk_guard
	.word	.LANCHOR2
	.word	.LANCHOR0+1656
	.word	IDByte
	.fnend
	.size	FlashEraseBlocks, .-FlashEraseBlocks
	.align	2
	.global	NandcSendDumpDataStart
	.type	NandcSendDumpDataStart, %function
NandcSendDumpDataStart:
	.fnstart
	@ args = 0, pretend = 0, frame = 8
	@ frame_needed = 0, uses_anonymous_args = 0
	@ link register save eliminated.
	ldr	r2, [r0, #16]
	.pad #8
	sub	sp, sp, #8
	ldr	r3, .L631
	str	r2, [sp, #4]
	ldr	r2, [sp, #4]
	bic	r2, r2, #4
	str	r2, [sp, #4]
	ldr	r2, [sp, #4]
	str	r2, [r0, #16]
	str	r3, [r0, #8]
	orr	r3, r3, #4
	str	r3, [r0, #8]
	add	sp, sp, #8
	@ sp needed
	bx	lr
.L632:
	.align	2
.L631:
	.word	538969130
	.fnend
	.size	NandcSendDumpDataStart, .-NandcSendDumpDataStart
	.align	2
	.global	NandcSendDumpDataDone
	.type	NandcSendDumpDataDone, %function
NandcSendDumpDataDone:
	.fnstart
	@ args = 0, pretend = 0, frame = 8
	@ frame_needed = 0, uses_anonymous_args = 0
	@ link register save eliminated.
	.pad #8
	sub	sp, sp, #8
.L634:
	ldr	r3, [r0, #8]
	str	r3, [sp, #4]
	ldr	r3, [sp, #4]
	tst	r3, #1048576
	beq	.L634
	add	sp, sp, #8
	@ sp needed
	bx	lr
	.fnend
	.size	NandcSendDumpDataDone, .-NandcSendDumpDataDone
	.align	2
	.global	NandcXferStart
	.type	NandcXferStart, %function
NandcXferStart:
	.fnstart
	@ args = 8, pretend = 0, frame = 24
	@ frame_needed = 0, uses_anonymous_args = 0
	stmfd	sp!, {r4, r5, r6, r7, r8, r9, r10, fp, lr}
	.save {r4, r5, r6, r7, r8, r9, r10, fp, lr}
	mov	r4, #0
	ldr	lr, .L656
	.pad #28
	sub	sp, sp, #28
	ldr	r5, .L656+4
	add	r0, lr, r0, asl #3
	mov	lr, #16
	ldr	r8, [sp, #64]
	ldr	r6, [r0, #12]
	ldrb	r0, [r0, #16]	@ zero_extendqisi2
	ldr	ip, [sp, #68]
	ldr	r7, [r6, #12]
	bfi	r7, lr, #8, #8
	bfi	r7, r4, #3, #1
	bfi	r4, r1, #1, #1
	orr	r4, r4, #8
	bfi	r7, r0, #5, #3
	mov	r0, #1
	bfi	r4, r0, #5, #2
	orr	r4, r4, #536870912
	mov	r3, r3, lsr r0
	orr	r4, r4, #1024
	bfi	r4, r3, #4, #1
	ldr	r3, [r5, #-3392]
	cmp	r3, #3
	bls	.L639
	ldr	r3, [r6, #16]
	str	r3, [sp, #20]
	ldr	r3, [sp, #20]
	bic	r3, r3, #4
	str	r3, [sp, #20]
	adds	r3, ip, #0
	movne	r3, #1
	cmp	ip, #0
	cmpeq	r8, #0
	str	r3, [sp, #8]
	beq	.L640
	cmp	r1, #0
	bne	.L641
.L649:
	mov	r0, r6
	mov	r10, r2
	mov	r9, r1
	bl	rk_nandc_xfer_irq_flag_init
	ldr	r3, [r6, #368]
	add	r10, r10, #1
	cmp	r8, #0
	orr	r3, r3, #1
	str	r3, [r6, #368]
	ldr	r3, [r6, #364]
	mov	r10, r10, asr #1
	bfi	r4, r10, #22, #6
	movne	r0, r8
	orr	r3, r3, #1
	str	r3, [r6, #364]
	ldreq	r0, [r5, #-3380]
	b	.L643
.L641:
	ldr	r3, [r5, #-3344]
	mov	r9, r5
	cmp	r3, #25
	movcc	r3, #64
	movcs	r3, #128
	str	r3, [sp, #4]
	mov	r3, r2, lsr #1
	str	r3, [sp, #12]
	mov	r3, #0
	mov	r0, r3
.L645:
	ldr	lr, [sp, #12]
	cmp	r0, lr
	bcs	.L649
	ldr	lr, [sp, #8]
	mov	r10, r3, lsr #2
	add	r0, r0, #1
	cmp	lr, #0
	ldrneh	fp, [ip, #2]
	mvneq	fp, #0
	ldrneh	lr, [ip], #4
	ldreq	lr, [r9, #-3376]
	orrne	lr, lr, fp, asl #16
	ldrne	fp, [r9, #-3376]
	streq	fp, [lr, r10, asl #2]
	strne	lr, [fp, r10, asl #2]
	ldr	lr, [sp, #4]
	add	r3, r3, lr
	b	.L645
.L643:
	ldr	r3, [r5, #-3376]
	ubfx	r10, r4, #22, #5
	mov	r2, r9
	str	r0, [r5, #-3372]
	mov	r1, r10, asl #10
	str	r3, [r5, #-3368]
	bl	rknand_dma_map_single
	mov	r2, r9
	mov	r1, r10, asl #7
	clz	r9, r9
	mov	r9, r9, lsr #5
	str	r0, [r5, #-3364]
	ldr	r0, [r5, #-3368]
	bl	rknand_dma_map_single
	mov	r3, #1
	str	r3, [r5, #-3356]
	tst	r8, #3
	ldr	r3, [r5, #-3364]
	str	r0, [r5, #-3360]
	str	r3, [r6, #20]
	ldr	r3, [r5, #-3360]
	str	r3, [r6, #24]
	mov	r3, #0
	str	r3, [sp, #20]
	ldr	r3, [sp, #20]
	bic	r3, r3, #15872
	orr	r3, r3, #8192
	str	r3, [sp, #20]
	ldr	r3, [sp, #20]
	orr	r3, r3, #448
	str	r3, [sp, #20]
	ldreq	r3, [sp, #20]
	biceq	r3, r3, #56
	orreq	r3, r3, #16
	streq	r3, [sp, #20]
	ldr	r3, [sp, #20]
	orr	r3, r3, #4
	str	r3, [sp, #20]
	ldr	r3, [sp, #20]
	bic	r3, r3, #2
	orr	r9, r3, r9, asl #1
	str	r9, [sp, #20]
	ldr	r3, [sp, #20]
	orr	r3, r3, #1
	str	r3, [sp, #20]
.L640:
	ldr	r3, [sp, #20]
	str	r3, [r6, #16]
.L639:
	str	r7, [r6, #12]
	str	r4, [r6, #8]
	orr	r4, r4, #4
	str	r4, [r6, #8]
	add	sp, sp, #28
	@ sp needed
	ldmfd	sp!, {r4, r5, r6, r7, r8, r9, r10, fp, pc}
.L657:
	.align	2
.L656:
	.word	.LANCHOR0
	.word	.LANCHOR2
	.fnend
	.size	NandcXferStart, .-NandcXferStart
	.align	2
	.global	NandcXferComp
	.type	NandcXferComp, %function
NandcXferComp:
	.fnstart
	@ args = 0, pretend = 0, frame = 8
	@ frame_needed = 0, uses_anonymous_args = 0
	stmfd	sp!, {r0, r1, r4, r5, r6, lr}
	.save {r4, r5, r6, lr}
	.pad #8
	ldr	r5, .L698
	ldr	r3, .L698+4
	add	r0, r3, r0, asl #3
	ldr	r3, [r5, #-3392]
	cmp	r3, #3
	ldr	r4, [r0, #12]
	bls	.L689
	ldr	r3, [r4, #16]
	tst	r3, #4
	beq	.L689
	mov	r0, r4
	bl	wait_for_nandc_xfer_completed
	ldr	r6, [r4, #16]
	ldr	r3, [r4, #8]
	ubfx	r6, r6, #1, #1
	cmp	r6, #0
	movne	r6, #0
	str	r3, [sp]
	beq	.L671
.L661:
	ldr	r2, [r4, #28]
	ldr	r3, [sp]
	ubfx	r2, r2, #16, #5
	ubfx	r3, r3, #22, #6
	cmp	r2, r3
	bge	.L669
	ldr	r3, [r5, #-3392]
	cmp	r3, #5
	bhi	.L662
.L665:
	add	r6, r6, #1
	bic	r3, r6, #-16777216
	cmp	r3, #0
	bne	.L661
	ldr	r2, [r4, #28]
	mov	r1, r6
	ldr	r3, [sp]
	ubfx	r2, r2, #16, #5
	ldr	r0, .L698+8
	ubfx	r3, r3, #22, #6
	bl	printk
	ldr	r0, .L698+12
	mov	r1, r4
	mov	r2, #4
	mov	r3, #512
	bl	rknand_print_hex
	b	.L661
.L662:
	ldr	r3, [r4]
	str	r3, [sp, #4]
	ldr	r3, [sp, #4]
	tst	r3, #8192
	beq	.L665
	ldr	r3, [sp, #4]
	tst	r3, #131072
	beq	.L665
.L669:
	ldr	r3, [r5, #-3356]
	ldr	r4, .L698
	cmp	r3, #0
	beq	.L670
	ldr	r1, [sp]
	mov	r2, #0
	ldr	r0, [r4, #-3364]
	ubfx	r1, r1, #22, #5
	mov	r1, r1, asl #10
	bl	rknand_dma_unmap_single
	ldr	r0, [r4, #-3360]
	mov	r2, #0
	ldr	r1, [sp]
	ubfx	r1, r1, #22, #5
	mov	r1, r1, asl #7
	bl	rknand_dma_unmap_single
	b	.L670
.L673:
	ldr	r3, [r4, #8]
	add	r6, r6, #1
	str	r3, [sp]
	bic	r3, r6, #-16777216
	cmp	r3, #0
	bne	.L671
	ldr	r2, [sp]
	mov	r1, r6
	ldr	r3, [r4, #28]
	ldr	r0, .L698+16
	ubfx	r3, r3, #16, #5
	bl	printk
	ldr	r0, .L698+12
	mov	r1, r4
	mov	r2, #4
	mov	r3, #512
	bl	rknand_print_hex
.L671:
	ldr	r3, [sp]
	tst	r3, #1048576
	beq	.L673
	ldr	r3, [r5, #-3348]
	cmp	r3, #0
	beq	.L674
	mov	r0, r4
	bl	NandcSendDumpDataStart
.L674:
	ldr	r3, [r5, #-3356]
	ldr	r6, .L698
	cmp	r3, #0
	beq	.L675
	ldr	r1, [sp]
	mov	r2, #1
	ldr	r0, [r6, #-3364]
	ubfx	r1, r1, #22, #5
	mov	r1, r1, asl #10
	bl	rknand_dma_unmap_single
	ldr	r0, [r6, #-3360]
	mov	r2, #1
	ldr	r1, [sp]
	ubfx	r1, r1, #22, #5
	mov	r1, r1, asl #7
	bl	rknand_dma_unmap_single
.L675:
	ldr	r3, [r5, #-3348]
	cmp	r3, #0
	beq	.L670
	mov	r0, r4
	bl	NandcSendDumpDataDone
.L670:
	mov	r3, #0
	str	r3, [r5, #-3356]
	b	.L658
.L689:
	ldr	r3, [r4, #8]
	str	r3, [sp]
	ldr	r3, [sp]
	tst	r3, #1048576
	beq	.L689
.L658:
	add	sp, sp, #8
	@ sp needed
	ldmfd	sp!, {r4, r5, r6, pc}
.L699:
	.align	2
.L698:
	.word	.LANCHOR2
	.word	.LANCHOR0
	.word	.LC4
	.word	.LC5
	.word	.LC6
	.fnend
	.size	NandcXferComp, .-NandcXferComp
	.align	2
	.global	NandcCopy1KB
	.type	NandcCopy1KB, %function
NandcCopy1KB:
	.fnstart
	@ args = 4, pretend = 0, frame = 0
	@ frame_needed = 0, uses_anonymous_args = 0
	cmp	r1, #1
	stmfd	sp!, {r4, r5, r6, lr}
	.save {r4, r5, r6, lr}
	mov	r4, r2
	add	r2, r0, #4096
	ldr	r5, [sp, #16]
	add	r6, r0, #512
	add	r2, r2, r4, asl #9
	bne	.L701
	cmp	r3, #0
	beq	.L702
	mov	r0, r2
	mov	r1, r3
	mov	r2, #1024
	bl	ftl_memcpy
.L702:
	cmp	r5, #0
	ldmeqfd	sp!, {r4, r5, r6, pc}
	ldrb	r3, [r5, #2]	@ zero_extendqisi2
	mov	r4, r4, lsr #1
	ldrb	r2, [r5, #1]	@ zero_extendqisi2
	add	r4, r4, r4, asl #1
	mov	r3, r3, asl #16
	orr	r2, r3, r2, asl #8
	ldrb	r3, [r5]	@ zero_extendqisi2
	orr	r3, r2, r3
	ldrb	r2, [r5, #3]	@ zero_extendqisi2
	orr	r3, r3, r2, asl #24
	str	r3, [r6, r4, asl #4]
	ldmfd	sp!, {r4, r5, r6, pc}
.L701:
	cmp	r3, #0
	beq	.L705
	mov	r1, r2
	mov	r0, r3
	mov	r2, #1024
	bl	ftl_memcpy
.L705:
	cmp	r5, #0
	ldmeqfd	sp!, {r4, r5, r6, pc}
	mov	r4, r4, lsr #1
	add	r4, r4, r4, asl #1
	ldr	r3, [r6, r4, asl #4]
	mov	r2, r3, lsr #8
	strb	r3, [r5]
	strb	r2, [r5, #1]
	mov	r2, r3, lsr #16
	mov	r3, r3, lsr #24
	strb	r2, [r5, #2]
	strb	r3, [r5, #3]
	ldmfd	sp!, {r4, r5, r6, pc}
	.fnend
	.size	NandcCopy1KB, .-NandcCopy1KB
	.align	2
	.global	NandcXferData
	.type	NandcXferData, %function
NandcXferData:
	.fnstart
	@ args = 4, pretend = 0, frame = 88
	@ frame_needed = 0, uses_anonymous_args = 0
	stmfd	sp!, {r4, r5, r6, r7, r8, r9, r10, fp, lr}
	.save {r4, r5, r6, r7, r8, r9, r10, fp, lr}
	mov	fp, r3
	ldr	r3, .L766
	mov	r8, r2
	ldr	r4, .L766+4
	.pad #100
	sub	sp, sp, #100
	tst	fp, #63
	mov	r10, r0
	ldr	r2, [r3]
	add	ip, r4, r0, asl #3
	mov	r7, r1
	ldr	r5, [sp, #136]
	ldr	r9, [ip, #12]
	str	r2, [sp, #92]
	str	r3, [sp, #16]
	bne	.L718
	cmp	r5, #0
	bne	.L719
	add	r0, sp, #28
	mov	r1, #255
	mov	r2, #64
	bl	ftl_memset
	add	r5, sp, #28
.L719:
	mov	r0, r10
	mov	r1, r7
	mov	r2, r8
	mov	r3, #0
	str	fp, [sp]
	str	r5, [sp, #4]
	bl	NandcXferStart
	mov	r0, r10
	bl	NandcXferComp
	cmp	r7, #0
	movne	r6, #0
	bne	.L720
	ldr	r4, .L766+8
	mov	r1, r8, lsr #1
	mov	r2, r7
	ldr	r3, [r4, #-3344]
	cmp	r3, #25
	mov	r3, r7
	movcc	r0, #64
	movcs	r0, #128
.L722:
	cmp	r2, r1
	add	r5, r5, #4
	add	ip, r3, r0
	bcs	.L764
	ldr	lr, [r4, #-3376]
	mov	r3, r3, lsr #2
	add	r2, r2, #1
	ldr	r3, [lr, r3, asl #2]
	mov	lr, r3, lsr #8
	strb	r3, [r5, #-4]
	strb	lr, [r5, #-3]
	mov	lr, r3, lsr #16
	mov	r3, r3, lsr #24
	strb	lr, [r5, #-2]
	strb	r3, [r5, #-1]
	mov	r3, ip
	b	.L722
.L764:
	ldr	r0, [r4, #-3344]
	mov	r2, #0
	ldr	r1, [r4, #-3392]
	mov	r8, r8, lsr #2
	mov	r6, r2
.L724:
	cmp	r2, r8
	bcs	.L720
	cmp	r0, #0
	beq	.L720
	add	r3, r2, #8
	ldr	r3, [r9, r3, asl #2]
	str	r3, [sp, #24]
	ldr	r3, [sp, #24]
	tst	r3, #4
	bne	.L749
	ldr	r4, [sp, #24]
	ubfx	r4, r4, #15, #1
	cmp	r4, #0
	bne	.L749
	cmp	r1, #5
	bls	.L726
	ldr	ip, [sp, #24]
	ldr	r4, [sp, #24]
	ldr	r3, [sp, #24]
	ubfx	ip, ip, #3, #5
	ldr	lr, [sp, #24]
	ubfx	r4, r4, #27, #1
	ubfx	r3, r3, #16, #5
	ubfx	lr, lr, #29, #1
	orr	ip, ip, r4, asl #5
	orr	r3, r3, lr, asl #5
	cmp	ip, r3
	ldr	r3, [sp, #24]
	ldrhi	r4, [sp, #24]
	ubfxhi	r3, r3, #3, #5
	ldrls	r4, [sp, #24]
	ubfxls	r3, r3, #16, #5
	ubfxhi	r4, r4, #27, #1
	ubfxls	r4, r4, #29, #1
	b	.L763
.L726:
	cmp	r1, #3
	bls	.L728
	ldr	ip, [sp, #24]
	ldr	r4, [sp, #24]
	ldr	r3, [sp, #24]
	ubfx	ip, ip, #3, #5
	ldr	lr, [sp, #24]
	ubfx	r4, r4, #28, #1
	ubfx	r3, r3, #16, #5
	ubfx	lr, lr, #30, #1
	orr	ip, ip, r4, asl #5
	orr	r3, r3, lr, asl #5
	cmp	ip, r3
	bls	.L729
	ldr	r3, [sp, #24]
	ldr	r4, [sp, #24]
	ubfx	r3, r3, #3, #5
	ubfx	r4, r4, #28, #1
.L763:
	orr	r4, r3, r4, asl #5
	b	.L728
.L729:
	ldr	r5, [sp, #24]
	ldr	r4, [sp, #24]
	ubfx	r5, r5, #16, #5
	ubfx	r4, r4, #30, #1
	orr	r4, r5, r4, asl #5
.L728:
	cmp	r6, r4
	movcc	r6, r4
	b	.L725
.L749:
	mvn	r6, #0
.L725:
	add	r2, r2, #1
	b	.L724
.L720:
	mov	r3, #0
	str	r3, [r9, #16]
	b	.L731
.L718:
	cmp	r1, #1
	mov	r4, #0
	bne	.L761
	mov	r6, r4
.L732:
	cmp	r4, r8
	bcs	.L765
	cmp	fp, #0
	and	ip, r4, #3
	addne	r3, fp, r4, asl #9
	mov	r0, r9
	moveq	r3, fp
	cmp	r5, #0
	mov	r1, #1
	str	ip, [sp, #12]
	movne	r2, #2
	moveq	r2, #0
	mla	r2, r4, r2, r5
	add	r4, r4, #2
	str	r2, [sp]
	mov	r2, ip
	bl	NandcCopy1KB
	mov	r0, r10
	mov	r1, #1
	mov	r2, #2
	ldr	ip, [sp, #12]
	str	r6, [sp]
	str	r6, [sp, #4]
	mov	r3, ip
	bl	NandcXferStart
	mov	r0, r10
	bl	NandcXferComp
	b	.L732
.L765:
	mov	r6, #0
	b	.L731
.L761:
	str	r4, [sp]
	mov	r1, r4
	str	r4, [sp, #4]
	mov	r2, #2
	mov	r3, r4
	mov	r6, r4
	bl	NandcXferStart
	str	fp, [sp, #12]
.L737:
	cmp	r4, r8
	bcs	.L731
	mov	r0, r10
	bl	NandcXferComp
	ldr	r3, [r9, #32]
	add	ip, r4, #2
	cmp	ip, r8
	str	r3, [sp, #24]
	bcs	.L738
	mov	r3, #0
	mov	r0, r10
	str	r3, [sp]
	mov	r1, r3
	str	r3, [sp, #4]
	mov	r2, #2
	and	r3, ip, #3
	str	ip, [sp, #20]
	bl	NandcXferStart
	ldr	ip, [sp, #20]
.L738:
	ldr	r3, [sp, #24]
	tst	r3, #4
	mvnne	r6, #0
	bne	.L739
	ldr	r2, [sp, #24]
	ldr	r3, [sp, #24]
	ubfx	r2, r2, #3, #5
	ubfx	r3, r3, #27, #1
	orr	r3, r2, r3, asl #5
	cmp	r6, r3
	movcc	r6, r3
.L739:
	cmp	fp, #0
	ldr	r3, [sp, #12]
	sub	r2, ip, #2
	mov	r0, r9
	moveq	r3, #0
	cmp	r5, #0
	and	r2, r2, #3
	str	ip, [sp, #20]
	movne	r1, #2
	moveq	r1, #0
	mla	r4, r4, r1, r5
	mov	r1, #0
	str	r4, [sp]
	bl	NandcCopy1KB
	ldr	ip, [sp, #20]
	ldr	r3, [sp, #12]
	mov	r4, ip
	add	r3, r3, #1024
	str	r3, [sp, #12]
	b	.L737
.L731:
	ldr	r3, .L766+8
	clz	r7, r7
	mov	r7, r7, lsr #5
	ldr	r3, [r3, #-3392]
	cmp	r3, #5
	movls	r7, #0
	cmp	r7, #0
	beq	.L743
	ldr	r3, [r9]
	and	r2, r3, #139264
	cmp	r2, #139264
	orreq	r3, r3, #131072
	streq	r3, [r9]
	mvneq	r6, #0
.L743:
	ldr	r3, [sp, #16]
	mov	r0, r6
	ldr	r2, [sp, #92]
	ldr	r3, [r3]
	cmp	r2, r3
	beq	.L745
	bl	__stack_chk_fail
.L745:
	add	sp, sp, #100
	@ sp needed
	ldmfd	sp!, {r4, r5, r6, r7, r8, r9, r10, fp, pc}
.L767:
	.align	2
.L766:
	.word	__stack_chk_guard
	.word	.LANCHOR0
	.word	.LANCHOR2
	.fnend
	.size	NandcXferData, .-NandcXferData
	.align	2
	.global	FlashReadRawPage
	.type	FlashReadRawPage, %function
FlashReadRawPage:
	.fnstart
	@ args = 0, pretend = 0, frame = 0
	@ frame_needed = 0, uses_anonymous_args = 0
	stmfd	sp!, {r0, r1, r4, r5, r6, r7, r8, lr}
	.save {r4, r5, r6, r7, r8, lr}
	.pad #8
	mov	r8, r3
	ldr	r3, .L771
	subs	r4, r0, #0
	mov	r6, r1
	mov	r7, r2
	ldrb	r5, [r3, #265]	@ zero_extendqisi2
	bne	.L769
	ldr	r2, .L771+4
	ldrb	r3, [r2, #1]	@ zero_extendqisi2
	ldr	r2, [r2, #4]
	mul	r2, r2, r3
	cmp	r1, r2
	movcc	r5, #4
.L769:
	mov	r0, r4
	bl	NandcWaitFlashReady
	mov	r0, r4
	bl	NandcFlashCs
	mov	r1, r6
	mov	r0, r4
	bl	FlashReadCmd
	mov	r0, r4
	bl	NandcWaitFlashReady
	mov	r2, r5
	mov	r1, #0
	mov	r3, r7
	mov	r0, r4
	str	r8, [sp]
	bl	NandcXferData
	mov	r5, r0
	mov	r0, r4
	bl	NandcFlashDeCs
	mov	r0, r5
	add	sp, sp, #8
	@ sp needed
	ldmfd	sp!, {r4, r5, r6, r7, r8, pc}
.L772:
	.align	2
.L771:
	.word	.LANCHOR1
	.word	.LANCHOR0
	.fnend
	.size	FlashReadRawPage, .-FlashReadRawPage
	.align	2
	.global	FlashDdrTunningRead
	.type	FlashDdrTunningRead, %function
FlashDdrTunningRead:
	.fnstart
	@ args = 4, pretend = 0, frame = 16
	@ frame_needed = 0, uses_anonymous_args = 0
	stmfd	sp!, {r4, r5, r6, r7, r8, r9, r10, fp, lr}
	.save {r4, r5, r6, r7, r8, r9, r10, fp, lr}
	mov	r7, r3
	ldr	r5, .L800
	.pad #20
	sub	sp, sp, #20
	ldr	r4, .L800+4
	mov	r10, r0
	str	r1, [sp]
	mov	fp, r2
	ldr	r3, [r5, #3840]
	ldr	r3, [r3, #304]
	str	r3, [sp, #8]
	ldr	r3, [r4, #-3392]
	cmp	r3, #8
	ldr	r3, [sp, #56]
	movcc	r9, #6
	movcs	r9, #12
	cmp	r3, #0
	moveq	r6, #1024
	beq	.L775
	mov	r0, #1
	bl	FlashSetInterfaceMode
	mov	r0, #1
	bl	NandcSetMode
	mov	r0, r10
	bl	FlashReset
	mov	r2, fp
	mov	r3, r7
	mov	r0, r10
	ldr	r1, [sp]
	bl	FlashReadRawPage
	mov	r6, r0
	ldrb	r0, [r4, #-3412]	@ zero_extendqisi2
	bl	FlashSetInterfaceMode
	ldrb	r0, [r4, #-3412]	@ zero_extendqisi2
	bl	NandcSetMode
	cmn	r6, #1
	bne	.L776
.L785:
	mvn	r6, #0
	b	.L777
.L776:
	mov	r2, r6
	ldr	r0, .L800+8
	ldr	r1, [sp]
	bl	printk
	cmp	r6, #9
	addls	r5, r5, r10, asl #3
	ldrls	r3, [r5, #12]
	ldrls	r2, [r3, #3840]
	ldrls	r2, [r3]
	orrls	r2, r2, #131072
	strls	r2, [r3]
	ldr	r3, [r4, #-3332]
	add	r3, r3, #1
	str	r3, [r4, #-3332]
	cmp	r3, #2048
	bcc	.L777
	ldr	r3, .L800+4
	mov	r7, #0
	mov	fp, r7
	str	r7, [r3, #-3332]
.L775:
	mov	r4, #0
	mvn	r8, #0
	mov	ip, r4
	mov	r5, r4
	str	r4, [sp, #4]
.L783:
	uxtb	r0, r9
	str	ip, [sp, #12]
	bl	NandcSetDdrPara
	mov	r3, r7
	mov	r0, r10
	mov	r2, fp
	ldr	r1, [sp]
	bl	FlashReadRawPage
	add	r3, r6, #1
	cmp	r0, r3
	ldr	ip, [sp, #12]
	bhi	.L779
	cmp	r0, #2
	bhi	.L789
	add	r5, r5, #1
	cmp	r5, #9
	bls	.L789
	rsb	r4, r5, r9
	mov	r6, r0
	mov	r8, #0
	b	.L781
.L779:
	ldr	r3, [sp, #4]
	cmp	r3, r5
	bcs	.L790
	cmp	r5, #7
	rsb	ip, r5, r4
	bhi	.L791
	str	r5, [sp, #4]
	b	.L790
.L789:
	mov	r8, #0
	mov	r4, r9
	mov	r6, r0
	mov	r7, r8
	mov	fp, r8
	b	.L780
.L790:
	mov	r5, #0
.L780:
	add	r9, r9, #2
	cmp	r9, #69
	bls	.L783
.L781:
	ldr	r3, [sp, #4]
	cmp	r3, r5
	movcs	r4, ip
	b	.L782
.L791:
	mov	r4, ip
.L782:
	cmp	r4, #0
	beq	.L784
	ldr	r0, .L800+12
	mov	r1, r4
	bl	printk
	uxtb	r0, r4
	bl	NandcSetDdrPara
.L784:
	cmn	r8, #1
	bne	.L777
	ldr	r0, .L800+16
	mov	r1, r10
	ldr	r2, [sp]
	bl	printk
	ldr	r3, [sp, #56]
	cmp	r3, #0
	beq	.L785
	ldr	r3, [sp, #8]
	ubfx	r0, r3, #8, #8
	bl	NandcSetDdrPara
.L777:
	mov	r0, r6
	add	sp, sp, #20
	@ sp needed
	ldmfd	sp!, {r4, r5, r6, r7, r8, r9, r10, fp, pc}
.L801:
	.align	2
.L800:
	.word	.LANCHOR0
	.word	.LANCHOR2
	.word	.LC7
	.word	.LC8
	.word	.LC9
	.fnend
	.size	FlashDdrTunningRead, .-FlashDdrTunningRead
	.align	2
	.global	FlashReadPage
	.type	FlashReadPage, %function
FlashReadPage:
	.fnstart
	@ args = 0, pretend = 0, frame = 8
	@ frame_needed = 0, uses_anonymous_args = 0
	stmfd	sp!, {r4, r5, r6, r7, r8, r9, r10, fp, lr}
	.save {r4, r5, r6, r7, r8, r9, r10, fp, lr}
	.pad #20
	sub	sp, sp, #20
	mov	r5, r0
	mov	r6, r1
	mov	r8, r2
	mov	r7, r3
	bl	FlashReadRawPage
	ldr	r10, .L823
	cmn	r0, #1
	mov	r4, r0
	bne	.L803
	ldr	r9, .L823+4
	ldrb	fp, [r9, #8]	@ zero_extendqisi2
	mov	ip, r9
	cmp	fp, #0
	bne	.L804
.L806:
	ldrb	r3, [r10, #-3400]	@ zero_extendqisi2
	cmp	r3, #0
	beq	.L803
	b	.L822
.L804:
	mov	r3, #0
	mov	r0, r5
	strb	r3, [r9, #8]
	mov	r1, r6
	mov	r2, r8
	mov	r3, r7
	str	r9, [sp, #12]
	bl	FlashReadRawPage
	strb	fp, [r9, #8]
	cmn	r0, #1
	ldr	ip, [sp, #12]
	movne	r4, r0
	beq	.L806
	b	.L803
.L822:
	ldr	r3, [ip, #3840]
	mov	r0, r5
	mov	r1, r6
	mov	r2, r8
	ldr	r9, [r3, #304]
	mov	r3, #1
	str	r3, [sp]
	mov	r3, r7
	bl	FlashDdrTunningRead
	cmn	r0, #1
	mov	r4, r0
	beq	.L807
	ldr	r3, .L823+4
	ldrb	r3, [r3, #3905]	@ zero_extendqisi2
	cmp	r0, r3, lsr #1
	bls	.L803
.L807:
	ubfx	r0, r9, #8, #8
	bl	NandcSetDdrPara
.L803:
	ldr	ip, [r10, #-3328]
	adds	r3, ip, #0
	movne	r3, #1
	cmn	r4, #1
	movne	r3, #0
	cmp	r3, #0
	beq	.L808
	mov	r1, r6
	mov	r2, r8
	mov	r3, r7
	mov	r0, r5
	blx	ip
	mov	r2, r5
	mov	r3, r6
	mov	r4, r0
	ldr	r0, .L823+8
	mov	r1, r4
	bl	printk
	cmn	r4, #1
	bne	.L808
	ldr	r3, .L823+4
	ldrb	r3, [r3, #3904]	@ zero_extendqisi2
	cmp	r3, #0
	beq	.L808
	mov	r0, r5
	bl	flash_enter_slc_mode
	ldr	r3, .L823
	mov	r0, r5
	mov	r1, r6
	mov	r2, r8
	ldr	ip, [r3, #-3328]
	mov	r3, r7
	blx	ip
	mov	r4, r0
	mov	r0, r5
	bl	flash_exit_slc_mode
.L808:
	mov	r0, r4
	add	sp, sp, #20
	@ sp needed
	ldmfd	sp!, {r4, r5, r6, r7, r8, r9, r10, fp, pc}
.L824:
	.align	2
.L823:
	.word	.LANCHOR2
	.word	.LANCHOR0
	.word	.LC10
	.fnend
	.size	FlashReadPage, .-FlashReadPage
	.align	2
	.global	FlashDdrParaScan
	.type	FlashDdrParaScan, %function
FlashDdrParaScan:
	.fnstart
	@ args = 0, pretend = 0, frame = 0
	@ frame_needed = 0, uses_anonymous_args = 0
	stmfd	sp!, {r0, r1, r4, r5, r6, r7, r8, lr}
	.save {r4, r5, r6, r7, r8, lr}
	.pad #8
	mov	r7, r0
	ldr	r5, .L835
	mov	r6, r1
	mov	r4, #0
	ldrb	r0, [r5, #-3412]	@ zero_extendqisi2
	bl	FlashSetInterfaceMode
	ldrb	r0, [r5, #-3412]	@ zero_extendqisi2
	bl	NandcSetMode
	mov	r1, r6
	mov	r2, r4
	mov	r3, r4
	mov	r0, r7
	str	r4, [sp]
	bl	FlashDdrTunningRead
	mov	r3, r4
	mov	r1, r6
	mov	r2, r4
	mov	r8, r0
	mov	r0, r7
	bl	FlashReadRawPage
	mov	r3, r5
	cmn	r0, #1
	cmnne	r8, #1
	bne	.L826
	ldrb	r2, [r5, #-3412]	@ zero_extendqisi2
	tst	r2, #1
	beq	.L826
	mov	r0, #1
	bl	FlashSetInterfaceMode
	mov	r0, #1
	bl	NandcSetMode
	strb	r4, [r5, #-3400]
	b	.L827
.L826:
	mov	r2, #1
	strb	r2, [r3, #-3400]
.L827:
	mov	r0, #0
	add	sp, sp, #8
	@ sp needed
	ldmfd	sp!, {r4, r5, r6, r7, r8, pc}
.L836:
	.align	2
.L835:
	.word	.LANCHOR2
	.fnend
	.size	FlashDdrParaScan, .-FlashDdrParaScan
	.align	2
	.global	FlashLoadPhyInfo
	.type	FlashLoadPhyInfo, %function
FlashLoadPhyInfo:
	.fnstart
	@ args = 0, pretend = 0, frame = 16
	@ frame_needed = 0, uses_anonymous_args = 0
	stmfd	sp!, {r4, r5, r6, r7, r8, r9, r10, fp, lr}
	.save {r4, r5, r6, r7, r8, r9, r10, fp, lr}
	.pad #20
	sub	sp, sp, #20
	ldr	r10, .L854
	mov	r6, #0
	ldr	r8, .L854+4
	mov	r4, r6
	ldr	r5, .L854+8
	mov	r9, #4
	ldr	r3, [r10]
	mvn	r7, #0
	str	r6, [r5, #-3320]
	str	r3, [sp, #12]
	ldr	r3, .L854+12
	ldr	r0, [r3]	@ unaligned
	ldr	r3, [r8, #4]
	str	r0, [sp, #8]	@ unaligned
	mov	r0, r6
	str	r3, [sp]
	mov	r6, r5
	ldr	r3, [r5, #-3408]
	str	r3, [r5, #-3324]
	bl	flash_enter_slc_mode
	str	r10, [sp, #4]
.L838:
	add	fp, r4, #1
	mov	r10, #0
.L840:
	add	r3, sp, #8
	ldrb	r0, [r3, r10]	@ zero_extendqisi2
	bl	FlashBchSel
	mov	r0, #0
	mov	r1, r4
	ldr	r2, [r5, #-3408]
	mov	r3, r0
	bl	FlashReadRawPage
	cmn	r0, #1
	bne	.L839
	mov	r0, #0
	mov	r1, fp
	ldr	r2, [r6, #-3408]
	mov	r3, r0
	bl	FlashReadRawPage
	cmn	r0, #1
	bne	.L839
	add	r10, r10, #1
	cmp	r10, #4
	beq	.L841
	b	.L840
.L842:
	add	r0, fp, #12
	movw	r1, #2036
	bl	js_hash
	ldr	r3, [fp, #8]
	cmp	r3, r0
	mvnne	r7, #0
	bne	.L841
	ldr	r7, .L854+16
	add	r1, fp, #160
	mov	r2, #32
	mov	r0, r7
	bl	ftl_memcpy
	ldr	r1, [r6, #-3324]
	mov	r2, #32
	ldr	r0, .L854+20
	add	r1, r1, #192
	bl	ftl_memcpy
	ldr	r1, [r6, #-3324]
	mov	r2, #852
	ldr	r0, .L854+24
	add	r1, r1, #224
	bl	ftl_memcpy
	ldrh	r0, [r7, #10]
	bl	FlashBlockAlignInit
	ldr	r7, [r6, #-3324]
	str	r4, [r6, #-3320]
	mov	r0, r4
	ldr	r1, [r8, #4]
	ldr	r3, [r7, #1076]
	strb	r3, [r6, #-3400]
	bl	__aeabi_uidiv
	add	r0, r0, #1
	cmp	r0, #1
	strhi	r0, [r6, #-3316]
	movls	r3, #2
	strls	r3, [r6, #-3316]
	ldrh	r3, [r7, #14]
	mov	r7, #0
	strb	r3, [r5, #-3312]
.L841:
	ldr	r3, [sp]
	subs	r9, r9, #1
	add	r4, r4, r3
	bne	.L838
	mov	r0, r9
.L853:
	bl	flash_exit_slc_mode
	mov	r0, r7
	ldr	r3, [sp, #4]
	ldr	r2, [sp, #12]
	ldr	r3, [r3]
	cmp	r2, r3
	beq	.L848
	bl	__stack_chk_fail
.L839:
	ldr	fp, [r5, #-3324]
	ldr	r2, .L854+28
	ldr	r3, [fp]
	cmp	r3, r2
	bne	.L841
	cmp	r7, #0
	bne	.L842
	mov	r0, r4
	ldr	r1, [r8, #4]
	bl	__aeabi_uidiv
	ldr	r3, .L854+8
	add	r0, r0, #1
	str	r0, [r3, #-3316]
	mov	r0, r7
	b	.L853
.L848:
	add	sp, sp, #20
	@ sp needed
	ldmfd	sp!, {r4, r5, r6, r7, r8, r9, r10, fp, pc}
.L855:
	.align	2
.L854:
	.word	__stack_chk_guard
	.word	.LANCHOR0
	.word	.LANCHOR2
	.word	.LANCHOR3
	.word	.LANCHOR1+256
	.word	.LANCHOR0+44
	.word	.LANCHOR0+3916
	.word	1312902724
	.fnend
	.size	FlashLoadPhyInfo, .-FlashLoadPhyInfo
	.align	2
	.global	ToshibaReadRetrial
	.type	ToshibaReadRetrial, %function
ToshibaReadRetrial:
	.fnstart
	@ args = 0, pretend = 0, frame = 24
	@ frame_needed = 0, uses_anonymous_args = 0
	stmfd	sp!, {r4, r5, r6, r7, r8, r9, r10, fp, lr}
	.save {r4, r5, r6, r7, r8, r9, r10, fp, lr}
	.pad #28
	sub	sp, sp, #28
	mov	r8, r0
	mov	fp, r3
	str	r2, [sp, #4]
	str	r1, [sp, #12]
	bl	NandcWaitFlashReady
	ldr	r2, .L885
	add	r3, r2, r8, asl #3
	ldr	r5, [r3, #12]
	ldrb	r9, [r3, #16]	@ zero_extendqisi2
	ldr	r3, .L885+4
	add	r6, r9, #8
	ldrb	r7, [r3]	@ zero_extendqisi2
	add	r6, r5, r6, asl #8
	sub	r4, r7, #67
	cmp	r4, #1
	str	r3, [sp, #8]
	movls	r3, #0
	str	r2, [sp, #16]
	strls	r3, [sp]
	bls	.L857
	ldr	r3, .L885+8
	ldrb	r4, [r3, #-3400]	@ zero_extendqisi2
	cmp	r4, #0
	streq	r4, [sp]
	beq	.L858
	mov	r0, #0
	bl	NandcSetDdrMode
	mov	r3, #1
	str	r3, [sp]
.L858:
	add	r3, r5, r9, asl #8
	mov	r2, #92
	str	r2, [r3, #2056]
	mov	r2, #197
	str	r2, [r3, #2056]
.L857:
	mov	r7, #1
	mvn	r10, #0
	mov	r3, r9, asl #8
	str	r3, [sp, #20]
.L859:
	ldr	r3, .L885+12
	ldrb	r3, [r3]	@ zero_extendqisi2
	add	r3, r3, #1
	cmp	r7, r3
	bcs	.L884
	ldr	r3, [sp, #8]
	mov	r0, r6
	uxtb	r1, r7
	ldrb	r3, [r3]	@ zero_extendqisi2
	sub	r3, r3, #67
	cmp	r3, #1
	bhi	.L860
	bl	SandiskSetRRPara
	b	.L861
.L860:
	bl	ToshibaSetRRPara
.L861:
	ldr	r3, [sp, #8]
	ldrb	r3, [r3]	@ zero_extendqisi2
	cmp	r3, #34
	bne	.L862
	ldr	r3, .L885+12
	ldrb	r3, [r3]	@ zero_extendqisi2
	sub	r3, r3, #3
	cmp	r7, r3
	ldreq	r3, [sp, #20]
	moveq	r2, #179
	addeq	r3, r5, r3
	streq	r2, [r3, #2056]
.L862:
	ldr	r3, [sp, #20]
	mov	r2, #38
	add	r3, r5, r3
	str	r2, [r3, #2056]
	mov	r2, #93
	str	r2, [r3, #2056]
	ldr	r3, [sp]
	cmp	r3, #0
	beq	.L863
	mov	r0, #4
	bl	NandcSetDdrMode
	mov	r0, r8
	mov	r3, fp
	ldr	r1, [sp, #12]
	ldr	r2, [sp, #4]
	bl	FlashReadRawPage
	mov	r4, r0
	mov	r0, #0
	bl	NandcSetDdrMode
	b	.L864
.L863:
	mov	r0, r8
	ldr	r1, [sp, #12]
	ldr	r2, [sp, #4]
	mov	r3, fp
	bl	FlashReadRawPage
	mov	r4, r0
.L864:
	cmn	r4, #1
	beq	.L865
	ldr	r3, [sp, #16]
	cmn	r10, #1
	moveq	r10, r4
	ldrb	r2, [r3, #3905]	@ zero_extendqisi2
	add	r2, r2, r2, asl #1
	cmp	r4, r2, asr #2
	bcc	.L867
	mov	fp, #0
	str	fp, [sp, #4]
.L865:
	add	r7, r7, #1
	b	.L859
.L884:
	mov	r4, r10
.L867:
	ldr	r3, [sp, #8]
	mov	r0, r6
	mov	r1, #0
	ldrb	r2, [r3]	@ zero_extendqisi2
	sub	r2, r2, #67
	cmp	r2, #1
	bhi	.L869
	bl	SandiskSetRRPara
	b	.L870
.L869:
	bl	ToshibaSetRRPara
.L870:
	ldr	r3, [sp, #16]
	add	r5, r5, r9, asl #8
	mov	r2, #255
	str	r2, [r5, #2056]
	ldrb	r2, [r3, #3905]	@ zero_extendqisi2
	add	r2, r2, r2, asl #1
	cmp	r4, r2, asr #2
	bcc	.L871
	cmn	r4, #1
	movne	r4, #256
.L871:
	mov	r0, r8
	bl	NandcWaitFlashReady
	ldr	r3, [sp]
	cmp	r3, #0
	beq	.L872
	mov	r0, #4
	bl	NandcSetDdrMode
.L872:
	mov	r0, r4
	add	sp, sp, #28
	@ sp needed
	ldmfd	sp!, {r4, r5, r6, r7, r8, r9, r10, fp, pc}
.L886:
	.align	2
.L885:
	.word	.LANCHOR0
	.word	g_retryMode
	.word	.LANCHOR2
	.word	g_maxRetryCount
	.fnend
	.size	ToshibaReadRetrial, .-ToshibaReadRetrial
	.align	2
	.global	SamsungReadRetrial
	.type	SamsungReadRetrial, %function
SamsungReadRetrial:
	.fnstart
	@ args = 0, pretend = 0, frame = 8
	@ frame_needed = 0, uses_anonymous_args = 0
	stmfd	sp!, {r0, r1, r2, r4, r5, r6, r7, r8, r9, r10, fp, lr}
	.save {r4, r5, r6, r7, r8, r9, r10, fp, lr}
	.pad #12
	mov	r9, r0
	ldr	r5, .L901
	mov	r10, r2
	mov	r8, r3
	mov	fp, r1
	bl	NandcWaitFlashReady
	add	r2, r5, r9, asl #3
	ldr	ip, .L901+4
	mov	r7, #1
	ldrb	r3, [r2, #16]	@ zero_extendqisi2
	mvn	r4, #0
	ldr	r6, [r2, #12]
	add	r3, r3, #8
	add	r6, r6, r3, asl #8
.L888:
	ldrb	r3, [ip]	@ zero_extendqisi2
	add	r3, r3, #1
	cmp	r7, r3
	bcs	.L891
	mov	r0, r6
	uxtb	r1, r7
	str	ip, [sp, #4]
	bl	SamsungSetRRPara
	mov	r0, r9
	mov	r1, fp
	mov	r2, r10
	mov	r3, r8
	bl	FlashReadRawPage
	cmn	r0, #1
	ldr	ip, [sp, #4]
	beq	.L889
	ldrb	r3, [r5, #3905]	@ zero_extendqisi2
	cmn	r4, #1
	moveq	r4, r0
	add	r3, r3, r3, asl #1
	cmp	r0, r3, asr #2
	bcc	.L894
	mov	r8, #0
	mov	r10, r8
.L889:
	add	r7, r7, #1
	b	.L888
.L894:
	mov	r4, r0
.L891:
	mov	r0, r6
	mov	r1, #0
	bl	SamsungSetRRPara
	ldrb	r3, [r5, #3905]	@ zero_extendqisi2
	add	r3, r3, r3, asl #1
	cmp	r4, r3, asr #2
	bcc	.L893
	cmn	r4, #1
	movne	r4, #256
.L893:
	mov	r0, r4
	add	sp, sp, #12
	@ sp needed
	ldmfd	sp!, {r4, r5, r6, r7, r8, r9, r10, fp, pc}
.L902:
	.align	2
.L901:
	.word	.LANCHOR0
	.word	g_maxRetryCount
	.fnend
	.size	SamsungReadRetrial, .-SamsungReadRetrial
	.align	2
	.global	MicronReadRetrial
	.type	MicronReadRetrial, %function
MicronReadRetrial:
	.fnstart
	@ args = 0, pretend = 0, frame = 24
	@ frame_needed = 0, uses_anonymous_args = 0
.L905:
	stmfd	sp!, {r4, r5, r6, r7, r8, r9, r10, fp, lr}
	.save {r4, r5, r6, r7, r8, r9, r10, fp, lr}
	mov	r8, r3
	ldr	r3, .L929
	mov	fp, r2
	.pad #36
	sub	sp, sp, #36
	mov	r6, r0
	mov	r10, #0
	ldrb	r5, [r3, #3905]	@ zero_extendqisi2
	ldrb	r3, [r3, #3904]	@ zero_extendqisi2
	str	r1, [sp, #20]
	cmp	r3, #0
	addeq	r5, r5, r5, asl #1
	ldrne	r2, .L929+4
	ubfxeq	r5, r5, #2, #8
	smullne	r2, r3, r5, r2
	uxtbne	r5, r3
	ldr	r3, .L929
	add	r3, r3, r0, asl #3
	str	r3, [sp, #24]
.L915:
	mov	r0, r6
	mov	r9, #0
	bl	NandcWaitFlashReady
	mvn	r4, #0
	ldr	r3, [sp, #24]
	ldr	r3, [r3, #12]
	str	r3, [sp, #12]
	ldr	r3, [sp, #24]
	ldrb	r3, [r3, #16]	@ zero_extendqisi2
	str	r3, [sp, #16]
	ldr	r2, [sp, #16]
	ldr	r3, [sp, #12]
	add	r7, r3, r2, asl #8
.L906:
	ldr	r3, .L929+8
	ldrb	r3, [r3]	@ zero_extendqisi2
	cmp	r9, r3
	bcs	.L909
	mov	r3, #239
	mov	r0, #200
	str	r3, [r7, #2056]
	mov	r3, #137
	str	r3, [r7, #2052]
	bl	NandcDelayns
	mov	ip, #0
	add	r3, r9, #1
	mov	r0, r6
	str	r3, [r7, #2048]
	mov	r2, fp
	str	ip, [r7, #2048]
	str	ip, [r7, #2048]
	str	ip, [r7, #2048]
	str	r3, [sp, #8]
	mov	r3, r8
	ldr	r1, [sp, #20]
	str	ip, [sp, #28]
	bl	FlashReadRawPage
	cmn	r0, #1
	beq	.L907
	cmn	r4, #1
	ldr	ip, [sp, #28]
	moveq	r4, r0
	cmp	r0, r5
	bcc	.L917
	mov	r8, ip
	mov	fp, ip
.L907:
	ldr	r9, [sp, #8]
	b	.L906
.L917:
	mov	r4, r0
	mov	r8, ip
	mov	fp, ip
.L909:
	ldr	r2, [sp, #16]
	mov	r0, #200
	ldr	r3, [sp, #12]
	add	r7, r3, r2, asl #8
	mov	r3, #239
	str	r3, [r7, #2056]
	mov	r3, #137
	str	r3, [r7, #2052]
	bl	NandcDelayns
	cmp	r4, r5
	mov	r3, #0
	str	r3, [r7, #2048]
	str	r3, [r7, #2048]
	str	r3, [r7, #2048]
	str	r3, [r7, #2048]
	bcc	.L911
	cmn	r4, #1
	movne	r4, #256
.L911:
	cmn	r4, #1
	movne	r7, #0
	moveq	r7, #1
	cmp	r4, #256
	movne	r1, r7
	orreq	r1, r7, #1
	cmp	r1, #0
	beq	.L912
	str	r4, [sp]
	mov	r1, r9
	ldr	r0, .L929+12
	mov	r3, r9
	ldr	r2, [sp, #20]
	bl	printk
	cmp	r10, #0
	bne	.L913
	ldr	r3, .L929
	ldrb	r3, [r3, #3904]	@ zero_extendqisi2
	cmp	r3, #0
	moveq	r7, #0
	andne	r7, r7, #1
	cmp	r7, #0
	beq	.L922
	mov	r0, r6
	mov	r1, #3
	bl	micron_auto_read_calibration_config
	mov	r10, #1
	b	.L915
.L913:
	mov	r0, r6
	mov	r1, #0
	bl	micron_auto_read_calibration_config
	cmn	r4, #1
	movne	r4, #256
	b	.L922
.L912:
	cmp	r10, #0
	beq	.L922
	mov	r0, r6
	mov	r4, #256
	bl	micron_auto_read_calibration_config
.L922:
	mov	r0, r4
	add	sp, sp, #36
	@ sp needed
	ldmfd	sp!, {r4, r5, r6, r7, r8, r9, r10, fp, pc}
.L930:
	.align	2
.L929:
	.word	.LANCHOR0
	.word	1431655766
	.word	g_maxRetryCount
	.word	.LC11
	.fnend
	.size	MicronReadRetrial, .-MicronReadRetrial
	.align	2
	.global	HynixReadRetrial
	.type	HynixReadRetrial, %function
HynixReadRetrial:
	.fnstart
	@ args = 0, pretend = 0, frame = 8
	@ frame_needed = 0, uses_anonymous_args = 0
	stmfd	sp!, {r0, r1, r2, r4, r5, r6, r7, r8, r9, r10, fp, lr}
	.save {r4, r5, r6, r7, r8, r9, r10, fp, lr}
	.pad #12
	mov	r8, r3
	ldr	r5, .L949
	mov	r10, r2
	mov	r7, r0
	mov	fp, r1
	add	r2, r5, r0
	mvn	r6, #0
	ldr	r3, [r5, #1784]
	ldrb	r4, [r2, #3928]	@ zero_extendqisi2
	ldrb	r9, [r5, #3918]	@ zero_extendqisi2
	ldrb	r3, [r3, #19]	@ zero_extendqisi2
	sub	r3, r3, #7
	cmp	r3, #1
	ldrlsb	r4, [r2, #3936]	@ zero_extendqisi2
	bl	NandcWaitFlashReady
	mov	ip, #0
.L933:
	cmp	ip, r9
	bcs	.L937
	add	r4, r4, #1
	mov	r0, r7
	ldrb	r1, [r5, #3917]	@ zero_extendqisi2
	uxtb	r4, r4
	ldr	r2, .L949+4
	cmp	r4, r9
	str	ip, [sp, #4]
	movcs	r4, #0
	mov	r3, r4
	bl	HynixSetRRPara
	mov	r0, r7
	mov	r1, fp
	mov	r2, r10
	mov	r3, r8
	bl	FlashReadRawPage
	cmn	r0, #1
	ldr	ip, [sp, #4]
	beq	.L935
	ldrb	r3, [r5, #3905]	@ zero_extendqisi2
	cmn	r6, #1
	moveq	r6, r0
	add	r3, r3, r3, asl #1
	cmp	r0, r3, asr #2
	bcc	.L942
	mov	r8, #0
	mov	r10, r8
.L935:
	add	ip, ip, #1
	b	.L933
.L942:
	mov	r6, r0
.L937:
	ldr	r3, [r5, #1784]
	add	r7, r5, r7
	ldrb	r3, [r3, #19]	@ zero_extendqisi2
	sub	r3, r3, #7
	cmp	r3, #1
	ldrb	r3, [r5, #3905]	@ zero_extendqisi2
	strlsb	r4, [r7, #3936]
	strhib	r4, [r7, #3928]
	add	r3, r3, r3, asl #1
	cmp	r6, r3, asr #2
	bcc	.L941
	cmn	r6, #1
	movne	r6, #256
.L941:
	mov	r0, r6
	add	sp, sp, #12
	@ sp needed
	ldmfd	sp!, {r4, r5, r6, r7, r8, r9, r10, fp, pc}
.L950:
	.align	2
.L949:
	.word	.LANCHOR0
	.word	.LANCHOR0+3920
	.fnend
	.size	HynixReadRetrial, .-HynixReadRetrial
	.align	2
	.global	FlashProgPage
	.type	FlashProgPage, %function
FlashProgPage:
	.fnstart
	@ args = 0, pretend = 0, frame = 0
	@ frame_needed = 0, uses_anonymous_args = 0
	stmfd	sp!, {r0, r1, r4, r5, r6, r7, r8, lr}
	.save {r4, r5, r6, r7, r8, lr}
	.pad #8
	mov	r8, r3
	ldr	r3, .L955
	subs	r4, r0, #0
	mov	r5, r1
	mov	r7, r2
	ldrb	r6, [r3, #265]	@ zero_extendqisi2
	bne	.L952
	ldr	r2, .L955+4
	ldrb	r3, [r2, #1]	@ zero_extendqisi2
	ldr	r1, [r2, #4]
	mul	r1, r1, r3
	cmp	r5, r1
	bcs	.L952
	ldrb	r3, [r2]	@ zero_extendqisi2
	cmp	r3, #0
	subeq	r6, r6, #2
	movne	r6, #4
.L952:
	mov	r0, r4
	bl	NandcWaitFlashReady
	mov	r0, r4
	bl	NandcFlashCs
	mov	r0, r4
	mov	r1, r5
	bl	FlashProgFirstCmd
	uxtb	r2, r6
	mov	r3, r7
	mov	r0, r4
	mov	r1, #1
	str	r8, [sp]
	bl	NandcXferData
	mov	r1, r5
	mov	r0, r4
	bl	FlashProgSecondCmd
	mov	r0, r4
	bl	NandcWaitFlashReady
	mov	r1, r5
	mov	r0, r4
	bl	FlashReadStatus
	mov	r5, r0
	mov	r0, r4
	bl	NandcFlashDeCs
	and	r0, r5, #1
	add	sp, sp, #8
	@ sp needed
	ldmfd	sp!, {r4, r5, r6, r7, r8, pc}
.L956:
	.align	2
.L955:
	.word	.LANCHOR1
	.word	.LANCHOR0
	.fnend
	.size	FlashProgPage, .-FlashProgPage
	.align	2
	.global	FlashSavePhyInfo
	.type	FlashSavePhyInfo, %function
FlashSavePhyInfo:
	.fnstart
	@ args = 0, pretend = 0, frame = 8
	@ frame_needed = 0, uses_anonymous_args = 0
	stmfd	sp!, {r0, r1, r2, r4, r5, r6, r7, r8, r9, r10, fp, lr}
	.save {r4, r5, r6, r7, r8, r9, r10, fp, lr}
	.pad #12
	ldr	r4, .L967
	ldr	r5, .L967+4
	ldr	r8, .L967+8
	ldr	r3, [r4, #-3408]
	mov	r9, r4
	ldrb	r0, [r4, #-3311]	@ zero_extendqisi2
	mov	r10, r5
	str	r3, [r4, #-3324]
	bl	FlashBchSel
	mov	r1, #0
	mov	r2, #2048
	ldr	r0, [r4, #-3408]
	bl	ftl_memset
	ldr	r3, [r4, #-3324]
	ldr	r1, .L967+12
	mov	r2, #32
	str	r8, [r3]
	ldr	r0, [r4, #-3324]
	ldrb	r3, [r5, #1612]	@ zero_extendqisi2
	add	r0, r0, #16
	strh	r3, [r0, #-4]	@ movhi
	ldrb	r3, [r5, #1]	@ zero_extendqisi2
	strh	r3, [r0, #-2]	@ movhi
	ldrb	r3, [r4, #-3400]	@ zero_extendqisi2
	str	r3, [r0, #1060]
	bl	ftl_memcpy
	ldr	r0, [r4, #-3324]
	add	r1, r5, #1616
	mov	r2, #8
	add	r0, r0, #80
	bl	ftl_memcpy
	ldr	r0, [r4, #-3324]
	ldr	r1, .L967+16
	mov	r2, #32
	add	r0, r0, #96
	bl	ftl_memcpy
	ldr	r0, [r4, #-3324]
	ldr	r1, .L967+20
	mov	r2, #32
	add	r0, r0, #160
	bl	ftl_memcpy
	ldr	r0, [r4, #-3324]
	add	r1, r5, #44
	mov	r2, #32
	add	r0, r0, #192
	bl	ftl_memcpy
	ldr	r0, [r4, #-3324]
	mov	r2, #852
	ldr	r1, .L967+24
	add	r0, r0, #224
	bl	ftl_memcpy
	ldr	r6, [r4, #-3324]
	movw	r1, #2036
	add	r0, r6, #12
	bl	js_hash
	movw	r3, #1592
	str	r3, [r6, #4]
	ldr	r3, [r4, #-3308]
	str	r3, [r4, #-3324]
	str	r0, [r6, #8]
	mov	r0, #0
	bl	flash_enter_slc_mode
	mov	r6, #0
	mov	r7, r6
.L960:
	ldr	r1, [r5, #4]
	mov	r0, #0
	mov	r2, r0
	mul	r1, r1, r7
	bl	FlashEraseBlock
	ldr	r1, [r5, #4]
	mov	r0, #0
	ldr	r2, [r4, #-3408]
	mov	r3, r0
	mul	r1, r1, r7
	bl	FlashProgPage
	ldr	r1, [r5, #4]
	mov	r0, #0
	ldr	r2, [r4, #-3408]
	mov	r3, r0
	mul	r1, r1, r7
	add	r1, r1, #1
	bl	FlashProgPage
	ldr	r1, [r5, #4]
	mov	r0, #0
	ldr	r2, [r4, #-3308]
	mov	r3, r0
	mul	r1, r1, r7
	bl	FlashReadRawPage
	add	r2, r7, #1
	cmn	r0, #1
	beq	.L958
	ldr	fp, [r9, #-3324]
	ldr	r3, [fp]
	cmp	r3, r8
	bne	.L958
	add	r0, fp, #12
	movw	r1, #2036
	str	r2, [sp, #4]
	bl	js_hash
	ldr	r3, [fp, #8]
	cmp	r3, r0
	ldr	r2, [sp, #4]
	bne	.L958
	ldr	r3, [r10, #4]
	cmp	r6, #1
	str	r2, [r9, #-3316]
	mul	r7, r3, r7
	str	r7, [r9, #-3320]
	beq	.L961
	mov	r6, #1
.L958:
	cmp	r2, #4
	mov	r7, r2
	bne	.L960
	b	.L959
.L961:
	mov	r6, #2
.L959:
	mov	r0, #0
	bl	flash_exit_slc_mode
	clz	r0, r6
	mov	r0, r0, lsr #5
	rsb	r0, r0, #0
	add	sp, sp, #12
	@ sp needed
	ldmfd	sp!, {r4, r5, r6, r7, r8, r9, r10, fp, pc}
.L968:
	.align	2
.L967:
	.word	.LANCHOR2
	.word	.LANCHOR0
	.word	1312902724
	.word	IDByte
	.word	.LANCHOR0+1624
	.word	.LANCHOR1+256
	.word	.LANCHOR0+3916
	.fnend
	.size	FlashSavePhyInfo, .-FlashSavePhyInfo
	.align	2
	.global	FlashReadIdbDataRaw
	.type	FlashReadIdbDataRaw, %function
FlashReadIdbDataRaw:
	.fnstart
	@ args = 0, pretend = 0, frame = 16
	@ frame_needed = 0, uses_anonymous_args = 0
	ldr	r3, .L990
	stmfd	sp!, {r4, r5, r6, r7, r8, r9, r10, fp, lr}
	.save {r4, r5, r6, r7, r8, r9, r10, fp, lr}
	.pad #20
	sub	sp, sp, #20
	ldr	r2, [r3]
	mov	r9, r0
	ldr	r6, .L990+4
	str	r3, [sp]
	str	r2, [sp, #12]
	ldr	r2, .L990+8
	ldrb	r10, [r6, #3905]	@ zero_extendqisi2
	ldr	r0, [r2]	@ unaligned
	ldr	r2, .L990+12
	str	r0, [sp, #8]	@ unaligned
	ldr	r2, [r2, #-3404]
	cmp	r2, #0
	beq	.L970
	mov	r0, #0
	bl	flash_enter_slc_mode
.L970:
	mov	r0, r9
	mov	r1, #0
	mov	r2, #2048
	mvn	r8, #0
	bl	ftl_memset
	mov	r4, #2
.L971:
	ldrb	r3, [r6, #1]	@ zero_extendqisi2
	cmp	r4, r3
	bcs	.L975
	ldr	fp, .L990+12
	mov	r7, #0
.L973:
	add	r3, sp, #8
	ldr	r5, .L990+12
	ldrb	ip, [r3, r7]	@ zero_extendqisi2
	mov	r0, ip
	str	ip, [sp, #4]
	bl	FlashBchSel
	ldr	r1, [r6, #4]
	mov	r0, #0
	ldr	r2, [fp, #-3408]
	mov	r3, r0
	mul	r1, r1, r4
	bl	FlashReadRawPage
	cmn	r0, #1
	ldr	ip, [sp, #4]
	bne	.L972
	add	r7, r7, #1
	cmp	r7, #4
	bne	.L973
	b	.L974
.L972:
	ldr	r3, [r5, #-3408]
	ldr	r2, .L990+16
	ldr	r3, [r3]
	cmp	r3, r2
	bne	.L974
	mov	r1, ip
	ldr	r0, .L990+20
	bl	printk
	mov	r2, #2048
	mov	r0, r9
	ldr	r1, [r5, #-3408]
	bl	ftl_memcpy
	ldr	r3, [r5, #-3408]
	ldr	r2, .L990+4
	ldr	r3, [r3, #512]
	strb	r3, [r2, #1]
	ldr	r3, [r5, #-3316]
	cmp	r3, r4
	bls	.L979
	str	r4, [r5, #-3316]
	bl	FlashSavePhyInfo
	mov	r8, #0
.L974:
	add	r4, r4, #1
	b	.L971
.L979:
	mov	r8, #0
.L975:
	mov	r0, r10
	bl	FlashBchSel
	ldr	r3, .L990+12
	ldr	r3, [r3, #-3404]
	cmp	r3, #0
	beq	.L976
	mov	r0, #0
	bl	flash_exit_slc_mode
.L976:
	ldr	r3, [sp]
	mov	r0, r8
	ldr	r2, [sp, #12]
	ldr	r3, [r3]
	cmp	r2, r3
	beq	.L978
	bl	__stack_chk_fail
.L978:
	add	sp, sp, #20
	@ sp needed
	ldmfd	sp!, {r4, r5, r6, r7, r8, r9, r10, fp, pc}
.L991:
	.align	2
.L990:
	.word	__stack_chk_guard
	.word	.LANCHOR0
	.word	.LANCHOR3
	.word	.LANCHOR2
	.word	-52655045
	.word	.LC12
	.fnend
	.size	FlashReadIdbDataRaw, .-FlashReadIdbDataRaw
	.align	2
	.global	FlashInit
	.type	FlashInit, %function
FlashInit:
	.fnstart
	@ args = 0, pretend = 0, frame = 0
	@ frame_needed = 0, uses_anonymous_args = 0
	stmfd	sp!, {r4, r5, r6, r7, r8, r9, r10, fp, lr}
	.save {r4, r5, r6, r7, r8, r9, r10, fp, lr}
	mov	r6, r0
	.pad #20
	sub	sp, sp, #20
	mov	r0, #32768
	bl	ftl_malloc
	ldr	r4, .L1087
	ldr	r5, .L1087+4
	mov	r7, #0
	str	r0, [r4, #-3408]
	mov	r0, #32768
	bl	ftl_malloc
	str	r0, [r4, #-3308]
	mov	r0, #4096
	bl	ftl_malloc
	str	r0, [r4, #-3304]
	mov	r0, #32768
	bl	ftl_malloc
	str	r0, [r4, #-3300]
	mov	r0, #4096
	bl	ftl_malloc
	mov	r3, #50
	str	r7, [r4, #-3316]
	strb	r3, [r5, #1]
	strb	r3, [r4, #-3312]
	mov	r3, #128
	strb	r7, [r4, #-3400]
	str	r3, [r5, #4]
	mov	r3, #60
	str	r7, [r4, #-3332]
	strb	r7, [r5]
	strb	r7, [r4, #-3292]
	strb	r3, [r4, #-3311]
	str	r0, [r4, #-3296]
	mov	r0, r6
	bl	NandcInit
	ldr	r6, .L1087+8
	mov	r8, r6
.L998:
	ldr	r3, .L1087+12
	uxtb	r9, r7
	add	r2, r3, r7, asl #3
	mov	r0, r9
	ldr	r10, [r3, r7, asl #3]
	ldrb	fp, [r2, #4]	@ zero_extendqisi2
	bl	FlashReset
	mov	r0, r9
	bl	NandcFlashCs
	mov	r2, #144
	add	fp, r10, fp, asl #8
	mov	r0, #200
	mov	r10, #0
	str	r2, [fp, #2056]
	str	r10, [fp, #2052]
	bl	NandcDelayns
	ldr	r1, [fp, #2048]
	uxtb	r1, r1
	strb	r1, [r6]
	ldr	r0, [fp, #2048]
	cmp	r1, #44
	strb	r0, [r6, #1]
	ldr	r0, [fp, #2048]
	strb	r0, [r6, #2]
	ldr	r0, [fp, #2048]
	strb	r0, [r6, #3]
	ldr	r0, [fp, #2048]
	strb	r0, [r6, #4]
	ldr	r0, [fp, #2048]
	strb	r0, [r6, #5]
	bne	.L993
	mov	r1, #239
	mov	r0, #200
	str	r1, [fp, #2056]
	mov	r1, #1
	str	r1, [fp, #2052]
	bl	NandcDelayns
	mov	r1, #4
	str	r1, [fp, #2048]
	str	r10, [fp, #2048]
	str	r10, [fp, #2048]
	str	r10, [fp, #2048]
.L993:
	mov	r0, r9
	bl	NandcFlashDeCs
	ldrb	r2, [r6]	@ zero_extendqisi2
	sub	r3, r2, #1
	uxtb	r3, r3
	cmp	r3, #253
	bhi	.L994
	ldrb	r1, [r6, #2]	@ zero_extendqisi2
	ldrb	r3, [r6, #1]	@ zero_extendqisi2
	ldr	r0, .L1087+16
	str	r1, [sp]
	ldrb	r1, [r6, #3]	@ zero_extendqisi2
	str	r1, [sp, #4]
	ldrb	r1, [r6, #4]	@ zero_extendqisi2
	str	r1, [sp, #8]
	ldrb	r1, [r6, #5]	@ zero_extendqisi2
	str	r1, [sp, #12]
	add	r1, r7, #1
	bl	printk
.L994:
	cmp	r7, #0
	bne	.L995
	ldrb	r3, [r8]	@ zero_extendqisi2
	sub	r3, r3, #1
	uxtb	r3, r3
	cmp	r3, #253
	bhi	.L1044
	ldr	r3, .L1087+8
	ldrb	r3, [r3, #1]	@ zero_extendqisi2
	cmp	r3, #255
	beq	.L1044
	bl	FlashCs123Init
.L995:
	ldrb	r3, [r6]	@ zero_extendqisi2
	add	r7, r7, #1
	add	r6, r6, #8
	cmp	r3, #181
	moveq	r3, #44
	streqb	r3, [r6, #-8]
	cmp	r7, #4
	bne	.L998
	ldrb	r3, [r8]	@ zero_extendqisi2
	cmp	r3, #173
	beq	.L999
	ldr	r0, [r4, #-3396]
	bl	NandcSetDdrMode
.L999:
	mov	r1, #0
	mov	r2, #852
	ldr	r0, .L1087+20
	bl	ftl_memset
	ldr	r6, .L1087+24
	ldr	r2, [r4, #-3388]
	ldr	r3, .L1087+28
	cmp	r2, r6
	ldrb	r0, [r8, #1]	@ zero_extendqisi2
	str	r3, [r5, #1784]
	mov	r3, #0
	strb	r3, [r5, #8]
	sub	lr, r0, #218
	ldreq	r3, .L1087
	clz	lr, lr
	moveq	r1, #1
	mov	lr, lr, lsr #5
	streq	r1, [r3, #-3404]
	cmp	r0, #161
	cmpne	r0, #241
	and	r1, r0, #253
	moveq	r3, #1
	movne	r3, #0
	orr	r3, lr, r3
	cmp	r1, #209
	orreq	r3, r3, #1
	cmp	r3, #0
	bne	.L1001
	cmp	r0, #220
	bne	.L1002
	ldr	r3, .L1087+8
	ldrb	r3, [r3, #3]	@ zero_extendqisi2
	cmp	r3, #149
	bne	.L1002
.L1001:
	ldrb	r7, [r8]	@ zero_extendqisi2
	mov	r3, #16
	strb	r3, [r5, #1]
	mov	ip, #1
	strb	r3, [r4, #-3311]
	cmp	r7, #152
	ldr	r3, .L1087+32
	strb	ip, [r5]
	ldr	r1, .L1087
	strb	r7, [r3, #3253]
	strb	r0, [r3, #3254]
	bne	.L1004
	ldr	r7, .L1087+8
	ldrsb	r7, [r7, #4]
	cmp	r7, #0
	strltb	ip, [r1, #-3292]
	movge	ip, #24
	strgeb	ip, [r1, #-3311]
.L1004:
	movw	r1, #2049
	cmp	r2, r6
	cmpne	r2, r1
	moveq	r2, #16
	streqb	r2, [r4, #-3311]
	cmp	lr, #0
	ldrne	r2, .L1087+36
	movne	r1, #2048
	strneh	r1, [r2, #14]	@ movhi
	mvnne	r2, #37
	bne	.L1081
.L1008:
	cmp	r0, #220
	bne	.L1010
	ldr	r2, .L1087+36
	mov	r1, #4096
	strh	r1, [r2, #14]	@ movhi
	mvn	r2, #35
.L1081:
	strb	r2, [r3, #3254]
	b	.L1009
.L1010:
	cmp	r0, #211
	ldreq	r2, .L1087+36
	moveq	r1, #4096
	streqh	r1, [r2, #14]	@ movhi
	moveq	r2, #2
	streqb	r2, [r3, #3265]
.L1009:
	ldr	r1, .L1087+40
	mov	r2, #32
	ldr	r0, .L1087+44
	bl	ftl_memcpy
	ldr	r0, .L1087+28
	ldr	r1, .L1087+36
	mov	r2, #32
	bl	ftl_memcpy
.L1002:
	ldrb	r3, [r5]	@ zero_extendqisi2
	cmp	r3, #0
	bne	.L1011
	bl	FlashLoadPhyInfoInRam
	cmp	r0, #0
	bne	.L1013
	ldr	r3, .L1087+4
	ldr	r7, .L1087
	ldr	r3, [r3, #1784]
	ldrh	r3, [r3, #16]
	mov	r3, r3, lsr #8
	tst	r3, #1
	and	r0, r3, #7
	strb	r0, [r4, #-3412]
	bne	.L1013
	mov	r3, #1
	strb	r3, [r7, #-3400]
	bl	FlashSetInterfaceMode
	ldrb	r0, [r7, #-3412]	@ zero_extendqisi2
	bl	NandcSetMode
.L1013:
	ldr	r3, [r5, #1784]
	ldrb	r3, [r3, #26]	@ zero_extendqisi2
	strb	r3, [r5, #3904]
	bl	FlashLoadPhyInfo
	cmp	r0, #0
	beq	.L1011
	ldr	r3, [r4, #-3396]
	ldr	r7, .L1087
	cmp	r3, #0
	beq	.L1016
	mov	r0, #1
	bl	FlashSetInterfaceMode
	mov	r0, #1
	b	.L1082
.L1016:
	ldrb	r0, [r7, #-3412]	@ zero_extendqisi2
	bl	FlashSetInterfaceMode
	ldrb	r0, [r7, #-3412]	@ zero_extendqisi2
.L1082:
	bl	NandcSetMode
	bl	FlashLoadPhyInfo
	cmp	r0, #0
	beq	.L1011
	mov	r0, #1
	ldr	r7, .L1087+4
	bl	FlashSetInterfaceMode
	mov	r0, #1
	bl	NandcSetMode
	ldr	r3, [r5, #1784]
	ldr	r0, .L1087+48
	ldrh	r1, [r3, #14]
	bl	printk
	bl	FlashLoadPhyInfoInRam
	cmn	r0, #1
	beq	.L1057
	bl	FlashDieInfoInit
	ldr	r3, [r7, #1784]
	ldrb	r0, [r3, #19]	@ zero_extendqisi2
	bl	FlashGetReadRetryDefault
	movw	r3, #1788
	ldr	r2, [r7, #1784]
	ldrh	r3, [r7, r3]
	add	r3, r3, #4080
	ldrb	r1, [r2, #9]	@ zero_extendqisi2
	add	r3, r3, #15
	cmp	r1, r3, asr #12
	ldrh	r3, [r2, #14]
	blt	.L1018
	add	r0, r3, #255
	cmp	r1, r0, asr #8
	bge	.L1019
.L1018:
	bic	r3, r3, #255
	strh	r3, [r2, #14]	@ movhi
.L1019:
	ldrb	r3, [r4, #-3412]	@ zero_extendqisi2
	tst	r3, #6
	beq	.L1020
	bl	FlashSavePhyInfo
	ldr	r3, .L1087
	mov	r0, #0
	ldr	r1, [r3, #-3320]
	bl	FlashDdrParaScan
.L1020:
	bl	FlashSavePhyInfo
.L1011:
	ldr	r2, [r5, #1784]
	ldr	r9, .L1087+4
	ldr	r7, .L1087
	ldrb	r3, [r2, #26]	@ zero_extendqisi2
	ldrh	r0, [r2, #10]
	ldrb	r10, [r2, #18]	@ zero_extendqisi2
	strb	r3, [r5, #3904]
	ldrh	r3, [r2, #16]
	ubfx	r1, r3, #7, #1
	strb	r1, [r5, #8]
	ubfx	r1, r3, #3, #1
	strb	r1, [r4, #-3291]
	ubfx	r1, r3, #4, #1
	ubfx	r3, r3, #8, #3
	strb	r1, [r4, #-3340]
	strb	r3, [r4, #-3412]
	mov	r3, #0
	ldrb	r1, [r2, #12]	@ zero_extendqisi2
	str	r3, [r4, #-3328]
	bl	__aeabi_idiv
	mov	r1, r0
	mov	r0, r10
	bl	BuildFlashLsbPageTable
	bl	FlashDieInfoInit
	ldr	r3, [r5, #1784]
	ldrh	r2, [r3, #16]
	tst	r2, #64
	beq	.L1022
	ldrb	r0, [r3, #19]	@ zero_extendqisi2
	ldr	r3, .L1087+52
	ldrb	r2, [r9, #3917]	@ zero_extendqisi2
	ldr	r1, .L1087+56
	strb	r0, [r3]
	ldr	r3, .L1087+60
	strb	r2, [r3]
	mov	ip, r3
	ldrb	r2, [r9, #3918]	@ zero_extendqisi2
	strb	r2, [r1]
	sub	r2, r0, #1
	cmp	r2, #7
	bhi	.L1023
	ldr	r3, .L1087+64
	sub	r2, r0, #5
	cmp	r0, #8
	cmpne	r2, #1
	sub	r1, r0, #8
	clz	r1, r1
	str	r3, [r7, #-3328]
	movls	r3, #1
	strls	r3, [r7, #-3348]
	cmp	r0, #7
	mov	r1, r1, lsr #5
	ldreq	r3, .L1087+68
	beq	.L1026
	ldr	r2, .L1087+68
	cmp	r1, #0
	sub	r3, r2, #8
	movne	r3, r2
.L1026:
	sub	r1, r3, #1
	add	r3, r3, #31
	mov	r2, #0
.L1027:
	ldrsb	ip, [r1, #1]!
	cmp	ip, #0
	addeq	r2, r2, #1
	cmp	r1, r3
	bne	.L1027
	cmp	r2, #27
	bls	.L1022
	bl	FlashGetReadRetryDefault
	bl	FlashSavePhyInfo
	b	.L1022
.L1023:
	sub	r2, r0, #17
	cmp	r2, #2
	bhi	.L1029
	ldr	r3, .L1087+72
	cmp	r0, #19
	str	r3, [r7, #-3328]
	moveq	r3, #15
	bne	.L1086
	b	.L1084
.L1029:
	sub	r2, r0, #65
	cmp	r0, #33
	cmpne	r2, #1
	bhi	.L1031
	ldr	r2, .L1087+76
	str	r2, [r7, #-3328]
	mov	r2, #4
	strb	r2, [r3]
.L1086:
	mov	r3, #7
.L1084:
	strb	r3, [r1]
	b	.L1022
.L1031:
	sub	r3, r0, #67
	sub	r2, r0, #34
	cmp	r3, #1
	movhi	lr, #0
	movls	lr, #1
	cmp	r3, #1
	cmphi	r2, #1
	bhi	.L1032
	ldr	r3, .L1087+76
	cmp	r0, #68
	cmpne	r0, #35
	str	r3, [r7, #-3328]
	movne	r3, #7
	moveq	r3, #17
	cmp	lr, #0
	strb	r3, [r1]
	movne	r3, #4
	moveq	r3, #5
	strb	r3, [ip]
	b	.L1022
.L1032:
	cmp	r0, #49
	ldreq	r3, .L1087+80
	streq	r3, [r7, #-3328]
.L1022:
	ldr	r3, [r4, #-3388]
	cmp	r3, r6
	bne	.L1036
	ldrb	r2, [r5, #3904]	@ zero_extendqisi2
	cmp	r2, #0
	ldrne	r2, .L1087+4
	movne	r1, #0
	ldrne	r2, [r2, #1784]
	strneb	r1, [r2, #18]
.L1036:
	ldrb	r2, [r8]	@ zero_extendqisi2
	cmp	r2, #44
	bne	.L1037
	ldrb	r2, [r4, #-3400]	@ zero_extendqisi2
	cmp	r2, #0
	beq	.L1037
	cmp	r3, r6
	bne	.L1038
	ldrb	r3, [r5, #3904]	@ zero_extendqisi2
	cmp	r3, #0
	bne	.L1037
.L1038:
	mov	r0, #1
	mov	r3, #0
	strb	r3, [r4, #-3400]
	bl	FlashSetInterfaceMode
	mov	r0, #1
	bl	NandcSetMode
.L1037:
	ldrb	r3, [r4, #-3412]	@ zero_extendqisi2
	tst	r3, #6
	beq	.L1039
	ldr	r2, .L1087
	ldrb	r2, [r2, #-3400]	@ zero_extendqisi2
	cmp	r2, #0
	bne	.L1040
	tst	r3, #1
	bne	.L1039
.L1040:
	mov	r0, #0
	bl	flash_enter_slc_mode
	mov	r0, #0
	ldr	r1, [r4, #-3320]
	bl	FlashDdrParaScan
	mov	r0, #0
	bl	flash_exit_slc_mode
.L1039:
	ldr	r3, [r5, #1784]
	mov	r9, #16
	ldr	r7, .L1087+4
	ldr	r4, .L1087+84
	ldrb	r0, [r3, #20]	@ zero_extendqisi2
	bl	FlashBchSel
	add	r0, r7, #1792
	bl	FlashReadIdbDataRaw
	ldr	r0, .L1087+88
	strb	r9, [r5, #1]
	bl	FlashTimingCfg
	ldr	r6, [r5, #1784]
	ldrb	r3, [r6, #12]	@ zero_extendqisi2
	strh	r3, [r4, #8]	@ movhi
	ldrb	r3, [r6, #7]	@ zero_extendqisi2
	str	r3, [r5, #3880]
	ldr	r3, [r8]	@ unaligned
	ldrh	r8, [r6, #14]
	str	r3, [r5, #3876]
	ldrb	r3, [r5, #1612]	@ zero_extendqisi2
	strh	r3, [r4, #10]	@ movhi
	ldrb	r3, [r6, #13]	@ zero_extendqisi2
	strh	r8, [r4, #14]	@ movhi
	strh	r3, [r4, #12]	@ movhi
	ldrh	r3, [r6, #10]
	strh	r3, [r4, #16]	@ movhi
	ldrb	r1, [r6, #12]	@ zero_extendqisi2
	ldrh	r0, [r6, #10]
	bl	__aeabi_idiv
	strh	r0, [r4, #18]	@ movhi
	ldrb	r2, [r6, #9]	@ zero_extendqisi2
	strh	r2, [r4, #20]	@ movhi
	ldrb	r1, [r6, #9]	@ zero_extendqisi2
	ldrh	r3, [r6, #10]
	smulbb	r3, r1, r3
	mov	r1, #512
	strh	r1, [r4, #24]	@ movhi
	ldrb	r1, [r5, #1]	@ zero_extendqisi2
	strh	r1, [r4, #26]	@ movhi
	uxth	r3, r3
	ldrb	r1, [r5]	@ zero_extendqisi2
	strh	r3, [r4, #22]	@ movhi
	cmp	r1, #1
	bne	.L1042
	mov	r3, r3, asl #1
	mov	r1, r8, lsr #1
	mov	r2, r2, asl #1
	strh	r3, [r4, #22]	@ movhi
	strb	r9, [r7, #1]
	mov	r3, #8
	strh	r1, [r4, #14]	@ movhi
	strh	r2, [r4, #20]	@ movhi
	strh	r3, [r4, #26]	@ movhi
.L1042:
	ldrb	r0, [r6, #20]	@ zero_extendqisi2
	bl	FlashBchSel
	bl	ftl_flash_suspend
	mov	r0, #0
	b	.L1057
.L1044:
	mvn	r0, #1
.L1057:
	add	sp, sp, #20
	@ sp needed
	ldmfd	sp!, {r4, r5, r6, r7, r8, r9, r10, fp, pc}
.L1088:
	.align	2
.L1087:
	.word	.LANCHOR2
	.word	.LANCHOR0
	.word	IDByte
	.word	.LANCHOR0+12
	.word	.LC13
	.word	.LANCHOR0+3916
	.word	1446522928
	.word	.LANCHOR1+256
	.word	.LANCHOR1
	.word	.LANCHOR1+3252
	.word	.LANCHOR1+2912
	.word	.LANCHOR0+44
	.word	.LC14
	.word	g_retryMode
	.word	g_maxRetryCount
	.word	g_maxRegNum
	.word	HynixReadRetrial
	.word	.LANCHOR0+3944
	.word	MicronReadRetrial
	.word	ToshibaReadRetrial
	.word	SamsungReadRetrial
	.word	.LANCHOR0+3876
	.word	150000
	.fnend
	.size	FlashInit, .-FlashInit
	.align	2
	.global	FlashPageProgMsbFFData
	.type	FlashPageProgMsbFFData, %function
FlashPageProgMsbFFData:
	.fnstart
	@ args = 0, pretend = 0, frame = 0
	@ frame_needed = 0, uses_anonymous_args = 0
	stmfd	sp!, {r3, r4, r5, r6, r7, r8, r9, r10, fp, lr}
	.save {r3, r4, r5, r6, r7, r8, r9, r10, fp, lr}
	mov	r4, r2
	ldr	r3, .L1106
	mov	r8, r0
	mov	r9, r1
	ldr	r2, [r3, #1784]
	mov	r6, r3
	ldrb	r7, [r2, #19]	@ zero_extendqisi2
	ldrb	r2, [r3, #3904]	@ zero_extendqisi2
	cmp	r2, #0
	beq	.L1090
	ldr	r3, .L1106+4
	ldr	r3, [r3, #-3404]
	cmp	r3, #0
	ldmnefd	sp!, {r3, r4, r5, r6, r7, r8, r9, r10, fp, pc}
.L1090:
	sub	r3, r7, #5
	cmp	r7, #68
	cmpne	r3, #3
	bls	.L1091
	sub	r3, r7, #19
	tst	r3, #239
	ldmnefd	sp!, {r3, r4, r5, r6, r7, r8, r9, r10, fp, pc}
.L1091:
	ldr	r10, .L1106+8
	movw	fp, #65535
	ldr	r5, .L1106+4
.L1093:
	ldr	r3, [r6, #1784]
	ldrh	r3, [r3, #10]
	cmp	r3, r4
	bls	.L1105
	mov	r3, r4, asl #1
	ldrh	r3, [r10, r3]
	cmp	r3, fp
	ldmnefd	sp!, {r3, r4, r5, r6, r7, r8, r9, r10, fp, pc}
	cmp	r7, #8
	mov	r2, #32768
	ldr	r0, [r5, #-3308]
	moveq	r1, #0
	movne	r1, #255
	bl	ftl_memset
	ldr	r2, [r5, #-3308]
	add	r1, r4, r9
	add	r4, r4, #1
	mov	r0, r8
	mov	r3, r2
	uxth	r4, r4
	bl	FlashProgPage
	b	.L1093
.L1105:
	ldmfd	sp!, {r3, r4, r5, r6, r7, r8, r9, r10, fp, pc}
.L1107:
	.align	2
.L1106:
	.word	.LANCHOR0
	.word	.LANCHOR2
	.word	.LANCHOR0+588
	.fnend
	.size	FlashPageProgMsbFFData, .-FlashPageProgMsbFFData
	.align	2
	.global	FlashReadSlc2KPages
	.type	FlashReadSlc2KPages, %function
FlashReadSlc2KPages:
	.fnstart
	@ args = 0, pretend = 0, frame = 32
	@ frame_needed = 0, uses_anonymous_args = 0
	ldr	r3, .L1160
	stmfd	sp!, {r4, r5, r6, r7, r8, r9, r10, fp, lr}
	.save {r4, r5, r6, r7, r8, r9, r10, fp, lr}
	.pad #44
	sub	sp, sp, #44
	ldr	r9, .L1160+4
	mov	r4, r0
	str	r2, [sp, #16]
	mov	r8, #0
	ldr	r2, [r3]
	mov	r10, r9
	str	r1, [sp, #12]
	str	r3, [sp, #20]
	str	r2, [sp, #36]
	ldr	r2, .L1160+8
	ldrb	r2, [r2, #265]	@ zero_extendqisi2
	str	r2, [sp, #8]
.L1109:
	ldr	r3, [sp, #12]
	cmp	r8, r3
	beq	.L1159
	ldr	r3, [sp, #12]
	add	r2, sp, #32
	mov	r0, r4
	ldr	r1, [sp, #16]
	rsb	r3, r8, r3
	uxtb	r3, r3
	str	r3, [sp]
	add	r3, sp, #28
	bl	LogAddr2PhyAddr
	ldrb	r2, [r9, #1612]	@ zero_extendqisi2
	ldr	r3, [sp, #28]
	cmp	r3, r2
	mvncs	r3, #0
	strcs	r3, [r4]
	bcs	.L1111
	add	r3, r9, r3
	mov	r7, #0
	ldrb	r5, [r3, #1616]	@ zero_extendqisi2
	mov	r0, r5
	bl	NandcWaitFlashReady
	mov	r0, r5
	bl	NandcFlashCs
.L1112:
	ldr	r1, [sp, #32]
	mov	r0, r5
	bl	FlashReadCmd
	mov	r0, r5
	bl	NandcWaitFlashReady
	ldr	r3, [r4, #12]
	mov	r0, r5
	mov	r1, #0
	str	r3, [sp]
	ldr	r2, [sp, #8]
	ldr	r3, [r4, #8]
	bl	NandcXferData
	ldr	r3, .L1160+12
	ldrb	r3, [r3, #-3292]	@ zero_extendqisi2
	cmp	r3, #0
	mov	r6, r0
	beq	.L1113
	mov	r0, r5
	bl	flash_read_ecc
	cmp	r0, #5
	movhi	r6, #256
.L1113:
	cmp	r7, #9
	cmnls	r6, #1
	moveq	r3, #1
	movne	r3, #0
	addeq	r7, r7, #1
	beq	.L1112
.L1114:
	cmp	r7, #0
	mov	r7, r3
	movne	r6, #256
.L1116:
	ldr	r3, [sp, #32]
	mov	r0, r5
	ldr	r1, [r10, #4]
	add	r1, r1, r3
	bl	FlashReadCmd
	mov	r0, r5
	bl	NandcWaitFlashReady
	ldr	r3, [r4, #8]
	ldr	r2, [r4, #12]
	mov	r0, r5
	cmp	r3, #0
	mov	r1, #0
	addne	r3, r3, #2048
	cmp	r2, #0
	addne	r2, r2, #8
	str	r2, [sp]
	ldr	r2, [sp, #8]
	bl	NandcXferData
	ldr	r3, .L1160+12
	ldrb	r2, [r3, #-3292]	@ zero_extendqisi2
	cmp	r2, #0
	mov	fp, r0
	beq	.L1119
	mov	r0, r5
	bl	flash_read_ecc
	cmp	r0, #5
	movhi	fp, #256
.L1119:
	cmp	r7, #9
	cmnls	fp, #1
	addeq	r7, r7, #1
	beq	.L1116
.L1120:
	cmp	r7, #0
	mov	r0, r5
	movne	fp, #256
	bl	NandcFlashDeCs
	ldrb	r2, [r10, #3905]	@ zero_extendqisi2
	cmp	fp, r6
	movcs	r3, fp
	movcc	r3, r6
	add	r2, r2, r2, asl #1
	cmp	r3, r2, asr #2
	bls	.L1122
	cmn	r3, #1
	movne	r3, #256
.L1122:
	cmp	r3, #256
	cmnne	r3, #1
	movne	r3, #0
	str	r3, [r4]
	ldr	r3, [r4, #12]
	cmp	r3, #0
	beq	.L1125
	ldr	r2, [r3, #12]
	cmn	r2, #1
	bne	.L1125
	ldr	r2, [r3, #8]
	cmn	r2, #1
	bne	.L1125
	ldr	r3, [r3]
	cmn	r3, #1
	strne	r2, [r4]
.L1125:
	ldr	r3, [r4]
	cmn	r3, #1
	bne	.L1111
	ldr	r1, [r4, #4]
	ldr	r0, .L1160+16
	ldrb	r2, [r10, #3905]	@ zero_extendqisi2
	bl	printk
	ldr	r1, [r4, #8]
	cmp	r1, #0
	beq	.L1127
	ldr	r0, .L1160+20
	mov	r2, #4
	mov	r3, #8
	bl	rknand_print_hex
.L1127:
	ldr	r1, [r4, #12]
	cmp	r1, #0
	beq	.L1111
	mov	r2, #4
	ldr	r0, .L1160+24
	mov	r3, r2
	bl	rknand_print_hex
.L1111:
	add	r8, r8, #1
	add	r4, r4, #36
	b	.L1109
.L1159:
	ldr	r3, [sp, #20]
	mov	r0, #0
	ldr	r2, [sp, #36]
	ldr	r3, [r3]
	cmp	r2, r3
	beq	.L1130
	bl	__stack_chk_fail
.L1130:
	add	sp, sp, #44
	@ sp needed
	ldmfd	sp!, {r4, r5, r6, r7, r8, r9, r10, fp, pc}
.L1161:
	.align	2
.L1160:
	.word	__stack_chk_guard
	.word	.LANCHOR0
	.word	.LANCHOR1
	.word	.LANCHOR2
	.word	.LC15
	.word	.LC16
	.word	.LC17
	.fnend
	.size	FlashReadSlc2KPages, .-FlashReadSlc2KPages
	.align	2
	.global	FlashReadPages
	.type	FlashReadPages, %function
FlashReadPages:
	.fnstart
	@ args = 0, pretend = 0, frame = 48
	@ frame_needed = 0, uses_anonymous_args = 0
	ldr	r3, .L1238
	stmfd	sp!, {r4, r5, r6, r7, r8, r9, r10, fp, lr}
	.save {r4, r5, r6, r7, r8, r9, r10, fp, lr}
	.pad #60
	sub	sp, sp, #60
	ldr	r3, [r3]
	ldr	r6, .L1238+4
	str	r1, [sp, #20]
	str	r3, [sp, #52]
	ldr	r3, .L1238+8
	ldrb	r8, [r6]	@ zero_extendqisi2
	str	r2, [sp, #24]
	ldrb	r3, [r3, #265]	@ zero_extendqisi2
	cmp	r8, #0
	str	r3, [sp, #16]
	ldrb	r3, [r6, #8]	@ zero_extendqisi2
	str	r3, [sp, #28]
	beq	.L1200
	bl	FlashReadSlc2KPages
	b	.L1164
.L1200:
	ldr	r10, .L1238+12
	mov	r9, r0
	mov	fp, r8
.L1163:
	ldr	r3, [sp, #20]
	cmp	fp, r3
	bcs	.L1236
	mov	r3, #36
	add	r2, sp, #48
	mul	r3, r3, fp
	ldr	r1, [sp, #24]
	add	r7, r9, r3
	str	r3, [sp, #8]
	mov	r0, r7
	ldr	r3, [r7, #4]
	str	r3, [sp, #12]
	ldr	r3, [sp, #20]
	rsb	r3, fp, r3
	uxtb	r3, r3
	str	r3, [sp]
	add	r3, sp, #44
	bl	LogAddr2PhyAddr
	ldrb	r2, [r6, #1612]	@ zero_extendqisi2
	ldr	r3, [sp, #44]
	mov	r5, r0
	cmp	r3, r2
	ldrcs	r2, [sp, #8]
	mvncs	r3, #0
	strcs	r3, [r9, r2]
	bcs	.L1166
	add	r3, r6, r3
	ldrb	r4, [r3, #1616]	@ zero_extendqisi2
	ldrb	r3, [r10, #-3291]	@ zero_extendqisi2
	cmp	r3, #0
	mov	r0, r4
	moveq	r5, #0
	bl	NandcWaitFlashReady
	ldr	r3, .L1238+4
	ldr	r3, [r3, #1784]
	ldrb	r2, [r3, #19]	@ zero_extendqisi2
	sub	r3, r2, #1
	cmp	r3, #7
	bhi	.L1168
	sub	r2, r2, #7
	add	r1, r6, r4
	cmp	r2, #1
	add	r2, r10, r4
	ldrb	r3, [r1, #3928]	@ zero_extendqisi2
	ldrb	r2, [r2, #-3416]	@ zero_extendqisi2
	ldrlsb	r3, [r1, #3936]	@ zero_extendqisi2
	cmp	r2, r3
	beq	.L1168
	mov	r0, r4
	ldrb	r1, [r6, #3917]	@ zero_extendqisi2
	ldr	r2, .L1238+16
	bl	HynixSetRRPara
.L1168:
	mov	r0, r4
	bl	NandcFlashCs
	mov	r0, r4
	ldr	r3, [sp, #12]
	ldr	r2, [sp, #24]
	mov	r3, r3, lsr #31
	cmp	r2, #1
	orreq	r3, r3, #1
	str	r3, [sp, #12]
	cmp	r3, #0
	beq	.L1170
	ldrb	r3, [r6, #3904]	@ zero_extendqisi2
	cmp	r3, #0
	beq	.L1170
	bl	flash_enter_slc_mode
	b	.L1171
.L1170:
	bl	flash_exit_slc_mode
.L1171:
	ldr	r1, [sp, #48]
	cmn	r1, #1
	cmpeq	r4, #255
	moveq	r3, #0
	movne	r3, #1
	moveq	r5, r3
	beq	.L1173
	cmp	r5, #0
	beq	.L1174
	ldr	r2, [r6, #4]
	mov	r0, r4
	add	r2, r1, r2
	bl	FlashReadDpCmd
	b	.L1175
.L1174:
	mov	r0, r4
	bl	FlashReadCmd
.L1175:
	mov	r0, r4
	bl	NandcWaitFlashReady
	cmp	r5, #0
	beq	.L1173
	mov	r0, r4
	ldr	r1, [sp, #48]
	bl	FlashReadDpDataOutCmd
.L1173:
	ldr	r3, [r7, #12]
	mov	r0, r4
	ldr	r2, [sp, #16]
	mov	r1, #0
	str	r3, [sp]
	ldr	r3, [r7, #8]
	bl	NandcXferData
	ldrb	r2, [r6, #8]	@ zero_extendqisi2
	adds	r2, r2, #0
	movne	r2, #1
	cmn	r0, #1
	mov	ip, r0
	movne	r2, #0
	cmp	r2, #0
	movne	r3, #0
	strneb	r3, [r6, #8]
	movne	r5, r3
	bne	.L1171
.L1176:
	cmp	r5, #0
	beq	.L1177
	ldr	r3, .L1238+4
	str	r0, [sp, #32]
	mov	r0, r4
	str	r2, [sp, #36]
	ldr	r1, [r3, #4]
	ldr	r3, [sp, #48]
	add	r1, r1, r3
	bl	FlashReadDpDataOutCmd
	mov	r0, r4
	ldr	r3, [sp, #8]
	ldr	r2, [sp, #36]
	add	r3, r3, #36
	add	r3, r9, r3
	ldr	r1, [r3, #12]
	str	r1, [sp]
	mov	r1, r2
	ldr	r3, [r3, #8]
	ldr	r2, [sp, #16]
	bl	NandcXferData
	cmn	r0, #1
	ldr	ip, [sp, #32]
	mov	r8, r0
	moveq	r5, #0
.L1177:
	mov	r0, r4
	str	ip, [sp, #32]
	bl	NandcFlashDeCs
	ldr	ip, [sp, #32]
	ldrb	r3, [sp, #28]	@ zero_extendqisi2
	cmn	ip, #1
	strb	r3, [r6, #8]
	bne	.L1184
	ldrb	r3, [r10, #-3400]	@ zero_extendqisi2
	cmp	r3, #0
	bne	.L1179
.L1183:
	ldr	r5, [r10, #-3328]
	cmp	r5, #0
	bne	.L1180
	b	.L1237
.L1179:
	ldr	r3, [r6, #3840]
	mov	r0, r4
	ldr	r1, [sp, #48]
	ldr	r5, [r3, #304]
	mov	r3, #1
	str	r3, [sp]
	ldr	r2, [r7, #8]
	ldr	r3, [r7, #12]
	bl	FlashDdrTunningRead
	cmn	r0, #1
	mov	ip, r0
	beq	.L1182
	ldrb	r3, [r6, #3905]	@ zero_extendqisi2
	cmp	r0, r3, lsr #1
	bls	.L1203
.L1182:
	ubfx	r0, r5, #8, #8
	str	ip, [sp, #32]
	bl	NandcSetDdrPara
	ldr	ip, [sp, #32]
	cmn	ip, #1
	beq	.L1183
	b	.L1203
.L1180:
	mov	r0, r4
	ldr	r1, [sp, #48]
	ldr	r2, [r7, #8]
	ldr	r3, [r7, #12]
	blx	r5
	cmn	r0, #1
	mov	ip, r0
	bne	.L1205
	ldr	r3, [r6, #1784]
	ldrb	r3, [r3, #19]	@ zero_extendqisi2
	sub	r3, r3, #1
	cmp	r3, #7
	bhi	.L1186
	mov	r0, r4
	ldrb	r1, [r6, #3917]	@ zero_extendqisi2
	ldr	r2, .L1238+16
	mov	r3, #0
	bl	HynixSetRRPara
.L1186:
	ldr	r1, [sp, #48]
	mov	r0, r4
	ldr	r2, [r7, #8]
	ldr	r3, [r7, #12]
	bl	FlashReadRawPage
	ldr	r1, [r7, #4]
	ldrb	r2, [r6, #3905]	@ zero_extendqisi2
	mov	ip, r0
	ldr	r0, .L1238+20
	mov	r3, ip
	str	ip, [sp, #32]
	bl	printk
	ldr	ip, [sp, #32]
	cmn	ip, #1
	bne	.L1205
	ldrb	r5, [r6, #3904]	@ zero_extendqisi2
	cmp	r5, #0
	beq	.L1185
	ldr	r3, [sp, #12]
	mov	r0, r4
	cmp	r3, #0
	beq	.L1187
	bl	flash_enter_slc_mode
	b	.L1188
.L1187:
	bl	flash_exit_slc_mode
.L1188:
	ldr	ip, [r10, #-3328]
	mov	r0, r4
	ldr	r1, [sp, #48]
	ldr	r2, [r7, #8]
	ldr	r3, [r7, #12]
	blx	ip
	mov	ip, r0
	b	.L1205
.L1237:
	mov	r0, r4
	ldr	r1, [sp, #48]
	ldr	r2, [r7, #8]
	ldr	r3, [r7, #12]
	bl	FlashReadRawPage
	mov	ip, r0
	b	.L1185
.L1203:
	mov	r5, #0
.L1184:
	ldrb	r3, [r6, #3905]	@ zero_extendqisi2
	add	r3, r3, r3, asl #1
	cmp	ip, r3, asr #2
	bls	.L1185
	ldr	r3, [r10, #-3328]
	cmp	r3, #0
	moveq	ip, #256
	b	.L1185
.L1205:
	mov	r5, #0
.L1185:
	cmp	ip, #256
	cmnne	ip, #1
	ldreq	r3, [sp, #8]
	movne	r3, #0
	ldrne	r2, [sp, #8]
	streq	ip, [r9, r3]
	strne	r3, [r9, r2]
	ldr	r3, [sp, #8]
	ldr	r3, [r9, r3]
	cmn	r3, #1
	bne	.L1192
	ldr	r1, [r7, #4]
	ldr	r0, .L1238+24
	ldrb	r2, [r6, #3905]	@ zero_extendqisi2
	bl	printk
	ldr	r1, [r7, #12]
	cmp	r1, #0
	beq	.L1192
	mov	r2, #4
	ldr	r0, .L1238+28
	mov	r3, r2
	bl	rknand_print_hex
.L1192:
	cmp	r5, #0
	beq	.L1194
	ldrb	r3, [r6, #3905]	@ zero_extendqisi2
	add	r3, r3, r3, asl #1
	cmp	r8, r3, asr #2
	bls	.L1195
	ldr	r3, [r10, #-3328]
	cmp	r3, #0
	moveq	r8, #256
.L1195:
	ldr	r3, [sp, #8]
	cmp	r8, #256
	cmnne	r8, #1
	add	r3, r3, #36
	movne	r2, #0
	streq	r8, [r9, r3]
	strne	r2, [r9, r3]
.L1194:
	ldr	r3, [sp, #12]
	add	fp, fp, r5
	cmp	r3, #0
	beq	.L1166
	ldrb	r3, [r6, #3904]	@ zero_extendqisi2
	cmp	r3, #0
	beq	.L1166
	mov	r0, r4
	bl	flash_exit_slc_mode
.L1166:
	add	fp, fp, #1
	b	.L1163
.L1236:
	mov	r0, #0
.L1164:
	ldr	r3, .L1238
	ldr	r2, [sp, #52]
	ldr	r3, [r3]
	cmp	r2, r3
	beq	.L1199
	bl	__stack_chk_fail
.L1199:
	add	sp, sp, #60
	@ sp needed
	ldmfd	sp!, {r4, r5, r6, r7, r8, r9, r10, fp, pc}
.L1239:
	.align	2
.L1238:
	.word	__stack_chk_guard
	.word	.LANCHOR0
	.word	.LANCHOR1
	.word	.LANCHOR2
	.word	.LANCHOR0+3920
	.word	.LC18
	.word	.LC15
	.word	.LC17
	.fnend
	.size	FlashReadPages, .-FlashReadPages
	.align	2
	.global	FlashLoadFactorBbt
	.type	FlashLoadFactorBbt, %function
FlashLoadFactorBbt:
	.fnstart
	@ args = 0, pretend = 0, frame = 56
	@ frame_needed = 0, uses_anonymous_args = 0
	stmfd	sp!, {r4, r5, r6, r7, r8, r9, r10, fp, lr}
	.save {r4, r5, r6, r7, r8, r9, r10, fp, lr}
	.pad #60
	sub	sp, sp, #60
	ldr	r4, .L1254
	mov	r1, #0
	ldr	r5, .L1254+4
	mov	r2, #16
	ldr	r0, .L1254+8
	mvn	r10, #0
	ldr	r3, [r4]
	ldrh	ip, [r5, #14]
	ldr	r9, .L1254+12
	str	r3, [sp, #52]
	ldrh	r3, [r5, #12]
	mov	r5, #0
	ldr	fp, .L1254+16
	mov	r8, r5
	smulbb	r3, r3, ip
	uxth	r6, r3
	bl	ftl_memset
	ldr	r3, [r9, #-3304]
	str	r5, [sp, #24]
	str	r3, [sp, #28]
	str	r4, [sp, #4]
.L1241:
	ldrb	r3, [fp, #1612]	@ zero_extendqisi2
	uxtb	r7, r5
	cmp	r3, r7
	bls	.L1253
	mul	ip, r6, r7
	sub	r4, r6, #1
	sub	r3, r6, #12
	uxth	r4, r4
.L1242:
	cmp	r4, r3
	ble	.L1244
	add	r2, ip, r4
	mov	r1, #1
	add	r0, sp, #16
	str	r3, [sp, #12]
	mov	r2, r2, asl #10
	str	r2, [sp, #20]
	mov	r2, r1
	str	ip, [sp, #8]
	bl	FlashReadPages
	ldr	r2, [sp, #16]
	ldr	ip, [sp, #8]
	cmn	r2, #1
	ldr	r3, [sp, #12]
	beq	.L1243
	ldr	r2, [r9, #-3304]
	ldrh	r1, [r2]
	movw	r2, #61664
	cmp	r1, r2
	bne	.L1243
	mov	r1, r7
	ldr	r0, .L1254+20
	mov	r2, r4
	mov	r7, r7, asl #1
	bl	printk
	ldr	r3, .L1254+8
	add	r8, r8, #1
	strh	r4, [r3, r7]	@ movhi
	uxth	r8, r8
	b	.L1244
.L1243:
	sub	r4, r4, #1
	uxth	r4, r4
	b	.L1242
.L1244:
	ldr	r3, .L1254+16
	add	r5, r5, #1
	ldrb	r3, [r3, #1612]	@ zero_extendqisi2
	cmp	r3, r8
	moveq	r10, #0
	b	.L1241
.L1253:
	ldr	r3, [sp, #4]
	mov	r0, r10
	ldr	r2, [sp, #52]
	ldr	r3, [r3]
	cmp	r2, r3
	beq	.L1248
	bl	__stack_chk_fail
.L1248:
	add	sp, sp, #60
	@ sp needed
	ldmfd	sp!, {r4, r5, r6, r7, r8, r9, r10, fp, pc}
.L1255:
	.align	2
.L1254:
	.word	__stack_chk_guard
	.word	.LANCHOR0+3876
	.word	.LANCHOR2-3288
	.word	.LANCHOR2
	.word	.LANCHOR0
	.word	.LC19
	.fnend
	.size	FlashLoadFactorBbt, .-FlashLoadFactorBbt
	.align	2
	.global	FlashReadFacBbtData
	.type	FlashReadFacBbtData, %function
FlashReadFacBbtData:
	.fnstart
	@ args = 0, pretend = 0, frame = 40
	@ frame_needed = 0, uses_anonymous_args = 0
	stmfd	sp!, {r4, r5, r6, r7, r8, r9, r10, fp, lr}
	.save {r4, r5, r6, r7, r8, r9, r10, fp, lr}
	.pad #44
	sub	sp, sp, #44
	ldr	r9, .L1272
	mov	r10, r2
	ldr	r8, .L1272+4
	mov	r5, r0
	mov	r7, r1
	ldr	r3, [r9]
	str	r3, [sp, #36]
	ldr	r3, .L1272+8
	ldrh	r2, [r3, #12]
	ldrh	r4, [r3, #14]
	ldr	r3, [r8, #-3408]
	smulbb	r4, r2, r4
	str	r3, [sp, #8]
	ldr	r3, [r8, #-3304]
	str	r3, [sp, #12]
	uxth	r0, r4
	sub	r6, r0, #1
	sub	r4, r0, #16
	mul	fp, r0, r1
	uxth	r6, r6
.L1257:
	cmp	r6, r4
	ble	.L1271
	mov	r1, #1
	add	r3, r6, fp
	mov	r0, sp
	mov	r2, r1
	mov	r3, r3, asl #10
	str	r3, [sp, #4]
	bl	FlashReadPages
	ldr	r3, [sp]
	cmn	r3, #1
	beq	.L1258
	ldr	r3, [r8, #-3304]
	ldrh	r2, [r3]
	movw	r3, #61664
	cmp	r2, r3
	bne	.L1258
	cmp	r5, #0
	moveq	r0, r5
	beq	.L1259
	cmp	r7, #0
	ldreq	ip, .L1272+4
	moveq	lr, #1
	beq	.L1260
.L1262:
	ldr	r1, [r8, #-3408]
	mov	r2, r10
	mov	r0, r5
	bl	ftl_memcpy
	mov	r2, #4
	ldr	r0, .L1272+12
	mov	r1, r5
	mov	r3, r2
	bl	rknand_print_hex
	mov	r0, #0
	b	.L1259
.L1260:
	ldr	r3, [r8, #-3316]
	uxth	r4, r7
	add	r7, r7, #1
	cmp	r4, r3
	bcs	.L1262
	ldr	r2, [ip, #-3408]
	mov	r1, r4, lsr #5
	and	r0, r4, #31
	ldr	r3, [r2, r1, asl #2]
	orr	r0, r3, lr, asl r0
	str	r0, [r2, r1, asl #2]
	b	.L1260
.L1258:
	sub	r6, r6, #1
	uxth	r6, r6
	b	.L1257
.L1271:
	mvn	r0, #0
.L1259:
	ldr	r2, [sp, #36]
	ldr	r3, [r9]
	cmp	r2, r3
	beq	.L1264
	bl	__stack_chk_fail
.L1264:
	add	sp, sp, #44
	@ sp needed
	ldmfd	sp!, {r4, r5, r6, r7, r8, r9, r10, fp, pc}
.L1273:
	.align	2
.L1272:
	.word	__stack_chk_guard
	.word	.LANCHOR2
	.word	.LANCHOR0+3876
	.word	.LC20
	.fnend
	.size	FlashReadFacBbtData, .-FlashReadFacBbtData
	.align	2
	.global	FlashGetBadBlockList
	.type	FlashGetBadBlockList, %function
FlashGetBadBlockList:
	.fnstart
	@ args = 0, pretend = 0, frame = 0
	@ frame_needed = 0, uses_anonymous_args = 0
	ldr	r3, .L1285
	stmfd	sp!, {r4, r5, r6, r7, r8, lr}
	.save {r4, r5, r6, r7, r8, lr}
	mov	r5, r0
	ldr	r3, [r3, #1784]
	ldr	r6, .L1285+4
	ldrb	r4, [r3, #13]	@ zero_extendqisi2
	ldrh	r3, [r3, #14]
	ldr	r0, [r6, #-3308]
	smulbb	r4, r4, r3
	uxth	r4, r4
	add	r2, r4, #7
	mov	r2, r2, asr #3
	bl	FlashReadFacBbtData
	cmn	r0, #1
	bne	.L1275
.L1279:
	mov	r3, #0
	b	.L1276
.L1275:
	mov	lr, r4, lsr #4
	mov	ip, #0
	sub	r4, r4, #1
	mov	r3, ip
	mov	r7, #1
.L1277:
	uxth	r0, ip
	cmp	r0, r4
	bge	.L1276
	ldr	r8, [r6, #-3308]
	mov	r1, r0, lsr #5
	and	r2, r0, #31
	add	ip, ip, #1
	ldr	r1, [r8, r1, asl #2]
	ands	r2, r1, r7, asl r2
	addne	r2, r3, #1
	movne	r3, r3, asl #1
	strneh	r0, [r5, r3]	@ movhi
	uxthne	r3, r2
	cmp	r3, lr
	bcc	.L1277
	b	.L1279
.L1276:
	mov	r3, r3, asl #1
	mvn	r2, #0
	mov	r0, #0
	strh	r2, [r5, r3]	@ movhi
	ldmfd	sp!, {r4, r5, r6, r7, r8, pc}
.L1286:
	.align	2
.L1285:
	.word	.LANCHOR0
	.word	.LANCHOR2
	.fnend
	.size	FlashGetBadBlockList, .-FlashGetBadBlockList
	.align	2
	.global	FlashProgSlc2KPages
	.type	FlashProgSlc2KPages, %function
FlashProgSlc2KPages:
	.fnstart
	@ args = 0, pretend = 0, frame = 56
	@ frame_needed = 0, uses_anonymous_args = 0
	stmfd	sp!, {r4, r5, r6, r7, r8, r9, r10, fp, lr}
	.save {r4, r5, r6, r7, r8, r9, r10, fp, lr}
	.pad #68
	sub	sp, sp, #68
	mov	r9, r2
	ldr	r8, .L1319
	str	r3, [sp, #8]
	mov	r6, r1
	ldr	r3, .L1319+4
	mov	r4, r0
	mov	fp, r0
	mov	r7, #0
	ldr	r2, [r3]
	str	r3, [sp, #12]
	str	r2, [sp, #60]
	ldr	r2, .L1319+8
	ldrb	r10, [r2, #265]	@ zero_extendqisi2
.L1288:
	cmp	r7, r6
	beq	.L1318
	rsb	r3, r7, r6
	add	r2, sp, #16
	mov	r0, fp
	mov	r1, r9
	uxtb	r3, r3
	str	r3, [sp]
	add	r3, sp, #20
	bl	LogAddr2PhyAddr
	ldrb	r2, [r8, #1612]	@ zero_extendqisi2
	ldr	r3, [sp, #20]
	cmp	r3, r2
	mvncs	r3, #0
	strcs	r3, [fp]
	bcs	.L1290
	add	r3, r8, r3
	ldrb	r5, [r3, #1616]	@ zero_extendqisi2
	mov	r0, r5
	bl	NandcWaitFlashReady
	mov	r0, r5
	bl	NandcFlashCs
	mov	r0, r5
	ldr	r1, [sp, #16]
	bl	FlashProgFirstCmd
	ldr	r3, [fp, #12]
	mov	r2, r10
	mov	r1, #1
	mov	r0, r5
	str	r3, [sp]
	ldr	r3, [fp, #8]
	bl	NandcXferData
	mov	r0, r5
	ldr	r1, [sp, #16]
	bl	FlashProgSecondCmd
	mov	r0, r5
	bl	NandcWaitFlashReady
	mov	r0, r5
	ldr	r1, [sp, #16]
	bl	FlashReadStatus
	ldr	r3, [sp, #16]
	sbfx	r0, r0, #0, #1
	str	r0, [fp]
	mov	r0, r5
	ldr	r1, [r8, #4]
	add	r1, r1, r3
	bl	FlashProgFirstCmd
	ldr	r3, [fp, #8]
	ldr	r2, [fp, #12]
	mov	r1, #1
	cmp	r3, #0
	mov	r0, r5
	addne	r3, r3, #2048
	cmp	r2, #0
	addne	r2, r2, #8
	str	r2, [sp]
	mov	r2, r10
	bl	NandcXferData
	ldr	r1, [r8, #4]
	mov	r0, r5
	ldr	r3, [sp, #16]
	add	r1, r1, r3
	bl	FlashProgSecondCmd
	mov	r0, r5
	bl	NandcWaitFlashReady
	mov	r0, r5
	ldr	r1, [sp, #16]
	bl	FlashReadStatus
	tst	r0, #1
	mov	r0, r5
	mvnne	r3, #0
	strne	r3, [fp]
	bl	NandcFlashDeCs
.L1290:
	add	r7, r7, #1
	add	fp, fp, #36
	b	.L1288
.L1318:
	ldr	r3, [sp, #8]
	cmp	r3, #0
	bne	.L1306
.L1302:
	ldr	r3, [sp, #12]
	mov	r0, #0
	ldr	r2, [sp, #60]
	ldr	r3, [r3]
	cmp	r2, r3
	beq	.L1303
	bl	__stack_chk_fail
.L1306:
	ldr	r5, .L1319+12
	mov	r7, #0
	mov	r8, r5
.L1295:
	cmp	r7, r6
	beq	.L1302
	ldr	r3, [r4]
	cmn	r3, #1
	bne	.L1296
	ldr	r1, [r4, #4]
	ldr	r0, .L1319+16
	bl	printk
	b	.L1297
.L1296:
	rsb	r3, r7, r6
	mov	r1, r9
	add	r2, sp, #16
	mov	r0, r4
	uxtb	r3, r3
	str	r3, [sp]
	add	r3, sp, #20
	bl	LogAddr2PhyAddr
	ldr	r2, [r5, #-3300]
	mov	r3, #0
	mov	lr, r4
	str	r3, [r2]
	ldr	r2, [r5, #-3296]
	str	r3, [r2]
	ldmia	lr!, {r0, r1, r2, r3}
	add	ip, sp, #24
	stmia	ip!, {r0, r1, r2, r3}
	ldmia	lr!, {r0, r1, r2, r3}
	stmia	ip!, {r0, r1, r2, r3}
	add	r0, sp, #24
	ldr	r3, [lr]
	mov	r1, #1
	mov	r2, r9
	str	r3, [ip]
	ldr	r3, [r5, #-3300]
	str	r3, [sp, #32]
	ldr	r3, [r5, #-3296]
	str	r3, [sp, #36]
	bl	FlashReadPages
	ldr	r10, [sp, #24]
	cmn	r10, #1
	bne	.L1298
	ldr	r0, .L1319+20
	ldr	r1, [r4, #4]
	bl	printk
	str	r10, [r4]
.L1298:
	ldr	r3, [r4, #12]
	cmp	r3, #0
	beq	.L1299
	ldr	r2, [r3]
	ldr	r3, [r8, #-3296]
	ldr	r3, [r3]
	cmp	r2, r3
	beq	.L1299
	ldr	r0, .L1319+24
	ldr	r1, [r4, #4]
	bl	printk
	mvn	r3, #0
	str	r3, [r4]
.L1299:
	ldr	r3, [r4, #8]
	cmp	r3, #0
	beq	.L1297
	ldr	r2, [r3]
	ldr	r3, [r8, #-3300]
	ldr	r3, [r3]
	cmp	r2, r3
	beq	.L1297
	ldr	r0, .L1319+28
	ldr	r1, [r4, #4]
	bl	printk
	mvn	r3, #0
	str	r3, [r4]
.L1297:
	add	r7, r7, #1
	add	r4, r4, #36
	b	.L1295
.L1303:
	add	sp, sp, #68
	@ sp needed
	ldmfd	sp!, {r4, r5, r6, r7, r8, r9, r10, fp, pc}
.L1320:
	.align	2
.L1319:
	.word	.LANCHOR0
	.word	__stack_chk_guard
	.word	.LANCHOR1
	.word	.LANCHOR2
	.word	.LC21
	.word	.LC22
	.word	.LC23
	.word	.LC24
	.fnend
	.size	FlashProgSlc2KPages, .-FlashProgSlc2KPages
	.align	2
	.global	FlashProgPages
	.type	FlashProgPages, %function
FlashProgPages:
	.fnstart
	@ args = 0, pretend = 0, frame = 64
	@ frame_needed = 0, uses_anonymous_args = 0
	ldr	ip, .L1379
	stmfd	sp!, {r4, r5, r6, r7, r8, r9, r10, fp, lr}
	.save {r4, r5, r6, r7, r8, r9, r10, fp, lr}
	.pad #76
	sub	sp, sp, #76
	ldr	ip, [ip]
	mov	r4, r0
	ldr	r6, .L1379+4
	mov	r9, r2
	str	r1, [sp, #8]
	str	ip, [sp, #68]
	ldr	ip, [r6, #1784]
	ldrb	r8, [r6]	@ zero_extendqisi2
	str	r3, [sp, #20]
	ldrb	ip, [ip, #19]	@ zero_extendqisi2
	cmp	r8, #0
	str	ip, [sp, #16]
	ldr	ip, .L1379+8
	ldrb	ip, [ip, #265]	@ zero_extendqisi2
	str	ip, [sp, #12]
	beq	.L1322
	bl	FlashProgSlc2KPages
	b	.L1323
.L1336:
	mov	r7, #36
	ldr	r3, [sp, #8]
	mul	r7, r7, r8
	rsb	r3, r8, r3
	add	r2, sp, #24
	mov	r1, r9
	uxtb	r3, r3
	str	r3, [sp]
	add	fp, r4, r7
	add	r3, sp, #28
	mov	r0, fp
	bl	LogAddr2PhyAddr
	ldrb	r2, [r6, #1612]	@ zero_extendqisi2
	ldr	r3, [sp, #28]
	mov	r10, r0
	cmp	r3, r2
	mvncs	r3, #0
	strcs	r3, [r4, r7]
	bcc	.L1376
.L1325:
	add	r8, r8, #1
.L1322:
	ldr	r3, [sp, #8]
	ldr	r5, .L1379+4
	cmp	r8, r3
	bcc	.L1336
	b	.L1377
.L1376:
	ldr	r1, .L1379+12
	add	r3, r6, r3, asl #4
	ldr	r3, [r3, #1664]
	ldrb	r1, [r1, #-3340]	@ zero_extendqisi2
	cmp	r1, #0
	moveq	r10, #0
	cmp	r3, #0
	beq	.L1327
	cmp	r2, #1
	bne	.L1328
	ldr	r0, [r6, #3840]
	bl	NandcIqrWaitFlashReady
.L1328:
	ldrb	r0, [sp, #28]	@ zero_extendqisi2
	bl	FlashWaitCmdDone
.L1327:
	ldr	r3, [sp, #28]
	mov	r1, #0
	cmp	r10, #0
	add	r2, r6, r3, asl #4
	str	r1, [r2, #1668]
	ldr	r1, [sp, #24]
	str	fp, [r2, #1664]
	str	r1, [r2, #1660]
	addne	r1, r7, #36
	addne	r1, r4, r1
	strne	r1, [r2, #1668]
	add	r2, r6, r3
	add	r3, r6, r3, asl #4
	ldrb	r5, [r2, #1616]	@ zero_extendqisi2
	strb	r5, [r3, #1656]
	mov	r0, r5
	ldrb	r3, [r6, #1612]	@ zero_extendqisi2
	cmp	r3, #1
	bne	.L1330
	bl	NandcWaitFlashReady
	b	.L1331
.L1330:
	bl	NandcFlashCs
	mov	r0, r5
	ldr	r3, [sp, #28]
	ldr	r1, [sp, #24]
	add	r3, r6, r3, asl #2
	ldr	r2, [r3, #1624]
	adds	r2, r2, #0
	movne	r2, #1
	bl	FlashWaitReadyEN
	mov	r0, r5
	bl	NandcFlashDeCs
.L1331:
	ldr	r3, [sp, #16]
	sub	r3, r3, #1
	cmp	r3, #7
	bhi	.L1332
	ldr	r3, .L1379+12
	add	r3, r3, r5
	ldrb	r3, [r3, #-3416]	@ zero_extendqisi2
	cmp	r3, #0
	beq	.L1332
	mov	r0, r5
	ldrb	r1, [r6, #3917]	@ zero_extendqisi2
	ldr	r2, .L1379+16
	mov	r3, #0
	bl	HynixSetRRPara
.L1332:
	mov	r0, r5
	bl	NandcFlashCs
	cmp	r9, #1
	mov	r0, r5
	bne	.L1333
	ldrb	r3, [r6, #3904]	@ zero_extendqisi2
	cmp	r3, #0
	beq	.L1333
	bl	flash_enter_slc_mode
	b	.L1334
.L1333:
	bl	flash_exit_slc_mode
.L1334:
	mov	r0, r5
	ldr	r1, [sp, #24]
	bl	FlashProgFirstCmd
	ldr	r3, [fp, #12]
	mov	r0, r5
	mov	r1, #1
	str	r3, [sp]
	ldr	r2, [sp, #12]
	ldr	r3, [fp, #8]
	bl	NandcXferData
	cmp	r10, #0
	beq	.L1335
	mov	r0, r5
	ldr	r1, [sp, #24]
	bl	FlashProgDpFirstCmd
	mov	r0, r5
	add	r7, r7, #36
	add	r7, r4, r7
	ldr	r3, [sp, #28]
	ldr	r1, [sp, #24]
	add	r3, r6, r3, asl #2
	ldr	r2, [r3, #1624]
	adds	r2, r2, #0
	movne	r2, #1
	bl	FlashWaitReadyEN
	ldr	r1, [r6, #4]
	mov	r0, r5
	ldr	r3, [sp, #24]
	add	r1, r1, r3
	bl	FlashProgDpSecondCmd
	ldr	r3, [r7, #12]
	mov	r0, r5
	mov	r1, #1
	str	r3, [sp]
	ldr	r2, [sp, #12]
	ldr	r3, [r7, #8]
	bl	NandcXferData
.L1335:
	mov	r0, r5
	ldr	r1, [sp, #24]
	bl	FlashProgSecondCmd
	mov	r0, r5
	bl	NandcFlashDeCs
	add	r8, r8, r10
	b	.L1325
.L1377:
	ldr	r0, [r5, #3840]
	mov	r6, #0
	bl	NandcIqrWaitFlashReady
	ldr	r8, .L1379+20
	mov	r7, r5
.L1337:
	ldrb	r3, [r5, #1612]	@ zero_extendqisi2
	cmp	r6, r3
	bcs	.L1378
	uxtb	r0, r6
	bl	FlashWaitCmdDone
	cmp	r9, #1
	bne	.L1338
	ldrb	r3, [r7, #3904]	@ zero_extendqisi2
	cmp	r3, #0
	beq	.L1338
	ldrb	r0, [r8, r6, asl #4]	@ zero_extendqisi2
	bl	flash_exit_slc_mode
.L1338:
	add	r6, r6, #1
	b	.L1337
.L1378:
	ldr	r3, [sp, #20]
	cmp	r3, #0
	bne	.L1340
.L1348:
	mov	r0, #0
	b	.L1323
.L1340:
	ldr	r5, .L1379+12
	mov	r6, #0
	mov	r7, r5
.L1341:
	ldr	r3, [sp, #8]
	cmp	r6, r3
	beq	.L1348
	ldr	r3, [r4]
	cmn	r3, #1
	bne	.L1342
	ldr	r1, [r4, #4]
	ldr	r0, .L1379+24
	bl	printk
	b	.L1343
.L1342:
	ldr	r3, [sp, #8]
	mov	r1, r9
	add	r2, sp, #24
	mov	r0, r4
	rsb	r3, r6, r3
	uxtb	r3, r3
	str	r3, [sp]
	add	r3, sp, #28
	bl	LogAddr2PhyAddr
	ldr	r2, [r5, #-3300]
	mov	r3, #0
	mov	lr, r4
	str	r3, [r2]
	ldr	r2, [r5, #-3296]
	str	r3, [r2]
	ldmia	lr!, {r0, r1, r2, r3}
	add	ip, sp, #32
	stmia	ip!, {r0, r1, r2, r3}
	ldmia	lr!, {r0, r1, r2, r3}
	stmia	ip!, {r0, r1, r2, r3}
	add	r0, sp, #32
	ldr	r3, [lr]
	mov	r1, #1
	mov	r2, r9
	str	r3, [ip]
	ldr	r3, [r5, #-3300]
	str	r3, [sp, #40]
	ldr	r3, [r5, #-3296]
	str	r3, [sp, #44]
	bl	FlashReadPages
	ldr	r8, [sp, #32]
	cmn	r8, #1
	bne	.L1344
	ldr	r0, .L1379+28
	ldr	r1, [r4, #4]
	bl	printk
	str	r8, [r4]
.L1344:
	ldr	r3, [r4, #12]
	cmp	r3, #0
	beq	.L1345
	ldr	r2, [r3]
	ldr	r3, [r7, #-3296]
	ldr	r3, [r3]
	cmp	r2, r3
	beq	.L1345
	ldr	r0, .L1379+32
	ldr	r1, [r4, #4]
	bl	printk
	mvn	r3, #0
	str	r3, [r4]
.L1345:
	ldr	r3, [r4, #8]
	cmp	r3, #0
	beq	.L1343
	ldr	r2, [r3]
	ldr	r3, [r7, #-3300]
	ldr	r3, [r3]
	cmp	r2, r3
	beq	.L1343
	ldr	r0, .L1379+36
	ldr	r1, [r4, #4]
	bl	printk
	mvn	r3, #0
	str	r3, [r4]
.L1343:
	add	r6, r6, #1
	add	r4, r4, #36
	b	.L1341
.L1323:
	ldr	r3, .L1379
	ldr	r2, [sp, #68]
	ldr	r3, [r3]
	cmp	r2, r3
	beq	.L1349
	bl	__stack_chk_fail
.L1349:
	add	sp, sp, #76
	@ sp needed
	ldmfd	sp!, {r4, r5, r6, r7, r8, r9, r10, fp, pc}
.L1380:
	.align	2
.L1379:
	.word	__stack_chk_guard
	.word	.LANCHOR0
	.word	.LANCHOR1
	.word	.LANCHOR2
	.word	.LANCHOR0+3920
	.word	.LANCHOR0+1656
	.word	.LC21
	.word	.LC22
	.word	.LC23
	.word	.LC24
	.fnend
	.size	FlashProgPages, .-FlashProgPages
	.align	2
	.global	FlashTestBlk
	.type	FlashTestBlk, %function
FlashTestBlk:
	.fnstart
	@ args = 0, pretend = 0, frame = 104
	@ frame_needed = 0, uses_anonymous_args = 0
	ldr	r3, .L1386
	stmfd	sp!, {r4, r5, r6, lr}
	.save {r4, r5, r6, lr}
	.pad #104
	sub	sp, sp, #104
	ldr	r2, [r3]
	mov	r4, r0
	ldr	r5, .L1386+4
	mov	r6, r3
	str	r2, [sp, #100]
	ldr	r2, [r5, #-3316]
	cmp	r0, r2
	movcc	r4, #0
	bcc	.L1382
	ldr	r3, [r5, #-3308]
	add	r0, sp, #36
	mov	r1, #165
	mov	r2, #32
	str	r0, [sp, #12]
	mov	r4, r4, asl #10
	str	r3, [sp, #8]
	bl	ftl_memset
	mov	r1, #90
	mov	r2, #8
	ldr	r0, [r5, #-3308]
	bl	ftl_memset
	mov	r1, #1
	mov	r2, r1
	mov	r0, sp
	str	r4, [sp, #4]
	bl	FlashEraseBlocks
	mov	r1, #1
	mov	r2, r1
	mov	r3, r1
	mov	r0, sp
	bl	FlashProgPages
	mov	r1, #0
	mov	r2, #1
	ldr	r4, [sp]
	mov	r0, sp
	adds	r4, r4, #0
	movne	r4, #1
	rsb	r4, r4, #0
	bl	FlashEraseBlocks
.L1382:
	ldr	r2, [sp, #100]
	mov	r0, r4
	ldr	r3, [r6]
	cmp	r2, r3
	beq	.L1383
	bl	__stack_chk_fail
.L1383:
	add	sp, sp, #104
	@ sp needed
	ldmfd	sp!, {r4, r5, r6, pc}
.L1387:
	.align	2
.L1386:
	.word	__stack_chk_guard
	.word	.LANCHOR2
	.fnend
	.size	FlashTestBlk, .-FlashTestBlk
	.align	2
	.global	FlashMakeFactorBbt
	.type	FlashMakeFactorBbt, %function
FlashMakeFactorBbt:
	.fnstart
	@ args = 0, pretend = 0, frame = 88
	@ frame_needed = 0, uses_anonymous_args = 0
	ldr	r3, .L1444
	mov	r1, #1
	stmfd	sp!, {r4, r5, r6, r7, r8, r9, r10, fp, lr}
	.save {r4, r5, r6, r7, r8, r9, r10, fp, lr}
	.pad #92
	sub	sp, sp, #92
	ldr	r3, [r3]
	ldr	r4, .L1444+4
	ldr	r6, .L1444+8
	str	r3, [sp, #84]
	ldr	r3, [r4, #-3304]
	ldr	r5, .L1444+12
	ldrh	r8, [r6, #12]
	str	r3, [sp, #20]
	ldrh	r3, [r6, #14]
	ldr	r0, .L1444+16
	ldr	r7, .L1444+12
	smulbb	r8, r8, r3
	ldr	r3, [r5, #1784]
	ldrb	r3, [r3, #24]	@ zero_extendqisi2
	uxth	r8, r8
	str	r3, [sp, #24]
	ldrh	r3, [r5, #4]
	str	r3, [sp, #16]
	ldrb	r3, [r5]	@ zero_extendqisi2
	cmp	r3, #1
	ldreq	r3, [sp, #16]
	moveq	r3, r3, asl #1
	uxtheq	r3, r3
	streq	r3, [sp, #16]
	bl	printk
	ldr	r0, [r4, #-3304]
	mov	r1, #0
	mov	r2, #4096
	bl	ftl_memset
	ldr	r4, .L1444+4
	mov	r3, r8, lsr #4
	str	r3, [sp, #28]
	mov	r3, #0
	str	r3, [sp, #8]
.L1390:
	ldrb	r6, [sp, #8]	@ zero_extendqisi2
	ldrb	r3, [r7, #1612]	@ zero_extendqisi2
	cmp	r3, r6
	bls	.L1440
	ldr	r2, .L1444+20
	mov	r3, r6, asl #1
	ldrh	r5, [r2, r3]
	cmp	r5, #0
	bne	.L1420
	ldr	r3, .L1444+8
	mov	r1, r5
	ldr	r0, [r4, #-3408]
	mov	r9, r5
	ldrh	r2, [r3, #20]
	mov	r2, r2, asl #9
	bl	ftl_memset
	add	r3, r7, r6
	ldrb	r10, [r3, #1616]	@ zero_extendqisi2
	mov	r3, r6, asl #2
	add	fp, r7, r3
	str	r5, [sp, #4]
	str	r3, [sp, #32]
.L1392:
	ldrh	r3, [sp, #4]
	cmp	r3, r8
	str	r3, [sp, #12]
	bcs	.L1401
	mvn	r3, #0
	strb	r3, [sp, #46]
	strb	r3, [sp, #47]
	ldr	r3, [sp, #24]
	tst	r3, #1
	beq	.L1394
	ldr	r3, [fp, #1624]
	add	r2, sp, #46
	mov	r0, r10
	add	r3, r5, r3
	str	r3, [sp, #36]
	mov	r1, r3
	bl	FlashReadSpare
	ldrb	r2, [r7]	@ zero_extendqisi2
	cmp	r2, #1
	ldr	r3, [sp, #36]
	bne	.L1394
	ldr	r1, [r7, #4]
	add	r2, sp, #47
	mov	r0, r10
	add	r1, r3, r1
	bl	FlashReadSpare
	ldrb	r3, [sp, #46]	@ zero_extendqisi2
	ldrb	r2, [sp, #47]	@ zero_extendqisi2
	and	r3, r3, r2
	strb	r3, [sp, #46]
.L1394:
	ldr	r3, [sp, #24]
	tst	r3, #2
	beq	.L1396
	ldr	r3, [r7, #1784]
	mov	r0, r10
	add	r2, sp, #47
	ldrh	r1, [r3, #10]
	ldr	r3, [fp, #1624]
	sub	r1, r1, #1
	add	r1, r1, r3
	add	r1, r1, r5
	bl	FlashReadSpare
.L1396:
	ldr	r3, [r7, #1784]
	ldrb	r3, [r3, #7]	@ zero_extendqisi2
	cmp	r3, #1
	cmpne	r3, #8
	ldrb	r3, [sp, #46]	@ zero_extendqisi2
	bne	.L1397
	cmp	r3, #0
	ldrneb	r0, [sp, #47]	@ zero_extendqisi2
	clzne	r0, r0
	movne	r0, r0, lsr #5
	bne	.L1398
	b	.L1419
.L1397:
	cmp	r3, #255
	bne	.L1419
	ldrb	r0, [sp, #47]	@ zero_extendqisi2
	subs	r0, r0, #255
	movne	r0, #1
	b	.L1398
.L1419:
	mov	r0, #1
.L1398:
	ldr	r3, [sp, #24]
	tst	r3, #4
	beq	.L1399
	ldr	r3, .L1444+12
	mov	r0, r10
	ldr	r2, [sp, #32]
	add	r3, r3, r2
	ldr	r1, [r3, #1624]
	add	r1, r5, r1
	bl	SandiskProgTestBadBlock
.L1399:
	cmp	r0, #0
	beq	.L1400
	mov	r1, r6
	ldr	r2, [sp, #4]
	ldr	r0, .L1444+24
	add	r9, r9, #1
	bl	printk
	ldr	r1, [r4, #-3408]
	mov	ip, #1
	uxth	r9, r9
	ldr	r3, [sp, #12]
	mov	r0, r3, lsr #5
	and	r3, r3, #31
	ldr	r2, [r1, r0, asl #2]
	orr	r3, r2, ip, asl r3
	ldr	r2, [sp, #28]
	str	r3, [r1, r0, asl #2]
	ldrb	r3, [r7, #1612]	@ zero_extendqisi2
	mul	r3, r3, r2
	cmp	r9, r3
	bgt	.L1401
.L1400:
	ldr	r3, [sp, #4]
	add	r3, r3, #1
	str	r3, [sp, #4]
	ldr	r3, [sp, #16]
	add	r5, r5, r3
	b	.L1392
.L1401:
	mov	r2, r9
	ldr	r0, .L1444+28
	mov	r1, r6
	bl	printk
	ldrb	r3, [r7, #1612]	@ zero_extendqisi2
	ldr	r2, [sp, #28]
	mul	r3, r3, r2
	cmp	r9, r3
	blt	.L1403
	ldr	r3, .L1444+8
	mov	r1, #0
	ldr	r0, [r4, #-3408]
	ldrh	r2, [r3, #20]
	mov	r2, r2, asl #9
	bl	ftl_memset
.L1403:
	cmp	r6, #0
	bne	.L1405
	ldr	r3, [r4, #-3316]
	mov	r5, r6
	mov	r9, #1
	uxth	r10, r3
.L1406:
	ldr	r3, .L1444+12
	ldrb	r3, [r3, #1]	@ zero_extendqisi2
	cmp	r3, r10
	bls	.L1441
	mov	r0, r10
	bl	FlashTestBlk
	cmp	r0, #0
	beq	.L1407
	mov	r1, r10
	ldr	r0, .L1444+32
	bl	printk
	ldr	r1, [r4, #-3408]
	mov	r0, r10, lsr #5
	add	r5, r5, #1
	and	r3, r10, #31
	ldr	r2, [r1, r0, asl #2]
	uxth	r5, r5
	orr	r3, r2, r9, asl r3
	str	r3, [r1, r0, asl #2]
.L1407:
	add	r10, r10, #1
	uxth	r10, r10
	b	.L1406
.L1441:
	sub	fp, r8, #1
	sub	r9, r8, #50
	mov	r10, #1
	uxth	fp, fp
.L1409:
	cmp	fp, r9
	ble	.L1442
	mov	r0, fp
	bl	FlashTestBlk
	cmp	r0, #0
	beq	.L1410
	mov	r1, fp
	ldr	r0, .L1444+32
	bl	printk
	ldr	r1, [r4, #-3408]
	mov	r0, fp, lsr #5
	and	r3, fp, #31
	ldr	r2, [r1, r0, asl #2]
	orr	r3, r2, r10, asl r3
	str	r3, [r1, r0, asl #2]
.L1410:
	sub	fp, fp, #1
	uxth	fp, fp
	b	.L1409
.L1442:
	ldr	r3, .L1444+12
	ldr	r2, [r4, #-3316]
	ldrb	r3, [r3, #1]	@ zero_extendqisi2
	rsb	r3, r2, r3
	cmp	r5, r3
	bcc	.L1405
	ldr	r3, .L1444+8
	mov	r1, #0
	ldr	r0, [r4, #-3408]
	ldrh	r2, [r3, #20]
	mov	r2, r2, asl #9
	bl	ftl_memset
.L1405:
	ldrb	r5, [sp, #8]	@ zero_extendqisi2
	sub	r10, r8, #1
	ldr	r9, .L1444+20
	uxth	r10, r10
	mul	r5, r8, r5
	add	r9, r9, r6, asl #1
.L1413:
	mov	r1, r6
	ldr	r0, .L1444+36
	mov	r2, r10
	bl	printk
	ldr	r1, [r4, #-3408]
.L1414:
	mov	r2, r10, lsr #5
	and	r3, r10, #31
	ldr	r2, [r1, r2, asl #2]
	mov	r3, r2, lsr r3
	ands	r3, r3, #1
	subne	r10, r10, #1
	uxthne	r10, r10
	bne	.L1414
.L1443:
	ldr	r1, [sp, #20]
	add	r0, sp, #48
	ldr	r2, .L1444+40
	strh	r10, [r9]	@ movhi
	strh	r10, [r1, #2]	@ movhi
	strh	r2, [r1]	@ movhi
	strh	r3, [r1, #8]	@ movhi
	mov	r1, #1
	ldr	r3, [r4, #-3408]
	mov	r2, r1
	str	r3, [sp, #56]
	ldr	r3, [r4, #-3304]
	str	r3, [sp, #60]
	add	r3, r10, r5
	mov	r3, r3, asl #10
	str	r3, [sp, #52]
	bl	FlashEraseBlocks
	mov	r1, #1
	mov	r3, r1
	mov	r2, r1
	add	r0, sp, #48
	bl	FlashProgPages
	ldr	r3, [sp, #48]
	cmp	r3, #0
	subne	r10, r10, #1
	uxthne	r10, r10
	bne	.L1413
.L1420:
	ldr	r3, [sp, #8]
	add	r3, r3, #1
	str	r3, [sp, #8]
	b	.L1390
.L1440:
	ldr	r3, .L1444
	ldr	r2, [sp, #84]
	ldr	r3, [r3]
	cmp	r2, r3
	beq	.L1417
	bl	__stack_chk_fail
.L1417:
	add	sp, sp, #92
	@ sp needed
	ldmfd	sp!, {r4, r5, r6, r7, r8, r9, r10, fp, pc}
.L1445:
	.align	2
.L1444:
	.word	__stack_chk_guard
	.word	.LANCHOR2
	.word	.LANCHOR0+3876
	.word	.LANCHOR0
	.word	.LC25
	.word	.LANCHOR2-3288
	.word	.LC26
	.word	.LC27
	.word	.LC28
	.word	.LC29
	.word	-3872
	.fnend
	.size	FlashMakeFactorBbt, .-FlashMakeFactorBbt
	.align	2
	.global	Ftl_log2
	.type	Ftl_log2, %function
Ftl_log2:
	.fnstart
	@ args = 0, pretend = 0, frame = 0
	@ frame_needed = 0, uses_anonymous_args = 0
	@ link register save eliminated.
	mov	r1, #0
	mov	r2, #1
.L1447:
	cmp	r2, r0
	uxth	r3, r1
	add	r1, r1, #1
	movls	r2, r2, asl #1
	bls	.L1447
.L1449:
	sub	r0, r3, #1
	uxth	r0, r0
	bx	lr
	.fnend
	.size	Ftl_log2, .-Ftl_log2
	.align	2
	.global	FtlPrintInfo
	.type	FtlPrintInfo, %function
FtlPrintInfo:
	.fnstart
	@ args = 0, pretend = 0, frame = 0
	@ frame_needed = 0, uses_anonymous_args = 0
	@ link register save eliminated.
	bx	lr
	.fnend
	.size	FtlPrintInfo, .-FtlPrintInfo
	.align	2
	.global	FtlSysBlkNumInit
	.type	FtlSysBlkNumInit, %function
FtlSysBlkNumInit:
	.fnstart
	@ args = 0, pretend = 0, frame = 0
	@ frame_needed = 0, uses_anonymous_args = 0
	@ link register save eliminated.
	ldr	r3, .L1453
	cmp	r0, #23
	sub	r2, r3, #3264
	movls	r0, #24
	sub	ip, r3, #3248
	str	r0, [r3, #-3272]
	ldrh	r2, [r2, #-4]
	ldrh	r1, [ip, #-10]
	mul	r2, r2, r0
	rsb	r0, r0, r1
	ldr	r1, [r3, #-3252]
	strh	r0, [ip, #-12]	@ movhi
	mov	r0, #0
	str	r2, [r3, #-3264]
	rsb	r2, r2, r1
	str	r2, [r3, #-3256]
	bx	lr
.L1454:
	.align	2
.L1453:
	.word	.LANCHOR2
	.fnend
	.size	FtlSysBlkNumInit, .-FtlSysBlkNumInit
	.align	2
	.global	FtlConstantsInit
	.type	FtlConstantsInit, %function
FtlConstantsInit:
	.fnstart
	@ args = 0, pretend = 0, frame = 16
	@ frame_needed = 0, uses_anonymous_args = 0
	stmfd	sp!, {r4, r5, r6, r7, r8, r9, r10, fp, lr}
	.save {r4, r5, r6, r7, r8, r9, r10, fp, lr}
	mov	r5, r0
	ldrh	r7, [r0, #8]
	.pad #20
	sub	sp, sp, #20
	ldr	r0, .L1483
	mov	r9, #0
	ldrh	ip, [r5, #10]
	ldrh	r6, [r5, #12]
	add	r3, r0, #8
	ldrh	r8, [r5, #14]
	mov	r4, r0
	strh	r7, [r4], #16	@ movhi
	str	r0, [sp]
	strh	ip, [r4, #-14]	@ movhi
	strh	r6, [r4, #-12]	@ movhi
	strh	r8, [r0, #-10]	@ movhi
.L1456:
	strb	r9, [r9, r3]
	add	r9, r9, #1
	cmp	r9, #32
	bne	.L1456
	ldrh	r2, [r5, #14]
	ldrh	r3, [r5, #20]
	cmp	r3, r2, lsr #8
	bcs	.L1457
	uxtb	r9, r6
	mov	r3, r9, asl #1
	uxtb	r3, r3
	str	r3, [sp, #8]
	sub	r3, ip, #1
	mul	r3, r6, r3
	str	r3, [sp, #4]
	mov	r3, #0
.L1458:
	cmp	r3, r6
	bcs	.L1460
	ldr	r1, [sp, #4]
	rsb	fp, r6, r3
	ldr	r0, .L1483+4
	uxtb	r2, r3
	ldr	lr, .L1483+4
	add	r1, r3, r1
	add	r1, r0, r1
	str	r1, [sp, #12]
	add	fp, lr, fp
	mov	r1, #0
	mov	r0, r1
.L1461:
	cmp	r0, ip
	add	r1, r1, r6
	bcs	.L1482
	ldr	lr, [sp, #12]
	add	r10, r2, r9
	strb	r2, [fp, r1]
	add	r0, r0, #1
	strb	r10, [lr, r1]
	ldr	lr, [sp, #8]
	add	r2, r2, lr
	uxtb	r2, r2
	b	.L1461
.L1482:
	add	r3, r3, #1
	b	.L1458
.L1460:
	ldr	r3, [sp]
	mov	ip, ip, asl #1
	mov	r8, r8, lsr #1
	strh	ip, [r4, #-14]	@ movhi
	strh	r8, [r3, #-10]	@ movhi
.L1457:
	ldr	r9, .L1483+8
	mov	r3, #5
	cmp	r7, #1
	ldr	ip, .L1483+12
	ldrh	fp, [r5, #16]
	strh	r3, [r9, #-8]	@ movhi
	mov	r3, #0
	strh	r3, [r9, #-6]	@ movhi
	mov	r3, #4352
	strh	r3, [r9, #-4]	@ movhi
	sub	r8, ip, #3200
	ldr	r3, .L1483+16
	streqh	r7, [r9, #-8]	@ movhi
	ldrh	r7, [r4, #-14]
	ldrb	r10, [r3]	@ zero_extendqisi2
	ldrh	r1, [r5, #18]
	cmp	r10, #0
	strh	fp, [r8]	@ movhi
	smulbb	r7, r7, r6
	ldrne	r3, .L1483+8
	movne	r2, #384
	str	ip, [sp, #12]
	str	r1, [sp, #8]
	strneh	r2, [r3, #-4]	@ movhi
	sub	r3, ip, #3264
	ldrh	r2, [r5, #20]
	uxth	r7, r7
	strh	r7, [r3, #-4]	@ movhi
	ldr	r3, [sp]
	mov	r0, r2
	str	r2, [sp, #4]
	ldrh	r4, [r3, #-10]
	smulbb	r3, r7, fp
	smulbb	r6, r4, r6
	strh	r6, [r8, #-2]	@ movhi
	sub	r6, ip, #3184
	strh	r1, [r6, #-14]	@ movhi
	strh	r3, [r6, #-12]	@ movhi
	strh	r2, [r6, #-10]	@ movhi
	bl	Ftl_log2
	cmp	r4, #1024
	ldr	r2, [sp, #4]
	mov	r3, r0
	strh	r0, [r6, #-8]	@ movhi
	ldr	ip, [sp, #12]
	mov	r0, r2, asl #9
	ldr	r1, [sp, #8]
	str	r3, [sp, #4]
	uxth	r0, r0
	strh	r0, [r6, #-6]	@ movhi
	mul	r1, r1, r2
	mov	r0, r0, lsr #8
	strh	r0, [r6, #-4]	@ movhi
	ldrh	r0, [r5, #26]
	mov	r5, ip
	strh	r0, [r6, #-2]	@ movhi
	mul	r0, r4, r7
	str	r0, [ip, #-3252]
	uxtbhi	r0, r4
	strhih	r0, [r8, #-6]	@ movhi
	ldrh	r0, [r8, #-6]
	rsb	r0, r0, r4
	mov	r4, r4, asl #6
	mul	r0, r0, r7
	mul	r0, r2, r0
	mul	fp, fp, r0
	ldrh	r0, [r8, #-4]
	mov	r0, r0, asl #3
	mov	fp, fp, asr #11
	str	fp, [ip, #-3184]
	bl	__aeabi_idiv
	ldr	fp, .L1483+20
	mov	r1, r7
	uxth	r0, r0
	ldr	r3, [sp, #4]
	cmp	r0, #4
	strhih	r0, [fp, #-12]	@ movhi
	add	r0, r3, #9
	movls	r2, #4
	strlsh	r2, [fp, #-12]	@ movhi
	cmp	r10, #0
	mov	r0, r4, asr r0
	strh	r0, [fp, #-8]	@ movhi
	movne	r2, #640
	strneh	r2, [r8, #-4]	@ movhi
	ldrh	r2, [r8, #-4]
	uxth	r0, r0
	add	r4, r0, #8
	ldr	r10, .L1483+12
	mov	r2, r2, asr r3
	mul	r3, r7, r0
	add	r2, r2, #2
	ldrh	r0, [fp, #-12]
	strh	r2, [fp, #-10]	@ movhi
	str	r3, [r5, #-3172]
	bl	__aeabi_uidiv
	cmp	r7, #1
	ldr	r7, .L1483+12
	sub	r8, r7, #3152
	uxtah	r0, r4, r0
	addeq	r0, r0, #4
	str	r0, [r10, #-3272]
	ldr	r3, [r5, #-3272]
	uxth	r0, r3
	bl	FtlSysBlkNumInit
	ldr	r3, [r5, #-3272]
	ldr	r2, [r5, #-3256]
	mov	r0, #2048
	ldrh	r4, [r6, #-8]
	str	r3, [r5, #-3168]
	ldrh	r3, [r9]
	mov	r2, r2, asl #2
	add	r4, r4, #9
	ldrh	r6, [r6, #-10]
	mul	r3, r3, r2
	mov	r1, r6
	mov	r4, r3, lsr r4
	add	r4, r4, #2
	uxth	r4, r4
	strh	r4, [r8, #-12]	@ movhi
	bl	__aeabi_idiv
	ldr	r1, .L1483+16
	mov	r3, #0
	str	r3, [r1, #3908]
	ldrh	r3, [fp, #-12]
	ldrb	r1, [r1, #3904]	@ zero_extendqisi2
	add	r2, r3, #3
	strh	r2, [fp, #-12]	@ movhi
	cmp	r1, #0
	ldr	fp, [r5, #-3172]
	add	r2, fp, #3
	str	r2, [r5, #-3172]
	strh	r0, [r8, #-10]	@ movhi
	sub	r0, r7, #3168
	addne	r3, r3, #4
	addne	fp, fp, #5
	strneh	r3, [r0, #-12]	@ movhi
	strne	fp, [r7, #-3172]
	bne	.L1471
.L1470:
	cmp	r2, #7
	movls	r3, #8
	strls	r3, [r7, #-3172]
.L1471:
	mov	r3, #0
	strh	r3, [r8, #-8]	@ movhi
	ldr	r3, [sp]
	mov	r0, #0
	ldrh	r2, [r3, #-12]
	mov	r3, r2, lsr #3
	add	r3, r3, r2, asl #1
	add	r3, r3, #52
	add	r4, r3, r4, asl #2
	cmp	r4, r6, asl #9
	ldrcc	r3, .L1483+24
	movcc	r2, #1
	strcch	r2, [r3, #-8]	@ movhi
	add	sp, sp, #20
	@ sp needed
	ldmfd	sp!, {r4, r5, r6, r7, r8, r9, r10, fp, pc}
.L1484:
	.align	2
.L1483:
	.word	.LANCHOR2-3248
	.word	.LANCHOR2-3240
	.word	.LANCHOR2-3200
	.word	.LANCHOR2
	.word	.LANCHOR0
	.word	.LANCHOR2-3168
	.word	.LANCHOR2-3152
	.fnend
	.size	FtlConstantsInit, .-FtlConstantsInit
	.align	2
	.global	FtlMemInit
	.type	FtlMemInit, %function
FtlMemInit:
	.fnstart
	@ args = 0, pretend = 0, frame = 0
	@ frame_needed = 0, uses_anonymous_args = 0
	stmfd	sp!, {r3, r4, r5, r6, r7, r8, r9, r10, fp, lr}
	.save {r3, r4, r5, r6, r7, r8, r9, r10, fp, lr}
	mov	r5, #0
	ldr	r4, .L1590
	movw	r3, #65535
	mov	r0, #1024
	mov	r10, #36
	sub	r2, r4, #3072
	sub	r6, r4, #3056
	sub	r7, r4, #3152
	str	r3, [r4, #-3088]
	strh	r5, [r6, #-4]	@ movhi
	mvn	r3, #0
	strh	r5, [r6, #-2]	@ movhi
	sub	r9, r4, #3264
	strh	r3, [r2]	@ movhi
	strh	r3, [r6, #-14]	@ movhi
	strh	r3, [r6, #-12]	@ movhi
	strh	r3, [r6, #-10]	@ movhi
	mov	r3, #32
	strh	r5, [r6]	@ movhi
	strh	r3, [r6, #-8]	@ movhi
	mov	r3, #128
	strh	r3, [r6, #-6]	@ movhi
	sub	r3, r4, #3040
	sub	r6, r4, #3184
	strh	r5, [r7, #-6]	@ movhi
	strh	r5, [r3, #-14]	@ movhi
	str	r5, [r4, #-3156]
	str	r5, [r4, #-3152]
	str	r5, [r4, #-3148]
	str	r5, [r4, #-3144]
	str	r5, [r4, #-3140]
	str	r5, [r4, #-3136]
	str	r5, [r4, #-3132]
	str	r5, [r4, #-3128]
	str	r5, [r4, #-3124]
	str	r5, [r4, #-3120]
	str	r5, [r4, #-3116]
	str	r5, [r4, #-3112]
	str	r5, [r4, #-3108]
	str	r5, [r4, #-3104]
	str	r5, [r4, #-3100]
	str	r5, [r4, #-3096]
	str	r5, [r4, #-3092]
	str	r5, [r4, #-3084]
	str	r5, [r4, #-3080]
	str	r5, [r4, #-3076]
	ldrh	r1, [r6, #-10]
	bl	__aeabi_idiv
	ldrh	r8, [r9, #-4]
	str	r5, [r4, #-3048]
	mov	r8, r8, asl #2
	cmp	r0, r8
	str	r0, [r4, #-3052]
	ldrh	r0, [r6, #-12]
	strhi	r8, [r4, #-3052]
	mov	r8, #12
	mov	r0, r0, asl #1
	bl	ftl_malloc
	str	r0, [r4, #-3044]
	ldrh	r0, [r6, #-12]
	mul	r0, r8, r0
	bl	ftl_malloc
	ldrh	r5, [r9, #-4]
	mul	r5, r10, r5
	mov	fp, r5, asl #3
	str	r0, [r4, #-3040]
	mov	r0, fp
	bl	ftl_malloc
	str	r0, [r4, #-3036]
	mov	r0, r5
	bl	ftl_malloc
	str	r0, [r4, #-3032]
	mov	r0, fp
	bl	ftl_malloc
	str	r0, [r4, #-3028]
	mov	r0, r5
	bl	ftl_malloc
	str	r0, [r4, #-3024]
	mov	r0, r5
	bl	ftl_malloc
	str	r0, [r4, #-3020]
	ldr	r0, [r4, #-3052]
	mul	r0, r10, r0
	bl	ftl_malloc
	ldrh	r5, [r6, #-6]
	ldrh	r3, [r9, #-4]
	mov	r3, r3, asl #1
	add	r3, r3, #1
	str	r3, [r4, #-3012]
	str	r0, [r4, #-3016]
	mov	r0, r5
	bl	ftl_malloc
	str	r0, [r4, #-3008]
	mov	r0, r5
	bl	ftl_malloc
	str	r0, [r4, #-3004]
	mov	r0, r5
	bl	ftl_malloc
	str	r0, [r4, #-3000]
	ldr	r0, [r4, #-3012]
	mul	r0, r0, r5
	bl	ftl_malloc
	str	r0, [r4, #-2996]
	ldr	r0, [r4, #-3052]
	mul	r0, r0, r5
	bl	ftl_malloc
	str	r0, [r4, #-2992]
	mov	r0, r5
	bl	ftl_malloc
	str	r0, [r4, #-2988]
	mov	r0, r5
	bl	ftl_malloc
	str	r0, [r4, #-2984]
	ldr	r0, [r4, #-3012]
	mul	r0, r8, r0
	bl	ftl_malloc
	ldrh	r3, [r9, #-4]
	ldrh	r5, [r6, #-4]
	mul	r5, r3, r5
	str	r0, [r4, #-2980]
	mov	r0, r5
	bl	ftl_malloc
	str	r0, [r4, #-2976]
	mov	r0, r5, asl #3
	bl	ftl_malloc
	ldrh	r3, [r6, #-4]
	ldr	r5, .L1590+4
	add	r9, r5, #288
	str	r0, [r4, #-2972]
	ldr	r0, [r4, #-3012]
	mul	r0, r0, r3
	bl	ftl_malloc
	ldrh	r3, [r6, #-4]
	str	r0, [r4, #-2968]
	ldr	r0, [r4, #-3052]
	mul	r0, r0, r3
	bl	ftl_malloc
	str	r0, [r4, #-2964]
	ldrh	r0, [r5, #-10]
	mov	r0, r0, asl #1
	uxth	r0, r0
	strh	r0, [r9]	@ movhi
	bl	ftl_malloc
	str	r0, [r4, #-2956]
	ldrh	r0, [r9]
	add	r0, r0, #544
	add	r0, r0, #3
	mov	r0, r0, lsr #9
	strh	r0, [r9]	@ movhi
	mov	r0, r0, asl #9
	bl	ftl_malloc
	ldrh	r9, [r5, #-10]
	mov	r9, r9, asl #1
	str	r0, [r4, #-2952]
	add	r0, r0, #32
	str	r0, [r4, #-2948]
	mov	r0, r9
	bl	ftl_malloc
	str	r0, [r4, #-2944]
	mov	r0, r9
	bl	ftl_malloc
	ldr	r9, [r4, #-3172]
	mov	r9, r9, asl #1
	str	r0, [r4, #-2940]
	mov	r0, r9
	bl	ftl_malloc
	str	r0, [r4, #-2936]
	mov	r0, r9
	bl	ftl_malloc
	str	r0, [r4, #-2932]
	ldrh	r0, [r5, #-10]
	mov	r0, r0, lsr #3
	add	r0, r0, #4
	bl	ftl_malloc
	str	r0, [r4, #-2928]
	ldrh	r0, [r5, #68]
	mov	r0, r0, asl #1
	bl	ftl_malloc
	str	r0, [r4, #-2924]
	ldrh	r0, [r5, #68]
	mov	r0, r0, asl #1
	bl	ftl_malloc
	str	r0, [r4, #-2920]
	ldrh	r0, [r5, #68]
	mov	r0, r0, asl #2
	bl	ftl_malloc
	str	r0, [r4, #-2916]
	ldrh	r0, [r5, #70]
	mov	r0, r0, asl #2
	bl	ftl_malloc
	ldrh	r2, [r5, #70]
	mov	r1, #0
	mov	r2, r2, asl #2
	str	r0, [r4, #-2912]
	bl	ftl_memset
	ldrh	r9, [r7, #-12]
	mov	r9, r9, asl #2
	mov	r0, r9
	bl	ftl_malloc
	str	r0, [r4, #-2908]
	mov	r0, r9
	bl	ftl_malloc
	str	r0, [r4, #-2904]
	ldr	r0, [r4, #-3172]
	mov	r0, r0, asl #2
	bl	ftl_malloc
	str	r0, [r4, #-2900]
	ldrh	r0, [r7, #-10]
	mul	r0, r8, r0
	bl	ftl_malloc
	ldrh	r3, [r7, #-10]
	add	r7, r5, #16
	str	r0, [r4, #-2896]
	ldrh	r0, [r6, #-6]
	add	r6, r5, #368
	mul	r0, r0, r3
	bl	ftl_malloc
	ldrh	r3, [r5, #-10]
	str	r0, [r4, #-2892]
	mov	r0, #6
	mul	r0, r0, r3
	bl	ftl_malloc
	ldrh	r3, [r5, #46]
	add	r3, r3, #31
	mov	r3, r3, asr #5
	strh	r3, [r6, #-4]	@ movhi
	str	r0, [r4, #-2888]
	ldrh	r0, [r5, #2]
	mul	r0, r0, r3
	mov	r0, r0, asl #2
	bl	ftl_malloc
	ldrh	r2, [r6, #-4]
	ldrh	ip, [r5, #2]
	add	r5, r5, #396
	mov	r3, #1
	mov	r2, r2, asl #2
	mov	r1, r2
	str	r0, [r4, #-2852]
.L1487:
	cmp	r3, ip
	bcs	.L1588
	ldr	r0, [r4, #-2852]
	add	r3, r3, #1
	add	r0, r0, r1
	add	r1, r1, r2
	str	r0, [r5, #4]!
	b	.L1487
.L1588:
	mov	r2, #0
.L1489:
	cmp	r3, #8
	addne	r1, r6, r3, asl #2
	addne	r3, r3, #1
	strne	r2, [r1, #28]
	bne	.L1489
.L1589:
	ldr	r2, [r4, #-2936]
	ldr	r3, .L1590
	cmp	r2, #0
	bne	.L1491
.L1493:
	ldr	r1, .L1590+8
	ldr	r0, .L1590+12
	bl	printk
	mvn	r0, #0
	ldmfd	sp!, {r3, r4, r5, r6, r7, r8, r9, r10, fp, pc}
.L1491:
	ldr	r2, [r3, #-2932]
	cmp	r2, #0
	beq	.L1493
	ldr	r2, [r3, #-2908]
	cmp	r2, #0
	beq	.L1493
	ldr	r2, [r3, #-2900]
	cmp	r2, #0
	beq	.L1493
	ldr	r2, [r3, #-2896]
	cmp	r2, #0
	beq	.L1493
	ldr	r2, [r3, #-2892]
	cmp	r2, #0
	beq	.L1493
	ldr	r2, [r3, #-2888]
	cmp	r2, #0
	beq	.L1493
	ldr	r2, [r3, #-2852]
	cmp	r2, #0
	beq	.L1493
	ldr	r3, [r3, #-2940]
	cmp	r3, #0
	beq	.L1493
	ldr	r2, [r4, #-3044]
	ldr	r3, .L1590
	cmp	r2, #0
	beq	.L1493
	ldr	r2, [r3, #-3040]
	cmp	r2, #0
	beq	.L1493
	ldr	r2, [r3, #-3036]
	cmp	r2, #0
	beq	.L1493
	ldr	r2, [r3, #-3028]
	cmp	r2, #0
	beq	.L1493
	ldr	r2, [r3, #-3024]
	cmp	r2, #0
	beq	.L1493
	ldr	r2, [r3, #-3020]
	cmp	r2, #0
	beq	.L1493
	ldr	r2, [r3, #-3032]
	cmp	r2, #0
	beq	.L1493
	ldr	r2, [r3, #-3008]
	cmp	r2, #0
	beq	.L1493
	ldr	r2, [r3, #-3004]
	cmp	r2, #0
	beq	.L1493
	ldr	r3, [r3, #-3000]
	cmp	r3, #0
	beq	.L1493
	ldr	r2, [r4, #-2996]
	ldr	r3, .L1590
	cmp	r2, #0
	beq	.L1493
	ldr	r2, [r3, #-2988]
	cmp	r2, #0
	beq	.L1493
	ldr	r2, [r3, #-2984]
	cmp	r2, #0
	beq	.L1493
	ldr	r2, [r3, #-2980]
	cmp	r2, #0
	beq	.L1493
	ldr	r2, [r3, #-2976]
	cmp	r2, #0
	beq	.L1493
	ldr	r2, [r3, #-2972]
	cmp	r2, #0
	beq	.L1493
	ldr	r2, [r3, #-2968]
	cmp	r2, #0
	beq	.L1493
	ldr	r2, [r3, #-2948]
	cmp	r2, #0
	beq	.L1493
	ldr	r2, [r3, #-2956]
	cmp	r2, #0
	beq	.L1493
	ldr	r3, [r3, #-2924]
	cmp	r3, #0
	beq	.L1493
	ldr	r3, .L1590
	ldr	r2, [r3, #-2920]
	cmp	r2, #0
	beq	.L1493
	ldr	r2, [r3, #-2916]
	cmp	r2, #0
	beq	.L1493
	ldr	r3, [r3, #-2912]
	cmp	r3, #0
	beq	.L1493
	mov	r0, #0
	ldmfd	sp!, {r3, r4, r5, r6, r7, r8, r9, r10, fp, pc}
.L1591:
	.align	2
.L1590:
	.word	.LANCHOR2
	.word	.LANCHOR2-3248
	.word	.LANCHOR3+4
	.word	.LC30
	.fnend
	.size	FtlMemInit, .-FtlMemInit
	.align	2
	.global	IsBlkInVendorPart
	.type	IsBlkInVendorPart, %function
IsBlkInVendorPart:
	.fnstart
	@ args = 0, pretend = 0, frame = 0
	@ frame_needed = 0, uses_anonymous_args = 0
	@ link register save eliminated.
	ldr	r2, .L1599
	sub	r3, r2, #2816
	ldrh	r3, [r3, #-4]
	cmp	r3, #0
	beq	.L1598
	ldr	r3, [r2, #-2924]
	sub	r2, r2, #3168
	ldrh	r2, [r2, #-12]
	add	r2, r3, r2, asl #1
.L1594:
	cmp	r3, r2
	beq	.L1598
	ldrh	r1, [r3], #2
	cmp	r1, r0
	bne	.L1594
	mov	r0, #1
	bx	lr
.L1598:
	mov	r0, #0
	bx	lr
.L1600:
	.align	2
.L1599:
	.word	.LANCHOR2
	.fnend
	.size	IsBlkInVendorPart, .-IsBlkInVendorPart
	.align	2
	.global	FtlCacheMetchLpa
	.type	FtlCacheMetchLpa, %function
FtlCacheMetchLpa:
	.fnstart
	@ args = 0, pretend = 0, frame = 0
	@ frame_needed = 0, uses_anonymous_args = 0
	ldr	r2, .L1608
	ldr	r3, [r2, #-3048]
	cmp	r3, #0
	beq	.L1604
	stmfd	sp!, {r4, r5, lr}
	.save {r4, r5, lr}
	mov	r5, #36
	ldr	r4, [r2, #-3016]
	mov	r2, #0
.L1603:
	mla	ip, r5, r2, r4
	ldr	lr, [ip, #16]
	cmp	lr, r0
	movcc	ip, #0
	movcs	ip, #1
	cmp	lr, r1
	movhi	ip, #0
	cmp	ip, #0
	bne	.L1605
	add	r2, r2, #1
	cmp	r2, r3
	bne	.L1603
	mov	r0, ip
	ldmfd	sp!, {r4, r5, pc}
.L1604:
	mov	r0, r3
	bx	lr
.L1605:
	mov	r0, #1
	ldmfd	sp!, {r4, r5, pc}
.L1609:
	.align	2
.L1608:
	.word	.LANCHOR2
	.fnend
	.size	FtlCacheMetchLpa, .-FtlCacheMetchLpa
	.align	2
	.global	FtlGetCap
	.type	FtlGetCap, %function
FtlGetCap:
	.fnstart
	@ args = 0, pretend = 0, frame = 0
	@ frame_needed = 0, uses_anonymous_args = 0
	@ link register save eliminated.
	ldr	r3, .L1611
	ldr	r0, [r3, #3908]
	bx	lr
.L1612:
	.align	2
.L1611:
	.word	.LANCHOR0
	.fnend
	.size	FtlGetCap, .-FtlGetCap
	.align	2
	.global	ftl_get_density
	.type	ftl_get_density, %function
ftl_get_density:
	.fnstart
	@ args = 0, pretend = 0, frame = 0
	@ frame_needed = 0, uses_anonymous_args = 0
	@ link register save eliminated.
	ldr	r3, .L1614
	ldr	r0, [r3, #3908]
	bx	lr
.L1615:
	.align	2
.L1614:
	.word	.LANCHOR0
	.fnend
	.size	ftl_get_density, .-ftl_get_density
	.align	2
	.global	FtlGetLpn
	.type	FtlGetLpn, %function
FtlGetLpn:
	.fnstart
	@ args = 0, pretend = 0, frame = 0
	@ frame_needed = 0, uses_anonymous_args = 0
	@ link register save eliminated.
	ldr	r3, .L1617
	ldr	r0, [r3, #-2816]
	bx	lr
.L1618:
	.align	2
.L1617:
	.word	.LANCHOR2
	.fnend
	.size	FtlGetLpn, .-FtlGetLpn
	.align	2
	.global	FtlBbmMapBadBlock
	.type	FtlBbmMapBadBlock, %function
FtlBbmMapBadBlock:
	.fnstart
	@ args = 0, pretend = 0, frame = 0
	@ frame_needed = 0, uses_anonymous_args = 0
	stmfd	sp!, {r0, r1, r4, r5, r6, lr}
	.save {r4, r5, r6, lr}
	.pad #8
	mov	r6, r0
	ldr	r5, .L1621
	sub	r3, r5, #3200
	ldrh	r4, [r3, #-2]
	mov	r1, r4
	bl	__aeabi_uidiv
	uxth	r2, r0
	smulbb	r3, r2, r4
	add	r1, r5, r2, asl #2
	mov	r4, #1
	sub	r5, r5, #2880
	ldr	ip, [r1, #-2852]
	rsb	r3, r3, r6
	uxth	r3, r3
	and	r1, r3, #31
	mov	lr, r3, lsr #5
	ldr	r0, [ip, lr, asl #2]
	orr	r1, r0, r4, asl r1
	ldr	r0, .L1621+4
	str	r1, [ip, lr, asl #2]
	str	r1, [sp]
	mov	r1, r6
	bl	printk
	ldrh	r3, [r5, #6]
	mov	r0, #0
	add	r3, r3, r4
	strh	r3, [r5, #6]	@ movhi
	add	sp, sp, #8
	@ sp needed
	ldmfd	sp!, {r4, r5, r6, pc}
.L1622:
	.align	2
.L1621:
	.word	.LANCHOR2
	.word	.LC31
	.fnend
	.size	FtlBbmMapBadBlock, .-FtlBbmMapBadBlock
	.global	__aeabi_uidivmod
	.align	2
	.global	FtlBbmIsBadBlock
	.type	FtlBbmIsBadBlock, %function
FtlBbmIsBadBlock:
	.fnstart
	@ args = 0, pretend = 0, frame = 0
	@ frame_needed = 0, uses_anonymous_args = 0
	stmfd	sp!, {r3, r4, r5, r6, r7, lr}
	.save {r3, r4, r5, r6, r7, lr}
	mov	r7, r0
	ldr	r5, .L1625
	sub	r3, r5, #3200
	ldrh	r6, [r3, #-2]
	mov	r1, r6
	bl	__aeabi_uidivmod
	mov	r0, r7
	uxth	r4, r1
	mov	r1, r6
	bl	__aeabi_uidiv
	mov	r2, r4, lsr #5
	and	r4, r4, #31
	uxth	r0, r0
	add	r5, r5, r0, asl #2
	ldr	r3, [r5, #-2852]
	ldr	r0, [r3, r2, asl #2]
	mov	r0, r0, lsr r4
	and	r0, r0, #1
	ldmfd	sp!, {r3, r4, r5, r6, r7, pc}
.L1626:
	.align	2
.L1625:
	.word	.LANCHOR2
	.fnend
	.size	FtlBbmIsBadBlock, .-FtlBbmIsBadBlock
	.align	2
	.global	FtlBbtInfoPrint
	.type	FtlBbtInfoPrint, %function
FtlBbtInfoPrint:
	.fnstart
	@ args = 0, pretend = 0, frame = 0
	@ frame_needed = 0, uses_anonymous_args = 0
	@ link register save eliminated.
	bx	lr
	.fnend
	.size	FtlBbtInfoPrint, .-FtlBbtInfoPrint
	.align	2
	.global	FtlBbt2Bitmap
	.type	FtlBbt2Bitmap, %function
FtlBbt2Bitmap:
	.fnstart
	@ args = 0, pretend = 0, frame = 0
	@ frame_needed = 0, uses_anonymous_args = 0
	stmfd	sp!, {r4, r5, r6, lr}
	.save {r4, r5, r6, lr}
	mov	r4, r0
	ldr	r5, .L1634
	mov	r0, r1
	mov	r6, r1
	mov	r1, #0
	ldrh	r2, [r5, #-4]
	mov	r2, r2, asl #2
	bl	ftl_memset
	add	r3, r4, #1020
	add	r3, r3, #2
	sub	r1, r4, #2
	mov	lr, #1
	movw	r4, #65535
.L1630:
	ldrh	r2, [r1, #2]!
	cmp	r2, r4
	ldmeqfd	sp!, {r4, r5, r6, pc}
	mov	ip, r2, lsr #5
	and	r2, r2, #31
	cmp	r1, r3
	ldr	r0, [r6, ip, asl #2]
	orr	r2, r0, lr, asl r2
	str	r2, [r6, ip, asl #2]
	ldrh	r2, [r5, #6]
	add	r2, r2, #1
	strh	r2, [r5, #6]	@ movhi
	bne	.L1630
	ldmfd	sp!, {r4, r5, r6, pc}
.L1635:
	.align	2
.L1634:
	.word	.LANCHOR2-2880
	.fnend
	.size	FtlBbt2Bitmap, .-FtlBbt2Bitmap
	.align	2
	.global	FtlBbmTblFlush
	.type	FtlBbmTblFlush, %function
FtlBbmTblFlush:
	.fnstart
	@ args = 0, pretend = 0, frame = 8
	@ frame_needed = 0, uses_anonymous_args = 0
	stmfd	sp!, {r4, r5, r6, r7, r8, r9, r10, fp, lr}
	.save {r4, r5, r6, r7, r8, r9, r10, fp, lr}
	.pad #20
	sub	sp, sp, #20
	ldr	r4, .L1654
	ldr	r5, [r4, #-2812]
	cmp	r5, #0
	bne	.L1638
	ldr	r3, [r4, #-2976]
	mov	r1, r5
	ldr	r0, [r4, #-3008]
	sub	r7, r4, #2880
	ldr	r8, .L1654+4
	sub	fp, r7, #4
	str	r3, [r4, #-2796]
	sub	r3, r4, #3184
	str	r0, [r4, #-2800]
	mov	r10, r4
	ldrh	r2, [r3, #-6]
	bl	ftl_memset
	ldr	r9, .L1654+8
.L1639:
	ldrh	r3, [r9]
	ldr	r6, .L1654
	cmp	r5, r3
	bge	.L1653
	ldrh	r2, [fp]
	ldr	r3, [r10, #-2800]
	ldr	r1, [r8, #4]!
	mul	r0, r2, r5
	mov	r2, r2, asl #2
	add	r5, r5, #1
	add	r0, r3, r0, asl #2
	bl	ftl_memcpy
	b	.L1639
.L1653:
	ldr	r5, [r6, #-2796]
	mov	r1, #255
	mov	r2, #16
	ldr	r10, .L1654+12
	mov	r8, #0
	mov	r0, r5
	mov	r9, r8
	bl	ftl_memset
	ldr	r3, .L1654+16
	strh	r3, [r5]	@ movhi
	ldr	r3, [r6, #-2872]
	str	r3, [r5, #4]
	ldrh	r3, [r7]
	strh	r3, [r5, #2]	@ movhi
	ldrh	r3, [r7, #4]
	strh	r3, [r5, #8]	@ movhi
	ldrh	r3, [r7, #6]
	strh	r3, [r5, #10]	@ movhi
	ldr	r3, [r6, #-3272]
	strh	r3, [r5, #12]	@ movhi
.L1641:
	ldr	r3, [r4, #-3008]
	mov	ip, #0
	ldrh	r1, [r7]
	ldrh	r2, [r7, #2]
	str	r3, [r4, #-2800]
	ldr	r3, [r4, #-2976]
	str	ip, [r4, #-2808]
	str	ip, [sp, #12]
	str	r3, [r4, #-2796]
	orr	r3, r2, r1, asl #10
	ldrh	r0, [r5, #10]
	str	r3, [r4, #-2804]
	ldrh	r3, [r7, #4]
	str	r0, [sp]
	ldr	r0, .L1654+20
	bl	printk
	ldrh	r3, [r10]
	ldrh	r2, [r7, #2]
	sub	r3, r3, #1
	ldr	fp, .L1654+24
	cmp	r2, r3
	ldr	ip, [sp, #12]
	blt	.L1642
	ldr	r3, [r6, #-2872]
	mov	r1, #1
	ldrh	r2, [fp]
	add	r3, r3, #1
	ldr	r0, [r6, #-3024]
	str	r3, [r6, #-2872]
	str	r3, [r5, #4]
	ldrh	r3, [fp, #4]
	strh	r2, [r5, #8]	@ movhi
	strh	r2, [fp, #4]	@ movhi
	mov	r2, r1
	strh	r3, [fp]	@ movhi
	mov	r3, r3, asl #10
	str	r3, [r6, #-2804]
	str	r3, [r0, #4]
	strh	ip, [fp, #2]	@ movhi
	bl	FlashEraseBlocks
.L1642:
	mov	r1, #1
	ldr	r0, .L1654+28
	mov	r3, r1
	mov	r2, r1
	bl	FlashProgPages
	ldrh	r3, [r7, #2]
	ldr	fp, .L1654
	add	r3, r3, #1
	strh	r3, [r7, #2]	@ movhi
	ldr	r3, [r4, #-2808]
	cmn	r3, #1
	bne	.L1643
	add	r8, r8, #1
	ldr	r0, .L1654+32
	ldr	r1, [r6, #-2804]
	uxth	r8, r8
	bl	printk
	cmp	r8, #3
	bls	.L1641
	ldr	r0, .L1654+36
	mov	r2, r8
	ldr	r1, [fp, #-2804]
	bl	printk
	mov	r3, #1
	str	r3, [fp, #-2812]
	b	.L1638
.L1643:
	add	r9, r9, #1
	cmp	r9, #1
	beq	.L1641
	cmp	r3, #256
	beq	.L1641
.L1638:
	mov	r0, #0
	add	sp, sp, #20
	@ sp needed
	ldmfd	sp!, {r4, r5, r6, r7, r8, r9, r10, fp, pc}
.L1655:
	.align	2
.L1654:
	.word	.LANCHOR2
	.word	.LANCHOR2-2856
	.word	.LANCHOR2-3246
	.word	.LANCHOR2-3198
	.word	-3887
	.word	.LC32
	.word	.LANCHOR2-2880
	.word	.LANCHOR2-2808
	.word	.LC33
	.word	.LC34
	.fnend
	.size	FtlBbmTblFlush, .-FtlBbmTblFlush
	.align	2
	.global	FtlLoadFactoryBbt
	.type	FtlLoadFactoryBbt, %function
FtlLoadFactoryBbt:
	.fnstart
	@ args = 0, pretend = 0, frame = 0
	@ frame_needed = 0, uses_anonymous_args = 0
	ldr	r2, .L1668
	stmfd	sp!, {r4, r5, r6, r7, r8, r9, r10, lr}
	.save {r4, r5, r6, r7, r8, r9, r10, lr}
	mov	r5, #0
	ldr	r6, .L1668+4
	mov	r9, r2
	ldr	r3, [r2, #-3008]
	ldr	r7, [r2, #-2976]
	sub	r8, r6, #376
	str	r3, [r2, #-2800]
	str	r7, [r2, #-2796]
.L1657:
	ldrh	r3, [r8]
	cmp	r5, r3
	bcs	.L1667
	ldr	r2, .L1668+8
	mvn	r3, #0
	strh	r3, [r6, #2]!	@ movhi
	ldrh	r3, [r2]
	mov	r10, r2
	sub	r3, r3, #1
	uxth	r4, r3
.L1658:
	ldrh	r3, [r10]
	sub	r2, r3, #16
	cmp	r4, r2
	ble	.L1660
	mla	r3, r3, r5, r4
	mov	r1, #1
	ldr	r0, .L1668+12
	mov	r2, r1
	mov	r3, r3, asl #10
	str	r3, [r9, #-2804]
	bl	FlashReadPages
	ldr	r3, [r9, #-2808]
	cmn	r3, #1
	beq	.L1659
	ldrh	r2, [r7]
	movw	r3, #61664
	cmp	r2, r3
	streqh	r4, [r6]	@ movhi
	beq	.L1660
.L1659:
	sub	r4, r4, #1
	uxth	r4, r4
	b	.L1658
.L1660:
	add	r5, r5, #1
	b	.L1657
.L1667:
	mov	r0, #0
	ldmfd	sp!, {r4, r5, r6, r7, r8, r9, r10, pc}
.L1669:
	.align	2
.L1668:
	.word	.LANCHOR2
	.word	.LANCHOR2-2870
	.word	.LANCHOR2-3202
	.word	.LANCHOR2-2808
	.fnend
	.size	FtlLoadFactoryBbt, .-FtlLoadFactoryBbt
	.align	2
	.global	FtlBbtMemInit
	.type	FtlBbtMemInit, %function
FtlBbtMemInit:
	.fnstart
	@ args = 0, pretend = 0, frame = 0
	@ frame_needed = 0, uses_anonymous_args = 0
	@ link register save eliminated.
	ldr	r0, .L1671
	mvn	r3, #0
	mov	r1, #255
	mov	r2, #16
	add	r0, r0, #12
	strh	r3, [r0, #-12]	@ movhi
	mov	r3, #0
	strh	r3, [r0, #-6]	@ movhi
	b	ftl_memset
.L1672:
	.align	2
.L1671:
	.word	.LANCHOR2-2880
	.fnend
	.size	FtlBbtMemInit, .-FtlBbtMemInit
	.align	2
	.global	FtlBbtCalcTotleCnt
	.type	FtlBbtCalcTotleCnt, %function
FtlBbtCalcTotleCnt:
	.fnstart
	@ args = 0, pretend = 0, frame = 0
	@ frame_needed = 0, uses_anonymous_args = 0
	stmfd	sp!, {r4, r5, r6, lr}
	.save {r4, r5, r6, lr}
	mov	r5, #0
	ldr	r4, .L1682
	ldrh	r6, [r4, #-2]
	ldrh	r3, [r4, #-46]
	mov	r4, r5
	mul	r6, r3, r6
.L1674:
	uxth	r0, r5
	cmp	r0, r6
	bge	.L1681
	bl	FtlBbmIsBadBlock
	add	r5, r5, #1
	cmp	r0, #0
	addne	r4, r4, #1
	uxthne	r4, r4
	b	.L1674
.L1681:
	mov	r0, r4
	ldmfd	sp!, {r4, r5, r6, pc}
.L1683:
	.align	2
.L1682:
	.word	.LANCHOR2-3200
	.fnend
	.size	FtlBbtCalcTotleCnt, .-FtlBbtCalcTotleCnt
	.align	2
	.global	FtlMakeBbt
	.type	FtlMakeBbt, %function
FtlMakeBbt:
	.fnstart
	@ args = 0, pretend = 0, frame = 8
	@ frame_needed = 0, uses_anonymous_args = 0
	stmfd	sp!, {r0, r1, r2, r4, r5, r6, r7, r8, r9, r10, fp, lr}
	.save {r4, r5, r6, r7, r8, r9, r10, fp, lr}
	.pad #12
	ldr	r7, .L1709
	ldr	r6, [r7, #-2812]
	cmp	r6, #0
	bne	.L1685
	bl	FtlBbtMemInit
	ldr	r8, .L1709+4
	bl	FtlLoadFactoryBbt
	sub	r4, r7, #2880
	sub	r9, r8, #18
	mov	r5, r7
.L1686:
	ldr	r3, .L1709+8
	ldrh	r2, [r3]
	cmp	r6, r2
	bcs	.L1706
	ldrh	r2, [r9, #2]!
	movw	r1, #65535
	ldr	r0, [r5, #-3008]
	ldr	r10, [r5, #-2976]
	cmp	r2, r1
	str	r0, [r5, #-2800]
	str	r10, [r5, #-2796]
	beq	.L1687
	ldrh	fp, [r3, #44]
	mov	r1, #1
	ldr	r0, .L1709+12
	str	r3, [sp, #4]
	mla	fp, fp, r6, r2
	mov	r2, fp, asl #10
	str	r2, [r5, #-2804]
	mov	r2, r1
	bl	FlashReadPages
	ldr	r0, [r8]
	ldr	r1, [r5, #-2800]
	ldr	r3, [sp, #4]
	ldrh	r2, [r3, #44]
	add	r2, r2, #7
	mov	r2, r2, asr #3
	bl	ftl_memcpy
	b	.L1688
.L1687:
	mov	r1, r6
	str	r3, [sp, #4]
	bl	FlashGetBadBlockList
	ldr	r0, [r5, #-2800]
	ldr	r1, [r8]
	bl	FtlBbt2Bitmap
	ldr	r3, [sp, #4]
	ldrh	r3, [r3, #44]
.L1705:
	sub	r3, r3, #1
	uxth	r3, r3
	str	r3, [sp, #4]
.L1689:
	ldr	fp, .L1709+16
	ldr	r3, [sp, #4]
	ldrh	r0, [fp]
	smlabb	r0, r0, r6, r3
	uxth	r0, r0
	bl	FtlBbmIsBadBlock
	cmp	r0, #1
	ldreq	r3, [sp, #4]
	beq	.L1705
.L1707:
	ldrh	r3, [sp, #4]
	mov	r1, #0
	mov	r2, #16
	ldr	r0, [r5, #-2976]
	strh	r3, [r9]	@ movhi
	bl	ftl_memset
	ldr	r3, .L1709+20
	strh	r3, [r10]	@ movhi
	mov	r3, #0
	str	r3, [r10, #4]
	ldrh	r3, [r9]
	ldrh	fp, [fp]
	strh	r3, [r10, #2]	@ movhi
	ldrh	r3, [r9]
	ldr	r1, [r8]
	ldr	r0, [r5, #-2800]
	mla	fp, fp, r6, r3
	mov	r3, fp, asl #10
	str	r3, [r5, #-2804]
	ldr	r3, .L1709+24
	ldrh	r2, [r3]
	mov	r2, r2, asl #2
	bl	ftl_memcpy
	mov	r1, #1
	mov	r2, r1
	ldr	r0, .L1709+12
	bl	FlashEraseBlocks
	mov	r1, #1
	mov	r3, r1
	ldr	r0, .L1709+12
	mov	r2, r1
	bl	FlashProgPages
	ldr	r3, [r5, #-2808]
	cmn	r3, #1
	bne	.L1688
	uxth	r0, fp
	bl	FtlBbmMapBadBlock
	b	.L1689
.L1688:
	uxth	r0, fp
	add	r6, r6, #1
	bl	FtlBbmMapBadBlock
	add	r8, r8, #4
	b	.L1686
.L1706:
	add	r5, r3, #60
	mov	r6, #0
.L1693:
	ldrh	r3, [r5]
	uxth	r0, r6
	add	r6, r6, #1
	cmp	r3, r0
	bls	.L1708
	bl	FtlBbmMapBadBlock
	b	.L1693
.L1708:
	ldrh	r5, [r4, #12]
	movw	r8, #65535
	ldr	r6, .L1709+28
	sub	r5, r5, #1
	uxth	r5, r5
.L1695:
	ldrh	r3, [r4, #12]
	sub	r3, r3, #48
	cmp	r5, r3
	ble	.L1699
	mov	r0, r5
	bl	FtlBbmIsBadBlock
	cmp	r0, #1
	beq	.L1696
	mov	r0, r5
	bl	FlashTestBlk
	cmp	r0, #0
	beq	.L1697
	mov	r0, r5
	bl	FtlBbmMapBadBlock
	b	.L1696
.L1697:
	ldrh	r3, [r6]
	cmp	r3, r8
	streqh	r5, [r6]	@ movhi
.L1698:
	ldrne	r3, .L1709+28
	strneh	r5, [r3, #4]	@ movhi
	bne	.L1699
.L1696:
	sub	r5, r5, #1
	uxth	r5, r5
	b	.L1695
.L1699:
	ldr	r0, [r7, #-3024]
	mov	r5, #0
	ldrh	r3, [r4]
	mov	r2, #2
	str	r5, [r7, #-2872]
	mov	r1, #1
	strh	r5, [r4, #2]	@ movhi
	mov	r3, r3, asl #10
	str	r3, [r0, #4]
	ldrh	r3, [r4, #4]
	mov	r3, r3, asl #10
	str	r3, [r0, #40]
	bl	FlashEraseBlocks
	ldrh	r0, [r4]
	bl	FtlBbmMapBadBlock
	ldrh	r0, [r4, #4]
	bl	FtlBbmMapBadBlock
	bl	FtlBbmTblFlush
	ldr	r3, [r7, #-2872]
	ldrh	r2, [r4, #4]
	add	r3, r3, #1
	str	r3, [r7, #-2872]
	ldrh	r3, [r4]
	strh	r5, [r4, #2]	@ movhi
	strh	r2, [r4]	@ movhi
	strh	r3, [r4, #4]	@ movhi
	bl	FtlBbmTblFlush
.L1685:
	mov	r0, #0
	add	sp, sp, #12
	@ sp needed
	ldmfd	sp!, {r4, r5, r6, r7, r8, r9, r10, fp, pc}
.L1710:
	.align	2
.L1709:
	.word	.LANCHOR2
	.word	.LANCHOR2-2852
	.word	.LANCHOR2-3246
	.word	.LANCHOR2-2808
	.word	.LANCHOR2-3202
	.word	-3872
	.word	.LANCHOR2-2884
	.word	.LANCHOR2-2880
	.fnend
	.size	FtlMakeBbt, .-FtlMakeBbt
	.align	2
	.global	V2P_block
	.type	V2P_block, %function
V2P_block:
	.fnstart
	@ args = 0, pretend = 0, frame = 0
	@ frame_needed = 0, uses_anonymous_args = 0
	stmfd	sp!, {r3, r4, r5, r6, r7, lr}
	.save {r3, r4, r5, r6, r7, lr}
	mov	r5, r1
	ldr	r4, .L1713
	mov	r7, r0
	sub	r3, r4, #3232
	sub	r4, r4, #3200
	ldrh	r6, [r3, #-12]
	mov	r1, r6
	bl	__aeabi_uidivmod
	mov	r0, r7
	smlabb	r5, r5, r6, r1
	mov	r1, r6
	bl	__aeabi_uidiv
	ldrh	r3, [r4, #-2]
	smlabb	r0, r3, r0, r5
	uxth	r0, r0
	ldmfd	sp!, {r3, r4, r5, r6, r7, pc}
.L1714:
	.align	2
.L1713:
	.word	.LANCHOR2
	.fnend
	.size	V2P_block, .-V2P_block
	.align	2
	.global	P2V_plane
	.type	P2V_plane, %function
P2V_plane:
	.fnstart
	@ args = 0, pretend = 0, frame = 0
	@ frame_needed = 0, uses_anonymous_args = 0
	ldr	r3, .L1717
	stmfd	sp!, {r4, r5, r6, lr}
	.save {r4, r5, r6, lr}
	sub	r2, r3, #3232
	sub	r3, r3, #3200
	mov	r6, r0
	ldrh	r5, [r2, #-12]
	ldrh	r1, [r3, #-2]
	bl	__aeabi_uidiv
	mov	r1, r5
	smulbb	r4, r0, r5
	mov	r0, r6
	bl	__aeabi_uidivmod
	add	r1, r4, r1
	uxth	r0, r1
	ldmfd	sp!, {r4, r5, r6, pc}
.L1718:
	.align	2
.L1717:
	.word	.LANCHOR2
	.fnend
	.size	P2V_plane, .-P2V_plane
	.align	2
	.global	P2V_block_in_plane
	.type	P2V_block_in_plane, %function
P2V_block_in_plane:
	.fnstart
	@ args = 0, pretend = 0, frame = 0
	@ frame_needed = 0, uses_anonymous_args = 0
	stmfd	sp!, {r4, lr}
	.save {r4, lr}
	ldr	r4, .L1721
	sub	r3, r4, #3200
	sub	r4, r4, #3232
	ldrh	r1, [r3, #-2]
	bl	__aeabi_uidivmod
	uxth	r0, r1
	ldrh	r1, [r4, #-12]
	bl	__aeabi_uidiv
	uxth	r0, r0
	ldmfd	sp!, {r4, pc}
.L1722:
	.align	2
.L1721:
	.word	.LANCHOR2
	.fnend
	.size	P2V_block_in_plane, .-P2V_block_in_plane
	.align	2
	.global	ftl_cmp_data_ver
	.type	ftl_cmp_data_ver, %function
ftl_cmp_data_ver:
	.fnstart
	@ args = 0, pretend = 0, frame = 0
	@ frame_needed = 0, uses_anonymous_args = 0
	@ link register save eliminated.
	cmp	r0, r1
	bls	.L1724
	rsb	r0, r1, r0
	cmp	r0, #-2147483648
	movhi	r0, #0
	movls	r0, #1
	bx	lr
.L1724:
	rsb	r0, r0, r1
	cmp	r0, #-2147483648
	movls	r0, #0
	movhi	r0, #1
	bx	lr
	.fnend
	.size	ftl_cmp_data_ver, .-ftl_cmp_data_ver
	.align	2
	.global	FtlGetLastWrittenPage
	.type	FtlGetLastWrittenPage, %function
FtlGetLastWrittenPage:
	.fnstart
	@ args = 0, pretend = 0, frame = 104
	@ frame_needed = 0, uses_anonymous_args = 0
	stmfd	sp!, {r4, r5, r6, r7, r8, r9, lr}
	.save {r4, r5, r6, r7, r8, r9, lr}
	cmp	r1, #1
	ldr	r6, .L1739
	.pad #108
	sub	sp, sp, #108
	mov	r9, r1
	mov	r7, r0, asl #10
	mov	r1, #1
	mov	r0, sp
	ldr	r3, [r6]
	mov	r2, r9
	mov	r8, #0
	str	r8, [sp, #8]
	str	r3, [sp, #100]
	ldreq	r3, .L1739+4
	ldrne	r3, .L1739+8
	ldreqh	r4, [r3, #-14]
	ldrneh	r4, [r3]
	add	r3, sp, #36
	str	r3, [sp, #12]
	sub	r5, r4, #1
	uxth	r5, r5
	sxth	r3, r5
	orr	r3, r3, r7
	str	r3, [sp, #4]
	bl	FlashReadPages
	ldr	r3, [sp, #36]
	cmn	r3, #1
	bne	.L1729
.L1730:
	sxth	r4, r8
	sxth	r3, r5
	cmp	r4, r3
	bgt	.L1729
	add	r4, r4, r3
	mov	r0, sp
	mov	r1, #1
	mov	r2, r9
	add	r4, r4, r4, lsr #31
	mov	r4, r4, asr #1
	sxth	r3, r4
	orr	r3, r3, r7
	str	r3, [sp, #4]
	bl	FlashReadPages
	ldr	r3, [sp, #36]
	cmn	r3, #1
	bne	.L1731
	ldr	r3, [sp, #40]
	cmn	r3, #1
	bne	.L1731
	ldr	r3, [sp]
	cmn	r3, #1
	subne	r5, r4, #1
	uxthne	r5, r5
	bne	.L1730
.L1731:
	add	r3, r4, #1
	uxth	r8, r3
	b	.L1730
.L1729:
	ldr	r2, [sp, #100]
	sxth	r0, r5
	ldr	r3, [r6]
	cmp	r2, r3
	beq	.L1734
	bl	__stack_chk_fail
.L1734:
	add	sp, sp, #108
	@ sp needed
	ldmfd	sp!, {r4, r5, r6, r7, r8, r9, pc}
.L1740:
	.align	2
.L1739:
	.word	__stack_chk_guard
	.word	.LANCHOR2-3184
	.word	.LANCHOR2-3200
	.fnend
	.size	FtlGetLastWrittenPage, .-FtlGetLastWrittenPage
	.align	2
	.global	FtlLoadBbt
	.type	FtlLoadBbt, %function
FtlLoadBbt:
	.fnstart
	@ args = 0, pretend = 0, frame = 0
	@ frame_needed = 0, uses_anonymous_args = 0
	stmfd	sp!, {r4, r5, r6, r7, r8, lr}
	.save {r4, r5, r6, r7, r8, lr}
	ldr	r4, .L1774
	ldr	r3, [r4, #-3008]
	mov	r7, r4
	ldr	r6, [r4, #-2976]
	str	r3, [r4, #-2800]
	str	r6, [r4, #-2796]
	bl	FtlBbtMemInit
	sub	r3, r4, #3200
	sub	r8, r3, #2
	ldrh	r5, [r3, #-2]
	sub	r5, r5, #1
	uxth	r5, r5
.L1742:
	ldrh	r3, [r8]
	sub	r3, r3, #48
	cmp	r5, r3
	ble	.L1745
	mov	r1, #1
	ldr	r0, .L1774+4
	mov	r2, r1
	mov	r3, r5, asl #10
	str	r3, [r7, #-2804]
	bl	FlashReadPages
	ldr	r3, [r7, #-2808]
	cmn	r3, #1
	bne	.L1743
	ldr	r3, [r7, #-2804]
	mov	r1, #1
	ldr	r0, .L1774+4
	mov	r2, r1
	add	r3, r3, #1
	str	r3, [r7, #-2804]
	bl	FlashReadPages
.L1743:
	ldr	r3, [r4, #-2808]
	ldr	r2, .L1774
	cmn	r3, #1
	beq	.L1744
	ldrh	r1, [r6]
	movw	r3, #61649
	cmp	r1, r3
	bne	.L1744
	ldr	r1, [r6, #4]
	sub	r3, r2, #2880
	strh	r5, [r3]	@ movhi
	str	r1, [r2, #-2872]
	ldrh	r2, [r6, #8]
	strh	r2, [r3, #4]	@ movhi
	b	.L1745
.L1744:
	sub	r5, r5, #1
	uxth	r5, r5
	b	.L1742
.L1745:
	ldr	r7, .L1774
	movw	r2, #65535
	sub	r5, r7, #2880
	ldrh	r3, [r5]
	cmp	r3, r2
	beq	.L1759
	ldrh	r3, [r5, #4]
	cmp	r3, r2
	beq	.L1749
	mov	r1, #1
	add	r0, r5, #72
	mov	r2, r1
	mov	r3, r3, asl #10
	str	r3, [r7, #-2804]
	bl	FlashReadPages
	ldr	r3, [r7, #-2808]
	cmn	r3, #1
	beq	.L1749
	ldrh	r2, [r6]
	movw	r3, #61649
	cmp	r2, r3
	bne	.L1749
	ldr	r3, [r6, #4]
	ldr	r2, [r7, #-2872]
	cmp	r3, r2
	strhi	r3, [r7, #-2872]
	ldrhih	r2, [r5, #4]
	ldrhih	r3, [r6, #8]
	strhih	r2, [r5]	@ movhi
	strhih	r3, [r5, #4]	@ movhi
.L1749:
	ldrh	r0, [r5]
	mov	r1, #1
	bl	FtlGetLastWrittenPage
	movw	r8, #61649
	uxth	r7, r0
	add	r0, r0, #1
	strh	r0, [r5, #2]	@ movhi
.L1751:
	sxth	r3, r7
	cmp	r3, #0
	blt	.L1756
	ldrh	r2, [r5]
	mov	r1, #1
	ldr	r0, .L1774+4
	orr	r3, r3, r2, asl #10
	str	r3, [r4, #-2804]
	ldr	r3, [r4, #-3008]
	mov	r2, r1
	str	r3, [r4, #-2800]
	bl	FlashReadPages
	ldr	r3, [r4, #-2808]
	cmn	r3, #1
	beq	.L1752
	ldrh	r3, [r6]
	cmp	r3, r8
	bne	.L1752
.L1756:
	ldrh	r2, [r6, #10]
	ldrh	r0, [r6, #12]
	ldr	r3, .L1774
	strh	r2, [r5, #6]	@ movhi
	movw	r2, #65535
	cmp	r0, r2
	bne	.L1753
	b	.L1754
.L1752:
	sub	r7, r7, #1
	uxth	r7, r7
	b	.L1751
.L1753:
	ldr	r2, [r3, #-3272]
	cmp	r0, r2
	beq	.L1754
	sub	r3, r3, #3248
	ldrh	r3, [r3, #-10]
	mov	r3, r3, lsr #2
	cmp	r0, r3
	cmpcc	r2, r3
	bcs	.L1754
	bl	FtlSysBlkNumInit
.L1754:
	ldr	r5, .L1774+8
	mov	r4, #0
	ldr	r7, .L1774
	ldr	r6, .L1774+12
	sub	r8, r5, #28
.L1757:
	ldrh	r3, [r6]
	cmp	r4, r3
	bcs	.L1773
	ldrh	r2, [r8]
	ldr	r1, [r7, #-2800]
	ldr	r0, [r5, #4]!
	mov	r2, r2, asl #2
	mla	r1, r4, r2, r1
	bl	ftl_memcpy
	add	r4, r4, #1
	b	.L1757
.L1773:
	mov	r0, #0
	ldmfd	sp!, {r4, r5, r6, r7, r8, pc}
.L1759:
	mvn	r0, #0
	ldmfd	sp!, {r4, r5, r6, r7, r8, pc}
.L1775:
	.align	2
.L1774:
	.word	.LANCHOR2
	.word	.LANCHOR2-2808
	.word	.LANCHOR2-2856
	.word	.LANCHOR2-3246
	.fnend
	.size	FtlLoadBbt, .-FtlLoadBbt
	.align	2
	.global	FtlFreeSysBlkQueueInit
	.type	FtlFreeSysBlkQueueInit, %function
FtlFreeSysBlkQueueInit:
	.fnstart
	@ args = 0, pretend = 0, frame = 0
	@ frame_needed = 0, uses_anonymous_args = 0
	ldr	r3, .L1778
	stmfd	sp!, {r4, lr}
	.save {r4, lr}
	sub	r2, r3, #4
	mov	r4, #0
	strh	r0, [r3, #-4]	@ movhi
	strh	r4, [r2, #4]	@ movhi
	add	r0, r3, #4
	mov	r1, r4
	mov	r2, #2048
	strh	r4, [r3, #-2]	@ movhi
	strh	r4, [r3, #2]	@ movhi
	bl	ftl_memset
	mov	r0, r4
	ldmfd	sp!, {r4, pc}
.L1779:
	.align	2
.L1778:
	.word	.LANCHOR2-2768
	.fnend
	.size	FtlFreeSysBlkQueueInit, .-FtlFreeSysBlkQueueInit
	.align	2
	.global	FtlFreeSysBlkQueueEmpty
	.type	FtlFreeSysBlkQueueEmpty, %function
FtlFreeSysBlkQueueEmpty:
	.fnstart
	@ args = 0, pretend = 0, frame = 0
	@ frame_needed = 0, uses_anonymous_args = 0
	@ link register save eliminated.
	ldr	r3, .L1781
	ldrh	r0, [r3, #6]
	clz	r0, r0
	mov	r0, r0, lsr #5
	bx	lr
.L1782:
	.align	2
.L1781:
	.word	.LANCHOR2-2772
	.fnend
	.size	FtlFreeSysBlkQueueEmpty, .-FtlFreeSysBlkQueueEmpty
	.align	2
	.global	FtlFreeSysBlkQueueFull
	.type	FtlFreeSysBlkQueueFull, %function
FtlFreeSysBlkQueueFull:
	.fnstart
	@ args = 0, pretend = 0, frame = 0
	@ frame_needed = 0, uses_anonymous_args = 0
	@ link register save eliminated.
	ldr	r3, .L1784
	ldrh	r0, [r3, #6]
	sub	r0, r0, #1024
	clz	r0, r0
	mov	r0, r0, lsr #5
	bx	lr
.L1785:
	.align	2
.L1784:
	.word	.LANCHOR2-2772
	.fnend
	.size	FtlFreeSysBlkQueueFull, .-FtlFreeSysBlkQueueFull
	.align	2
	.global	FtlFreeSysBlkQueueIn
	.type	FtlFreeSysBlkQueueIn, %function
FtlFreeSysBlkQueueIn:
	.fnstart
	@ args = 0, pretend = 0, frame = 0
	@ frame_needed = 0, uses_anonymous_args = 0
	stmfd	sp!, {r3, r4, r5, r6, r7, lr}
	.save {r3, r4, r5, r6, r7, lr}
	sub	r3, r0, #1
	movw	r2, #65533
	mov	r7, r0
	uxth	r3, r3
	cmp	r3, r2
	ldmhifd	sp!, {r3, r4, r5, r6, r7, pc}
	ldr	r4, .L1796
	ldr	r5, .L1796+4
	ldrh	r3, [r4, #6]
	cmp	r3, #1024
	ldmeqfd	sp!, {r3, r4, r5, r6, r7, pc}
	cmp	r1, #0
	beq	.L1788
	ldr	r3, [r5, #-2812]
	cmp	r3, #0
	bne	.L1788
	bl	P2V_block_in_plane
	mov	r1, #1
	mov	r3, r7, asl #10
	mov	r2, r1
	mov	r6, r0
	ldr	r0, [r5, #-3024]
	str	r3, [r0, #4]
	bl	FlashEraseBlocks
	ldr	r1, [r5, #-2948]
	mov	r3, r6, asl #1
	ldrh	r2, [r1, r3]
	add	r2, r2, #1
	strh	r2, [r1, r3]	@ movhi
	ldr	r3, [r5, #-3108]
	add	r3, r3, #1
	str	r3, [r5, #-3108]
.L1788:
	ldrh	r3, [r4, #6]
	add	r3, r3, #1
	strh	r3, [r4, #6]	@ movhi
	ldrh	r3, [r4, #4]
	add	r2, r4, r3, asl #1
	add	r3, r3, #1
	ubfx	r3, r3, #0, #10
	strh	r3, [r4, #4]	@ movhi
	strh	r7, [r2, #8]	@ movhi
	ldmfd	sp!, {r3, r4, r5, r6, r7, pc}
.L1797:
	.align	2
.L1796:
	.word	.LANCHOR2-2772
	.word	.LANCHOR2
	.fnend
	.size	FtlFreeSysBlkQueueIn, .-FtlFreeSysBlkQueueIn
	.align	2
	.global	FtlLowFormatEraseBlock
	.type	FtlLowFormatEraseBlock, %function
FtlLowFormatEraseBlock:
	.fnstart
	@ args = 0, pretend = 0, frame = 24
	@ frame_needed = 0, uses_anonymous_args = 0
	stmfd	sp!, {r4, r5, r6, r7, r8, r9, r10, fp, lr}
	.save {r4, r5, r6, r7, r8, r9, r10, fp, lr}
	.pad #28
	sub	sp, sp, #28
	ldr	r6, .L1848
	ldr	r5, [r6, #-2812]
	ldrb	r3, [r6, #-3340]	@ zero_extendqisi2
	cmp	r5, #0
	str	r3, [sp, #16]
	movne	r0, #0
	bne	.L1799
	ldr	r2, .L1848+4
	mov	r9, r6
	mov	fp, r1
	mov	r10, r5
	mov	r4, r5
	mov	r7, r6
	ldrb	r3, [r2, #3904]	@ zero_extendqisi2
	mov	r8, #36
	str	r0, [sp, #4]
	str	r0, [r9, #-3076]
	str	r3, [sp, #8]
	str	r2, [sp, #12]
.L1800:
	ldr	r3, .L1848+8
	uxth	r2, r10
	ldr	ip, .L1848
	ldrh	r1, [r3]
	cmp	r1, r2
	bls	.L1843
	mul	r1, r8, r2
	ldr	r0, [r7, #-3024]
	add	r2, r7, r2
	mov	r3, #0
	str	r3, [r0, r1]
	ldr	r1, [sp, #4]
	ldrb	r0, [r2, #-3240]	@ zero_extendqisi2
	bl	V2P_block
	cmp	fp, #0
	mov	r6, r0
	beq	.L1801
	bl	IsBlkInVendorPart
	cmp	r0, #0
	bne	.L1802
.L1801:
	mov	r0, r6
	bl	FtlBbmIsBadBlock
	cmp	r0, #0
	addne	r4, r4, #1
	uxthne	r4, r4
	bne	.L1802
	ldr	r3, .L1848+12
	mov	r6, r6, asl #10
	ldr	r1, [r9, #-3024]
	ldrh	r2, [r3]
	mla	r1, r8, r5, r1
	mul	r2, r2, r5
	add	r5, r5, #1
	uxth	r5, r5
	cmp	r2, #0
	str	r0, [r1, #8]
	add	r0, r2, #3
	str	r6, [r1, #4]
	movlt	r2, r0
	ldr	r0, [r9, #-2972]
	bic	r2, r2, #3
	add	r2, r0, r2
	str	r2, [r1, #12]
.L1802:
	add	r10, r10, #1
	b	.L1800
.L1843:
	cmp	r5, #0
	beq	.L1823
	ldr	r3, [sp, #8]
	mov	r2, r5
	ldr	r0, [ip, #-3024]
	mov	r7, #0
	adds	r6, r3, #0
	strb	r7, [ip, #-3340]
	str	ip, [sp, #8]
	mov	r8, #36
	movne	r6, #1
	mov	r1, r6
	bl	FlashEraseBlocks
	ldrb	r3, [sp, #16]	@ zero_extendqisi2
	ldr	ip, [sp, #8]
	strb	r3, [ip, #-3340]
.L1806:
	uxth	r3, r7
	cmp	r3, r5
	bcs	.L1844
	mul	r3, r8, r7
	ldr	r2, [r9, #-3024]
	add	r0, r2, r3
	ldr	r3, [r2, r3]
	cmn	r3, #1
	bne	.L1807
	ldr	r0, [r0, #4]
	add	r4, r4, #1
	ubfx	r0, r0, #10, #16
	uxth	r4, r4
	bl	FtlBbmMapBadBlock
.L1807:
	add	r7, r7, #1
	b	.L1806
.L1844:
	cmp	fp, #0
	bne	.L1809
	mov	r3, #6
	uxth	r6, r6
	str	r3, [sp, #12]
	mov	r3, #1
	str	r3, [sp, #8]
	b	.L1810
.L1809:
	ldr	r3, .L1848+16
	ldrh	r3, [r3, #-14]
	str	r3, [sp, #8]
	ldr	r3, [sp, #12]
	ldrb	r3, [r3, #3904]	@ zero_extendqisi2
	cmp	r3, #0
	ldreq	r3, [sp, #8]
	moveq	r6, #1
	movne	r6, #1
	strne	r6, [sp, #12]
	moveq	r3, r3, lsr #2
	streq	r3, [sp, #12]
.L1810:
	ldr	r10, .L1848
	mov	r7, #0
.L1819:
	mov	r8, #0
	mov	r5, r8
.L1811:
	ldr	r3, .L1848+8
	ldr	r9, .L1848
	ldrh	r2, [r3]
	uxth	r3, r8
	cmp	r2, r3
	bls	.L1845
	mov	r2, #36
	ldr	r1, [r10, #-3024]
	mul	r2, r2, r3
	add	r3, r10, r3
	mov	r0, #0
	str	r0, [r1, r2]
	ldr	r1, [sp, #4]
	ldrb	r0, [r3, #-3240]	@ zero_extendqisi2
	bl	V2P_block
	cmp	fp, #0
	mov	r9, r0
	beq	.L1812
	bl	IsBlkInVendorPart
	cmp	r0, #0
	bne	.L1813
.L1812:
	mov	r0, r9
	bl	FtlBbmIsBadBlock
	cmp	r0, #0
	bne	.L1813
	ldr	r2, [r10, #-3024]
	mov	r3, #36
	add	r9, r7, r9, asl #10
	mla	r2, r3, r5, r2
	ldr	r3, [r10, #-2988]
	str	r3, [r2, #8]
	ldr	r3, .L1848+12
	str	r9, [r2, #4]
	ldrh	r3, [r3]
	mul	r3, r3, r5
	add	r5, r5, #1
	uxth	r5, r5
	add	r1, r3, #3
	cmp	r3, #0
	movlt	r3, r1
	ldr	r1, [r10, #-2984]
	bic	r3, r3, #3
	add	r3, r1, r3
	str	r3, [r2, #12]
.L1813:
	add	r8, r8, #1
	b	.L1811
.L1845:
	cmp	r5, #0
	beq	.L1823
	ldr	r2, .L1848
	mov	r3, #0
	mov	r1, r5
	mov	r8, #0
	strb	r3, [r2, #-3340]
	mov	r3, #1
	ldr	r0, [r2, #-3024]
	mov	r2, r6
	bl	FlashProgPages
	ldr	r3, .L1848
	mov	r1, #36
	ldrb	r2, [sp, #16]	@ zero_extendqisi2
	strb	r2, [r3, #-3340]
.L1816:
	uxth	r3, r8
	cmp	r3, r5
	bcs	.L1846
	mul	r3, r1, r8
	ldr	r2, .L1848
	ldr	r2, [r2, #-3024]
	add	r0, r2, r3
	ldr	r3, [r2, r3]
	cmp	r3, #0
	beq	.L1817
	ldr	r0, [r0, #4]
	add	r4, r4, #1
	str	r1, [sp, #20]
	ubfx	r0, r0, #10, #16
	uxth	r4, r4
	bl	FtlBbmMapBadBlock
	ldr	r1, [sp, #20]
.L1817:
	add	r8, r8, #1
	b	.L1816
.L1846:
	ldr	r3, [sp, #12]
	add	r7, r7, r3
	ldr	r3, [sp, #8]
	uxth	r7, r7
	cmp	r7, r3
	bcc	.L1819
	mov	r7, #0
	mov	r8, #36
.L1820:
	uxth	r3, r7
	cmp	r3, r5
	bcs	.L1847
	cmp	fp, #0
	beq	.L1821
	mul	r3, r8, r7
	ldr	r2, [r9, #-3024]
	add	r1, r2, r3
	ldr	r3, [r2, r3]
	cmp	r3, #0
	bne	.L1821
	ldr	r0, [r1, #4]
	mov	r1, #1
	ubfx	r0, r0, #10, #16
	bl	FtlFreeSysBlkQueueIn
.L1821:
	add	r7, r7, #1
	b	.L1820
.L1847:
	adds	r3, fp, #0
	ldr	r2, [sp, #4]
	movne	r3, #1
	cmp	r2, #63
	orrls	r3, r3, #1
	cmp	r3, #0
	beq	.L1823
	ldr	r0, [r9, #-3024]
	mov	r1, r6
	mov	r2, r5
	bl	FlashEraseBlocks
.L1823:
	mov	r0, r4
.L1799:
	add	sp, sp, #28
	@ sp needed
	ldmfd	sp!, {r4, r5, r6, r7, r8, r9, r10, fp, pc}
.L1849:
	.align	2
.L1848:
	.word	.LANCHOR2
	.word	.LANCHOR0
	.word	.LANCHOR2-3268
	.word	.LANCHOR2-3188
	.word	.LANCHOR2-3184
	.fnend
	.size	FtlLowFormatEraseBlock, .-FtlLowFormatEraseBlock
	.align	2
	.global	FtlFreeSysBLkSort
	.type	FtlFreeSysBLkSort, %function
FtlFreeSysBLkSort:
	.fnstart
	@ args = 0, pretend = 0, frame = 0
	@ frame_needed = 0, uses_anonymous_args = 0
	ldr	r3, .L1863
	ldrh	ip, [r3, #28]
	ldr	r3, .L1863+4
	ldrh	r2, [r3, #6]
	cmp	r2, #0
	bxeq	lr
	stmfd	sp!, {r4, lr}
	.save {r4, lr}
	mov	r0, #0
	ldrh	r1, [r3, #2]
	and	ip, ip, #31
	ldrh	r2, [r3, #4]
	mov	r4, r0
.L1852:
	uxth	lr, r0
	add	r0, r0, #1
	cmp	lr, ip
	bge	.L1862
	add	lr, r3, r1, asl #1
	add	r1, r1, #1
	ubfx	r1, r1, #0, #10
	ldrh	r4, [lr, #8]
	add	lr, r3, r2, asl #1
	strh	r4, [lr, #8]	@ movhi
	mov	r4, #1
	add	r2, r2, r4
	ubfx	r2, r2, #0, #10
	b	.L1852
.L1862:
	cmp	r4, #0
	strneh	r1, [r3, #2]	@ movhi
	strneh	r2, [r3, #4]	@ movhi
	ldmfd	sp!, {r4, pc}
.L1864:
	.align	2
.L1863:
	.word	.LANCHOR2-716
	.word	.LANCHOR2-2772
	.fnend
	.size	FtlFreeSysBLkSort, .-FtlFreeSysBLkSort
	.align	2
	.global	FtlFreeSysBlkQueueOut
	.type	FtlFreeSysBlkQueueOut, %function
FtlFreeSysBlkQueueOut:
	.fnstart
	@ args = 0, pretend = 0, frame = 0
	@ frame_needed = 0, uses_anonymous_args = 0
	stmfd	sp!, {r3, r4, r5, r6, r7, r8, r9, lr}
	.save {r3, r4, r5, r6, r7, r8, r9, lr}
	ldr	r7, .L1876
	ldr	r5, .L1876+4
	mov	r6, r7
.L1866:
	ldrh	r1, [r5, #6]
	cmp	r1, #0
	beq	.L1867
	ldrh	r3, [r5, #2]
	sub	r1, r1, #1
	ldr	r9, [r7, #-2812]
	strh	r1, [r5, #6]	@ movhi
	add	r2, r5, r3, asl #1
	cmp	r9, #0
	add	r3, r3, #1
	ubfx	r3, r3, #0, #10
	ldrh	r4, [r2, #8]
	strh	r3, [r5, #2]	@ movhi
	bne	.L1868
	mov	r0, r4
	bl	P2V_block_in_plane
	mov	r3, r4, asl #10
	mov	r8, r0
	ldr	r0, [r7, #-3024]
	str	r3, [r0, #4]
	ldr	r3, .L1876+8
	ldrb	r3, [r3, #3904]	@ zero_extendqisi2
	cmp	r3, #0
	beq	.L1869
	mov	r1, r9
	mov	r2, #1
	bl	FlashEraseBlocks
.L1869:
	mov	r1, #1
	ldr	r0, [r6, #-3024]
	mov	r2, r1
	bl	FlashEraseBlocks
	ldr	r1, [r6, #-2948]
	mov	r3, r8, asl #1
	ldrh	r2, [r1, r3]
	add	r2, r2, #1
	strh	r2, [r1, r3]	@ movhi
	ldr	r3, [r6, #-3108]
	add	r3, r3, #1
	str	r3, [r6, #-3108]
	b	.L1868
.L1867:
	ldr	r0, .L1876+12
	bl	printk
.L1870:
	b	.L1870
.L1868:
	sub	r3, r4, #1
	movw	r2, #65533
	uxth	r3, r3
	cmp	r3, r2
	bls	.L1871
	ldr	r3, .L1876+4
	mov	r1, r4
	ldr	r0, .L1876+16
	ldrh	r2, [r3, #6]
	bl	printk
	b	.L1866
.L1871:
	mov	r0, r4
	ldmfd	sp!, {r3, r4, r5, r6, r7, r8, r9, pc}
.L1877:
	.align	2
.L1876:
	.word	.LANCHOR2
	.word	.LANCHOR2-2772
	.word	.LANCHOR0
	.word	.LC35
	.word	.LC36
	.fnend
	.size	FtlFreeSysBlkQueueOut, .-FtlFreeSysBlkQueueOut
	.align	2
	.global	test_node_in_list
	.type	test_node_in_list, %function
test_node_in_list:
	.fnstart
	@ args = 0, pretend = 0, frame = 0
	@ frame_needed = 0, uses_anonymous_args = 0
	ldr	r3, .L1884
	str	lr, [sp, #-4]!
	.save {lr}
	movw	lr, #65535
	ldr	ip, [r3, #-2888]
	ldr	r2, [r0]
	ldr	r3, .L1884+4
	rsb	r0, ip, r2
	mov	r0, r0, asr #1
	mul	r3, r3, r0
	mov	r0, #6
	uxth	r3, r3
.L1880:
	cmp	r1, r3
	beq	.L1881
	ldrh	r3, [r2]
	cmp	r3, lr
	beq	.L1882
	mla	r2, r0, r3, ip
	b	.L1880
.L1881:
	mov	r0, #1
	ldr	pc, [sp], #4
.L1882:
	mov	r0, #0
	ldr	pc, [sp], #4
.L1885:
	.align	2
.L1884:
	.word	.LANCHOR2
	.word	-1431655765
	.fnend
	.size	test_node_in_list, .-test_node_in_list
	.align	2
	.global	insert_data_list
	.type	insert_data_list, %function
insert_data_list:
	.fnstart
	@ args = 0, pretend = 0, frame = 8
	@ frame_needed = 0, uses_anonymous_args = 0
	stmfd	sp!, {r0, r1, r2, r4, r5, r6, r7, r8, r9, r10, fp, lr}
	.save {r4, r5, r6, r7, r8, r9, r10, fp, lr}
	.pad #12
	ldr	r2, .L1903
	sub	r5, r2, #3248
	ldrh	r3, [r5, #-12]
	cmp	r3, r0
	bls	.L1888
	mov	lr, #6
	ldr	r6, [r2, #-2888]
	mul	lr, lr, r0
	mvn	ip, #0
	add	r1, r6, lr
	strh	ip, [r1, #2]	@ movhi
	strh	ip, [r6, lr]	@ movhi
	ldr	r3, [r2, #-668]
	cmp	r3, #0
	beq	.L1902
	ldr	r8, [r2, #-2940]
	mov	r4, r0, asl #1
	mov	r10, r2
	ldrh	r2, [r1, #4]
	ldrh	r5, [r5, #-12]
	ldrh	r7, [r8, r4]
	cmp	r2, #0
	str	r5, [sp]
	mulne	ip, r2, r7
	ldr	r7, [r10, #-2888]
	ldr	r2, .L1903+4
	rsb	r9, r7, r3
	mov	r9, r9, asr #1
	mul	r2, r2, r9
	ldr	r9, [r10, #-2948]
	add	r4, r9, r4
	str	r4, [sp, #4]
	mov	r4, #0
	uxth	r2, r2
.L1897:
	add	r4, r4, #1
	ldr	r5, [sp]
	uxth	r4, r4
	cmp	r4, r5
	movls	r5, #0
	movhi	r5, #1
	cmp	r0, r2
	orreq	r5, r5, #1
	cmp	r5, #0
	bne	.L1888
	mov	r10, r2, asl #1
	ldrh	r5, [r3, #4]
	ldrh	fp, [r8, r10]
	cmp	r5, #0
	mvneq	r5, #0
	mulne	r5, r5, fp
	cmp	r5, ip
	bne	.L1893
	ldr	r5, [sp, #4]
	ldrh	r10, [r9, r10]
	ldrh	r5, [r5]
	cmp	r10, r5
	bcc	.L1895
	b	.L1894
.L1893:
	bhi	.L1894
.L1895:
	ldrh	r5, [r3]
	movw	r10, #65535
	cmp	r5, r10
	streqh	r2, [r1, #2]	@ movhi
	streqh	r0, [r3]	@ movhi
	ldreq	r3, .L1903
	streq	r1, [r3, #-664]
	beq	.L1888
.L1896:
	mov	r3, #6
	mov	r2, r5
	mla	r3, r3, r5, r7
	b	.L1897
.L1894:
	strh	r2, [r6, lr]	@ movhi
	ldrh	r2, [r3, #2]
	strh	r2, [r1, #2]	@ movhi
	ldr	r2, .L1903
	ldr	ip, [r2, #-668]
	cmp	r3, ip
	bne	.L1898
	strh	r0, [r3, #2]	@ movhi
.L1902:
	str	r1, [r2, #-668]
	b	.L1888
.L1898:
	ldrh	ip, [r3, #2]
	ldr	r1, [r2, #-2888]
	mov	r2, #6
	mul	r2, r2, ip
	strh	r0, [r1, r2]	@ movhi
	strh	r0, [r3, #2]	@ movhi
.L1888:
	mov	r0, #0
	add	sp, sp, #12
	@ sp needed
	ldmfd	sp!, {r4, r5, r6, r7, r8, r9, r10, fp, pc}
.L1904:
	.align	2
.L1903:
	.word	.LANCHOR2
	.word	-1431655765
	.fnend
	.size	insert_data_list, .-insert_data_list
	.align	2
	.global	INSERT_DATA_LIST
	.type	INSERT_DATA_LIST, %function
INSERT_DATA_LIST:
	.fnstart
	@ args = 0, pretend = 0, frame = 0
	@ frame_needed = 0, uses_anonymous_args = 0
	stmfd	sp!, {r3, lr}
	.save {r3, lr}
	bl	insert_data_list
	ldr	r2, .L1907
	ldrh	r3, [r2]
	add	r3, r3, #1
	strh	r3, [r2]	@ movhi
	ldmfd	sp!, {r3, pc}
.L1908:
	.align	2
.L1907:
	.word	.LANCHOR2-660
	.fnend
	.size	INSERT_DATA_LIST, .-INSERT_DATA_LIST
	.align	2
	.global	insert_free_list
	.type	insert_free_list, %function
insert_free_list:
	.fnstart
	@ args = 0, pretend = 0, frame = 0
	@ frame_needed = 0, uses_anonymous_args = 0
	stmfd	sp!, {r4, r5, r6, r7, r8, r9, r10, lr}
	.save {r4, r5, r6, r7, r8, r9, r10, lr}
	movw	r4, #65535
	cmp	r0, r4
	beq	.L1910
	ldr	r2, .L1918
	mov	lr, #6
	mul	r6, lr, r0
	mvn	r3, #0
	ldr	r7, [r2, #-2888]
	mov	r5, r2
	add	ip, r7, r6
	strh	r3, [ip, #2]	@ movhi
	strh	r3, [r7, r6]	@ movhi
	ldr	r3, [r2, #-656]
	cmp	r3, #0
	beq	.L1917
	ldr	r9, [r2, #-2948]
	mov	r2, r0, asl #1
	ldr	r8, [r5, #-2888]
	rsb	r1, r8, r3
	ldrh	r10, [r9, r2]
	ldr	r2, .L1918+4
	mov	r1, r1, asr #1
	mul	r1, r2, r1
	uxth	r2, r1
.L1914:
	mov	r1, r2, asl #1
	ldrh	r1, [r9, r1]
	cmp	r1, r10
	bcs	.L1912
	ldrh	r1, [r3]
	cmp	r1, r4
	streqh	r2, [ip, #2]	@ movhi
	streqh	r0, [r3]	@ movhi
	beq	.L1910
.L1913:
	mla	r3, lr, r1, r8
	mov	r2, r1
	b	.L1914
.L1912:
	ldrh	r1, [r3, #2]
	strh	r1, [ip, #2]	@ movhi
	strh	r2, [r7, r6]	@ movhi
	ldr	r1, [r5, #-656]
	ldr	r2, .L1918
	cmp	r3, r1
	bne	.L1915
	strh	r0, [r3, #2]	@ movhi
.L1917:
	str	ip, [r2, #-656]
	b	.L1910
.L1915:
	ldrh	ip, [r3, #2]
	ldr	r1, [r2, #-2888]
	mov	r2, #6
	mul	r2, r2, ip
	strh	r0, [r1, r2]	@ movhi
	strh	r0, [r3, #2]	@ movhi
.L1910:
	mov	r0, #0
	ldmfd	sp!, {r4, r5, r6, r7, r8, r9, r10, pc}
.L1919:
	.align	2
.L1918:
	.word	.LANCHOR2
	.word	-1431655765
	.fnend
	.size	insert_free_list, .-insert_free_list
	.align	2
	.global	INSERT_FREE_LIST
	.type	INSERT_FREE_LIST, %function
INSERT_FREE_LIST:
	.fnstart
	@ args = 0, pretend = 0, frame = 0
	@ frame_needed = 0, uses_anonymous_args = 0
	stmfd	sp!, {r3, lr}
	.save {r3, lr}
	bl	insert_free_list
	ldr	r2, .L1922
	ldrh	r3, [r2]
	add	r3, r3, #1
	strh	r3, [r2]	@ movhi
	ldmfd	sp!, {r3, pc}
.L1923:
	.align	2
.L1922:
	.word	.LANCHOR2-652
	.fnend
	.size	INSERT_FREE_LIST, .-INSERT_FREE_LIST
	.align	2
	.global	List_remove_node
	.type	List_remove_node, %function
List_remove_node:
	.fnstart
	@ args = 0, pretend = 0, frame = 0
	@ frame_needed = 0, uses_anonymous_args = 0
	stmfd	sp!, {r4, r5, lr}
	.save {r4, r5, lr}
	mov	ip, #6
	ldr	r4, .L1930
	movw	r5, #65535
	mul	r1, ip, r1
	ldr	r3, [r0]
	ldr	r2, [r4, #-2888]
	add	lr, r2, r1
	cmp	lr, r3
	ldrh	r3, [r2, r1]
	bne	.L1925
	cmp	r3, r5
	mlane	r3, ip, r3, r2
	moveq	r3, #0
	streq	r3, [r0]
	strne	r3, [r0]
	mvnne	r0, #0
	strneh	r0, [r3, #2]	@ movhi
	b	.L1927
.L1925:
	cmp	r3, r5
	ldrh	r0, [lr, #2]
	bne	.L1928
	cmp	r0, r3
	mulne	r0, ip, r0
	mvnne	r3, #0
	strneh	r3, [r2, r0]	@ movhi
	b	.L1927
.L1928:
	mla	r3, ip, r3, r2
	strh	r0, [r3, #2]	@ movhi
	ldrh	r5, [lr, #2]
	ldrh	r0, [r2, r1]
	ldr	r3, [r4, #-2888]
	mul	ip, ip, r5
	strh	r0, [r3, ip]	@ movhi
.L1927:
	mvn	r3, #0
	mov	r0, #0
	strh	r3, [r2, r1]	@ movhi
	strh	r3, [lr, #2]	@ movhi
	ldmfd	sp!, {r4, r5, pc}
.L1931:
	.align	2
.L1930:
	.word	.LANCHOR2
	.fnend
	.size	List_remove_node, .-List_remove_node
	.align	2
	.global	List_pop_index_node
	.type	List_pop_index_node, %function
List_pop_index_node:
	.fnstart
	@ args = 0, pretend = 0, frame = 0
	@ frame_needed = 0, uses_anonymous_args = 0
	ldr	r3, [r0]
	cmp	r3, #0
	beq	.L1938
	ldr	r2, .L1941
	movw	ip, #65535
	stmfd	sp!, {r4, lr}
	.save {r4, lr}
	mov	lr, #6
	ldr	r4, [r2, #-2888]
.L1934:
	cmp	r1, #0
	bne	.L1935
.L1937:
	rsb	r4, r4, r3
	ldr	r3, .L1941+4
	mov	r4, r4, asr #1
	mul	r4, r3, r4
	uxth	r4, r4
	mov	r1, r4
	bl	List_remove_node
	mov	r0, r4
	ldmfd	sp!, {r4, pc}
.L1935:
	ldrh	r2, [r3]
	cmp	r2, ip
	beq	.L1937
	sub	r1, r1, #1
	mla	r3, lr, r2, r4
	uxth	r1, r1
	b	.L1934
.L1938:
	movw	r0, #65535
	bx	lr
.L1942:
	.align	2
.L1941:
	.word	.LANCHOR2
	.word	-1431655765
	.fnend
	.size	List_pop_index_node, .-List_pop_index_node
	.align	2
	.global	List_get_gc_head_node
	.type	List_get_gc_head_node, %function
List_get_gc_head_node:
	.fnstart
	@ args = 0, pretend = 0, frame = 0
	@ frame_needed = 0, uses_anonymous_args = 0
	@ link register save eliminated.
	ldr	r2, .L1950
	ldr	r3, [r2, #-668]
	cmp	r3, #0
	ldrne	r1, [r2, #-2888]
	movne	ip, #6
	movwne	r2, #65535
	beq	.L1948
.L1945:
	cmp	r0, #0
	beq	.L1946
	ldrh	r3, [r3]
	cmp	r3, r2
	subne	r0, r0, #1
	mlane	r3, ip, r3, r1
	uxthne	r0, r0
	bne	.L1945
.L1948:
	movw	r0, #65535
	bx	lr
.L1946:
	rsb	r3, r1, r3
	ldr	r0, .L1950+4
	mov	r3, r3, asr #1
	mul	r0, r0, r3
	uxth	r0, r0
	bx	lr
.L1951:
	.align	2
.L1950:
	.word	.LANCHOR2
	.word	-1431655765
	.fnend
	.size	List_get_gc_head_node, .-List_get_gc_head_node
	.align	2
	.global	List_update_data_list
	.type	List_update_data_list, %function
List_update_data_list:
	.fnstart
	@ args = 0, pretend = 0, frame = 0
	@ frame_needed = 0, uses_anonymous_args = 0
	ldr	r3, .L1961
	sub	r2, r3, #648
	ldrh	r2, [r2]
	cmp	r2, r0
	beq	.L1960
	sub	r2, r3, #600
	ldrh	r2, [r2]
	cmp	r2, r0
	beq	.L1960
	sub	r2, r3, #552
	ldrh	r2, [r2]
	cmp	r2, r0
	beq	.L1960
	stmfd	sp!, {r4, lr}
	.save {r4, lr}
	mov	lr, #6
	mul	lr, lr, r0
	ldr	r1, [r3, #-2888]
	ldr	r2, [r3, #-668]
	add	ip, r1, lr
	cmp	ip, r2
	beq	.L1953
	ldr	r4, [r3, #-2940]
	mov	r3, r0, asl #1
	ldrh	r2, [r4, r3]
	ldrh	r3, [ip, #4]
	ldrh	ip, [ip, #2]
	cmp	r3, #0
	mulne	r2, r3, r2
	mvneq	r2, #0
	movw	r3, #65535
	cmp	ip, r3
	bne	.L1955
	ldrh	r3, [r1, lr]
	cmp	r3, ip
	beq	.L1953
.L1955:
	mov	r3, #6
	mul	ip, r3, ip
	ldr	r3, .L1961+4
	add	r1, r1, ip
	mov	lr, ip, asr #1
	mul	r3, r3, lr
	mov	r3, r3, asl #1
	ldrh	lr, [r4, r3]
	ldrh	r3, [r1, #4]
	cmp	r3, #0
	mulne	r3, r3, lr
	mvneq	r3, #0
	cmp	r2, r3
	bcs	.L1953
	mov	r4, r0
	ldr	r0, .L1961+8
	mov	r1, r4
	bl	List_remove_node
	ldr	r2, .L1961+12
	mov	r0, r4
	ldrh	r3, [r2]
	sub	r3, r3, #1
	strh	r3, [r2]	@ movhi
	bl	INSERT_DATA_LIST
.L1953:
	mov	r0, #0
	ldmfd	sp!, {r4, pc}
.L1960:
	mov	r0, #0
	bx	lr
.L1962:
	.align	2
.L1961:
	.word	.LANCHOR2
	.word	-1431655765
	.word	.LANCHOR2-668
	.word	.LANCHOR2-660
	.fnend
	.size	List_update_data_list, .-List_update_data_list
	.align	2
	.global	ftl_free_no_use_map_blk
	.type	ftl_free_no_use_map_blk, %function
ftl_free_no_use_map_blk:
	.fnstart
	@ args = 0, pretend = 0, frame = 0
	@ frame_needed = 0, uses_anonymous_args = 0
	stmfd	sp!, {r3, r4, r5, r6, r7, r8, r9, r10, fp, lr}
	.save {r3, r4, r5, r6, r7, r8, r9, r10, fp, lr}
	mov	r1, #0
	ldrh	r2, [r0, #10]
	mov	r4, r0
	ldr	r5, [r0, #20]
	ldr	r7, [r0, #12]
	ldr	r6, [r0, #24]
	mov	r2, r2, asl #1
	mov	r0, r5
	bl	ftl_memset
	mov	r2, #0
.L1964:
	ldrh	r1, [r4, #6]
	uxth	r3, r2
	cmp	r1, r3
	bls	.L1984
	ldr	r0, [r6, r3, asl #2]
	mov	r1, #0
	ubfx	r0, r0, #10, #16
.L1965:
	ldrh	ip, [r4, #10]
	uxth	r3, r1
	cmp	ip, r3
	bls	.L1985
	mov	r3, r3, asl #1
	add	r1, r1, #1
	ldrh	ip, [r7, r3]
	rsb	lr, ip, r0
	cmp	ip, #0
	clz	lr, lr
	mov	lr, lr, lsr #5
	moveq	lr, #0
	cmp	lr, #0
	ldrneh	ip, [r5, r3]
	addne	ip, ip, #1
	strneh	ip, [r5, r3]	@ movhi
	b	.L1965
.L1985:
	add	r2, r2, #1
	b	.L1964
.L1984:
	ldr	r3, .L1987
	mov	r8, #0
	mov	r1, r8
	mov	fp, r8
	ldrh	r2, [r3, #-14]
	ldrh	r3, [r4]
	mov	r3, r3, asl #1
	strh	r2, [r5, r3]	@ movhi
	ldrh	r9, [r5]
.L1969:
	ldrh	r3, [r4, #10]
	uxth	r6, r8
	cmp	r3, r6
	bls	.L1986
	mov	r2, r6, asl #1
	ldrh	r3, [r5, r2]
	cmp	r9, r3
	bls	.L1970
	ldrh	r0, [r7, r2]
	add	r10, r7, r2
	cmp	r0, #0
	bne	.L1971
	b	.L1972
.L1970:
	cmp	r3, #0
	bne	.L1972
	ldrh	r0, [r7, r2]
	add	r10, r7, r2
	cmp	r0, #0
	movne	r6, r1
	beq	.L1972
	b	.L1974
.L1971:
	cmp	r3, #0
	movne	r1, r6
	movne	r9, r3
	bne	.L1972
	mov	r9, r3
.L1974:
	mov	r1, #1
	bl	FtlFreeSysBlkQueueIn
	strh	fp, [r10]	@ movhi
	ldrh	r3, [r4, #8]
	mov	r1, r6
	sub	r3, r3, #1
	strh	r3, [r4, #8]	@ movhi
.L1972:
	add	r8, r8, #1
	b	.L1969
.L1986:
	mov	r0, r1
	ldmfd	sp!, {r3, r4, r5, r6, r7, r8, r9, r10, fp, pc}
.L1988:
	.align	2
.L1987:
	.word	.LANCHOR2-3184
	.fnend
	.size	ftl_free_no_use_map_blk, .-ftl_free_no_use_map_blk
	.align	2
	.global	ftl_map_blk_alloc_new_blk
	.type	ftl_map_blk_alloc_new_blk, %function
ftl_map_blk_alloc_new_blk:
	.fnstart
	@ args = 0, pretend = 0, frame = 0
	@ frame_needed = 0, uses_anonymous_args = 0
	stmfd	sp!, {r3, r4, r5, r6, r7, lr}
	.save {r3, r4, r5, r6, r7, lr}
	mov	r3, #0
	ldrh	r1, [r0, #10]
	ldr	r2, [r0, #12]
.L1990:
	uxth	r5, r3
	cmp	r5, r1
	bcs	.L1993
	mov	r7, r2
	add	r3, r3, #1
	ldrh	r6, [r7]
	add	r2, r2, #2
	cmp	r6, #0
	bne	.L1990
	mov	r4, r0
	bl	FtlFreeSysBlkQueueOut
	movw	r2, #65533
	sub	r3, r0, #1
	mov	r1, r0
	strh	r0, [r7]	@ movhi
	uxth	r3, r3
	cmp	r3, r2
	bls	.L1991
	ldr	r3, .L1997
	ldr	r0, .L1997+4
	ldrh	r2, [r3, #6]
	bl	printk
.L1992:
	b	.L1992
.L1991:
	ldr	r3, [r4, #28]
	strh	r6, [r4, #2]	@ movhi
	add	r3, r3, #1
	str	r3, [r4, #28]
	ldrh	r3, [r4, #8]
	strh	r5, [r4]	@ movhi
	add	r3, r3, #1
	strh	r3, [r4, #8]	@ movhi
.L1993:
	mov	r0, #0
	ldmfd	sp!, {r3, r4, r5, r6, r7, pc}
.L1998:
	.align	2
.L1997:
	.word	.LANCHOR2-2772
	.word	.LC37
	.fnend
	.size	ftl_map_blk_alloc_new_blk, .-ftl_map_blk_alloc_new_blk
	.align	2
	.global	FtlMapWritePage
	.type	FtlMapWritePage, %function
FtlMapWritePage:
	.fnstart
	@ args = 0, pretend = 0, frame = 8
	@ frame_needed = 0, uses_anonymous_args = 0
	stmfd	sp!, {r0, r1, r2, r4, r5, r6, r7, r8, r9, r10, fp, lr}
	.save {r4, r5, r6, r7, r8, r9, r10, fp, lr}
	.pad #12
	mov	r4, r0
	ldr	fp, .L2018
	mov	r8, r1
	ldr	r9, .L2018+4
	mov	r5, #0
	str	r2, [sp]
	mov	r10, fp
.L2000:
	ldr	r3, [fp, #-3124]
	ldr	r6, .L2018
	add	r3, r3, #1
	str	r3, [fp, #-3124]
	ldrh	r3, [r9]
	ldrh	r2, [r4, #2]
	sub	r3, r3, #1
	cmp	r2, r3
	bge	.L2001
	ldrh	r2, [r4]
	movw	r3, #65535
	cmp	r2, r3
	bne	.L2002
.L2001:
	mov	r0, r4
	bl	Ftl_write_map_blk_to_last_page
.L2002:
	ldr	r1, [r10, #-2812]
	cmp	r1, #0
	bne	.L2003
	ldrh	r3, [r4]
	ldr	r2, [r4, #12]
	ldr	r0, [fp, #-2976]
	mov	r3, r3, asl #1
	ldrh	r7, [r2, r3]
	mov	r2, #16
	ldrh	r3, [r4, #2]
	str	r0, [fp, #-2796]
	orr	r3, r3, r7, asl #10
	str	r3, [fp, #-2804]
	ldr	r3, [sp]
	str	r3, [fp, #-2800]
	bl	ftl_memset
	ldr	r2, [r4, #28]
	ldr	r3, [fp, #-2796]
	str	r2, [r3, #4]
	strh	r8, [r3, #8]	@ movhi
	ldrh	r2, [r4, #4]
	strh	r7, [r3, #2]	@ movhi
	strh	r2, [r3]	@ movhi
	ldr	r2, .L2018+8
	ldrb	r2, [r2]	@ zero_extendqisi2
	cmp	r2, #0
	beq	.L2004
	ldr	r2, .L2018+12
	ldr	r0, [fp, #-2800]
	str	r3, [sp, #4]
	ldrh	r1, [r2]
	bl	js_hash
	ldr	r3, [sp, #4]
	str	r0, [r3, #12]
.L2004:
	mov	r1, #1
	ldr	r0, .L2018+16
	mov	r2, r1
	mov	r3, r1
	bl	FlashProgPages
	ldrh	r3, [r4, #2]
	add	r3, r3, #1
	uxth	r3, r3
	strh	r3, [r4, #2]	@ movhi
	ldr	r2, [r10, #-2808]
	cmn	r2, #1
	bne	.L2005
	ldr	r0, .L2018+20
	add	r5, r5, #1
	ldr	r1, [fp, #-2804]
	bl	printk
	ldrh	r3, [r4, #2]
	uxth	r5, r5
	cmp	r3, #2
	ldrlsh	r3, [r9]
	subls	r3, r3, #1
	strlsh	r3, [r4, #2]	@ movhi
	cmp	r5, #3
	bls	.L2000
	ldr	r0, .L2018+24
	mov	r2, r5
	ldr	r1, [r6, #-2804]
	bl	printk
	mov	r3, #1
	str	r3, [r6, #-2812]
	b	.L2003
.L2005:
	cmp	r2, #0
	strneh	r7, [r4, #40]	@ movhi
	cmp	r2, #256
	cmpne	r3, #1
	beq	.L2009
	ldr	r3, [r4, #36]
	cmp	r3, #0
	beq	.L2010
.L2009:
	mov	r3, #0
	str	r3, [r4, #36]
	b	.L2000
.L2010:
	ldr	r2, [r6, #-2804]
	ldr	r3, [r4, #24]
	str	r2, [r3, r8, asl #2]
.L2003:
	mov	r0, #0
	add	sp, sp, #12
	@ sp needed
	ldmfd	sp!, {r4, r5, r6, r7, r8, r9, r10, fp, pc}
.L2019:
	.align	2
.L2018:
	.word	.LANCHOR2
	.word	.LANCHOR2-3198
	.word	.LANCHOR0
	.word	.LANCHOR2-3190
	.word	.LANCHOR2-2808
	.word	.LC38
	.word	.LC39
	.fnend
	.size	FtlMapWritePage, .-FtlMapWritePage
	.align	2
	.global	ftl_map_blk_gc
	.type	ftl_map_blk_gc, %function
ftl_map_blk_gc:
	.fnstart
	@ args = 0, pretend = 0, frame = 8
	@ frame_needed = 0, uses_anonymous_args = 0
	stmfd	sp!, {r0, r1, r2, r4, r5, r6, r7, r8, r9, r10, fp, lr}
	.save {r4, r5, r6, r7, r8, r9, r10, fp, lr}
	.pad #12
	mov	r4, r0
	ldr	r5, [r0, #12]
	ldr	r7, [r0, #24]
	bl	ftl_free_no_use_map_blk
	ldrh	r3, [r4, #10]
	ldrh	r2, [r4, #8]
	sub	r3, r3, #4
	ldr	r8, .L2034
	cmp	r2, r3
	blt	.L2021
	uxth	r0, r0
	mov	r0, r0, asl #1
	ldrh	r10, [r5, r0]
	cmp	r10, #0
	beq	.L2021
	ldr	r3, [r4, #32]
	cmp	r3, #0
	bne	.L2021
	mov	r2, #1
	str	r2, [r4, #32]
	strh	r3, [r5, r0]	@ movhi
	ldrh	r3, [r4, #8]
	ldrh	r2, [r4, #2]
	sub	r3, r3, #1
	strh	r3, [r4, #8]	@ movhi
	ldrh	r3, [r8, #-14]
	cmp	r2, r3
	bcc	.L2022
	mov	r0, r4
	bl	ftl_map_blk_alloc_new_blk
.L2022:
	ldr	r5, .L2034+4
	mov	fp, #0
.L2023:
	ldrh	r3, [r4, #6]
	uxth	r6, fp
	cmp	r3, r6
	bls	.L2033
	ldr	r3, [r7, r6, asl #2]
	add	ip, r7, r6, asl #2
	cmp	r10, r3, lsr #10
	bne	.L2024
	ldr	r3, [r5, #-3004]
	mov	r1, #1
	ldr	r9, [r5, #-2976]
	mov	r2, r1
	ldr	r0, .L2034+8
	str	r3, [r5, #-2800]
	str	r9, [r5, #-2796]
	ldr	r3, [r7, r6, asl #2]
	str	ip, [sp, #4]
	str	r3, [r5, #-2804]
	bl	FlashReadPages
	ldr	r3, [r5, #-2808]
	cmn	r3, #1
	ldr	r3, .L2034+4
	ldr	ip, [sp, #4]
	bne	.L2025
.L2027:
	mov	r2, #0
	ldr	r0, .L2034+12
	str	r2, [ip]
	ldr	r1, [r3, #-2804]
	ldrh	r2, [r9, #8]
	str	r3, [sp, #4]
	bl	printk
	mov	r2, #1
	ldr	r3, [sp, #4]
	str	r2, [r3, #-2812]
	b	.L2026
.L2025:
	ldrh	r1, [r9, #8]
	cmp	r1, r6
	bne	.L2027
	ldrh	r0, [r9]
	ldrh	r2, [r4, #4]
	cmp	r0, r2
	bne	.L2027
	mov	r0, r4
	ldr	r2, [r5, #-2800]
	bl	FtlMapWritePage
.L2024:
	add	fp, fp, #1
	b	.L2023
.L2033:
	mov	r0, r10
	mov	r1, #1
	bl	FtlFreeSysBlkQueueIn
	mov	r3, #0
	str	r3, [r4, #32]
.L2021:
	ldrh	r2, [r4, #2]
	ldrh	r3, [r8, #-14]
	cmp	r2, r3
	bcc	.L2026
	mov	r0, r4
	bl	ftl_map_blk_alloc_new_blk
.L2026:
	mov	r0, #0
	add	sp, sp, #12
	@ sp needed
	ldmfd	sp!, {r4, r5, r6, r7, r8, r9, r10, fp, pc}
.L2035:
	.align	2
.L2034:
	.word	.LANCHOR2-3184
	.word	.LANCHOR2
	.word	.LANCHOR2-2808
	.word	.LC40
	.fnend
	.size	ftl_map_blk_gc, .-ftl_map_blk_gc
	.align	2
	.global	Ftl_write_map_blk_to_last_page
	.type	Ftl_write_map_blk_to_last_page, %function
Ftl_write_map_blk_to_last_page:
	.fnstart
	@ args = 0, pretend = 0, frame = 0
	@ frame_needed = 0, uses_anonymous_args = 0
	stmfd	sp!, {r4, r5, r6, r7, r8, r9, r10, lr}
	.save {r4, r5, r6, r7, r8, r9, r10, lr}
	ldr	r5, .L2048
	ldr	r7, [r0, #12]
	ldr	r8, [r0, #24]
	ldr	r6, [r5, #-2812]
	cmp	r6, #0
	bne	.L2037
	ldrh	r3, [r0]
	movw	r2, #65535
	mov	r4, r0
	cmp	r3, r2
	bne	.L2038
	ldrh	r3, [r0, #8]
	add	r3, r3, #1
	strh	r3, [r0, #8]	@ movhi
	bl	FtlFreeSysBlkQueueOut
	strh	r0, [r7]	@ movhi
	ldr	r3, [r4, #28]
	strh	r6, [r4, #2]	@ movhi
	add	r3, r3, #1
	strh	r6, [r4]	@ movhi
	str	r3, [r4, #28]
	b	.L2037
.L2038:
	mov	r3, r3, asl #1
	sub	r10, r5, #3184
	mov	r1, #255
	ldrh	r9, [r7, r3]
	ldrh	r3, [r0, #2]
	ldr	r7, [r5, #-2976]
	orr	r3, r3, r9, asl #10
	str	r3, [r5, #-2804]
	ldr	r3, [r5, #-3008]
	str	r7, [r5, #-2796]
	str	r3, [r5, #-2800]
	ldr	r3, [r0, #28]
	str	r3, [r7, #4]
	ldr	r3, .L2048+4
	strh	r3, [r7, #8]	@ movhi
	ldrh	r3, [r0, #4]
	strh	r9, [r7, #2]	@ movhi
	strh	r3, [r7]	@ movhi
	ldrh	r2, [r10, #-14]
	ldr	r0, [r5, #-3008]
	mov	r2, r2, asl #3
	bl	ftl_memset
	mov	r2, r6
.L2039:
	ldrh	r1, [r4, #6]
	uxth	r3, r2
	cmp	r1, r3
	bls	.L2047
	ldr	r1, [r8, r3, asl #2]
	cmp	r9, r1, lsr #10
	bne	.L2040
	add	r6, r6, #1
	ldr	r1, [r5, #-3008]
	uxth	r6, r6
	str	r3, [r1, r6, asl #3]
	ldr	r1, [r8, r3, asl #2]
	ldr	r3, [r5, #-3008]
	add	r3, r3, r6, asl #3
	str	r1, [r3, #4]
.L2040:
	add	r2, r2, #1
	b	.L2039
.L2047:
	ldr	r3, .L2048+8
	ldrb	r3, [r3]	@ zero_extendqisi2
	cmp	r3, #0
	beq	.L2042
	ldr	r0, [r5, #-2800]
	ldrh	r1, [r10, #-6]
	bl	js_hash
	str	r0, [r7, #12]
.L2042:
	mov	r1, #1
	mov	r3, #0
	ldr	r0, .L2048+12
	mov	r2, r1
	bl	FlashProgPages
	ldrh	r3, [r4, #2]
	mov	r0, r4
	add	r3, r3, #1
	strh	r3, [r4, #2]	@ movhi
	bl	ftl_map_blk_gc
.L2037:
	mov	r0, #0
	ldmfd	sp!, {r4, r5, r6, r7, r8, r9, r10, pc}
.L2049:
	.align	2
.L2048:
	.word	.LANCHOR2
	.word	-1291
	.word	.LANCHOR0
	.word	.LANCHOR2-2808
	.fnend
	.size	Ftl_write_map_blk_to_last_page, .-Ftl_write_map_blk_to_last_page
	.align	2
	.global	flush_l2p_region
	.type	flush_l2p_region, %function
flush_l2p_region:
	.fnstart
	@ args = 0, pretend = 0, frame = 0
	@ frame_needed = 0, uses_anonymous_args = 0
	stmfd	sp!, {r3, r4, r5, lr}
	.save {r3, r4, r5, lr}
	mov	r4, #12
	ldr	r5, .L2052
	mul	r4, r4, r0
	sub	r0, r5, #504
	ldr	r3, [r5, #-2896]
	add	r2, r3, r4
	ldrh	r1, [r3, r4]
	ldr	r2, [r2, #8]
	bl	FtlMapWritePage
	ldr	r3, [r5, #-2896]
	mov	r0, #0
	add	r4, r3, r4
	ldr	r3, [r4, #4]
	bic	r3, r3, #-2147483648
	str	r3, [r4, #4]
	ldmfd	sp!, {r3, r4, r5, pc}
.L2053:
	.align	2
.L2052:
	.word	.LANCHOR2
	.fnend
	.size	flush_l2p_region, .-flush_l2p_region
	.align	2
	.global	select_l2p_ram_region
	.type	select_l2p_ram_region, %function
select_l2p_ram_region:
	.fnstart
	@ args = 0, pretend = 0, frame = 0
	@ frame_needed = 0, uses_anonymous_args = 0
	ldr	r3, .L2070
	mov	r1, #0
	stmfd	sp!, {r4, r5, r6, lr}
	.save {r4, r5, r6, lr}
	sub	r2, r3, #3152
	ldr	r3, [r3, #-2896]
	mov	ip, #12
	ldrh	r2, [r2, #-10]
	movw	lr, #65535
.L2055:
	uxth	r0, r1
	cmp	r0, r2
	bcs	.L2067
	add	r1, r1, #1
	mla	r4, ip, r1, r3
	ldrh	r4, [r4, #-12]
	cmp	r4, lr
	bne	.L2055
	ldmfd	sp!, {r4, r5, r6, pc}
.L2067:
	mov	r0, r2
	mov	r1, #0
	mov	ip, #-2147483648
	mov	r5, #12
.L2058:
	uxth	r4, r1
	cmp	r4, r2
	bcs	.L2068
	mla	lr, r5, r1, r3
	add	r1, r1, #1
	ldr	lr, [lr, #4]
	cmp	lr, ip
	mvn	r6, lr
	mov	r6, r6, lsr #31
	movcs	r6, #0
	cmp	r6, #0
	movne	ip, lr
	movne	r0, r4
	b	.L2058
.L2068:
	cmp	r0, r2
	ldmccfd	sp!, {r4, r5, r6, pc}
	ldr	r1, .L2070+4
	mov	r0, r2
	mvn	ip, #0
	ldrh	r5, [r1]
	mov	r1, #0
.L2061:
	uxth	lr, r1
	cmp	lr, r2
	bcs	.L2069
	ldr	r4, [r3, #4]
	cmp	r4, ip
	bcs	.L2062
	ldrh	r6, [r3]
	cmp	r6, r5
	movne	ip, r4
	movne	r0, lr
.L2062:
	add	r1, r1, #1
	add	r3, r3, #12
	b	.L2061
.L2069:
	ldmfd	sp!, {r4, r5, r6, pc}
.L2071:
	.align	2
.L2070:
	.word	.LANCHOR2
	.word	.LANCHOR2-460
	.fnend
	.size	select_l2p_ram_region, .-select_l2p_ram_region
	.align	2
	.global	log2phys
	.type	log2phys, %function
log2phys:
	.fnstart
	@ args = 0, pretend = 0, frame = 16
	@ frame_needed = 0, uses_anonymous_args = 0
	stmfd	sp!, {r4, r5, r6, r7, r8, r9, r10, fp, lr}
	.save {r4, r5, r6, r7, r8, r9, r10, fp, lr}
	.pad #20
	sub	sp, sp, #20
	ldr	r6, .L2089
	sub	r3, r6, #3184
	str	r3, [sp, #8]
	ldr	ip, [r6, #-2816]
	ldrh	r10, [r3, #-8]
	cmp	r0, ip
	bcs	.L2073
	add	r10, r10, #7
	mov	fp, r6
	mov	r6, r0, lsr r10
	sub	r3, fp, #3152
	str	r2, [sp, #12]
	mov	r9, r1
	ldrh	r2, [r3, #-10]
	uxth	r6, r6
	str	r0, [sp, #4]
	mov	r3, #0
	ldr	r4, [fp, #-2896]
	mov	r1, #12
	b	.L2074
.L2073:
	cmp	r2, #0
	mvn	r0, #0
	streq	r0, [r1]
	b	.L2075
.L2079:
	add	r3, r3, #1
	mla	r0, r1, r3, r4
	ldrh	r0, [r0, #-12]
	cmp	r0, r6
	beq	.L2076
.L2074:
	uxth	r7, r3
	cmp	r7, r2
	bcc	.L2079
	bl	select_l2p_ram_region
	mov	r5, #12
	movw	r2, #65535
	mul	r5, r5, r0
	mov	r7, r0
	add	r3, r4, r5
	ldrh	r1, [r4, r5]
	cmp	r1, r2
	bne	.L2088
.L2080:
	ldr	r3, [fp, #-2908]
	ldr	r4, .L2089
	ldr	r8, [r3, r6, asl #2]
	cmp	r8, #0
	bne	.L2081
	ldr	r2, [r4, #-2896]
	mov	r1, #255
	ldr	r3, [sp, #8]
	add	r2, r2, r5
	ldr	r0, [r2, #8]
	ldrh	r2, [r3, #-6]
	bl	ftl_memset
	ldr	r2, [r4, #-2896]
	strh	r6, [r2, r5]	@ movhi
	ldr	r2, [r4, #-2896]
	add	r5, r2, r5
	str	r8, [r5, #4]
.L2076:
	ldr	r3, [sp, #4]
	mvn	r2, #0
	bic	r10, r3, r2, asl r10
	ldr	r3, [sp, #12]
	cmp	r3, #0
	uxth	r10, r10
	mov	r3, #12
	bne	.L2077
	ldr	r2, [fp, #-2896]
	mla	r3, r3, r7, r2
	ldr	r3, [r3, #8]
	ldr	r3, [r3, r10, asl #2]
	str	r3, [r9]
	b	.L2078
.L2077:
	mul	r3, r3, r7
	ldr	r2, [fp, #-2896]
	ldr	r1, [r9]
	add	r2, r2, r3
	ldr	r2, [r2, #8]
	str	r1, [r2, r10, asl #2]
	ldr	r2, [fp, #-2896]
	add	r3, r2, r3
	ldr	r2, [r3, #4]
	orr	r2, r2, #-2147483648
	str	r2, [r3, #4]
	ldr	r3, .L2089+4
	strh	r6, [r3]	@ movhi
.L2078:
	ldr	r2, [fp, #-2896]
	mov	r3, #12
	mov	r0, #0
	mla	r7, r3, r7, r2
	ldr	r3, [r7, #4]
	cmn	r3, #1
	addne	r3, r3, #1
	strne	r3, [r7, #4]
	b	.L2075
.L2088:
	ldr	r3, [r3, #4]
	cmp	r3, #0
	bge	.L2080
	bl	flush_l2p_region
	b	.L2080
.L2081:
	ldr	r2, [r4, #-2896]
	mov	r1, #1
	ldr	r0, .L2089+8
	add	r2, r2, r5
	str	r8, [r4, #-2804]
	ldr	r2, [r2, #8]
	str	r2, [r4, #-2800]
	ldr	r2, [r4, #-2976]
	str	r2, [r4, #-2796]
	mov	r2, r1
	bl	FlashReadPages
	ldr	r2, [r4, #-2796]
	ldrh	r2, [r2, #8]
	cmp	r2, r6
	beq	.L2082
	mov	r1, r6
	mov	r2, r8
	ldr	r0, .L2089+12
	bl	printk
	mov	r2, #4
	mov	r3, r2
	ldr	r0, .L2089+16
	ldr	r1, [r4, #-2796]
	bl	rknand_print_hex
	sub	r3, r4, #3152
	ldr	r0, .L2089+20
	mov	r2, #4
	ldrh	r3, [r3, #-12]
	ldr	r1, [r4, #-2908]
	bl	rknand_print_hex
	mov	r3, #1
	str	r3, [r4, #-2812]
	b	.L2083
.L2082:
	ldr	r2, [r4, #-2808]
	cmp	r2, #256
	bne	.L2083
	mov	r1, r6
	mov	r2, r8
	ldr	r0, .L2089+24
	bl	printk
	ldr	r3, [r4, #-2896]
	sub	r0, r4, #504
	mov	r1, r6
	add	r3, r3, r5
	ldr	r2, [r3, #8]
	bl	FtlMapWritePage
.L2083:
	ldr	r3, [fp, #-2896]
	mov	r1, #0
	add	r2, r3, r5
	str	r1, [r2, #4]
	strh	r6, [r3, r5]	@ movhi
	b	.L2076
.L2075:
	add	sp, sp, #20
	@ sp needed
	ldmfd	sp!, {r4, r5, r6, r7, r8, r9, r10, fp, pc}
.L2090:
	.align	2
.L2089:
	.word	.LANCHOR2
	.word	.LANCHOR2-460
	.word	.LANCHOR2-2808
	.word	.LC41
	.word	.LC17
	.word	.LC42
	.word	.LC43
	.fnend
	.size	log2phys, .-log2phys
	.align	2
	.global	FtlVendorPartWrite
	.type	FtlVendorPartWrite, %function
FtlVendorPartWrite:
	.fnstart
	@ args = 0, pretend = 0, frame = 64
	@ frame_needed = 0, uses_anonymous_args = 0
	ldr	r3, .L2103
	stmfd	sp!, {r4, r5, r6, r7, r8, r9, r10, fp, lr}
	.save {r4, r5, r6, r7, r8, r9, r10, fp, lr}
	mov	fp, r2
	ldr	r6, .L2103+4
	.pad #68
	sub	sp, sp, #68
	ldr	r2, [r3]
	mov	r4, r1
	add	r1, r0, r1
	mov	r7, r0
	ldrh	r5, [r6, #-8]
	str	r2, [sp, #60]
	ldrh	r2, [r6, #-20]
	str	r3, [sp, #12]
	cmp	r1, r2
	mvnhi	r0, #0
	bhi	.L2092
	mov	r5, r7, lsr r5
	mov	r3, #0
	str	r3, [sp, #4]
	add	r3, r6, #3184
	mov	r10, r5, asl #2
	str	r3, [sp, #8]
	mov	r8, r3
.L2093:
	cmp	r4, #0
	beq	.L2102
	ldr	r3, [sp, #8]
	mov	r0, r7
	ldr	r3, [r3, #-2912]
	ldr	ip, [r3, r10]
	ldr	r3, .L2103+8
	str	ip, [sp, #20]
	ldrh	r2, [r3]
	mov	r1, r2
	str	r2, [sp, #16]
	bl	__aeabi_uidivmod
	ldr	r2, [sp, #16]
	mov	r9, r1
	ldr	ip, [sp, #20]
	rsb	r3, r1, r2
	uxth	r6, r3
	cmp	r6, r4
	uxthhi	r6, r4
	cmp	r6, r2
	cmpne	ip, #0
	movne	r1, #1
	moveq	r1, #0
	beq	.L2095
	ldr	r2, [r8, #-3000]
	mov	r1, #1
	add	r0, sp, #24
	str	ip, [sp, #28]
	str	r2, [sp, #32]
	mov	r2, #0
	str	r2, [sp, #36]
	mov	r2, r1
	bl	FlashReadPages
	b	.L2096
.L2095:
	ldr	r2, .L2103+12
	ldr	r0, [r8, #-3000]
	ldrh	r2, [r2]
	bl	ftl_memset
.L2096:
	mov	ip, r6, asl #9
	ldr	r0, [r8, #-3000]
	uxth	r9, r9
	mov	r1, fp
	mov	r2, ip
	str	ip, [sp, #16]
	add	r0, r0, r9, asl #9
	rsb	r4, r6, r4
	bl	ftl_memcpy
	mov	r1, r5
	ldr	r0, .L2103+16
	add	r5, r5, #1
	ldr	r2, [r8, #-3000]
	add	r7, r7, r6
	bl	FtlMapWritePage
	add	r10, r10, #4
	ldr	r3, [sp, #4]
	cmn	r0, #1
	ldr	ip, [sp, #16]
	mvneq	r3, #0
	add	fp, fp, ip
	str	r3, [sp, #4]
	b	.L2093
.L2102:
	ldr	r0, [sp, #4]
.L2092:
	ldr	r3, [sp, #12]
	ldr	r2, [sp, #60]
	ldr	r3, [r3]
	cmp	r2, r3
	beq	.L2099
	bl	__stack_chk_fail
.L2099:
	add	sp, sp, #68
	@ sp needed
	ldmfd	sp!, {r4, r5, r6, r7, r8, r9, r10, fp, pc}
.L2104:
	.align	2
.L2103:
	.word	__stack_chk_guard
	.word	.LANCHOR2-3184
	.word	.LANCHOR2-3194
	.word	.LANCHOR2-3190
	.word	.LANCHOR2-456
	.fnend
	.size	FtlVendorPartWrite, .-FtlVendorPartWrite
	.align	2
	.global	FtlVendorPartRead
	.type	FtlVendorPartRead, %function
FtlVendorPartRead:
	.fnstart
	@ args = 0, pretend = 0, frame = 56
	@ frame_needed = 0, uses_anonymous_args = 0
	ldr	r3, .L2118
	stmfd	sp!, {r4, r5, r6, r7, r8, r9, r10, fp, lr}
	.save {r4, r5, r6, r7, r8, r9, r10, fp, lr}
	mov	r8, r2
	ldr	r5, .L2118+4
	.pad #60
	sub	sp, sp, #60
	ldr	r2, [r3]
	mov	r6, r1
	add	r1, r0, r1
	mov	r7, r0
	ldrh	r4, [r5, #-8]
	str	r2, [sp, #52]
	ldrh	r2, [r5, #-20]
	str	r3, [sp, #12]
	cmp	r1, r2
	mvnhi	r0, #0
	bhi	.L2106
	add	r5, r5, #3184
	mov	r4, r7, lsr r4
	mov	fp, r5
	mov	r3, r4, asl #2
	str	r3, [sp, #4]
	mov	r3, #0
	str	r3, [sp]
.L2107:
	cmp	r6, #0
	beq	.L2117
	ldr	r3, [r5, #-2912]
	mov	r0, r7
	ldr	r2, [sp, #4]
	ldr	r9, [r3, r2]
	ldr	r3, .L2118+8
	ldrh	r10, [r3]
	mov	r1, r10
	bl	__aeabi_uidivmod
	rsb	r3, r1, r10
	str	r1, [sp, #8]
	uxth	r10, r3
	cmp	r10, r6
	uxthhi	r10, r6
	cmp	r9, #0
	beq	.L2109
	ldr	r2, [fp, #-3000]
	mov	r1, #1
	add	r0, sp, #16
	str	r9, [sp, #20]
	str	r2, [sp, #24]
	mov	r2, #0
	str	r2, [sp, #28]
	mov	r2, r1
	bl	FlashReadPages
	ldr	r2, [sp, #16]
	ldr	r3, [sp]
	cmn	r2, #1
	ldr	r2, [fp, #-2808]
	mvneq	r3, #0
	cmp	r2, #256
	str	r3, [sp]
	bne	.L2111
	mov	r1, r4
	mov	r2, r9
	ldr	r0, .L2118+12
	bl	printk
	ldr	r0, .L2118+16
	mov	r1, r4
	ldr	r2, [r5, #-3000]
	bl	FtlMapWritePage
.L2111:
	ldrh	r9, [sp, #8]
	mov	r0, r8
	ldr	r1, [fp, #-3000]
	mov	r2, r10, asl #9
	add	r1, r1, r9, asl #9
	bl	ftl_memcpy
	b	.L2112
.L2109:
	mov	r0, r8
	mov	r1, r9
	mov	r2, r10, asl #9
	bl	ftl_memset
.L2112:
	ldr	r3, [sp, #4]
	add	r4, r4, #1
	rsb	r6, r10, r6
	add	r7, r7, r10
	add	r3, r3, #4
	add	r8, r8, r10, asl #9
	str	r3, [sp, #4]
	b	.L2107
.L2117:
	ldr	r0, [sp]
.L2106:
	ldr	r3, [sp, #12]
	ldr	r2, [sp, #52]
	ldr	r3, [r3]
	cmp	r2, r3
	beq	.L2114
	bl	__stack_chk_fail
.L2114:
	add	sp, sp, #60
	@ sp needed
	ldmfd	sp!, {r4, r5, r6, r7, r8, r9, r10, fp, pc}
.L2119:
	.align	2
.L2118:
	.word	__stack_chk_guard
	.word	.LANCHOR2-3184
	.word	.LANCHOR2-3194
	.word	.LC44
	.word	.LANCHOR2-456
	.fnend
	.size	FtlVendorPartRead, .-FtlVendorPartRead
	.align	2
	.global	FtlUpdateVaildLpn
	.type	FtlUpdateVaildLpn, %function
FtlUpdateVaildLpn:
	.fnstart
	@ args = 0, pretend = 0, frame = 0
	@ frame_needed = 0, uses_anonymous_args = 0
	ldr	r3, .L2128
	sub	r1, r3, #412
	ldrh	r2, [r1]
	cmp	r2, #4
	cmpls	r0, #0
	addeq	r2, r2, #1
	streqh	r2, [r1]	@ movhi
	bxeq	lr
	str	lr, [sp, #-4]!
	.save {lr}
	mov	r2, #0
	strh	r2, [r1]	@ movhi
	sub	r1, r3, #3248
	str	r2, [r3, #-408]
	movw	ip, #65535
	ldrh	r0, [r1, #-12]
	ldr	r2, [r3, #-2940]
	add	r0, r2, r0, asl #1
.L2122:
	cmp	r2, r0
	beq	.L2127
	ldrh	r1, [r2], #2
	cmp	r1, ip
	ldrne	lr, [r3, #-408]
	addne	r1, r1, lr
	strne	r1, [r3, #-408]
	b	.L2122
.L2127:
	ldr	pc, [sp], #4
.L2129:
	.align	2
.L2128:
	.word	.LANCHOR2
	.fnend
	.size	FtlUpdateVaildLpn, .-FtlUpdateVaildLpn
	.align	2
	.global	FtlMapBlkWriteDumpData
	.type	FtlMapBlkWriteDumpData, %function
FtlMapBlkWriteDumpData:
	.fnstart
	@ args = 0, pretend = 0, frame = 0
	@ frame_needed = 0, uses_anonymous_args = 0
	stmfd	sp!, {r4, r5, r6, lr}
	.save {r4, r5, r6, lr}
	ldr	r2, [r0, #36]
	ldrh	r5, [r0, #6]
	cmp	r2, #0
	ldr	r3, [r0, #24]
	ldmeqfd	sp!, {r4, r5, r6, pc}
	ldr	r4, .L2137
	mov	r2, #0
	str	r2, [r0, #36]
	ldr	r2, [r4, #-2812]
	cmp	r2, #0
	ldmnefd	sp!, {r4, r5, r6, pc}
	sub	r5, r5, #1
	mov	r6, r0
	ldr	r2, [r4, #-2976]
	ldr	r0, [r4, #-3004]
	uxth	r5, r5
	str	r2, [r4, #-2796]
	str	r0, [r4, #-2800]
	ldr	r3, [r3, r5, asl #2]
	cmp	r3, #0
	str	r3, [r4, #-2804]
	beq	.L2134
	mov	r1, #1
	ldr	r0, .L2137+4
	mov	r2, r1
	bl	FlashReadPages
	b	.L2135
.L2134:
	sub	r3, r4, #3184
	mov	r1, #255
	ldrh	r2, [r3, #-6]
	bl	ftl_memset
.L2135:
	mov	r0, r6
	mov	r1, r5
	ldr	r2, [r4, #-2800]
	ldmfd	sp!, {r4, r5, r6, lr}
	b	FtlMapWritePage
.L2138:
	.align	2
.L2137:
	.word	.LANCHOR2
	.word	.LANCHOR2-2808
	.fnend
	.size	FtlMapBlkWriteDumpData, .-FtlMapBlkWriteDumpData
	.align	2
	.global	FtlVpcTblFlush
	.type	FtlVpcTblFlush, %function
FtlVpcTblFlush:
	.fnstart
	@ args = 0, pretend = 0, frame = 8
	@ frame_needed = 0, uses_anonymous_args = 0
	stmfd	sp!, {r0, r1, r2, r4, r5, r6, r7, r8, r9, r10, fp, lr}
	.save {r4, r5, r6, r7, r8, r9, r10, fp, lr}
	.pad #12
	ldr	r4, .L2157
	ldr	r3, [r4, #-2812]
	cmp	r3, #0
	bne	.L2141
	ldr	r2, [r4, #-3008]
	sub	r7, r4, #404
	ldr	r6, [r4, #-2976]
	sub	r5, r4, #716
	mov	r1, #255
	str	r2, [r4, #-2800]
	ldrh	r2, [r7]
	str	r6, [r4, #-2796]
	str	r3, [r6, #12]
	strh	r2, [r6, #2]	@ movhi
	ldr	r2, .L2157+4
	strh	r2, [r6]	@ movhi
	ldr	r2, [r4, #-396]
	stmib	r6, {r2, r3}
	ldr	r3, .L2157+8
	str	r3, [r4, #-716]
	ldr	r3, .L2157+12
	str	r3, [r4, #-712]
	ldrh	r3, [r7, #6]
	strh	r3, [r5, #8]	@ movhi
	sub	r3, r4, #3232
	ldrh	r3, [r3, #-14]
	strb	r3, [r4, #-706]
	sub	r3, r4, #648
	ldrh	r2, [r3]
	strh	r2, [r5, #14]	@ movhi
	ldrh	r2, [r3, #2]
	ldrb	r3, [r4, #-642]	@ zero_extendqisi2
	orr	r3, r3, r2, asl #6
	strh	r3, [r5, #16]	@ movhi
	ldrb	r3, [r4, #-640]	@ zero_extendqisi2
	strb	r3, [r4, #-705]
	sub	r3, r4, #600
	ldrh	r2, [r3]
	strh	r2, [r5, #18]	@ movhi
	ldrh	r2, [r3, #2]
	ldrb	r3, [r4, #-594]	@ zero_extendqisi2
	orr	r3, r3, r2, asl #6
	strh	r3, [r5, #20]	@ movhi
	ldrb	r3, [r4, #-592]	@ zero_extendqisi2
	strb	r3, [r4, #-704]
	sub	r3, r4, #552
	ldrh	r2, [r3]
	strh	r2, [r5, #22]	@ movhi
	ldrh	r2, [r3, #2]
	ldrb	r3, [r4, #-546]	@ zero_extendqisi2
	ldr	r0, [r4, #-2800]
	orr	r3, r3, r2, asl #6
	strh	r3, [r5, #24]	@ movhi
	ldrb	r3, [r4, #-544]	@ zero_extendqisi2
	strb	r3, [r4, #-703]
	ldr	r3, [r4, #-3116]
	str	r3, [r4, #-684]
	ldr	r3, [r4, #-3148]
	str	r3, [r4, #-676]
	ldr	r3, [r4, #-3144]
	str	r3, [r4, #-680]
	sub	r3, r4, #3072
	ldrh	r3, [r3]
	strh	r3, [r5, #44]	@ movhi
	sub	r3, r4, #3056
	ldrh	r3, [r3, #-14]
	strh	r3, [r5, #46]	@ movhi
	sub	r3, r4, #3184
	ldrh	r2, [r3, #-6]
	bl	ftl_memset
	mov	r1, r5
	sub	r5, r4, #3248
	mov	r2, #48
	ldr	r0, [r4, #-2800]
	bl	ftl_memcpy
	ldrh	r2, [r5, #-12]
	ldr	r0, [r4, #-2800]
	ldr	r1, [r4, #-2940]
	mov	r2, r2, asl #1
	add	r0, r0, #48
	bl	ftl_memcpy
	ldrh	r2, [r5, #-12]
	ldr	r0, [r4, #-2800]
	add	r3, r2, #24
	ldr	r1, [r4, #-2928]
	ubfx	r3, r3, #1, #30
	mov	r2, r2, lsr #3
	add	r2, r2, #4
	add	r0, r0, r3, asl #2
	bl	ftl_memcpy
	sub	r2, r4, #3152
	ldrh	r3, [r2, #-8]
	cmp	r3, #0
	beq	.L2142
	ldrh	r1, [r5, #-12]
	ldrh	r2, [r2, #-12]
	ldr	r0, [r4, #-2800]
	mov	r3, r1, lsr #3
	add	r3, r3, r1, asl #1
	mov	r2, r2, asl #2
	add	r3, r3, #52
	ldr	r1, [r4, #-2908]
	ubfx	r3, r3, #2, #14
	add	r0, r0, r3, asl #2
	bl	ftl_memcpy
.L2142:
	mov	r0, #0
	ldr	r8, .L2157
	bl	FtlUpdateVaildLpn
	ldr	r10, .L2157+16
	ldr	fp, .L2157+20
	mov	r5, #0
	movw	r9, #65535
.L2143:
	ldrh	r1, [r7]
	ldrh	r0, [r7, #2]
	ldr	r3, [r4, #-3008]
	orr	r2, r0, r1, asl #10
	str	r2, [r4, #-2804]
	ldrh	r2, [r10]
	str	r3, [r4, #-2800]
	sub	r2, r2, #1
	ldr	r3, [r4, #-2976]
	cmp	r0, r2
	str	r3, [r4, #-2796]
	ldr	r3, .L2157+24
	blt	.L2144
	ldrh	r9, [r3, #4]
	mov	r2, #0
	strh	r1, [r3, #4]	@ movhi
	strh	r2, [r3, #2]	@ movhi
	str	r3, [sp, #4]
	bl	FtlFreeSysBlkQueueOut
	ldr	r3, [sp, #4]
	strh	r0, [r3]	@ movhi
	ldr	r3, [r8, #-3148]
	add	r2, r3, #1
	str	r2, [r8, #-3148]
	str	r3, [r8, #-396]
	mov	r2, r0, asl #10
	str	r2, [r8, #-2804]
	str	r3, [r6, #4]
	strh	r0, [r6, #2]	@ movhi
.L2144:
	ldrb	r3, [fp]	@ zero_extendqisi2
	cmp	r3, #0
	beq	.L2145
	ldr	r3, .L2157+28
	ldr	r0, [r4, #-3008]
	ldrh	r1, [r3]
	bl	js_hash
	str	r0, [r6, #12]
.L2145:
	mov	r1, #1
	ldr	r0, .L2157+32
	mov	r2, r1
	mov	r3, r1
	bl	FlashProgPages
	ldrh	r3, [r7, #2]
	ldr	r2, [r4, #-2808]
	add	r3, r3, #1
	cmn	r2, #1
	uxth	r3, r3
	strh	r3, [r7, #2]	@ movhi
	bne	.L2146
	cmp	r3, #1
	add	r5, r5, #1
	ldreqh	r3, [r10]
	uxth	r5, r5
	ldreq	r2, .L2157+24
	subeq	r3, r3, #1
	streqh	r3, [r2, #2]	@ movhi
	cmp	r5, #3
	bls	.L2143
	ldr	r0, .L2157+36
	mov	r2, r5
	ldr	r1, [r4, #-2804]
	bl	printk
	mov	r3, #1
	str	r3, [r4, #-2812]
	b	.L2141
.L2146:
	cmp	r2, #256
	cmpne	r3, #1
	beq	.L2143
	movw	r3, #65535
	cmp	r9, r3
	beq	.L2141
	mov	r0, r9
	mov	r1, #1
	bl	FtlFreeSysBlkQueueIn
.L2141:
	mov	r0, #0
	add	sp, sp, #12
	@ sp needed
	ldmfd	sp!, {r4, r5, r6, r7, r8, r9, r10, fp, pc}
.L2158:
	.align	2
.L2157:
	.word	.LANCHOR2
	.word	-3932
	.word	1179929683
	.word	1342177367
	.word	.LANCHOR2-3198
	.word	.LANCHOR0
	.word	.LANCHOR2-404
	.word	.LANCHOR2-3190
	.word	.LANCHOR2-2808
	.word	.LC45
	.fnend
	.size	FtlVpcTblFlush, .-FtlVpcTblFlush
	.align	2
	.global	FtlScanSysBlk
	.type	FtlScanSysBlk, %function
FtlScanSysBlk:
	.fnstart
	@ args = 0, pretend = 0, frame = 24
	@ frame_needed = 0, uses_anonymous_args = 0
	stmfd	sp!, {r4, r5, r6, r7, r8, r9, r10, fp, lr}
	.save {r4, r5, r6, r7, r8, r9, r10, fp, lr}
	mov	fp, #0
	ldr	r10, .L2245
	mov	r1, fp
	.pad #28
	sub	sp, sp, #28
	sub	r3, r10, #2816
	sub	r5, r10, #388
	ldr	r2, [r10, #-3172]
	sub	r4, r10, #3168
	ldr	r0, [r10, #-2900]
	strh	fp, [r3, #-4]	@ movhi
	mov	r2, r2, asl #2
	strh	fp, [r5]	@ movhi
	bl	ftl_memset
	ldr	r2, [r10, #-3172]
	mov	r1, fp
	ldr	r0, [r10, #-2936]
	mov	r2, r2, asl #1
	bl	ftl_memset
	ldrh	r2, [r4, #-12]
	mov	r1, fp
	ldr	r0, [r10, #-2916]
	mov	r2, r2, asl #2
	bl	ftl_memset
	ldrh	r2, [r4, #-12]
	mov	r1, fp
	ldr	r0, [r10, #-2924]
	mov	r4, r10
	mov	r2, r2, asl #1
	bl	ftl_memset
	sub	r0, r10, #404
	mov	r1, #255
	mov	r2, #16
	bl	ftl_memset
	sub	r3, r10, #3248
	ldrh	fp, [r3, #-12]
	str	r5, [sp, #12]
	mov	r5, r10
.L2160:
	ldr	r3, .L2245+4
	ldr	r1, .L2245
	ldrh	r3, [r3]
	cmp	r3, fp
	bls	.L2201
	ldr	r1, [r5, #-2968]
	mov	r6, #0
	ldr	r3, .L2245+8
	mov	r8, r6
	ldr	r2, [r5, #-3036]
	mov	r7, #36
	str	r1, [sp]
	ldr	r1, .L2245+12
	ldrh	ip, [r3]
	ldr	r3, [r5, #-2996]
	sub	r9, r1, #52
	ldrh	r10, [r1]
.L2202:
	uxth	r1, r6
	cmp	r1, ip
	bcs	.L2240
	mov	r1, fp
	ldrb	r0, [r9, r6]	@ zero_extendqisi2
	str	r3, [sp, #20]
	str	r2, [sp, #16]
	str	ip, [sp, #8]
	bl	V2P_block
	str	r0, [sp, #4]
	bl	FtlBbmIsBadBlock
	cmp	r0, #0
	ldmib	sp, {r1, ip}
	ldr	r2, [sp, #16]
	ldr	r3, [sp, #20]
	bne	.L2161
	mla	r0, r7, r8, r2
	mov	r1, r1, asl #10
	stmib	r0, {r1, r3}
	mul	r1, r10, r8
	add	r8, r8, #1
	uxth	r8, r8
	add	lr, r1, #3
	cmp	r1, #0
	movlt	r1, lr
	ldr	lr, [sp]
	bic	r1, r1, #3
	add	r1, lr, r1
	str	r1, [r0, #12]
.L2161:
	add	r6, r6, #1
	b	.L2202
.L2240:
	cmp	r8, #0
	beq	.L2164
	ldr	r0, [r4, #-3036]
	mov	r1, r8
	mov	r2, #1
	bl	FlashReadPages
	mov	r3, #0
.L2238:
	str	r3, [sp]
	ldrh	r3, [sp]
	cmp	r3, r8
	bcs	.L2164
	ldr	r3, [sp]
	mov	r9, #36
	mul	r9, r9, r3
	ldr	r3, [r4, #-3036]
	add	r2, r3, r9
	ldr	r3, [r3, r9]
	ldr	r6, [r2, #4]
	cmn	r3, #1
	ldr	r7, [r2, #12]
	ubfx	r6, r6, #10, #16
	bne	.L2167
	mov	r10, #16
	movw	ip, #65535
.L2166:
	ldr	r0, [r4, #-3036]
	mov	r1, #1
	mov	r2, r1
	str	ip, [sp, #4]
	add	r0, r0, r9
	ldr	r3, [r0, #4]
	add	r3, r3, #1
	str	r3, [r0, #4]
	bl	FlashReadPages
	ldrh	r3, [r7]
	ldr	ip, [sp, #4]
	cmp	r3, ip
	ldreq	r3, .L2245
	mvneq	r2, #0
	ldreq	r3, [r3, #-3036]
	streq	r2, [r3, r9]
	beq	.L2167
.L2168:
	ldr	r3, [r5, #-3036]
	ldr	r3, [r3, r9]
	cmn	r3, #1
	bne	.L2167
	sub	r10, r10, #1
	uxth	r10, r10
	cmp	r10, #0
	bne	.L2166
.L2167:
	ldr	r3, [r5, #-3036]
	ldr	r3, [r3, r9]
	ldr	r9, .L2245
	cmn	r3, #1
	beq	.L2170
	ldr	r2, [r5, #-3148]
	ldr	r3, [r7, #4]
	cmn	r2, #1
	beq	.L2171
	cmp	r2, r3
	bhi	.L2172
.L2171:
	cmn	r3, #1
	addne	r2, r3, #1
	strne	r2, [r9, #-3148]
.L2172:
	ldrh	r2, [r7]
	movw	r1, #61604
	cmp	r2, r1
	beq	.L2174
	bhi	.L2175
	movw	r3, #61574
	cmp	r2, r3
	bne	.L2173
	ldr	r2, .L2245+16
	ldr	lr, [r4, #-2916]
	ldrh	ip, [r2]
	add	r2, r2, #360
	sub	r0, ip, #1
	ldrh	r1, [r2]
	uxth	r3, r0
	rsb	r2, r1, r0
	str	r2, [sp, #4]
	b	.L2188
.L2175:
	movw	r3, #61634
	cmp	r2, r3
	beq	.L2177
	movw	r3, #65535
	cmp	r2, r3
	moveq	r0, r6
	beq	.L2239
	b	.L2173
.L2177:
	ldr	ip, [r4, #-3172]
	ldr	r2, [sp, #12]
	ldr	lr, [r4, #-2900]
	uxth	r1, ip
	ldrh	r2, [r2]
	sub	r3, r1, #1
	rsb	r1, r2, r1
	uxth	r3, r3
	sub	r1, r1, #1
	sxth	r1, r1
	str	r1, [sp, #8]
.L2179:
	ldr	r1, [sp, #8]
	sxth	r0, r3
	cmp	r0, r1
	ble	.L2241
	mov	r10, r0, asl #2
	ldr	r1, [r7, #4]
	str	r10, [sp, #4]
	ldr	r10, [lr, r0, asl #2]
	cmp	r1, r10
	bls	.L2180
	ldr	r1, [lr]
	cmp	r1, #0
	bne	.L2181
	cmp	r2, ip
	addne	r2, r2, #1
	ldrne	r1, .L2245+20
	strneh	r2, [r1]	@ movhi
.L2181:
	uxth	lr, r3
	mov	r1, #0
.L2182:
	uxth	r2, r1
	cmp	r2, lr
	bcs	.L2242
	ldr	ip, [r5, #-2900]
	sxth	r2, r2
	add	r1, r1, #1
	add	r10, ip, r2, asl #2
	ldr	r10, [r10, #4]
	str	r10, [ip, r2, asl #2]
	mov	r2, r2, asl #1
	ldr	ip, [r5, #-2936]
	add	r10, ip, r2
	ldrh	r10, [r10, #2]
	strh	r10, [ip, r2]	@ movhi
	b	.L2182
.L2242:
	ldr	r2, [r9, #-2900]
	mov	r0, r0, asl #1
	ldr	r1, [r7, #4]
	ldr	ip, [sp, #4]
	str	r1, [r2, ip]
	ldr	r2, [r9, #-2936]
	strh	r6, [r2, r0]	@ movhi
	sxth	r0, r3
	cmp	r0, #0
	bge	.L2184
	b	.L2173
.L2180:
	sub	r3, r3, #1
	uxth	r3, r3
	b	.L2179
.L2241:
	cmp	r0, #0
	bge	.L2215
	b	.L2173
.L2184:
	ldr	r2, .L2245+20
	ldr	r1, [r5, #-3172]
	ldrh	r2, [r2]
	rsb	r1, r2, r1
	sub	r1, r1, #1
	sxth	r1, r1
	cmp	r0, r1
	bgt	.L2173
.L2215:
	ldr	r1, .L2245+20
	add	r2, r2, #1
	sxth	r3, r3
	strh	r2, [r1]	@ movhi
	ldr	r2, [r4, #-2900]
	ldr	r1, [r7, #4]
	str	r1, [r2, r3, asl #2]
	mov	r3, r3, asl #1
	ldr	r2, [r4, #-2936]
	b	.L2236
.L2194:
	mov	r10, r2, asl #2
	ldr	r0, [r7, #4]
	str	r10, [sp, #8]
	ldr	r10, [lr, r2, asl #2]
	cmp	r0, r10
	bhi	.L2243
	sub	r3, r3, #1
	uxth	r3, r3
.L2188:
	ldr	r0, [sp, #4]
	sxth	r2, r3
	cmp	r2, r0
	bgt	.L2194
	b	.L2193
.L2243:
	ldr	r0, [lr]
	cmp	r0, #0
	bne	.L2190
	cmp	r1, ip
	addne	r1, r1, #1
	ldrne	r0, .L2245+24
	strneh	r1, [r0]	@ movhi
.L2190:
	uxth	lr, r3
	mov	r0, #0
.L2191:
	uxth	r1, r0
	cmp	r1, lr
	bcs	.L2244
	ldr	ip, [r5, #-2916]
	sxth	r1, r1
	add	r0, r0, #1
	add	r10, ip, r1, asl #2
	ldr	r10, [r10, #4]
	str	r10, [ip, r1, asl #2]
	mov	r1, r1, asl #1
	ldr	ip, [r5, #-2924]
	add	r10, ip, r1
	ldrh	r10, [r10, #2]
	strh	r10, [ip, r1]	@ movhi
	b	.L2191
.L2244:
	ldr	r1, [r9, #-2916]
	mov	r2, r2, asl #1
	ldr	r0, [r7, #4]
	ldr	ip, [sp, #8]
	str	r0, [r1, ip]
	ldr	r1, [r9, #-2924]
	strh	r6, [r1, r2]	@ movhi
.L2193:
	sxth	r3, r3
	cmp	r3, #0
	blt	.L2173
	ldr	r1, .L2245+24
	sub	r0, r1, #360
	ldrh	r2, [r1]
	ldrh	r9, [r0]
	sub	r9, r9, #1
	rsb	r9, r2, r9
	sxth	r9, r9
	cmp	r3, r9
	bgt	.L2173
	add	r2, r2, #1
	strh	r2, [r1]	@ movhi
	ldr	r2, [r5, #-2916]
	ldr	r1, [r7, #4]
	str	r1, [r2, r3, asl #2]
	mov	r3, r3, asl #1
	ldr	r2, [r5, #-2924]
.L2236:
	strh	r6, [r2, r3]	@ movhi
	b	.L2173
.L2174:
	ldr	r2, .L2245+28
	ldrh	r1, [r2]
	movw	r2, #65535
	cmp	r1, r2
	ldreq	r2, .L2245+28
	streqh	r6, [r2]	@ movhi
	beq	.L2237
	ldr	r3, .L2245+28
	ldrh	r0, [r3, #4]
	cmp	r0, r2
	beq	.L2196
	mov	r1, #1
	bl	FtlFreeSysBlkQueueIn
.L2196:
	ldr	r3, [r7, #4]
	ldr	r2, [r9, #-396]
	cmp	r2, r3
	ldr	r3, .L2245+28
	strcsh	r6, [r3, #4]	@ movhi
	bcs	.L2173
	ldrh	r3, [r3]
	ldr	r2, .L2245+28
	strh	r3, [r2, #4]	@ movhi
	ldr	r3, [r7, #4]
	strh	r6, [r2]	@ movhi
.L2237:
	str	r3, [r5, #-396]
	b	.L2173
.L2170:
	ldr	r3, .L2245+32
	mov	r0, r6
	ldrb	r1, [r3, #3904]	@ zero_extendqisi2
	cmp	r1, #0
	beq	.L2198
.L2239:
	mov	r1, #0
.L2198:
	bl	FtlFreeSysBlkQueueIn
.L2173:
	ldr	r3, [sp]
	add	r3, r3, #1
	b	.L2238
.L2164:
	add	r8, fp, #1
	uxth	fp, r8
	b	.L2160
.L2201:
	ldr	ip, [r1, #-2936]
	ldrh	r2, [ip]
	cmp	r2, #0
	beq	.L2203
.L2206:
	ldr	r0, [r1, #-2924]
	ldrh	r2, [r0]
	cmp	r2, #0
	beq	.L2204
	b	.L2227
.L2203:
	sub	r3, r1, #388
	ldrh	r3, [r3]
	cmp	r3, #0
	ldrne	lr, [r1, #-3172]
	beq	.L2206
.L2207:
	uxth	r3, r2
	sxth	r0, r3
	cmp	r0, lr
	bcs	.L2206
	mov	r4, r0, asl #1
	add	r2, r2, #1
	ldrh	r4, [ip, r4]
	cmp	r4, #0
	beq	.L2207
	ldr	ip, .L2245
	mov	r6, #0
.L2208:
	ldr	lr, [r1, #-3172]
	sxth	r2, r3
	cmp	r2, lr
	bcs	.L2206
	ldr	r4, [ip, #-2936]
	mov	lr, r2, asl #1
	rsb	r5, r0, r2
	add	r3, r3, #1
	ldrh	r8, [r4, lr]
	mov	r7, r5, asl #1
	uxth	r3, r3
	strh	r8, [r4, r7]	@ movhi
	ldr	r4, [ip, #-2900]
	ldr	r2, [r4, r2, asl #2]
	str	r2, [r4, r5, asl #2]
	ldr	r2, [ip, #-2936]
	strh	r6, [r2, lr]	@ movhi
	b	.L2208
.L2204:
	ldr	r3, .L2245+36
	ldrh	r1, [r3, #-4]
	cmp	r1, #0
	subne	r3, r3, #352
	ldrneh	ip, [r3, #-12]
	beq	.L2227
.L2211:
	uxth	r3, r2
	sxth	r1, r3
	cmp	r1, ip
	bge	.L2227
	mov	lr, r1, asl #1
	add	r2, r2, #1
	ldrh	lr, [r0, lr]
	cmp	lr, #0
	beq	.L2211
	ldr	r0, .L2245
	mov	r6, #0
	ldr	r5, .L2245+16
.L2212:
	ldrh	ip, [r5]
	sxth	r2, r3
	cmp	r2, ip
	bge	.L2227
	ldr	lr, [r0, #-2924]
	mov	ip, r2, asl #1
	rsb	r4, r1, r2
	add	r3, r3, #1
	ldrh	r8, [lr, ip]
	mov	r7, r4, asl #1
	uxth	r3, r3
	strh	r8, [lr, r7]	@ movhi
	ldr	lr, [r0, #-2916]
	ldr	r2, [lr, r2, asl #2]
	str	r2, [lr, r4, asl #2]
	ldr	r2, [r0, #-2924]
	strh	r6, [r2, ip]	@ movhi
	b	.L2212
.L2227:
	mov	r0, #0
	add	sp, sp, #28
	@ sp needed
	ldmfd	sp!, {r4, r5, r6, r7, r8, r9, r10, fp, pc}
.L2246:
	.align	2
.L2245:
	.word	.LANCHOR2
	.word	.LANCHOR2-3258
	.word	.LANCHOR2-3268
	.word	.LANCHOR2-3188
	.word	.LANCHOR2-3180
	.word	.LANCHOR2-388
	.word	.LANCHOR2-2820
	.word	.LANCHOR2-404
	.word	.LANCHOR0
	.word	.LANCHOR2-2816
	.fnend
	.size	FtlScanSysBlk, .-FtlScanSysBlk
	.align	2
	.global	FtlLoadEctTbl
	.type	FtlLoadEctTbl, %function
FtlLoadEctTbl:
	.fnstart
	@ args = 0, pretend = 0, frame = 0
	@ frame_needed = 0, uses_anonymous_args = 0
	stmfd	sp!, {r3, r4, r5, lr}
	.save {r3, r4, r5, lr}
	mov	r0, #64
	ldr	r4, .L2250
	sub	r5, r4, #2960
	ldr	r2, [r4, #-2952]
	ldrh	r1, [r5]
	bl	FtlVendorPartRead
	ldr	r3, [r4, #-2952]
	ldr	r2, [r3]
	ldr	r3, .L2250+4
	cmp	r2, r3
	beq	.L2248
	ldr	r1, .L2250+8
	ldr	r0, .L2250+12
	bl	printk
	ldrh	r2, [r5]
	ldr	r0, [r4, #-2952]
	mov	r1, #0
	mov	r2, r2, asl #9
	bl	ftl_memset
.L2248:
	mov	r0, #0
	ldmfd	sp!, {r3, r4, r5, pc}
.L2251:
	.align	2
.L2250:
	.word	.LANCHOR2
	.word	1112818501
	.word	.LC47
	.word	.LC46
	.fnend
	.size	FtlLoadEctTbl, .-FtlLoadEctTbl
	.align	2
	.global	ftl_set_blk_mode
	.type	ftl_set_blk_mode, %function
ftl_set_blk_mode:
	.fnstart
	@ args = 0, pretend = 0, frame = 0
	@ frame_needed = 0, uses_anonymous_args = 0
	@ link register save eliminated.
	ldr	r2, .L2256
	mov	r3, r0, lsr #5
	cmp	r1, #0
	and	r0, r0, #31
	uxth	r3, r3
	mov	ip, #1
	ldr	r1, [r2, #-2928]
	ldr	r2, [r1, r3, asl #2]
	orrne	r0, r2, ip, asl r0
	biceq	r0, r2, ip, asl r0
	str	r0, [r1, r3, asl #2]
	bx	lr
.L2257:
	.align	2
.L2256:
	.word	.LANCHOR2
	.fnend
	.size	ftl_set_blk_mode, .-ftl_set_blk_mode
	.align	2
	.global	ftl_get_blk_mode
	.type	ftl_get_blk_mode, %function
ftl_get_blk_mode:
	.fnstart
	@ args = 0, pretend = 0, frame = 0
	@ frame_needed = 0, uses_anonymous_args = 0
	@ link register save eliminated.
	ldr	r3, .L2259
	mov	r2, r0, lsr #5
	and	r0, r0, #31
	ldr	r3, [r3, #-2928]
	ldr	r3, [r3, r2, asl #2]
	mov	r0, r3, lsr r0
	and	r0, r0, #1
	bx	lr
.L2260:
	.align	2
.L2259:
	.word	.LANCHOR2
	.fnend
	.size	ftl_get_blk_mode, .-ftl_get_blk_mode
	.align	2
	.global	FtlCheckVpc
	.type	FtlCheckVpc, %function
FtlCheckVpc:
	.fnstart
	@ args = 0, pretend = 0, frame = 8
	@ frame_needed = 0, uses_anonymous_args = 0
	stmfd	sp!, {r0, r1, r4, r5, r6, r7, r8, r9, r10, lr}
	.save {r4, r5, r6, r7, r8, r9, r10, lr}
	.pad #8
	mov	r4, #0
	ldr	r6, .L2283
	ldr	r1, .L2283+4
	ldr	r0, .L2283+8
	ldr	r3, [r6]
	ldr	r5, .L2283+12
	str	r3, [sp, #4]
	bl	printk
	ldr	r0, .L2283+16
	mov	r1, #0
	mov	r2, #8192
	sub	r8, r5, #384
	bl	memset
.L2262:
	ldr	r3, [r5, #-2816]
	ldr	r7, .L2283+12
	cmp	r4, r3
	bcs	.L2281
	mov	r0, r4
	mov	r1, sp
	mov	r2, #0
	bl	log2phys
	ldr	r0, [sp]
	cmn	r0, #1
	beq	.L2263
	ubfx	r0, r0, #10, #16
	bl	P2V_block_in_plane
	mov	r0, r0, asl #1
	ldrh	r3, [r8, r0]
	add	r3, r3, #1
	strh	r3, [r8, r0]	@ movhi
.L2263:
	add	r4, r4, #1
	b	.L2262
.L2281:
	ldr	r5, .L2283+20
	sub	r9, r7, #384
	mov	r4, #0
	mov	r8, r7
.L2265:
	ldrh	r3, [r5]
	uxth	r1, r4
	ldr	r2, .L2283+12
	cmp	r3, r1
	bls	.L2282
	ldr	r2, [r8, #-2940]
	mov	r3, r1, asl #1
	ldrh	r2, [r2, r3]
	ldrh	r3, [r9, r3]
	cmp	r2, r3
	beq	.L2266
	ldr	r0, .L2283+24
	bl	printk
.L2266:
	add	r4, r4, #1
	b	.L2265
.L2282:
	ldr	r4, [r2, #-656]
	cmp	r4, #0
	beq	.L2261
	sub	r3, r2, #652
	sub	r9, r2, #384
	mov	r5, #0
	mov	r10, #6
	ldrh	r8, [r3]
	ldr	r3, [r2, #-2888]
	rsb	r4, r3, r4
	ldr	r3, .L2283+28
	mov	r4, r4, asr #1
	mul	r4, r3, r4
	uxth	r4, r4
.L2269:
	uxth	r3, r5
	cmp	r3, r8
	bcs	.L2261
	ldr	r2, [r7, #-2940]
	mov	r3, r4, asl #1
	ldrh	r2, [r2, r3]
	cmp	r2, #0
	beq	.L2270
	ldr	r0, .L2283+32
	mov	r1, r4
	ldrh	r3, [r9, r3]
	bl	printk
.L2270:
	mul	r4, r10, r4
	ldr	r3, [r7, #-2888]
	add	r5, r5, #1
	ldrh	r4, [r3, r4]
	movw	r3, #65535
	cmp	r4, r3
	bne	.L2269
.L2261:
	ldr	r2, [sp, #4]
	ldr	r3, [r6]
	cmp	r2, r3
	beq	.L2273
	bl	__stack_chk_fail
.L2273:
	add	sp, sp, #8
	@ sp needed
	ldmfd	sp!, {r4, r5, r6, r7, r8, r9, r10, pc}
.L2284:
	.align	2
.L2283:
	.word	__stack_chk_guard
	.word	.LANCHOR3+16
	.word	.LC48
	.word	.LANCHOR2
	.word	.LANCHOR2-384
	.word	.LANCHOR2-3260
	.word	.LC49
	.word	-1431655765
	.word	.LC50
	.fnend
	.size	FtlCheckVpc, .-FtlCheckVpc
	.align	2
	.global	FtlDumpSysBlock
	.type	FtlDumpSysBlock, %function
FtlDumpSysBlock:
	.fnstart
	@ args = 0, pretend = 0, frame = 0
	@ frame_needed = 0, uses_anonymous_args = 0
	stmfd	sp!, {r4, r5, r6, r7, r8, lr}
	.save {r4, r5, r6, r7, r8, lr}
	mov	r7, r0, asl #10
	ldr	r4, .L2294
	.pad #24
	sub	sp, sp, #24
	ldr	r8, .L2294+4
	mov	r6, r0
	mov	r5, #0
	ldr	r3, [r4, #-3008]
	str	r3, [r4, #-2800]
	ldr	r3, [r4, #-2976]
	str	r3, [r4, #-2796]
.L2286:
	ldrh	r2, [r8]
	sxth	r3, r5
	cmp	r3, r2
	bge	.L2293
	mov	r1, #1
	ldr	r0, .L2294+8
	mov	r2, r1
	orr	r3, r3, r7
	str	r3, [r4, #-2804]
	bl	FlashReadPages
	ldr	r3, [r4, #-2796]
	mov	r1, r6
	ldr	r0, .L2294+12
	ldr	r2, [r3]
	str	r2, [sp]
	ldr	r2, [r3, #4]
	str	r2, [sp, #4]
	ldr	r2, [r3, #8]
	str	r2, [sp, #8]
	ldr	r3, [r3, #12]
	ldr	r2, [r4, #-2808]
	str	r3, [sp, #12]
	ldr	r3, [r4, #-2800]
	ldr	r3, [r3]
	str	r3, [sp, #16]
	ldr	r3, [r4, #-2804]
	bl	printk
	ldr	r3, [r4, #-2796]
	ldr	r3, [r3]
	cmn	r3, #1
	beq	.L2287
	ldr	r0, .L2294+16
	mov	r2, #4
	ldr	r1, [r4, #-3008]
	mov	r3, #768
	bl	rknand_print_hex
.L2287:
	add	r5, r5, #1
	b	.L2286
.L2293:
	add	sp, sp, #24
	@ sp needed
	ldmfd	sp!, {r4, r5, r6, r7, r8, pc}
.L2295:
	.align	2
.L2294:
	.word	.LANCHOR2
	.word	.LANCHOR2-3198
	.word	.LANCHOR2-2808
	.word	.LC51
	.word	.LC52
	.fnend
	.size	FtlDumpSysBlock, .-FtlDumpSysBlock
	.align	2
	.global	Ftlscanalldata
	.type	Ftlscanalldata, %function
Ftlscanalldata:
	.fnstart
	@ args = 0, pretend = 0, frame = 8
	@ frame_needed = 0, uses_anonymous_args = 0
	stmfd	sp!, {r4, r5, r6, r7, r8, lr}
	.save {r4, r5, r6, r7, r8, lr}
	.pad #32
	sub	sp, sp, #32
	ldr	r6, .L2307
	mov	r1, #0
	ldr	r0, .L2307+4
	mov	r5, #0
	ldr	r7, .L2307+8
	ldr	r3, [r6]
	mov	r4, r7
	str	r3, [sp, #28]
	bl	printk
.L2297:
	ldr	r3, [r7, #-2816]
	cmp	r5, r3
	bcs	.L2306
	mov	r0, r5
	add	r1, sp, #24
	mov	r2, #0
	bl	log2phys
	ubfx	r3, r5, #0, #11
	cmp	r3, #0
	bne	.L2298
	ldr	r0, .L2307+12
	mov	r1, r5
	ldr	r2, [sp, #24]
	bl	printk
.L2298:
	ldr	r3, [sp, #24]
	cmn	r3, #1
	beq	.L2300
	str	r3, [r4, #-2804]
	mov	r2, #0
	ldr	r3, [r4, #-3008]
	mov	r1, #1
	ldr	r8, [r4, #-2976]
	ldr	r0, .L2307+16
	str	r3, [r4, #-2800]
	str	r5, [r4, #-2792]
	str	r8, [r4, #-2796]
	str	r2, [r4, #-2808]
	bl	FlashReadPages
	ldr	r3, [r4, #-2808]
	cmn	r3, #1
	cmpne	r3, #256
	beq	.L2301
	ldr	r3, [r8, #8]
	cmp	r3, r5
	beq	.L2300
.L2301:
	ldr	r3, [r4, #-2796]
	ldr	r2, [r4, #-2800]
	ldr	r0, .L2307+20
	ldr	r1, [r3, #4]
	str	r1, [sp]
	ldr	r1, [r3, #8]
	str	r1, [sp, #4]
	ldr	r1, [r3, #12]
	str	r1, [sp, #8]
	ldr	r1, [r2]
	str	r1, [sp, #12]
	mov	r1, r5
	ldr	r2, [r2, #4]
	str	r2, [sp, #16]
	ldr	r2, [r4, #-2804]
	ldr	r3, [r3]
	bl	printk
.L2300:
	add	r5, r5, #1
	b	.L2297
.L2306:
	ldr	r2, [sp, #28]
	ldr	r3, [r6]
	cmp	r2, r3
	beq	.L2304
	bl	__stack_chk_fail
.L2304:
	add	sp, sp, #32
	@ sp needed
	ldmfd	sp!, {r4, r5, r6, r7, r8, pc}
.L2308:
	.align	2
.L2307:
	.word	__stack_chk_guard
	.word	.LC53
	.word	.LANCHOR2
	.word	.LC54
	.word	.LANCHOR2-2808
	.word	.LC55
	.fnend
	.size	Ftlscanalldata, .-Ftlscanalldata
	.align	2
	.global	dump_map_info
	.type	dump_map_info, %function
dump_map_info:
	.fnstart
	@ args = 0, pretend = 0, frame = 24
	@ frame_needed = 0, uses_anonymous_args = 0
	stmfd	sp!, {r4, r5, r6, r7, r8, r9, r10, fp, lr}
	.save {r4, r5, r6, r7, r8, r9, r10, fp, lr}
	.pad #52
	sub	sp, sp, #52
	ldr	r5, .L2327
	ldr	fp, .L2327+4
	ldrh	r6, [r5, #-12]
	add	r5, r5, #3248
	mov	r8, r5
.L2310:
	ldrh	r3, [fp]
	cmp	r3, r6
	bls	.L2323
	ldr	r1, .L2327+8
	mov	r7, #0
	ldr	r2, [r5, #-3036]
	mov	r4, r7
	ldr	r3, [r5, #-2996]
	add	r1, r1, #28
	ldr	r10, [r5, #-2968]
	ldrh	ip, [r1, #-28]
	ldrh	r9, [r1, #52]
	str	r1, [sp, #28]
.L2319:
	uxth	r1, r7
	cmp	r1, ip
	bcs	.L2325
	str	r3, [sp, #44]
	mov	r1, r6
	ldr	r3, [sp, #28]
	str	r2, [sp, #40]
	str	ip, [sp, #36]
	ldrb	r0, [r3, r7]	@ zero_extendqisi2
	bl	V2P_block
	str	r0, [sp, #32]
	bl	FtlBbmIsBadBlock
	cmp	r0, #0
	ldr	r1, [sp, #32]
	ldr	ip, [sp, #36]
	ldr	r2, [sp, #40]
	ldr	r3, [sp, #44]
	bne	.L2311
	mov	r0, #36
	mov	r1, r1, asl #10
	mla	r0, r0, r4, r2
	stmib	r0, {r1, r3}
	mul	r1, r9, r4
	add	r4, r4, #1
	uxth	r4, r4
	add	lr, r1, #3
	cmp	r1, #0
	movlt	r1, lr
	bic	r1, r1, #3
	add	r1, r10, r1
	str	r1, [r0, #12]
.L2311:
	add	r7, r7, #1
	b	.L2319
.L2325:
	cmp	r4, #0
	beq	.L2314
	ldr	r0, [r8, #-3036]
	mov	r1, r4
	mov	r2, #1
	mov	r7, #0
	bl	FlashReadPages
	mov	r9, #36
.L2315:
	uxth	r3, r7
	cmp	r3, r4
	bcs	.L2314
	ldr	r3, [r8, #-3036]
	ldr	r0, .L2327+12
	mla	r3, r9, r7, r3
	add	r7, r7, #1
	ldmib	r3, {r2, r3, ip}
	ldr	r1, [ip, #4]
	str	r1, [sp]
	ldr	r1, [ip, #8]
	str	r1, [sp, #4]
	ldr	r1, [ip, #12]
	str	r1, [sp, #8]
	ldr	r1, [r3]
	str	r1, [sp, #12]
	ubfx	r1, r2, #10, #16
	ldr	r3, [r3, #4]
	str	r3, [sp, #16]
	ldr	r3, [ip]
	bl	printk
	b	.L2315
.L2314:
	add	r6, r6, #1
	uxth	r6, r6
	b	.L2310
.L2323:
	ldr	r4, .L2327+16
	mov	r7, #0
	ldr	r8, .L2327+20
.L2318:
	ldr	r5, .L2327+16
	sxth	r6, r7
	sub	r3, r5, #388
	ldrh	r3, [r3]
	cmp	r6, r3
	bge	.L2321
	mov	r6, r6, asl #1
	mov	r5, #0
.L2322:
	ldrh	r2, [r8]
	sxth	r3, r5
	add	r5, r5, #1
	cmp	r3, r2
	bge	.L2326
	ldr	r2, [r4, #-2936]
	mov	r1, #1
	ldr	r0, .L2327+24
	ldrh	r2, [r2, r6]
	orr	r3, r3, r2, asl #10
	mov	r2, r1
	str	r3, [r4, #-2804]
	bl	FlashReadPages
	ldr	r3, [r4, #-2796]
	ldr	r1, [r4, #-2936]
	ldr	r2, [r4, #-2800]
	ldr	r0, [r3]
	ldrh	r1, [r1, r6]
	str	r0, [sp]
	ldr	r0, [r3, #4]
	str	r0, [sp, #4]
	ldr	r0, [r3, #8]
	str	r0, [sp, #8]
	ldr	r3, [r3, #12]
	ldr	r0, .L2327+28
	str	r3, [sp, #12]
	ldr	r3, [r2]
	str	r3, [sp, #16]
	ldr	r3, [r2, #4]
	str	r3, [sp, #20]
	ldr	r2, [r4, #-2808]
	ldr	r3, [r4, #-2804]
	bl	printk
	b	.L2322
.L2326:
	add	r7, r7, #1
	b	.L2318
.L2321:
	sub	r4, r5, #3152
	ldr	r1, [r5, #-2936]
	ldr	r3, [r5, #-3172]
	mov	r2, #2
	ldr	r0, .L2327+32
	bl	rknand_print_hex
	ldr	r1, [r5, #-2908]
	ldrh	r3, [r4, #-12]
	mov	r2, #4
	ldr	r0, .L2327+36
	bl	rknand_print_hex
	ldr	r0, .L2327+40
	ldr	r1, [r5, #-2904]
	mov	r2, #4
	ldrh	r3, [r4, #-12]
	add	sp, sp, #52
	@ sp needed
	ldmfd	sp!, {r4, r5, r6, r7, r8, r9, r10, fp, lr}
	b	rknand_print_hex
.L2328:
	.align	2
.L2327:
	.word	.LANCHOR2-3248
	.word	.LANCHOR2-3258
	.word	.LANCHOR2-3268
	.word	.LC56
	.word	.LANCHOR2
	.word	.LANCHOR2-3198
	.word	.LANCHOR2-2808
	.word	.LC57
	.word	.LC58
	.word	.LC59
	.word	.LC60
	.fnend
	.size	dump_map_info, .-dump_map_info
	.align	2
	.global	FtlMapTblRecovery
	.type	FtlMapTblRecovery, %function
FtlMapTblRecovery:
	.fnstart
	@ args = 0, pretend = 0, frame = 24
	@ frame_needed = 0, uses_anonymous_args = 0
	stmfd	sp!, {r4, r5, r6, r7, r8, r9, r10, fp, lr}
	.save {r4, r5, r6, r7, r8, r9, r10, fp, lr}
	.pad #28
	sub	sp, sp, #28
	ldr	r3, [r0, #16]
	mov	r4, r0
	ldrh	r9, [r0, #6]
	mov	r1, #0
	ldr	r7, [r0, #24]
	str	r3, [sp, #12]
	ldrh	r3, [r0, #8]
	mov	r2, r9, asl #2
	ldr	r8, [r0, #12]
	mov	r0, r7
	ldr	r5, .L2372
	str	r3, [sp, #8]
	bl	ftl_memset
	mov	r1, #0
	str	r1, [r4, #32]
	ldr	r3, [r5, #-3008]
	mov	r10, r5
	ldr	r6, [r5, #-2976]
	str	r1, [r4, #28]
	str	r3, [r5, #-2800]
	mvn	r3, #0
	str	r6, [r5, #-2796]
	strh	r3, [r4]	@ movhi
	strh	r3, [r4, #2]	@ movhi
	mov	r3, #1
	str	r3, [r4, #36]
	str	r1, [sp, #4]
.L2330:
	ldrh	r2, [sp, #4]
	ldr	r3, [sp, #8]
	sxth	fp, r2
	cmp	fp, r3
	bge	.L2348
	ldr	r3, [sp, #8]
	sub	r1, r3, #1
	cmp	fp, r1
	mov	r1, fp, asl #1
	bne	.L2331
	ldrh	r0, [r8, r1]
	add	r10, r8, r1
	mov	r1, #1
	str	r2, [sp, #4]
	bl	FtlGetLastWrittenPage
	mov	r8, #0
	ldr	r2, [sp, #4]
	add	r3, r0, #1
	strh	r3, [r4, #2]	@ movhi
	sxth	r0, r0
	ldr	r3, [sp, #12]
	strh	r2, [r4]	@ movhi
	ldr	r3, [r3, fp, asl #2]
	ldr	fp, .L2372
	str	r3, [r4, #28]
	add	r3, r0, #1
	str	r3, [sp, #4]
.L2332:
	ldr	r2, [sp, #4]
	sxth	r3, r8
	cmp	r3, r2
	bge	.L2348
	ldrh	r2, [r10]
	mov	r1, #1
	ldr	r0, .L2372+4
	orr	r3, r3, r2, asl #10
	mov	r2, r1
	str	r3, [r5, #-2804]
	bl	FlashReadPages
	ldr	r3, .L2372+8
	ldrb	r3, [r3]	@ zero_extendqisi2
	cmp	r3, #0
	beq	.L2333
	ldr	r3, [fp, #-2796]
	ldr	r3, [r3, #12]
	cmp	r3, #0
	beq	.L2333
	ldr	r2, .L2372+12
	ldr	r0, [fp, #-2800]
	str	r3, [sp, #8]
	ldrh	r1, [r2]
	bl	js_hash
	ldr	r3, [sp, #8]
	cmp	r3, r0
	mvnne	r3, #0
	strne	r3, [fp, #-2808]
.L2333:
	ldr	r3, [fp, #-2808]
	cmn	r3, #1
	beq	.L2334
	ldrh	r3, [r6, #8]
	cmp	r3, r9
	bcs	.L2334
	ldrh	r2, [r4, #4]
	ldrh	r1, [r6]
	cmp	r1, r2
	ldreq	r2, [fp, #-2804]
	streq	r2, [r7, r3, asl #2]
.L2334:
	add	r8, r8, #1
	b	.L2332
.L2348:
	mov	r0, r4
	bl	ftl_free_no_use_map_blk
	ldr	r3, .L2372+16
	ldrh	r2, [r4, #2]
	ldrh	r3, [r3, #-14]
	cmp	r2, r3
	bne	.L2337
	mov	r0, r4
	bl	ftl_map_blk_alloc_new_blk
	b	.L2337
.L2331:
	ldr	r2, [r5, #-3008]
	add	r3, r8, r1
	str	r3, [sp, #16]
	ldr	r3, .L2372+20
	str	r2, [r5, #-2800]
	ldrh	r1, [r8, r1]
	ldrh	r2, [r3]
	ldr	r0, .L2372+4
	sub	r2, r2, #1
	orr	r2, r2, r1, asl #10
	mov	r1, #1
	str	r2, [r5, #-2804]
	mov	r2, r1
	bl	FlashReadPages
	ldr	r2, [r5, #-2808]
	cmn	r2, #1
	beq	.L2350
	ldrh	r1, [r6]
	ldrh	r2, [r4, #4]
	cmp	r1, r2
	bne	.L2350
	ldrh	r1, [r6, #8]
	movw	r2, #64245
	cmp	r1, r2
	bne	.L2350
	mov	r0, #0
	mov	fp, #8
	mov	lr, #4
.L2339:
	ldr	r3, .L2372+20
	uxth	r2, r0
	sxth	r1, r2
	ldrh	ip, [r3]
	sub	ip, ip, #1
	cmp	r1, ip
	bge	.L2342
	ldr	ip, [r10, #-3008]
	add	r0, r0, #1
	ldr	r1, [ip, r1, asl #3]
	uxth	r1, r1
	cmp	r1, r9
	smlabbcc	r2, r2, fp, lr
	ldrcc	r2, [ip, r2]
	strcc	r2, [r7, r1, asl #2]
	b	.L2339
.L2350:
	mov	fp, #0
.L2370:
	ldr	r3, .L2372+20
	sxth	r2, fp
	ldrh	r1, [r3]
	cmp	r2, r1
	bge	.L2342
	ldr	r3, [sp, #16]
	ldr	r0, .L2372+4
	ldrh	r1, [r3]
	orr	r2, r2, r1, asl #10
	mov	r1, #1
	str	r2, [r10, #-2804]
	mov	r2, r1
	bl	FlashReadPages
	ldr	r2, .L2372+8
	ldrb	r2, [r2]	@ zero_extendqisi2
	cmp	r2, #0
	beq	.L2343
	ldr	r2, [r10, #-2796]
	ldr	r2, [r2, #12]
	cmp	r2, #0
	beq	.L2343
	ldr	r1, .L2372+12
	ldr	r0, [r10, #-2800]
	str	r2, [sp, #20]
	ldrh	r1, [r1]
	bl	js_hash
	ldr	r2, [sp, #20]
	cmp	r2, r0
	mvnne	r2, #0
	strne	r2, [r10, #-2808]
.L2343:
	ldr	r2, [r10, #-2808]
	cmn	r2, #1
	beq	.L2344
	ldrh	r2, [r6, #8]
	cmp	r2, r9
	bcs	.L2344
	ldrh	r1, [r4, #4]
	ldrh	r0, [r6]
	cmp	r0, r1
	ldreq	r1, [r10, #-2804]
	streq	r1, [r7, r2, asl #2]
.L2344:
	add	fp, fp, #1
	b	.L2370
.L2342:
	ldr	r3, [sp, #4]
	add	r3, r3, #1
	str	r3, [sp, #4]
	b	.L2330
.L2337:
	mov	r0, r4
	bl	ftl_map_blk_gc
	mov	r0, r4
	bl	ftl_map_blk_gc
	mov	r0, #0
	add	sp, sp, #28
	@ sp needed
	ldmfd	sp!, {r4, r5, r6, r7, r8, r9, r10, fp, pc}
.L2373:
	.align	2
.L2372:
	.word	.LANCHOR2
	.word	.LANCHOR2-2808
	.word	.LANCHOR0
	.word	.LANCHOR2-3190
	.word	.LANCHOR2-3184
	.word	.LANCHOR2-3198
	.fnend
	.size	FtlMapTblRecovery, .-FtlMapTblRecovery
	.align	2
	.global	FtlLoadVonderInfo
	.type	FtlLoadVonderInfo, %function
FtlLoadVonderInfo:
	.fnstart
	@ args = 0, pretend = 0, frame = 0
	@ frame_needed = 0, uses_anonymous_args = 0
	stmfd	sp!, {r3, lr}
	.save {r3, lr}
	ldr	r3, .L2376
	sub	r2, r3, #3168
	sub	r0, r3, #456
	ldrh	r1, [r2, #-12]
	ldrh	r2, [r2, #-10]
	strh	r1, [r0, #10]	@ movhi
	strh	r2, [r0, #6]	@ movhi
	ldr	r2, [r3, #-2924]
	ldr	r1, .L2376+4
	str	r2, [r3, #-444]
	ldr	r2, [r3, #-2916]
	strh	r1, [r0, #4]	@ movhi
	sub	r1, r3, #2816
	str	r2, [r3, #-440]
	ldr	r2, [r3, #-2920]
	ldrh	r1, [r1, #-4]
	str	r2, [r3, #-436]
	ldr	r2, [r3, #-2912]
	strh	r1, [r0, #8]	@ movhi
	str	r2, [r3, #-432]
	bl	FtlMapTblRecovery
	mov	r0, #0
	ldmfd	sp!, {r3, pc}
.L2377:
	.align	2
.L2376:
	.word	.LANCHOR2
	.word	-3962
	.fnend
	.size	FtlLoadVonderInfo, .-FtlLoadVonderInfo
	.align	2
	.global	FtlL2PDataInit
	.type	FtlL2PDataInit, %function
FtlL2PDataInit:
	.fnstart
	@ args = 0, pretend = 0, frame = 0
	@ frame_needed = 0, uses_anonymous_args = 0
	stmfd	sp!, {r4, r5, r6, r7, r8, lr}
	.save {r4, r5, r6, r7, r8, lr}
	mov	r1, #0
	ldr	r4, .L2383
	mvn	r6, #0
	ldr	r2, [r4, #-3172]
	ldr	r0, [r4, #-2932]
	mov	r2, r2, asl #1
	bl	ftl_memset
	sub	r3, r4, #3184
	sub	r2, r4, #3152
	mov	r1, #255
	ldrh	r3, [r3, #-6]
	ldrh	r2, [r2, #-10]
	ldr	r0, [r4, #-2892]
	mul	r2, r2, r3
	bl	ftl_memset
	ldr	r0, .L2383+4
	mov	r1, #0
	mov	lr, #12
	sub	r7, r0, #28
	mov	r5, r1
.L2379:
	ldrh	r2, [r0]
	add	ip, r1, #1
	uxth	r1, r1
	ldr	r3, .L2383
	cmp	r2, r1
	sub	r8, r3, #3152
	bls	.L2382
	mul	r8, lr, r1
	ldr	r3, [r4, #-2896]
	add	r2, r3, r8
	str	r5, [r2, #4]
	strh	r6, [r3, r8]	@ movhi
	ldrh	r2, [r7]
	ldr	r3, [r4, #-2896]
	mul	r2, r1, r2
	add	r3, r3, r8
	ldr	r1, [r4, #-2892]
	bic	r2, r2, #3
	add	r2, r1, r2
	mov	r1, ip
	str	r2, [r3, #8]
	b	.L2379
.L2382:
	sub	r2, r3, #504
	mvn	r1, #0
	strh	r1, [r2, #2]	@ movhi
	strh	r1, [r2]	@ movhi
	ldr	r1, [r3, #-3172]
	strh	r1, [r2, #10]	@ movhi
	ldr	r1, .L2383+8
	strh	r1, [r2, #4]	@ movhi
	sub	r1, r3, #388
	ldrh	r1, [r1]
	strh	r1, [r2, #8]	@ movhi
	ldrh	r1, [r8, #-12]
	strh	r1, [r2, #6]	@ movhi
	ldr	r2, [r3, #-2936]
	str	r2, [r3, #-492]
	ldr	r2, [r3, #-2900]
	str	r2, [r3, #-488]
	ldr	r2, [r3, #-2932]
	str	r2, [r3, #-484]
	ldr	r2, [r3, #-2908]
	str	r2, [r3, #-480]
	ldmfd	sp!, {r4, r5, r6, r7, r8, pc}
.L2384:
	.align	2
.L2383:
	.word	.LANCHOR2
	.word	.LANCHOR2-3162
	.word	-3902
	.fnend
	.size	FtlL2PDataInit, .-FtlL2PDataInit
	.align	2
	.global	FtlLoadMapInfo
	.type	FtlLoadMapInfo, %function
FtlLoadMapInfo:
	.fnstart
	@ args = 0, pretend = 0, frame = 0
	@ frame_needed = 0, uses_anonymous_args = 0
	stmfd	sp!, {r3, lr}
	.save {r3, lr}
	bl	FtlL2PDataInit
	ldr	r0, .L2387
	bl	FtlMapTblRecovery
	mov	r0, #0
	ldmfd	sp!, {r3, pc}
.L2388:
	.align	2
.L2387:
	.word	.LANCHOR2-504
	.fnend
	.size	FtlLoadMapInfo, .-FtlLoadMapInfo
	.align	2
	.global	ftl_sb_update_avl_pages
	.type	ftl_sb_update_avl_pages, %function
ftl_sb_update_avl_pages:
	.fnstart
	@ args = 0, pretend = 0, frame = 0
	@ frame_needed = 0, uses_anonymous_args = 0
	mov	r3, #0
	strh	r3, [r0, #4]	@ movhi
	ldr	r3, .L2399
	stmfd	sp!, {r4, r5, lr}
	.save {r4, r5, lr}
	movw	r4, #65535
	ldrh	lr, [r3, #-4]
	add	r3, r2, #7
	add	r3, r0, r3, asl #1
.L2390:
	cmp	r2, lr
	bcs	.L2397
	ldrh	ip, [r3, #2]!
	add	r2, r2, #1
	cmp	ip, r4
	uxth	r2, r2
	ldrneh	ip, [r0, #4]
	addne	ip, ip, #1
	strneh	ip, [r0, #4]	@ movhi
	b	.L2390
.L2397:
	ldr	r3, .L2399+4
	add	ip, r0, #14
	mov	r2, #0
	movw	r5, #65535
	ldrh	r4, [r3]
.L2393:
	uxth	r3, r2
	cmp	r3, lr
	bcs	.L2398
	ldrh	r3, [ip, #2]!
	add	r2, r2, #1
	cmp	r3, r5
	ldrneh	r3, [r0, #4]
	addne	r3, r4, r3
	subne	r3, r3, #1
	rsbne	r3, r1, r3
	strneh	r3, [r0, #4]	@ movhi
	b	.L2393
.L2398:
	ldmfd	sp!, {r4, r5, pc}
.L2400:
	.align	2
.L2399:
	.word	.LANCHOR2-3264
	.word	.LANCHOR2-3200
	.fnend
	.size	ftl_sb_update_avl_pages, .-ftl_sb_update_avl_pages
	.align	2
	.global	FtlReUsePrevPpa
	.type	FtlReUsePrevPpa, %function
FtlReUsePrevPpa:
	.fnstart
	@ args = 0, pretend = 0, frame = 8
	@ frame_needed = 0, uses_anonymous_args = 0
	stmfd	sp!, {r0, r1, r2, r4, r5, r6, r7, r8, r9, lr}
	.save {r4, r5, r6, r7, r8, r9, lr}
	.pad #12
	mov	r5, r0
	ubfx	r0, r1, #10, #16
	str	r1, [sp, #4]
	bl	P2V_block_in_plane
	ldr	r6, .L2411
	ldr	r4, [r6, #-2940]
	mov	r7, r0, asl #1
	ldrh	r3, [r4, r7]
	cmp	r3, #0
	addne	r3, r3, #1
	strneh	r3, [r4, r7]	@ movhi
	bne	.L2403
	ldr	r4, [r6, #-656]
	cmp	r4, #0
	beq	.L2403
	ldr	r1, [r6, #-2888]
	sub	r2, r6, #652
	ldr	lr, .L2411+4
	movw	r9, #65535
	rsb	r4, r1, r4
	ldrh	ip, [r2]
	mov	r8, r2
	mov	r4, r4, asr #1
	mul	r4, lr, r4
	mov	lr, #6
	uxth	r4, r4
.L2404:
	uxth	r2, r3
	cmp	r2, ip
	bcs	.L2403
	cmp	r4, r0
	bne	.L2405
	mov	r1, r4
	ldr	r0, .L2411+8
	bl	List_remove_node
	ldrh	r3, [r8]
	mov	r0, r4
	sub	r3, r3, #1
	strh	r3, [r8]	@ movhi
	bl	INSERT_DATA_LIST
	ldr	r2, [r6, #-2940]
	ldrh	r3, [r2, r7]
	add	r3, r3, #1
	strh	r3, [r2, r7]	@ movhi
	b	.L2403
.L2405:
	mul	r4, lr, r4
	add	r3, r3, #1
	ldrh	r4, [r1, r4]
	cmp	r4, r9
	bne	.L2404
.L2403:
	mov	r0, r5
	add	r1, sp, #4
	mov	r2, #1
	bl	log2phys
	add	sp, sp, #12
	@ sp needed
	ldmfd	sp!, {r4, r5, r6, r7, r8, r9, pc}
.L2412:
	.align	2
