/*
 * Copyright (c) 2016-2017, Fuzhou Rockchip Electronics Co., Ltd
 *
 * This program is free software; you can redistribute it and/or modify
 * it under the terms of the GNU General Public License as published by
 * the Free Software Foundation; either version 2 of the License, or
 * (at your option) any later version.
 * date: 2019-05-08
 */
	.syntax unified
	.arch armv7-a
	.fpu softvfp
	.eabi_attribute 20, 1
	.eabi_attribute 21, 1
	.eabi_attribute 23, 3
	.eabi_attribute 24, 1
	.eabi_attribute 25, 1
	.eabi_attribute 26, 2
	.eabi_attribute 30, 4
	.eabi_attribute 34, 1
	.eabi_attribute 18, 2
	.thumb
	.file	"rk_ftl_arm_v7.S"
#APP
	.syntax unified
	.thumb
	.text
	.align	1
	.global	FlashMemCmp8
	.thumb
	.thumb_func
	.type	FlashMemCmp8, %function
FlashMemCmp8:
	.fnstart
	@ args = 0, pretend = 0, frame = 0
	@ frame_needed = 0, uses_anonymous_args = 0
	ldr	r3, .L10
	push	{r4, r5, lr}
	.save {r4, r5, lr}
	ldrb	r3, [r3]	@ zero_extendqisi2
	cbz	r3, .L4
	ldrb	r4, [r0, #1]	@ zero_extendqisi2
	ldrb	r3, [r1, #1]	@ zero_extendqisi2
	cmp	r4, r3
	beq	.L8
	movs	r3, #0
.L4:
	cmp	r3, r2
	beq	.L8
	ldrb	r5, [r0, r3]	@ zero_extendqisi2
	ldrb	r4, [r1, r3]	@ zero_extendqisi2
	adds	r3, r3, #1
	cmp	r5, r4
	beq	.L4
	mov	r0, r3
	pop	{r4, r5, pc}
.L8:
	movs	r0, #0
	pop	{r4, r5, pc}
.L11:
	.align	2
.L10:
	.word	.LANCHOR0
	.fnend
	.size	FlashMemCmp8, .-FlashMemCmp8
	.align	1
	.global	FlashRsvdBlkChk
	.thumb
	.thumb_func
	.type	FlashRsvdBlkChk, %function
FlashRsvdBlkChk:
	.fnstart
	@ args = 0, pretend = 0, frame = 0
	@ frame_needed = 0, uses_anonymous_args = 0
	@ link register save eliminated.
	ldr	r3, .L15
	ldrb	r2, [r3, #1]	@ zero_extendqisi2
	ldr	r3, [r3, #4]
	muls	r3, r2, r3
	cmp	r1, r3
	bcs	.L14
	adds	r0, r0, #0
	it	ne
	movne	r0, #1
	bx	lr
.L14:
	movs	r0, #1
	bx	lr
.L16:
	.align	2
.L15:
	.word	.LANCHOR0
	.fnend
	.size	FlashRsvdBlkChk, .-FlashRsvdBlkChk
	.align	1
	.global	FlashGetRandomizer
	.thumb
	.thumb_func
	.type	FlashGetRandomizer, %function
FlashGetRandomizer:
	.fnstart
	@ args = 0, pretend = 0, frame = 0
	@ frame_needed = 0, uses_anonymous_args = 0
	ldr	r3, .L25
	and	r2, r1, #127
	push	{r4, lr}
	.save {r4, lr}
	ldrh	r4, [r3, r2, lsl #1]
	ldr	r3, .L25+4
	ldrb	r3, [r3, #8]	@ zero_extendqisi2
	cbz	r3, .L18
	bl	FlashRsvdBlkChk
	cbz	r0, .L18
	orr	r4, r4, #-1073741824
.L18:
	mov	r0, r4
	pop	{r4, pc}
.L26:
	.align	2
.L25:
	.word	.LANCHOR1
	.word	.LANCHOR0
	.fnend
	.size	FlashGetRandomizer, .-FlashGetRandomizer
	.align	1
	.global	FlashSetRandomizer
	.thumb
	.thumb_func
	.type	FlashSetRandomizer, %function
FlashSetRandomizer:
	.fnstart
	@ args = 0, pretend = 0, frame = 0
	@ frame_needed = 0, uses_anonymous_args = 0
	ldr	r3, .L35
	and	r2, r1, #127
	push	{r4, r5, r6, lr}
	.save {r4, r5, r6, lr}
	mov	r6, r0
	ldrh	r5, [r3, r2, lsl #1]
	ldr	r3, .L35+4
	ldrb	r2, [r3, #8]	@ zero_extendqisi2
	mov	r4, r3
	cbz	r2, .L28
	bl	FlashRsvdBlkChk
	cbz	r0, .L28
	orr	r5, r5, #-1073741824
.L28:
	add	r4, r4, r6, lsl #3
	ldr	r3, [r4, #12]
	str	r5, [r3, #336]
	pop	{r4, r5, r6, pc}
.L36:
	.align	2
.L35:
	.word	.LANCHOR1
	.word	.LANCHOR0
	.fnend
	.size	FlashSetRandomizer, .-FlashSetRandomizer
	.align	1
	.global	FlashBlockAlignInit
	.thumb
	.thumb_func
	.type	FlashBlockAlignInit, %function
FlashBlockAlignInit:
	.fnstart
	@ args = 0, pretend = 0, frame = 0
	@ frame_needed = 0, uses_anonymous_args = 0
	@ link register save eliminated.
	cmp	r0, #256
	ldr	r3, .L42
	bls	.L38
	mov	r2, #512
	b	.L41
.L38:
	cmp	r0, #128
	bhi	.L40
	str	r0, [r3, #4]
	bx	lr
.L40:
	mov	r2, #256
.L41:
	str	r2, [r3, #4]
	bx	lr
.L43:
	.align	2
.L42:
	.word	.LANCHOR0
	.fnend
	.size	FlashBlockAlignInit, .-FlashBlockAlignInit
	.align	1
	.global	FlashReadCmd
	.thumb
	.thumb_func
	.type	FlashReadCmd, %function
FlashReadCmd:
	.fnstart
	@ args = 0, pretend = 0, frame = 0
	@ frame_needed = 0, uses_anonymous_args = 0
	push	{r4, lr}
	.save {r4, lr}
	lsrs	r2, r1, #16
	ldr	r4, .L45
	add	r4, r4, r0, lsl #3
	ldr	r3, [r4, #12]
	ldrb	r4, [r4, #16]	@ zero_extendqisi2
	add	r3, r3, r4, lsl #8
	movs	r4, #0
	str	r4, [r3, #2056]
	str	r4, [r3, #2052]
	str	r4, [r3, #2052]
	uxtb	r4, r1
	str	r4, [r3, #2052]
	lsrs	r4, r1, #8
	str	r4, [r3, #2052]
	str	r2, [r3, #2052]
	movs	r2, #48
	str	r2, [r3, #2056]
	pop	{r4, lr}
	b	FlashSetRandomizer
.L46:
	.align	2
.L45:
	.word	.LANCHOR0
	.fnend
	.size	FlashReadCmd, .-FlashReadCmd
	.align	1
	.global	FlashReadDpDataOutCmd
	.thumb
	.thumb_func
	.type	FlashReadDpDataOutCmd, %function
FlashReadDpDataOutCmd:
	.fnstart
	@ args = 0, pretend = 0, frame = 0
	@ frame_needed = 0, uses_anonymous_args = 0
	push	{r4, r5, r6, lr}
	.save {r4, r5, r6, lr}
	uxtb	r6, r1
	ldr	r4, .L51
	lsrs	r5, r1, #8
	add	r3, r4, r0, lsl #3
	ldrb	r4, [r4, #60]	@ zero_extendqisi2
	ldr	r2, [r3, #12]
	ldrb	r3, [r3, #16]	@ zero_extendqisi2
	cmp	r4, #1
	lsr	r4, r1, #16
	lsl	r3, r3, #8
	add	r3, r3, r2
	bne	.L48
	movs	r2, #6
	str	r2, [r3, #2056]
	movs	r2, #0
	str	r2, [r3, #2052]
	str	r2, [r3, #2052]
	str	r6, [r3, #2052]
	str	r5, [r3, #2052]
	str	r4, [r3, #2052]
	b	.L50
.L48:
	movs	r2, #0
	str	r2, [r3, #2056]
	str	r2, [r3, #2052]
	str	r2, [r3, #2052]
	str	r6, [r3, #2052]
	str	r5, [r3, #2052]
	str	r4, [r3, #2052]
	movs	r4, #5
	str	r4, [r3, #2056]
	str	r2, [r3, #2052]
	str	r2, [r3, #2052]
.L50:
	movs	r2, #224
	str	r2, [r3, #2056]
	pop	{r4, r5, r6, lr}
	b	FlashSetRandomizer
.L52:
	.align	2
.L51:
	.word	.LANCHOR0
	.fnend
	.size	FlashReadDpDataOutCmd, .-FlashReadDpDataOutCmd
	.align	1
	.global	FlashProgFirstCmd
	.thumb
	.thumb_func
	.type	FlashProgFirstCmd, %function
FlashProgFirstCmd:
	.fnstart
	@ args = 0, pretend = 0, frame = 0
	@ frame_needed = 0, uses_anonymous_args = 0
	push	{r4, lr}
	.save {r4, lr}
	lsrs	r2, r1, #16
	ldr	r4, .L54
	add	r4, r4, r0, lsl #3
	ldr	r3, [r4, #12]
	ldrb	r4, [r4, #16]	@ zero_extendqisi2
	add	r3, r3, r4, lsl #8
	movs	r4, #128
	str	r4, [r3, #2056]
	movs	r4, #0
	str	r4, [r3, #2052]
	str	r4, [r3, #2052]
	uxtb	r4, r1
	str	r4, [r3, #2052]
	lsrs	r4, r1, #8
	str	r4, [r3, #2052]
	str	r2, [r3, #2052]
	pop	{r4, lr}
	b	FlashSetRandomizer
.L55:
	.align	2
.L54:
	.word	.LANCHOR0
	.fnend
	.size	FlashProgFirstCmd, .-FlashProgFirstCmd
	.align	1
	.global	FlashEraseCmd
	.thumb
	.thumb_func
	.type	FlashEraseCmd, %function
FlashEraseCmd:
	.fnstart
	@ args = 0, pretend = 0, frame = 0
	@ frame_needed = 0, uses_anonymous_args = 0
	push	{r4, r5, lr}
	.save {r4, r5, lr}
	ldr	r5, .L61
	add	r0, r5, r0, lsl #3
	ldrb	r3, [r0, #16]	@ zero_extendqisi2
	ldr	r4, [r0, #12]
	lsls	r3, r3, #8
	cbz	r2, .L57
	adds	r2, r4, r3
	movs	r0, #96
	str	r0, [r2, #2056]
	uxtb	r0, r1
	str	r0, [r2, #2052]
	lsrs	r0, r1, #8
	str	r0, [r2, #2052]
	lsrs	r0, r1, #16
	str	r0, [r2, #2052]
	ldr	r2, [r5, #4]
	add	r1, r1, r2
.L57:
	add	r3, r3, r4
	movs	r2, #96
	str	r2, [r3, #2056]
	uxtb	r2, r1
	str	r2, [r3, #2052]
	lsrs	r2, r1, #8
	lsrs	r1, r1, #16
	str	r2, [r3, #2052]
	str	r1, [r3, #2052]
	movs	r2, #208
	str	r2, [r3, #2056]
	pop	{r4, r5, pc}
.L62:
	.align	2
.L61:
	.word	.LANCHOR0
	.fnend
	.size	FlashEraseCmd, .-FlashEraseCmd
	.align	1
	.global	FlashProgDpSecondCmd
	.thumb
	.thumb_func
	.type	FlashProgDpSecondCmd, %function
FlashProgDpSecondCmd:
	.fnstart
	@ args = 0, pretend = 0, frame = 0
	@ frame_needed = 0, uses_anonymous_args = 0
	push	{r4, r5, lr}
	.save {r4, r5, lr}
	lsrs	r2, r1, #16
	ldr	r4, .L64
	add	r5, r4, r0, lsl #3
	ldrb	r4, [r4, #55]	@ zero_extendqisi2
	ldr	r3, [r5, #12]
	ldrb	r5, [r5, #16]	@ zero_extendqisi2
	add	r3, r3, r5, lsl #8
	str	r4, [r3, #2056]
	movs	r4, #0
	str	r4, [r3, #2052]
	str	r4, [r3, #2052]
	uxtb	r4, r1
	str	r4, [r3, #2052]
	lsrs	r4, r1, #8
	str	r4, [r3, #2052]
	str	r2, [r3, #2052]
	pop	{r4, r5, lr}
	b	FlashSetRandomizer
.L65:
	.align	2
.L64:
	.word	.LANCHOR0
	.fnend
	.size	FlashProgDpSecondCmd, .-FlashProgDpSecondCmd
	.align	1
	.global	FlashProgSecondCmd
	.thumb
	.thumb_func
	.type	FlashProgSecondCmd, %function
FlashProgSecondCmd:
	.fnstart
	@ args = 0, pretend = 0, frame = 0
	@ frame_needed = 0, uses_anonymous_args = 0
	@ link register save eliminated.
	ldr	r3, .L67
	add	r0, r3, r0, lsl #3
	ldrb	r2, [r0, #16]	@ zero_extendqisi2
	ldr	r3, [r0, #12]
	add	r3, r3, r2, lsl #8
	movs	r2, #16
	str	r2, [r3, #2056]
	bx	lr
.L68:
	.align	2
.L67:
	.word	.LANCHOR0
	.fnend
	.size	FlashProgSecondCmd, .-FlashProgSecondCmd
	.align	1
	.global	FlashProgDpFirstCmd
	.thumb
	.thumb_func
	.type	FlashProgDpFirstCmd, %function
FlashProgDpFirstCmd:
	.fnstart
	@ args = 0, pretend = 0, frame = 0
	@ frame_needed = 0, uses_anonymous_args = 0
	@ link register save eliminated.
	ldr	r2, .L70
	add	r0, r2, r0, lsl #3
	ldrb	r2, [r2, #54]	@ zero_extendqisi2
	ldrb	r1, [r0, #16]	@ zero_extendqisi2
	ldr	r3, [r0, #12]
	add	r3, r3, r1, lsl #8
	str	r2, [r3, #2056]
	bx	lr
.L71:
	.align	2
.L70:
	.word	.LANCHOR0
	.fnend
	.size	FlashProgDpFirstCmd, .-FlashProgDpFirstCmd
	.align	1
	.global	js_hash
	.thumb
	.thumb_func
	.type	js_hash, %function
js_hash:
	.fnstart
	@ args = 0, pretend = 0, frame = 0
	@ frame_needed = 0, uses_anonymous_args = 0
	ldr	r3, .L76
	add	r1, r1, r0
	push	{r4, lr}
	.save {r4, lr}
.L73:
	cmp	r0, r1
	beq	.L75
	lsls	r2, r3, #5
	ldrb	r4, [r0], #1	@ zero_extendqisi2
	add	r2, r2, r3, lsr #2
	add	r2, r2, r4
	eors	r3, r3, r2
	b	.L73
.L75:
	mov	r0, r3
	pop	{r4, pc}
.L77:
	.align	2
.L76:
	.word	1204201446
	.fnend
	.size	js_hash, .-js_hash
	.align	1
	.global	FlashLoadIdbInfo
	.thumb
	.thumb_func
	.type	FlashLoadIdbInfo, %function
FlashLoadIdbInfo:
	.fnstart
	@ args = 0, pretend = 0, frame = 0
	@ frame_needed = 0, uses_anonymous_args = 0
	@ link register save eliminated.
	movs	r0, #0
	bx	lr
	.fnend
	.size	FlashLoadIdbInfo, .-FlashLoadIdbInfo
	.align	1
	.global	FlashPrintInfo
	.thumb
	.thumb_func
	.type	FlashPrintInfo, %function
FlashPrintInfo:
	.fnstart
	@ args = 0, pretend = 0, frame = 0
	@ frame_needed = 0, uses_anonymous_args = 0
	@ link register save eliminated.
	bx	lr
	.fnend
	.size	FlashPrintInfo, .-FlashPrintInfo
	.align	1
	.global	ftl_flash_suspend
	.thumb
	.thumb_func
	.type	ftl_flash_suspend, %function
ftl_flash_suspend:
	.fnstart
	@ args = 0, pretend = 0, frame = 0
	@ frame_needed = 0, uses_anonymous_args = 0
	@ link register save eliminated.
	ldr	r3, .L81
	ldr	r2, [r3, #76]
	ldr	r1, [r2]
	str	r1, [r3, #80]
	ldr	r1, [r2, #4]
	str	r1, [r3, #84]
	ldr	r1, [r2, #8]
	str	r1, [r3, #88]
	ldr	r1, [r2, #12]
	str	r1, [r3, #92]
	ldr	r1, [r2, #304]
	str	r1, [r3, #96]
	ldr	r1, [r2, #308]
	str	r1, [r3, #100]
	ldr	r1, [r2, #336]
	ldr	r2, [r2, #344]
	str	r1, [r3, #104]
	str	r2, [r3, #108]
	bx	lr
.L82:
	.align	2
.L81:
	.word	.LANCHOR0
	.fnend
	.size	ftl_flash_suspend, .-ftl_flash_suspend
	.global	__aeabi_uidiv
	.align	1
	.global	LogAddr2PhyAddr
	.thumb
	.thumb_func
	.type	LogAddr2PhyAddr, %function
LogAddr2PhyAddr:
	.fnstart
	@ args = 4, pretend = 0, frame = 8
	@ frame_needed = 0, uses_anonymous_args = 0
	push	{r0, r1, r2, r4, r5, r6, r7, r8, r9, r10, fp, lr}
	.save {r4, r5, r6, r7, r8, r9, r10, fp, lr}
	.pad #12
	mov	r7, r0
	ldr	r0, .L88
	mov	r8, r3
	ldr	r4, [r7, #4]
	mov	r10, r1
	mov	r9, r2
	ldrh	r3, [r0, #126]
	bic	r4, r4, #-2147483648
	ldrh	r5, [r0, #124]
	mov	r6, r0
	ldrh	fp, [r0, #4]
	smulbb	r5, r5, r3
	ldrb	r3, [r0]	@ zero_extendqisi2
	cmp	r3, #1
	ubfx	r3, r4, #10, #16
	it	eq
	lsleq	fp, fp, #1
	str	r3, [sp, #4]
	mov	r0, r3
	uxth	r5, r5
	it	eq
	uxtheq	fp, fp
	mov	r1, r5
	bl	__aeabi_uidiv
	cmp	r10, #1
	ubfx	r1, r4, #0, #10
	uxth	r0, r0
	ldr	r3, [sp, #4]
	smulbb	r5, r0, r5
	sub	r3, r3, r5
	uxth	r3, r3
	bne	.L85
	ldrb	r2, [r6, #140]	@ zero_extendqisi2
	cbnz	r2, .L85
	ldr	r2, .L88
	add	r1, r2, r1, lsl #1
	ldrh	r1, [r1, #144]
.L85:
	add	r6, r6, r0, lsl #2
	ldr	r2, [r6, #656]
	mla	fp, fp, r3, r2
	ldrb	r3, [sp, #48]	@ zero_extendqisi2
	cmp	r3, #1
	add	r1, r1, fp
	str	r1, [r9]
	str	r0, [r8]
	bls	.L87
	ldr	r0, [r7, #4]
	ldr	r3, [r7, #40]
	add	r0, r0, #1024
	subs	r3, r0, r3
	rsbs	r0, r3, #0
	adcs	r0, r0, r3
	b	.L86
.L87:
	movs	r0, #0
.L86:
	add	sp, sp, #12
	@ sp needed
	pop	{r4, r5, r6, r7, r8, r9, r10, fp, pc}
.L89:
	.align	2
.L88:
	.word	.LANCHOR0
	.fnend
	.size	LogAddr2PhyAddr, .-LogAddr2PhyAddr
	.align	1
	.global	FlashScheduleEnSet
	.thumb
	.thumb_func
	.type	FlashScheduleEnSet, %function
FlashScheduleEnSet:
	.fnstart
	@ args = 0, pretend = 0, frame = 0
	@ frame_needed = 0, uses_anonymous_args = 0
	@ link register save eliminated.
	ldr	r3, .L91
	ldr	r2, [r3, #688]
	str	r0, [r3, #688]
	mov	r0, r2
	bx	lr
.L92:
	.align	2
.L91:
	.word	.LANCHOR0
	.fnend
	.size	FlashScheduleEnSet, .-FlashScheduleEnSet
	.align	1
	.global	FlashGetPageSize
	.thumb
	.thumb_func
	.type	FlashGetPageSize, %function
FlashGetPageSize:
	.fnstart
	@ args = 0, pretend = 0, frame = 0
	@ frame_needed = 0, uses_anonymous_args = 0
	@ link register save eliminated.
	ldr	r3, .L94
	ldr	r3, [r3, #692]
	ldrb	r0, [r3, #9]	@ zero_extendqisi2
	bx	lr
.L95:
	.align	2
.L94:
	.word	.LANCHOR0
	.fnend
	.size	FlashGetPageSize, .-FlashGetPageSize
	.align	1
	.global	NandcReadDontCaseBusyEn
	.thumb
	.thumb_func
	.type	NandcReadDontCaseBusyEn, %function
NandcReadDontCaseBusyEn:
	.fnstart
	@ args = 0, pretend = 0, frame = 0
	@ frame_needed = 0, uses_anonymous_args = 0
	@ link register save eliminated.
	bx	lr
	.fnend
	.size	NandcReadDontCaseBusyEn, .-NandcReadDontCaseBusyEn
	.align	1
	.global	NandcGetChipIf
	.thumb
	.thumb_func
	.type	NandcGetChipIf, %function
NandcGetChipIf:
	.fnstart
	@ args = 0, pretend = 0, frame = 0
	@ frame_needed = 0, uses_anonymous_args = 0
	@ link register save eliminated.
	ldr	r3, .L98
	add	r0, r3, r0, lsl #3
	ldrb	r2, [r0, #16]	@ zero_extendqisi2
	ldr	r0, [r0, #12]
	adds	r2, r2, #8
	add	r0, r0, r2, lsl #8
	bx	lr
.L99:
	.align	2
.L98:
	.word	.LANCHOR0
	.fnend
	.size	NandcGetChipIf, .-NandcGetChipIf
	.align	1
	.global	NandcSetDdrPara
	.thumb
	.thumb_func
	.type	NandcSetDdrPara, %function
NandcSetDdrPara:
	.fnstart
	@ args = 0, pretend = 0, frame = 0
	@ frame_needed = 0, uses_anonymous_args = 0
	@ link register save eliminated.
	ldr	r3, .L101
	ldr	r2, [r3, #76]
	lsls	r3, r0, #8
	orr	r0, r3, r0, lsl #16
	orr	r3, r0, #1
	str	r3, [r2, #304]
	bx	lr
.L102:
	.align	2
.L101:
	.word	.LANCHOR0
	.fnend
	.size	NandcSetDdrPara, .-NandcSetDdrPara
	.align	1
	.global	NandcSetDdrDiv
	.thumb
	.thumb_func
	.type	NandcSetDdrDiv, %function
NandcSetDdrDiv:
	.fnstart
	@ args = 0, pretend = 0, frame = 0
	@ frame_needed = 0, uses_anonymous_args = 0
	@ link register save eliminated.
	ldr	r3, .L104
	orr	r0, r0, #16640
	ldr	r3, [r3, #76]
	str	r0, [r3, #344]
	bx	lr
.L105:
	.align	2
.L104:
	.word	.LANCHOR0
	.fnend
	.size	NandcSetDdrDiv, .-NandcSetDdrDiv
	.align	1
	.global	NandcSetDdrMode
	.thumb
	.thumb_func
	.type	NandcSetDdrMode, %function
NandcSetDdrMode:
	.fnstart
	@ args = 0, pretend = 0, frame = 0
	@ frame_needed = 0, uses_anonymous_args = 0
	@ link register save eliminated.
	ldr	r3, .L109
	ldr	r2, [r3, #76]
	ldr	r3, [r2]
	cbnz	r0, .L107
	bfi	r3, r0, #13, #1
	b	.L108
.L107:
	orr	r3, r3, #253952
.L108:
	str	r3, [r2]
	bx	lr
.L110:
	.align	2
.L109:
	.word	.LANCHOR0
	.fnend
	.size	NandcSetDdrMode, .-NandcSetDdrMode
	.align	1
	.global	NandcSetMode
	.thumb
	.thumb_func
	.type	NandcSetMode, %function
NandcSetMode:
	.fnstart
	@ args = 0, pretend = 0, frame = 0
	@ frame_needed = 0, uses_anonymous_args = 0
	@ link register save eliminated.
	ldr	r3, .L118
	ands	r1, r0, #6
	ldr	r2, [r3, #76]
	ldr	r3, [r2]
	beq	.L112
	orr	r3, r3, #24576
	lsls	r1, r0, #29
	bfc	r3, #15, #1
	movw	r1, #8322
	orr	r3, r3, #196608
	str	r1, [r2, #344]
	add	r1, r1, #1040384
	it	mi
	orrmi	r3, r3, #32768
	addw	r1, r1, #3969
	str	r1, [r2, #304]
	movs	r1, #38
	str	r1, [r2, #308]
	movs	r1, #39
	str	r1, [r2, #308]
	b	.L114
.L112:
	bfi	r3, r1, #13, #1
.L114:
	str	r3, [r2]
	movs	r0, #0
	bx	lr
.L119:
	.align	2
.L118:
	.word	.LANCHOR0
	.fnend
	.size	NandcSetMode, .-NandcSetMode
	.align	1
	.global	NandcFlashCs
	.thumb
	.thumb_func
	.type	NandcFlashCs, %function
NandcFlashCs:
	.fnstart
	@ args = 0, pretend = 0, frame = 0
	@ frame_needed = 0, uses_anonymous_args = 0
	@ link register save eliminated.
	ldr	r2, .L121
	add	r0, r2, r0, lsl #3
	movs	r2, #1
	ldr	r1, [r0, #12]
	ldrb	r0, [r0, #16]	@ zero_extendqisi2
	ldr	r3, [r1]
	lsls	r2, r2, r0
	bfi	r3, r2, #0, #8
	str	r3, [r1]
	bx	lr
.L122:
	.align	2
.L121:
	.word	.LANCHOR0
	.fnend
	.size	NandcFlashCs, .-NandcFlashCs
	.align	1
	.global	NandcFlashDeCs
	.thumb
	.thumb_func
	.type	NandcFlashDeCs, %function
NandcFlashDeCs:
	.fnstart
	@ args = 0, pretend = 0, frame = 0
	@ frame_needed = 0, uses_anonymous_args = 0
	@ link register save eliminated.
	ldr	r3, .L124
	add	r0, r3, r0, lsl #3
	ldr	r2, [r0, #12]
	ldr	r3, [r2]
	bfc	r3, #0, #8
	bfc	r3, #17, #1
	str	r3, [r2]
	bx	lr
.L125:
	.align	2
.L124:
	.word	.LANCHOR0
	.fnend
	.size	NandcFlashDeCs, .-NandcFlashDeCs
	.align	1
	.global	NandcDelayns
	.thumb
	.thumb_func
	.type	NandcDelayns, %function
NandcDelayns:
	.fnstart
	@ args = 0, pretend = 0, frame = 0
	@ frame_needed = 0, uses_anonymous_args = 0
	push	{r3, lr}
	.save {r3, lr}
	addw	r0, r0, #999
	ldr	r3, .L127
	umull	r0, r1, r0, r3
	ldr	r3, .L127+4
	ldr	r3, [r3, #8]
	lsrs	r0, r1, #6
	blx	r3
	movs	r0, #0
	pop	{r3, pc}
.L128:
	.align	2
.L127:
	.word	274877907
	.word	arm_delay_ops
	.fnend
	.size	NandcDelayns, .-NandcDelayns
	.align	1
	.global	FlashReadStatus
	.thumb
	.thumb_func
	.type	FlashReadStatus, %function
FlashReadStatus:
	.fnstart
	@ args = 0, pretend = 0, frame = 0
	@ frame_needed = 0, uses_anonymous_args = 0
	push	{r3, r4, r5, lr}
	.save {r3, r4, r5, lr}
	movs	r2, #112
	ldr	r3, .L130
	add	r0, r3, r0, lsl #3
	ldrb	r4, [r0, #16]	@ zero_extendqisi2
	ldr	r5, [r0, #12]
	movs	r0, #80
	add	r3, r5, r4, lsl #8
	adds	r4, r4, #8
	str	r2, [r3, #2056]
	lsls	r4, r4, #8
	bl	NandcDelayns
	ldr	r0, [r5, r4]
	pop	{r3, r4, r5, pc}
.L131:
	.align	2
.L130:
	.word	.LANCHOR0
	.fnend
	.size	FlashReadStatus, .-FlashReadStatus
	.align	1
	.global	ToshibaSetRRPara
	.thumb
	.thumb_func
	.type	ToshibaSetRRPara, %function
ToshibaSetRRPara:
	.fnstart
	@ args = 0, pretend = 0, frame = 0
	@ frame_needed = 0, uses_anonymous_args = 0
	push	{r4, r5, r6, r7, r8, r9, r10, lr}
	.save {r4, r5, r6, r7, r8, r9, r10, lr}
	add	r8, r1, r1, lsl #2
	ldr	r9, .L141+8
	movs	r4, #0
	ldr	r7, .L141
	mov	r5, r0
	add	r10, r9, #256
	mov	r6, r1
.L133:
	ldrb	r3, [r7, #697]	@ zero_extendqisi2
	cmp	r4, r3
	bcs	.L140
	movs	r3, #85
	str	r3, [r5, #8]
	ldrsb	r3, [r4, r10]
	movs	r0, #200
	str	r3, [r5, #4]
	bl	NandcDelayns
	ldrb	r3, [r7, #696]	@ zero_extendqisi2
	cmp	r3, #34
	bne	.L134
	add	r3, r4, r8
	add	r3, r3, r10
	b	.L139
.L134:
	cmp	r3, #35
	bne	.L136
	ldr	r2, .L141+4
	add	r3, r4, r8
	add	r3, r3, r2
.L139:
	ldrsb	r3, [r3, #5]
	b	.L138
.L136:
	add	r3, r9, r6
	ldrsb	r3, [r3, #400]
.L138:
	str	r3, [r5]
	adds	r4, r4, #1
	b	.L133
.L140:
	pop	{r4, r5, r6, r7, r8, r9, r10, pc}
.L142:
	.align	2
.L141:
	.word	.LANCHOR0
	.word	.LANCHOR1+304
	.word	.LANCHOR1
	.fnend
	.size	ToshibaSetRRPara, .-ToshibaSetRRPara
	.align	1
	.global	SamsungSetRRPara
	.thumb
	.thumb_func
	.type	SamsungSetRRPara, %function
SamsungSetRRPara:
	.fnstart
	@ args = 0, pretend = 0, frame = 0
	@ frame_needed = 0, uses_anonymous_args = 0
	ldr	r3, .L147
	push	{r4, r5, r6, r7, r8, r9, r10, lr}
	.save {r4, r5, r6, r7, r8, r9, r10, lr}
	add	r1, r3, r1, lsl #2
	movs	r4, #0
	ldr	r8, .L147+4
	adds	r5, r1, #3
	mov	r9, #161
	mov	r6, r0
	mov	r7, r3
	mov	r10, r4
.L144:
	ldrb	r3, [r8, #697]	@ zero_extendqisi2
	cmp	r4, r3
	bcs	.L146
	str	r9, [r6, #8]
	mov	r0, #300
	str	r10, [r6]
	ldrsb	r3, [r7, r4]
	adds	r4, r4, #1
	str	r3, [r6]
	ldrsb	r3, [r5, #1]!
	str	r3, [r6]
	bl	NandcDelayns
	b	.L144
.L146:
	pop	{r4, r5, r6, r7, r8, r9, r10, pc}
.L148:
	.align	2
.L147:
	.word	.LANCHOR1+408
	.word	.LANCHOR0
	.fnend
	.size	SamsungSetRRPara, .-SamsungSetRRPara
	.align	1
	.global	HynixSetRRPara
	.thumb
	.thumb_func
	.type	HynixSetRRPara, %function
HynixSetRRPara:
	.fnstart
	@ args = 0, pretend = 0, frame = 8
	@ frame_needed = 0, uses_anonymous_args = 0
	push	{r0, r1, r2, r4, r5, r6, r7, r8, r9, r10, fp, lr}
	.save {r4, r5, r6, r7, r8, r9, r10, fp, lr}
	.pad #12
	mov	r7, r3
	ldr	r5, .L157
	mov	r6, r0
	mov	r9, r1
	mov	fp, r2
	ldr	r3, [r5, #692]
	ldrb	r4, [r3, #19]	@ zero_extendqisi2
	lsls	r3, r0, #3
	cmp	r4, #6
	bne	.L150
	add	r4, r5, r0, lsl #6
	addw	r4, r4, #718
	add	r4, r4, r7, lsl #2
	b	.L151
.L150:
	cmp	r4, #7
	bne	.L152
	mov	r10, #160
	add	r4, r7, r7, lsl #2
	mla	r10, r10, r0, r5
	addw	r10, r10, #726
	add	r4, r10, r4, lsl #1
	b	.L151
.L152:
	cmp	r4, #8
	iteet	ne
	addne	r4, r7, r3
	addweq	r4, r5, #726
	addeq	r2, r7, r7, lsl #2
	addne	r4, r5, r4, lsl #3
	ite	eq
	addeq	r4, r4, r2
	addwne	r4, r4, #718
.L151:
	add	r3, r3, r5
	mov	r0, r6
	add	r9, r9, #-1
	subs	r4, r4, #1
	ldrb	r8, [r3, #16]	@ zero_extendqisi2
	add	r9, r9, fp
	ldr	r10, [r3, #12]
	bl	NandcFlashCs
	add	r1, fp, #-1
	movs	r2, #54
	lsl	r8, r8, #8
	add	r3, r10, r8
	mov	fp, r3
	str	r2, [r3, #2056]
.L154:
	cmp	r1, r9
	beq	.L156
	ldrb	r3, [r1, #1]!	@ zero_extendqisi2
	movs	r0, #200
	str	r3, [fp, #2052]
	str	r1, [sp, #4]
	bl	NandcDelayns
	ldrsb	r3, [r4, #1]!
	str	r3, [fp, #2048]
	ldr	r1, [sp, #4]
	b	.L154
.L156:
	add	r8, r8, r10
	movs	r3, #22
	mov	r0, r6
	add	r5, r5, r6
	str	r3, [r8, #2056]
	bl	NandcFlashDeCs
	strb	r7, [r5, #1552]
	add	sp, sp, #12
	@ sp needed
	pop	{r4, r5, r6, r7, r8, r9, r10, fp, pc}
.L158:
	.align	2
.L157:
	.word	.LANCHOR0
	.fnend
	.size	HynixSetRRPara, .-HynixSetRRPara
	.align	1
	.global	FlashSetReadRetryDefault
	.thumb
	.thumb_func
	.type	FlashSetReadRetryDefault, %function
FlashSetReadRetryDefault:
	.fnstart
	@ args = 0, pretend = 0, frame = 0
	@ frame_needed = 0, uses_anonymous_args = 0
	push	{r3, r4, r5, lr}
	.save {r3, r4, r5, lr}
	ldr	r3, .L165
	ldr	r2, [r3, #692]
	ldrb	r2, [r2, #19]	@ zero_extendqisi2
	subs	r2, r2, #1
	cmp	r2, #7
	bhi	.L159
	movs	r4, #0
	mov	r5, r3
.L160:
	ldr	r2, .L165+4
	uxtb	r0, r4
	ldrb	r3, [r2, r4, lsl #3]	@ zero_extendqisi2
	cmp	r3, #173
	bne	.L161
	ldrb	r1, [r5, #699]	@ zero_extendqisi2
	subw	r2, r2, #854
	movs	r3, #0
	bl	HynixSetRRPara
.L161:
	adds	r4, r4, #1
	cmp	r4, #4
	bne	.L160
.L159:
	pop	{r3, r4, r5, pc}
.L166:
	.align	2
.L165:
	.word	.LANCHOR0
	.word	.LANCHOR0+1556
	.fnend
	.size	FlashSetReadRetryDefault, .-FlashSetReadRetryDefault
	.align	1
	.global	FlashReadStatusEN
	.thumb
	.thumb_func
	.type	FlashReadStatusEN, %function
FlashReadStatusEN:
	.fnstart
	@ args = 0, pretend = 0, frame = 0
	@ frame_needed = 0, uses_anonymous_args = 0
	push	{r4, r5, r6, lr}
	.save {r4, r5, r6, lr}
	ldr	r5, .L177
	add	r0, r5, r0, lsl #3
	ldr	r3, [r5, #692]
	ldrb	r4, [r0, #16]	@ zero_extendqisi2
	ldr	r6, [r0, #12]
	ldrb	r3, [r3, #8]	@ zero_extendqisi2
	cmp	r3, #2
	lsl	r3, r4, #8
	add	r4, r4, #8
	bne	.L168
	cbnz	r2, .L169
	ldrb	r2, [r5, #57]	@ zero_extendqisi2
	b	.L176
.L169:
	ldrb	r2, [r5, #58]	@ zero_extendqisi2
.L176:
	add	r3, r3, r6
	str	r2, [r3, #2056]
	ldrb	r0, [r5, #59]	@ zero_extendqisi2
	cbz	r0, .L172
	movs	r3, #0
	add	r5, r6, r4, lsl #8
.L171:
	cmp	r3, r0
	bcs	.L172
	lsls	r2, r3, #3
	adds	r3, r3, #1
	lsr	r2, r1, r2
	uxtb	r2, r2
	str	r2, [r5, #4]
	b	.L171
.L168:
	add	r3, r3, r6
	movs	r2, #112
	str	r2, [r3, #2056]
.L172:
	movs	r0, #80
	lsls	r4, r4, #8
	bl	NandcDelayns
	ldr	r0, [r6, r4]
	uxtb	r0, r0
	pop	{r4, r5, r6, pc}
.L178:
	.align	2
.L177:
	.word	.LANCHOR0
	.fnend
	.size	FlashReadStatusEN, .-FlashReadStatusEN
	.align	1
	.global	FlashWaitReadyEN
	.thumb
	.thumb_func
	.type	FlashWaitReadyEN, %function
FlashWaitReadyEN:
	.fnstart
	@ args = 0, pretend = 0, frame = 0
	@ frame_needed = 0, uses_anonymous_args = 0
	push	{r4, r5, r6, lr}
	.save {r4, r5, r6, lr}
	mov	r4, r0
	mov	r5, r1
	mov	r6, r2
.L183:
	mov	r0, r4
	mov	r1, r5
	mov	r2, r6
	bl	FlashReadStatusEN
	cmp	r0, #255
	mov	r3, r0
	beq	.L183
	lsls	r3, r3, #25
	bpl	.L183
	pop	{r4, r5, r6, pc}
	.fnend
	.size	FlashWaitReadyEN, .-FlashWaitReadyEN
	.align	1
	.global	FlashWaitCmdDone
	.thumb
	.thumb_func
	.type	FlashWaitCmdDone, %function
FlashWaitCmdDone:
	.fnstart
	@ args = 0, pretend = 0, frame = 0
	@ frame_needed = 0, uses_anonymous_args = 0
	push	{r3, r4, r5, r6, r7, r8, r9, lr}
	.save {r3, r4, r5, r6, r7, r8, r9, lr}
	mov	r8, r0
	ldr	r5, .L193
	add	r4, r5, r0, lsl #4
	ldr	r3, [r4, #1596]
	ldrb	r6, [r4, #1588]	@ zero_extendqisi2
	cbz	r3, .L188
	add	r5, r5, r8, lsl #2
	mov	r0, r6
	bl	NandcFlashCs
	ldr	r1, [r4, #1592]
	ldr	r2, [r5, #656]
	mov	r0, r6
	adds	r2, r2, #0
	it	ne
	movne	r2, #1
	bl	FlashWaitReadyEN
	mov	r5, r0
	mov	r0, r6
	bl	NandcFlashDeCs
	ldr	r2, [r4, #1596]
	sbfx	r3, r5, #0, #1
	str	r3, [r2]
	movs	r2, #0
	ldr	r1, [r4, #1600]
	str	r2, [r4, #1596]
	cbz	r1, .L188
	str	r3, [r1]
	str	r2, [r4, #1600]
.L188:
	movs	r0, #0
	pop	{r3, r4, r5, r6, r7, r8, r9, pc}
.L194:
	.align	2
.L193:
	.word	.LANCHOR0
	.fnend
	.size	FlashWaitCmdDone, .-FlashWaitCmdDone
	.align	1
	.thumb
	.thumb_func
	.type	flash_read_ecc, %function
flash_read_ecc:
	.fnstart
	@ args = 0, pretend = 0, frame = 0
	@ frame_needed = 0, uses_anonymous_args = 0
	ldr	r2, .L196
	push	{r4, lr}
	.save {r4, lr}
	add	r0, r2, r0, lsl #3
	ldrb	r4, [r0, #16]	@ zero_extendqisi2
	ldr	r3, [r0, #12]
	movs	r0, #80
	add	r4, r3, r4, lsl #8
	movs	r3, #122
	str	r3, [r4, #2056]
	bl	NandcDelayns
	ldr	r3, [r4, #2048]
	ldr	r0, [r4, #2048]
	and	r3, r3, #15
	and	r0, r0, #15
	cmp	r0, r3
	it	cc
	movcc	r0, r3
	ldr	r3, [r4, #2048]
	and	r3, r3, #15
	cmp	r0, r3
	it	cc
	movcc	r0, r3
	ldr	r3, [r4, #2048]
	and	r3, r3, #15
	cmp	r0, r3
	it	cc
	movcc	r0, r3
	pop	{r4, pc}
.L197:
	.align	2
.L196:
	.word	.LANCHOR0
	.fnend
	.size	flash_read_ecc, .-flash_read_ecc
	.align	1
	.global	NandcWaitFlashReadyNoDelay
	.thumb
	.thumb_func
	.type	NandcWaitFlashReadyNoDelay, %function
NandcWaitFlashReadyNoDelay:
	.fnstart
	@ args = 0, pretend = 0, frame = 8
	@ frame_needed = 0, uses_anonymous_args = 0
	ldr	r3, .L203
	push	{r0, r1, r2, r4, r5, lr}
	.save {r4, r5, lr}
	.pad #12
	add	r0, r3, r0, lsl #3
	ldr	r4, .L203+4
	ldr	r5, [r0, #12]
.L200:
	ldr	r3, [r5]
	str	r3, [sp, #4]
	ldr	r3, [sp, #4]
	lsls	r3, r3, #22
	bmi	.L201
	movs	r0, #10
	bl	NandcDelayns
	subs	r4, r4, #1
	bne	.L200
	mov	r0, #-1
	b	.L199
.L201:
	movs	r0, #0
.L199:
	add	sp, sp, #12
	@ sp needed
	pop	{r4, r5, pc}
.L204:
	.align	2
.L203:
	.word	.LANCHOR0
	.word	100000
	.fnend
	.size	NandcWaitFlashReadyNoDelay, .-NandcWaitFlashReadyNoDelay
	.align	1
	.global	NandcWaitFlashReady
	.thumb
	.thumb_func
	.type	NandcWaitFlashReady, %function
NandcWaitFlashReady:
	.fnstart
	@ args = 0, pretend = 0, frame = 8
	@ frame_needed = 0, uses_anonymous_args = 0
	ldr	r3, .L210
	push	{r0, r1, r2, r4, r5, lr}
	.save {r4, r5, lr}
	.pad #12
	add	r0, r3, r0, lsl #3
	ldr	r4, .L210+4
	ldr	r5, [r0, #12]
	movs	r0, #150
	bl	NandcDelayns
.L207:
	ldr	r3, [r5]
	str	r3, [sp, #4]
	ldr	r3, [sp, #4]
	lsls	r3, r3, #22
	bmi	.L208
	movs	r0, #10
	bl	NandcDelayns
	subs	r4, r4, #1
	bne	.L207
	mov	r0, #-1
	b	.L206
.L208:
	movs	r0, #0
.L206:
	add	sp, sp, #12
	@ sp needed
	pop	{r4, r5, pc}
.L211:
	.align	2
.L210:
	.word	.LANCHOR0
	.word	100000
	.fnend
	.size	NandcWaitFlashReady, .-NandcWaitFlashReady
	.align	1
	.global	FlashReset
	.thumb
	.thumb_func
	.type	FlashReset, %function
FlashReset:
	.fnstart
	@ args = 0, pretend = 0, frame = 0
	@ frame_needed = 0, uses_anonymous_args = 0
	ldr	r3, .L213
	push	{r4, r5, r6, lr}
	.save {r4, r5, r6, lr}
	add	r3, r3, r0, lsl #3
	mov	r4, r0
	ldrb	r6, [r3, #16]	@ zero_extendqisi2
	ldr	r5, [r3, #12]
	bl	NandcFlashCs
	movs	r3, #255
	mov	r0, r4
	add	r5, r5, r6, lsl #8
	str	r3, [r5, #2056]
	bl	NandcWaitFlashReady
	mov	r0, r4
	pop	{r4, r5, r6, lr}
	b	NandcFlashDeCs
.L214:
	.align	2
.L213:
	.word	.LANCHOR0
	.fnend
	.size	FlashReset, .-FlashReset
	.align	1
	.global	flash_enter_slc_mode
	.thumb
	.thumb_func
	.type	flash_enter_slc_mode, %function
flash_enter_slc_mode:
	.fnstart
	@ args = 0, pretend = 0, frame = 0
	@ frame_needed = 0, uses_anonymous_args = 0
	push	{r3, r4, r5, lr}
	.save {r3, r4, r5, lr}
	mov	r5, r0
	ldr	r4, .L217
	ldrb	r3, [r4, #140]	@ zero_extendqisi2
	cbz	r3, .L215
	add	r4, r4, r5, lsl #3
	bl	NandcFlashCs
	movs	r0, #100
	ldr	r3, [r4, #12]
	ldrb	r4, [r4, #16]	@ zero_extendqisi2
	add	r4, r3, r4, lsl #8
	movs	r3, #239
	str	r3, [r4, #2056]
	movs	r3, #145
	str	r3, [r4, #2052]
	bl	NandcDelayns
	movs	r3, #0
	movs	r2, #1
	str	r3, [r4, #2048]
	movs	r0, #100
	str	r2, [r4, #2048]
	str	r3, [r4, #2048]
	str	r3, [r4, #2048]
	bl	NandcDelayns
	mov	r0, r5
	bl	NandcWaitFlashReadyNoDelay
	movs	r3, #218
	mov	r0, r5
	str	r3, [r4, #2056]
	pop	{r3, r4, r5, lr}
	b	NandcWaitFlashReady
.L215:
	pop	{r3, r4, r5, pc}
.L218:
	.align	2
.L217:
	.word	.LANCHOR0
	.fnend
	.size	flash_enter_slc_mode, .-flash_enter_slc_mode
	.align	1
	.global	flash_exit_slc_mode
	.thumb
	.thumb_func
	.type	flash_exit_slc_mode, %function
flash_exit_slc_mode:
	.fnstart
	@ args = 0, pretend = 0, frame = 0
	@ frame_needed = 0, uses_anonymous_args = 0
	push	{r3, r4, r5, lr}
	.save {r3, r4, r5, lr}
	mov	r5, r0
	ldr	r4, .L221
	ldrb	r3, [r4, #140]	@ zero_extendqisi2
	cbz	r3, .L219
	add	r4, r4, r5, lsl #3
	bl	NandcFlashCs
	movs	r0, #100
	ldr	r3, [r4, #12]
	ldrb	r4, [r4, #16]	@ zero_extendqisi2
	add	r4, r3, r4, lsl #8
	movs	r3, #239
	str	r3, [r4, #2056]
	movs	r3, #145
	str	r3, [r4, #2052]
	bl	NandcDelayns
	movs	r3, #2
	movs	r0, #100
	str	r3, [r4, #2048]
	movs	r3, #1
	str	r3, [r4, #2048]
	movs	r3, #0
	str	r3, [r4, #2048]
	str	r3, [r4, #2048]
	bl	NandcDelayns
	mov	r0, r5
	bl	NandcWaitFlashReadyNoDelay
	movs	r3, #223
	mov	r0, r5
	str	r3, [r4, #2056]
	pop	{r3, r4, r5, lr}
	b	NandcWaitFlashReady
.L219:
	pop	{r3, r4, r5, pc}
.L222:
	.align	2
.L221:
	.word	.LANCHOR0
	.fnend
	.size	flash_exit_slc_mode, .-flash_exit_slc_mode
	.align	1
	.global	FlashEraseBlock
	.thumb
	.thumb_func
	.type	FlashEraseBlock, %function
FlashEraseBlock:
	.fnstart
	@ args = 0, pretend = 0, frame = 0
	@ frame_needed = 0, uses_anonymous_args = 0
	push	{r4, r5, r6, lr}
	.save {r4, r5, r6, lr}
	mov	r4, r0
	mov	r5, r1
	mov	r6, r2
	bl	NandcWaitFlashReady
	mov	r0, r4
	bl	NandcFlashCs
	mov	r2, r6
	mov	r1, r5
	mov	r0, r4
	bl	FlashEraseCmd
	mov	r0, r4
	bl	NandcWaitFlashReady
	mov	r1, r5
	mov	r0, r4
	bl	FlashReadStatus
	mov	r5, r0
	mov	r0, r4
	bl	NandcFlashDeCs
	and	r0, r5, #1
	pop	{r4, r5, r6, pc}
	.fnend
	.size	FlashEraseBlock, .-FlashEraseBlock
	.align	1
	.global	FlashSetInterfaceMode
	.thumb
	.thumb_func
	.type	FlashSetInterfaceMode, %function
FlashSetInterfaceMode:
	.fnstart
	@ args = 0, pretend = 0, frame = 16
	@ frame_needed = 0, uses_anonymous_args = 0
	push	{r4, r5, r6, r7, r8, r9, r10, fp, lr}
	.save {r4, r5, r6, r7, r8, r9, r10, fp, lr}
	.pad #20
	sub	sp, sp, #20
	ldr	r5, .L252
	movs	r4, #0
	movs	r7, #239
	mov	lr, #128
	mov	ip, #1
	mov	r8, #35
	ldrb	r3, [r5, #1716]	@ zero_extendqisi2
	mov	r9, #32
	mov	r10, #5
	and	r2, r3, #1
	str	r2, [sp, #12]
	and	r2, r3, #4
	uxtb	r3, r2
	mov	r2, r4
	str	r3, [sp, #8]
	add	r3, r5, #12
	str	r3, [sp, #4]
.L234:
	ldr	r1, .L252+4
	ldr	r3, [sp, #4]
	ldrb	r1, [r4, r1]	@ zero_extendqisi2
	ldr	r6, [r4, r3]
	add	r3, r3, r4
	cmp	r1, #152
	ldr	r3, [r3, #4]
	beq	.L225
	cmp	r1, #69
	beq	.L225
	cmp	r1, #173
	beq	.L225
	cmp	r1, #44
	bne	.L226
.L225:
	cmp	r0, #1
	uxtb	r3, r3
	bne	.L227
	ldr	r5, [sp, #12]
	cbz	r5, .L226
	lsls	r3, r3, #8
	cmp	r1, #173
	add	fp, r6, r3
	str	r7, [fp, #2056]
	bne	.L228
	str	r0, [fp, #2052]
	b	.L251
.L228:
	cmp	r1, #44
	itete	eq
	streq	r0, [fp, #2052]
	strne	lr, [fp, #2052]
	streq	r10, [fp, #2048]
	strne	r0, [fp, #2048]
	b	.L232
.L227:
	ldr	r5, [sp, #8]
	cbz	r5, .L226
	lsls	r3, r3, #8
	cmp	r1, #173
	add	fp, r6, r3
	str	r7, [fp, #2056]
	bne	.L231
	str	ip, [fp, #2052]
	str	r9, [fp, #2048]
	b	.L232
.L231:
	cmp	r1, #44
	bne	.L233
	str	ip, [fp, #2052]
	str	r8, [fp, #2048]
	b	.L232
.L233:
	str	lr, [fp, #2052]
.L251:
	str	r2, [fp, #2048]
.L232:
	add	r3, r3, r6
	str	r2, [r3, #2048]
	str	r2, [r3, #2048]
	str	r2, [r3, #2048]
.L226:
	adds	r4, r4, #8
	cmp	r4, #32
	bne	.L234
	movs	r0, #0
	bl	NandcWaitFlashReady
	movs	r0, #0
	add	sp, sp, #20
	@ sp needed
	pop	{r4, r5, r6, r7, r8, r9, r10, fp, pc}
.L253:
	.align	2
.L252:
	.word	.LANCHOR0
	.word	.LANCHOR0+1556
	.fnend
	.size	FlashSetInterfaceMode, .-FlashSetInterfaceMode
	.align	1
	.global	FlashReadSpare
	.thumb
	.thumb_func
	.type	FlashReadSpare, %function
FlashReadSpare:
	.fnstart
	@ args = 0, pretend = 0, frame = 0
	@ frame_needed = 0, uses_anonymous_args = 0
	push	{r4, r5, r6, lr}
	.save {r4, r5, r6, lr}
	mov	r6, r2
	ldr	r5, .L255
	ldr	r3, .L255+4
	add	r5, r5, r0, lsl #3
	ldrb	r3, [r3, #481]	@ zero_extendqisi2
	ldrb	r2, [r5, #16]	@ zero_extendqisi2
	ldr	r4, [r5, #12]
	lsls	r3, r3, #9
	add	r4, r4, r2, lsl #8
	movs	r2, #0
	str	r2, [r4, #2056]
	str	r3, [r4, #2052]
	lsrs	r3, r3, #8
	str	r3, [r4, #2052]
	uxtb	r3, r1
	str	r3, [r4, #2052]
	lsrs	r3, r1, #8
	lsrs	r1, r1, #16
	str	r3, [r4, #2052]
	movs	r3, #48
	str	r1, [r4, #2052]
	str	r3, [r4, #2056]
	bl	NandcWaitFlashReady
	ldr	r3, [r4, #2048]
	strb	r3, [r6]
	pop	{r4, r5, r6, pc}
.L256:
	.align	2
.L255:
	.word	.LANCHOR0
	.word	.LANCHOR1
	.fnend
	.size	FlashReadSpare, .-FlashReadSpare
	.align	1
	.global	SandiskProgTestBadBlock
	.thumb
	.thumb_func
	.type	SandiskProgTestBadBlock, %function
SandiskProgTestBadBlock:
	.fnstart
	@ args = 0, pretend = 0, frame = 0
	@ frame_needed = 0, uses_anonymous_args = 0
	ldr	r2, .L258
	push	{r4, lr}
	.save {r4, lr}
	add	r2, r2, r0, lsl #3
	ldrb	r4, [r2, #16]	@ zero_extendqisi2
	ldr	r3, [r2, #12]
	add	r4, r3, r4, lsl #8
	movs	r3, #162
	str	r3, [r4, #2056]
	movs	r3, #128
	str	r3, [r4, #2056]
	movs	r3, #0
	str	r3, [r4, #2052]
	str	r3, [r4, #2052]
	uxtb	r3, r1
	str	r3, [r4, #2052]
	lsrs	r3, r1, #8
	lsrs	r1, r1, #16
	str	r3, [r4, #2052]
	str	r1, [r4, #2052]
	movs	r3, #16
	str	r3, [r4, #2056]
	bl	NandcWaitFlashReady
	movs	r3, #112
	movs	r0, #80
	str	r3, [r4, #2056]
	bl	NandcDelayns
	ldr	r0, [r4, #2048]
	and	r0, r0, #1
	pop	{r4, pc}
.L259:
	.align	2
.L258:
	.word	.LANCHOR0
	.fnend
	.size	SandiskProgTestBadBlock, .-SandiskProgTestBadBlock
	.align	1
	.global	SandiskSetRRPara
	.thumb
	.thumb_func
	.type	SandiskSetRRPara, %function
SandiskSetRRPara:
	.fnstart
	@ args = 0, pretend = 0, frame = 0
	@ frame_needed = 0, uses_anonymous_args = 0
	push	{r4, r5, r6, lr}
	.save {r4, r5, r6, lr}
	movs	r3, #239
	mov	r5, r0
	str	r3, [r0, #8]
	movs	r3, #17
	str	r3, [r0, #4]
	movs	r0, #200
	mov	r4, r1
	bl	NandcDelayns
	ldr	r0, .L267
	ldr	r1, .L267+4
	add	r4, r4, r4, lsl #2
	movs	r2, #0
	sub	r6, r0, #48
.L261:
	ldrb	r3, [r1, #697]	@ zero_extendqisi2
	cmp	r2, r3
	bcs	.L266
	ldrb	r3, [r1, #696]	@ zero_extendqisi2
	cmp	r3, #67
	add	r3, r2, r4
	ite	eq
	addeq	r3, r3, r6
	addne	r3, r3, r0
	adds	r2, r2, #1
	ldrsb	r3, [r3, #5]
	str	r3, [r5]
	b	.L261
.L266:
	movs	r0, #0
	pop	{r4, r5, r6, lr}
	b	NandcWaitFlashReady
.L268:
	.align	2
.L267:
	.word	.LANCHOR1+304
	.word	.LANCHOR0
	.fnend
	.size	SandiskSetRRPara, .-SandiskSetRRPara
	.align	1
	.global	micron_auto_read_calibration_config
	.thumb
	.thumb_func
	.type	micron_auto_read_calibration_config, %function
micron_auto_read_calibration_config:
	.fnstart
	@ args = 0, pretend = 0, frame = 0
	@ frame_needed = 0, uses_anonymous_args = 0
	push	{r3, r4, r5, lr}
	.save {r3, r4, r5, lr}
	mov	r4, r0
	mov	r5, r1
	bl	NandcWaitFlashReady
	ldr	r3, .L270
	movs	r0, #200
	add	r2, r3, r4, lsl #3
	ldrb	r4, [r2, #16]	@ zero_extendqisi2
	ldr	r3, [r2, #12]
	add	r4, r3, r4, lsl #8
	movs	r3, #239
	str	r3, [r4, #2056]
	movs	r3, #150
	str	r3, [r4, #2052]
	bl	NandcDelayns
	str	r5, [r4, #2048]
	movs	r3, #0
	str	r3, [r4, #2048]
	str	r3, [r4, #2048]
	str	r3, [r4, #2048]
	pop	{r3, r4, r5, pc}
.L271:
	.align	2
.L270:
	.word	.LANCHOR0
	.fnend
	.size	micron_auto_read_calibration_config, .-micron_auto_read_calibration_config
	.align	1
	.global	FlashEraseSLc2KBlocks
	.thumb
	.thumb_func
	.type	FlashEraseSLc2KBlocks, %function
FlashEraseSLc2KBlocks:
	.fnstart
	@ args = 0, pretend = 0, frame = 16
	@ frame_needed = 0, uses_anonymous_args = 0
	push	{r4, r5, r6, r7, r8, r9, r10, lr}
	.save {r4, r5, r6, r7, r8, r9, r10, lr}
	movs	r5, #0
	ldr	r7, .L284
	.pad #24
	sub	sp, sp, #24
	ldr	r9, .L284+8
	mov	r6, r0
	mov	r10, r1
	mov	r8, r5
	ldr	r3, [r7]
	str	r3, [sp, #20]
.L273:
	cmp	r8, r10
	beq	.L283
	rsb	r3, r8, r10
	add	r2, sp, #12
	adds	r0, r6, r5
	movs	r1, #0
	uxtb	r3, r3
	str	r3, [sp]
	add	r3, sp, #16
	bl	LogAddr2PhyAddr
	ldrb	r2, [r9, #1717]	@ zero_extendqisi2
	ldr	r3, [sp, #16]
	cmp	r3, r2
	bcc	.L274
	mov	r3, #-1
	str	r3, [r6, r5]
	b	.L275
.L274:
	add	r2, r9, r3
	add	r3, r9, r3, lsl #4
	ldrb	r4, [r2, #1720]	@ zero_extendqisi2
	strb	r4, [r3, #1588]
	mov	r0, r4
	bl	NandcWaitFlashReady
	mov	r0, r4
	bl	NandcFlashCs
	movs	r2, #0
	mov	r0, r4
	ldr	r1, [sp, #12]
	bl	FlashEraseCmd
	mov	r0, r4
	bl	NandcWaitFlashReady
	mov	r0, r4
	ldr	r1, [sp, #12]
	bl	FlashReadStatus
	movs	r2, #0
	ldr	r3, [sp, #12]
	sbfx	r0, r0, #0, #1
	str	r0, [r6, r5]
	mov	r0, r4
	ldr	r1, [r9, #4]
	add	r1, r1, r3
	bl	FlashEraseCmd
	mov	r0, r4
	bl	NandcWaitFlashReady
	mov	r0, r4
	ldr	r1, [sp, #12]
	bl	FlashReadStatus
	lsls	r3, r0, #31
	itt	mi
	movmi	r3, #-1
	strmi	r3, [r6, r5]
	ldr	r3, [r6, r5]
	adds	r3, r3, #1
	bne	.L277
	ldr	r0, .L284+4
	ldr	r1, [sp, #12]
	bl	printk
.L277:
	mov	r0, r4
	bl	NandcFlashDeCs
.L275:
	add	r8, r8, #1
	adds	r5, r5, #36
	b	.L273
.L283:
	ldr	r2, [sp, #20]
	movs	r0, #0
	ldr	r3, [r7]
	cmp	r2, r3
	beq	.L279
	bl	__stack_chk_fail
.L279:
	add	sp, sp, #24
	@ sp needed
	pop	{r4, r5, r6, r7, r8, r9, r10, pc}
.L285:
	.align	2
.L284:
	.word	__stack_chk_guard
	.word	.LC1
	.word	.LANCHOR0
	.fnend
	.size	FlashEraseSLc2KBlocks, .-FlashEraseSLc2KBlocks
	.align	1
	.global	FlashReadDpCmd
	.thumb
	.thumb_func
	.type	FlashReadDpCmd, %function
FlashReadDpCmd:
	.fnstart
	@ args = 0, pretend = 0, frame = 0
	@ frame_needed = 0, uses_anonymous_args = 0
	ldr	r3, .L290
	push	{r4, r5, r6, r7, r8, r9, r10, lr}
	.save {r4, r5, r6, r7, r8, r9, r10, lr}
	mov	r5, r2
	add	r2, r3, r0, lsl #3
	ldrb	r6, [r3, #52]	@ zero_extendqisi2
	mov	r7, r1
	uxtb	lr, r1
	ldrb	r4, [r2, #16]	@ zero_extendqisi2
	uxtb	r10, r5
	ldr	ip, [r2, #12]
	lsr	r9, r5, #8
	ldrb	r2, [r3, #60]	@ zero_extendqisi2
	mov	r8, r0
	lsls	r4, r4, #8
	ldrb	r3, [r3, #53]	@ zero_extendqisi2
	cmp	r2, #1
	add	r4, r4, ip
	lsr	r2, r1, #8
	lsr	r5, r5, #16
	lsr	r1, r1, #16
	str	r6, [r4, #2056]
	bne	.L287
	movs	r6, #0
	str	r6, [r4, #2052]
	str	r6, [r4, #2052]
	str	lr, [r4, #2052]
	str	r2, [r4, #2052]
	str	r1, [r4, #2052]
	str	r3, [r4, #2056]
	bl	NandcWaitFlashReady
	str	r6, [r4, #2056]
	str	r6, [r4, #2052]
	str	r6, [r4, #2052]
	b	.L289
.L287:
	str	lr, [r4, #2052]
	str	r2, [r4, #2052]
	str	r1, [r4, #2052]
	str	r3, [r4, #2056]
.L289:
	str	r10, [r4, #2052]
	movs	r3, #48
	str	r9, [r4, #2052]
	mov	r0, r8
	str	r5, [r4, #2052]
	mov	r1, r7
	str	r3, [r4, #2056]
	pop	{r4, r5, r6, r7, r8, r9, r10, lr}
	b	FlashSetRandomizer
.L291:
	.align	2
.L290:
	.word	.LANCHOR0
	.fnend
	.size	FlashReadDpCmd, .-FlashReadDpCmd
	.align	1
	.global	ftl_flash_de_init
	.thumb
	.thumb_func
	.type	ftl_flash_de_init, %function
ftl_flash_de_init:
	.fnstart
	@ args = 0, pretend = 0, frame = 0
	@ frame_needed = 0, uses_anonymous_args = 0
	push	{r3, r4, r5, lr}
	.save {r3, r4, r5, lr}
	movs	r0, #0
	ldr	r4, .L302
	bl	NandcWaitFlashReady
	bl	FlashSetReadRetryDefault
	ldr	r0, [r4, #1728]
	cbz	r0, .L293
	movs	r0, #0
	bl	flash_enter_slc_mode
	b	.L294
.L293:
	bl	flash_exit_slc_mode
.L294:
	ldrb	r3, [r4, #1732]	@ zero_extendqisi2
	ldr	r5, .L302
	cbz	r3, .L295
	ldrb	r3, [r5, #1716]	@ zero_extendqisi2
	lsls	r3, r3, #31
	bpl	.L295
	movs	r0, #1
	bl	FlashSetInterfaceMode
	movs	r0, #1
	bl	NandcSetMode
	movs	r3, #0
	strb	r3, [r5, #1732]
.L295:
	ldr	r3, [r4, #12]
	movs	r0, #0
	str	r0, [r3, #336]
	pop	{r3, r4, r5, pc}
.L303:
	.align	2
.L302:
	.word	.LANCHOR0
	.fnend
	.size	ftl_flash_de_init, .-ftl_flash_de_init
	.align	1
	.global	NandcRandmzSel
	.thumb
	.thumb_func
	.type	NandcRandmzSel, %function
NandcRandmzSel:
	.fnstart
	@ args = 0, pretend = 0, frame = 0
	@ frame_needed = 0, uses_anonymous_args = 0
	@ link register save eliminated.
	ldr	r3, .L305
	add	r0, r3, r0, lsl #3
	ldr	r3, [r0, #12]
	str	r1, [r3, #336]
	bx	lr
.L306:
	.align	2
.L305:
	.word	.LANCHOR0
	.fnend
	.size	NandcRandmzSel, .-NandcRandmzSel
	.global	__aeabi_idiv
	.align	1
	.global	NandcTimeCfg
	.thumb
	.thumb_func
	.type	NandcTimeCfg, %function
NandcTimeCfg:
	.fnstart
	@ args = 0, pretend = 0, frame = 0
	@ frame_needed = 0, uses_anonymous_args = 0
	push	{r4, lr}
	.save {r4, lr}
	mov	r4, r0
	movs	r0, #0
	bl	rknand_get_clk_rate
	ldr	r1, .L317
	bl	__aeabi_idiv
	ldr	r3, .L317+4
	ldr	r3, [r3, #76]
	cmp	r0, #250
	ble	.L308
	movw	r2, #8354
	b	.L315
.L308:
	cmp	r0, #220
	bgt	.L316
	cmp	r0, #185
	ble	.L311
	movw	r2, #4226
	b	.L315
.L311:
	cmp	r0, #160
	ble	.L312
	movw	r2, #4194
	b	.L315
.L312:
	cmp	r4, #35
	bhi	.L313
	movw	r2, #4193
	b	.L315
.L313:
	cmp	r4, #99
	bls	.L314
.L316:
	movw	r2, #8322
	b	.L315
.L314:
	movw	r2, #4225
.L315:
	str	r2, [r3, #4]
	pop	{r4, pc}
.L318:
	.align	2
.L317:
	.word	1000000
	.word	.LANCHOR0
	.fnend
	.size	NandcTimeCfg, .-NandcTimeCfg
	.align	1
	.global	FlashTimingCfg
	.thumb
	.thumb_func
	.type	FlashTimingCfg, %function
FlashTimingCfg:
	.fnstart
	@ args = 0, pretend = 0, frame = 0
	@ frame_needed = 0, uses_anonymous_args = 0
	@ link register save eliminated.
	sub	r3, r0, #4192
	subs	r3, r3, #1
	cmp	r3, #1
	bls	.L320
	sub	r3, r0, #4224
	subs	r3, r3, #1
	cmp	r3, #1
	bls	.L320
	movw	r3, #8322
	cmp	r0, r3
	bne	.L321
.L320:
	ldr	r3, .L322
	ldr	r3, [r3, #76]
	str	r0, [r3, #4]
.L321:
	ldr	r3, .L322+4
	ldrb	r0, [r3, #493]	@ zero_extendqisi2
	b	NandcTimeCfg
.L323:
	.align	2
.L322:
	.word	.LANCHOR0
	.word	.LANCHOR1
	.fnend
	.size	FlashTimingCfg, .-FlashTimingCfg
	.align	1
	.global	NandcInit
	.thumb
	.thumb_func
	.type	NandcInit, %function
NandcInit:
	.fnstart
	@ args = 0, pretend = 0, frame = 0
	@ frame_needed = 0, uses_anonymous_args = 0
	push	{r3, r4, r5, lr}
	.save {r3, r4, r5, lr}
	movs	r1, #0
	ldr	r3, .L326
	movs	r2, #1
	movs	r5, #0
	str	r1, [r3, #16]
	str	r0, [r3, #12]
	str	r2, [r3, #24]
	movs	r2, #2
	str	r0, [r3, #20]
	str	r2, [r3, #32]
	movs	r2, #3
	str	r0, [r3, #28]
	str	r0, [r3, #36]
	str	r0, [r3, #76]
	str	r2, [r3, #40]
	ldr	r2, [r0]
	and	r2, r2, #253952
	ubfx	r4, r2, #13, #1
	bfi	r2, r1, #13, #1
	ldr	r1, [r0, #352]
	orr	r2, r2, #256
	str	r4, [r3, #1736]
	movw	r4, #2049
	ubfx	r1, r1, #16, #4
	str	r1, [r3, #1740]
	ldr	r1, [r0, #352]
	cmp	r1, r4
	mov	r4, r3
	str	r1, [r3, #1744]
	itt	eq
	moveq	r3, #8
	streq	r3, [r4, #1740]
	str	r2, [r0]
	movs	r0, #40
	ldr	r3, [r4, #76]
	str	r5, [r3, #336]
	bl	NandcTimeCfg
	ldr	r3, [r4, #76]
	movw	r2, #8322
	mov	r0, #36864
	str	r2, [r3, #344]
	ldr	r2, .L326+4
	str	r2, [r3, #304]
	bl	ftl_malloc
	str	r5, [r4, #1776]
	str	r5, [r4, #1784]
	str	r0, [r4, #1748]
	str	r0, [r4, #1752]
	add	r0, r0, #32768
	str	r0, [r4, #1756]
	pop	{r3, r4, r5, pc}
.L327:
	.align	2
.L326:
	.word	.LANCHOR0
	.word	1579009
	.fnend
	.size	NandcInit, .-NandcInit
	.align	1
	.global	NandcGetTimeCfg
	.thumb
	.thumb_func
	.type	NandcGetTimeCfg, %function
NandcGetTimeCfg:
	.fnstart
	@ args = 0, pretend = 0, frame = 0
	@ frame_needed = 0, uses_anonymous_args = 0
	push	{r4, r5, lr}
	.save {r4, r5, lr}
	ldr	r4, .L329
	ldr	r5, [r4, #76]
	ldr	r5, [r5, #4]
	str	r5, [r0]
	ldr	r0, [r4, #76]
	ldr	r0, [r0]
	str	r0, [r1]
	ldr	r1, [r4, #76]
	ldr	r1, [r1, #304]
	str	r1, [r2]
	ldr	r1, [r4, #76]
	ldr	r2, [r1, #308]
	ldr	r1, [r1, #344]
	uxtb	r2, r2
	orr	r2, r2, r1, lsl #16
	str	r2, [r3]
	pop	{r4, r5, pc}
.L330:
	.align	2
.L329:
	.word	.LANCHOR0
	.fnend
	.size	NandcGetTimeCfg, .-NandcGetTimeCfg
	.align	1
	.global	NandcBchSel
	.thumb
	.thumb_func
	.type	NandcBchSel, %function
NandcBchSel:
	.fnstart
	@ args = 0, pretend = 0, frame = 0
	@ frame_needed = 0, uses_anonymous_args = 0
	@ link register save eliminated.
	ldr	r3, .L339
	movs	r1, #1
	ldr	r2, [r3, #76]
	str	r0, [r3, #1788]
	movs	r3, #0
	str	r1, [r2, #8]
	movs	r1, #16
	cmp	r0, r1
	bfi	r3, r1, #8, #8
	bfc	r3, #18, #1
	bne	.L332
.L335:
	bfc	r3, #4, #1
	b	.L333
.L332:
	cmp	r0, #24
	bne	.L334
	orr	r3, r3, #16
	b	.L333
.L334:
	cmp	r0, #40
	orr	r3, r3, #262144
	orr	r3, r3, #16
	beq	.L335
.L333:
	orr	r3, r3, #1
	str	r3, [r2, #12]
	bx	lr
.L340:
	.align	2
.L339:
	.word	.LANCHOR0
	.fnend
	.size	NandcBchSel, .-NandcBchSel
	.align	1
	.global	FlashBchSel
	.thumb
	.thumb_func
	.type	FlashBchSel, %function
FlashBchSel:
	.fnstart
	@ args = 0, pretend = 0, frame = 0
	@ frame_needed = 0, uses_anonymous_args = 0
	@ link register save eliminated.
	ldr	r3, .L342
	strb	r0, [r3, #1792]
	b	NandcBchSel
.L343:
	.align	2
.L342:
	.word	.LANCHOR0
	.fnend
	.size	FlashBchSel, .-FlashBchSel
	.align	1
	.global	ftl_flash_resume
	.thumb
	.thumb_func
	.type	ftl_flash_resume, %function
ftl_flash_resume:
	.fnstart
	@ args = 0, pretend = 0, frame = 0
	@ frame_needed = 0, uses_anonymous_args = 0
	ldr	r3, .L352
	push	{r4, r5, r6, lr}
	.save {r4, r5, r6, lr}
	movs	r5, #0
	ldr	r2, [r3, #76]
	addw	r6, r3, #1556
	ldr	r1, [r3, #80]
	mov	r4, r3
	str	r1, [r2]
	ldr	r1, [r3, #84]
	ldr	r2, [r3, #76]
	str	r1, [r2, #4]
	ldr	r1, [r3, #88]
	str	r1, [r2, #8]
	ldr	r1, [r3, #92]
	str	r1, [r2, #12]
	ldr	r1, [r3, #96]
	str	r1, [r2, #304]
	ldr	r1, [r3, #100]
	str	r1, [r2, #308]
	ldr	r1, [r3, #104]
	str	r1, [r2, #336]
	ldr	r1, [r3, #108]
	str	r1, [r2, #344]
.L346:
	ldrb	r3, [r6, r5, lsl #3]	@ zero_extendqisi2
	subs	r3, r3, #1
	uxtb	r3, r3
	cmp	r3, #253
	bhi	.L345
	uxtb	r0, r5
	bl	FlashReset
.L345:
	adds	r5, r5, #1
	cmp	r5, #4
	bne	.L346
	ldrb	r3, [r4, #1732]	@ zero_extendqisi2
	ldr	r5, .L352
	cbz	r3, .L347
	movs	r0, #1
	bl	NandcSetMode
	ldrb	r0, [r5, #1716]	@ zero_extendqisi2
	bl	FlashSetInterfaceMode
	ldrb	r0, [r5, #1716]	@ zero_extendqisi2
	bl	NandcSetMode
	ldrb	r0, [r5, #97]	@ zero_extendqisi2
	bl	NandcSetDdrPara
.L347:
	ldr	r3, [r4, #692]
	pop	{r4, r5, r6, lr}
	ldrb	r0, [r3, #20]	@ zero_extendqisi2
	b	FlashBchSel
.L353:
	.align	2
.L352:
	.word	.LANCHOR0
	.fnend
	.size	ftl_flash_resume, .-ftl_flash_resume
	.align	1
	.global	ftl_nandc_get_irq_status
	.thumb
	.thumb_func
	.type	ftl_nandc_get_irq_status, %function
ftl_nandc_get_irq_status:
	.fnstart
	@ args = 0, pretend = 0, frame = 0
	@ frame_needed = 0, uses_anonymous_args = 0
	@ link register save eliminated.
	ldr	r0, [r0, #372]
	bx	lr
	.fnend
	.size	ftl_nandc_get_irq_status, .-ftl_nandc_get_irq_status
	.align	1
	.global	rk_nandc_flash_ready
	.thumb
	.thumb_func
	.type	rk_nandc_flash_ready, %function
rk_nandc_flash_ready:
	.fnstart
	@ args = 0, pretend = 0, frame = 0
	@ frame_needed = 0, uses_anonymous_args = 0
	@ link register save eliminated.
	ldr	r3, [r0, #368]
	orr	r3, r3, #2
	str	r3, [r0, #368]
	ldr	r3, [r0, #364]
	bic	r3, r3, #2
	str	r3, [r0, #364]
	bx	lr
	.fnend
	.size	rk_nandc_flash_ready, .-rk_nandc_flash_ready
	.align	1
	.global	NandcIqrWaitFlashReady
	.thumb
	.thumb_func
	.type	NandcIqrWaitFlashReady, %function
NandcIqrWaitFlashReady:
	.fnstart
	@ args = 0, pretend = 0, frame = 0
	@ frame_needed = 0, uses_anonymous_args = 0
	push	{r4, lr}
	.save {r4, lr}
	mov	r4, r0
	bl	rk_nandc_rb_irq_flag_init
	ldr	r3, [r4, #368]
	orr	r3, r3, #2
	str	r3, [r4, #368]
	ldr	r3, [r4, #364]
	orr	r3, r3, #2
	str	r3, [r4, #364]
	ldr	r3, [r4]
	lsls	r3, r3, #22
	bmi	.L357
	mov	r0, r4
	pop	{r4, lr}
	b	wait_for_nand_flash_ready
.L357:
	ldr	r3, [r4, #368]
	orr	r3, r3, #2
	str	r3, [r4, #368]
	ldr	r3, [r4, #364]
	bic	r3, r3, #2
	str	r3, [r4, #364]
	pop	{r4, pc}
	.fnend
	.size	NandcIqrWaitFlashReady, .-NandcIqrWaitFlashReady
	.align	1
	.global	FlashEraseBlocks
	.thumb
	.thumb_func
	.type	FlashEraseBlocks, %function
FlashEraseBlocks:
	.fnstart
	@ args = 0, pretend = 0, frame = 24
	@ frame_needed = 0, uses_anonymous_args = 0
	push	{r4, r5, r6, r7, r8, r9, r10, fp, lr}
	.save {r4, r5, r6, r7, r8, r9, r10, fp, lr}
	mov	r8, r2
	ldr	r3, .L393
	.pad #36
	sub	sp, sp, #36
	ldr	r4, .L393+4
	mov	r9, r0
	mov	r10, r1
	ldr	r2, [r3]
	ldrb	r5, [r4]	@ zero_extendqisi2
	str	r3, [sp, #12]
	str	r2, [sp, #28]
	cbz	r5, .L377
	mov	r1, r8
	bl	FlashEraseSLc2KBlocks
	b	.L360
.L377:
	mov	fp, r4
.L359:
	cmp	r5, r8
	bcs	.L391
	movs	r3, #36
	movs	r1, #0
	add	r2, sp, #20
	mul	r6, r3, r5
	add	r3, r9, r6
	str	r3, [sp, #8]
	rsb	r3, r5, r8
	ldr	r0, [sp, #8]
	uxtb	r3, r3
	str	r3, [sp]
	add	r3, sp, #24
	bl	LogAddr2PhyAddr
	ldrb	r3, [r4, #1717]	@ zero_extendqisi2
	mov	r7, r0
	ldr	r0, [sp, #24]
	cmp	r0, r3
	bcc	.L361
	mov	r3, #-1
	str	r3, [r9, r6]
	b	.L362
.L361:
	ldrb	r3, [fp, #1793]	@ zero_extendqisi2
	cmp	r3, #0
	add	r3, r4, r0, lsl #4
	it	eq
	moveq	r7, #0
	ldr	r3, [r3, #1596]
	cbz	r3, .L364
	uxtb	r0, r0
	bl	FlashWaitCmdDone
.L364:
	ldr	r1, [sp, #24]
	ldr	r3, [sp, #8]
	lsls	r2, r1, #4
	add	lr, r4, r2
	str	r3, [lr, #1596]
	movs	r3, #0
	str	r3, [lr, #1600]
	ldr	r3, [sp, #20]
	str	r3, [lr, #1592]
	cbz	r7, .L365
	add	r3, r6, #36
	add	r3, r3, r9
	str	r3, [lr, #1600]
.L365:
	add	r1, r1, r4
	add	r2, r2, r4
	ldrb	r6, [r1, #1720]	@ zero_extendqisi2
	mov	r0, r6
	strb	r6, [r2, #1588]
	bl	NandcFlashCs
	cmp	r10, #1
	mov	r0, r6
	bne	.L366
	ldrb	r3, [fp, #140]	@ zero_extendqisi2
	cbz	r3, .L366
	bl	flash_enter_slc_mode
	b	.L367
.L366:
	bl	flash_exit_slc_mode
.L367:
	ldr	r3, [sp, #24]
	mov	r0, r6
	ldr	r1, [sp, #20]
	add	r5, r5, r7
	add	r3, r4, r3, lsl #2
	ldr	r2, [r3, #656]
	adds	r2, r2, #0
	it	ne
	movne	r2, #1
	bl	FlashWaitReadyEN
	mov	r0, r6
	mov	r2, r7
	ldr	r1, [sp, #20]
	bl	FlashEraseCmd
	mov	r0, r6
	bl	NandcFlashDeCs
.L362:
	adds	r5, r5, #1
	b	.L359
.L391:
	ldr	r0, [r4, #76]
	movs	r5, #0
	bl	NandcIqrWaitFlashReady
	ldr	r6, .L393+4
	addw	r7, r6, #1588
.L369:
	ldrb	r2, [r4, #1717]	@ zero_extendqisi2
	ldr	r3, .L393+4
	cmp	r5, r2
	bcs	.L392
	uxtb	r0, r5
	bl	FlashWaitCmdDone
	cmp	r10, #1
	bne	.L370
	ldrb	r3, [r6, #140]	@ zero_extendqisi2
	cbz	r3, .L370
	lsls	r3, r5, #4
	ldrb	r0, [r7, r3]	@ zero_extendqisi2
	bl	flash_exit_slc_mode
.L370:
	adds	r5, r5, #1
	b	.L369
.L392:
	ldr	r2, [r3, #1796]
	cbnz	r2, .L372
.L374:
	movs	r0, #0
	b	.L360
.L372:
	ldrb	r3, [r3, #1556]	@ zero_extendqisi2
	cmp	r3, #69
	bne	.L374
	movs	r3, #0
	movs	r2, #36
	mov	r1, r3
.L373:
	cmp	r3, r8
	beq	.L374
	mul	r0, r2, r3
	adds	r3, r3, #1
	str	r1, [r9, r0]
	b	.L373
.L360:
	ldr	r3, [sp, #12]
	ldr	r2, [sp, #28]
	ldr	r3, [r3]
	cmp	r2, r3
	beq	.L376
	bl	__stack_chk_fail
.L376:
	add	sp, sp, #36
	@ sp needed
	pop	{r4, r5, r6, r7, r8, r9, r10, fp, pc}
.L394:
	.align	2
.L393:
	.word	__stack_chk_guard
	.word	.LANCHOR0
	.fnend
	.size	FlashEraseBlocks, .-FlashEraseBlocks
	.align	1
	.global	rk_nandc_flash_xfer_completed
	.thumb
	.thumb_func
	.type	rk_nandc_flash_xfer_completed, %function
rk_nandc_flash_xfer_completed:
	.fnstart
	@ args = 0, pretend = 0, frame = 0
	@ frame_needed = 0, uses_anonymous_args = 0
	@ link register save eliminated.
	ldr	r3, [r0, #368]
	orr	r3, r3, #1
	str	r3, [r0, #368]
	ldr	r3, [r0, #364]
	bic	r3, r3, #1
	str	r3, [r0, #364]
	bx	lr
	.fnend
	.size	rk_nandc_flash_xfer_completed, .-rk_nandc_flash_xfer_completed
	.align	1
	.global	NandcSendDumpDataStart
	.thumb
	.thumb_func
	.type	NandcSendDumpDataStart, %function
NandcSendDumpDataStart:
	.fnstart
	@ args = 0, pretend = 0, frame = 8
	@ frame_needed = 0, uses_anonymous_args = 0
	@ link register save eliminated.
	ldr	r2, [r0, #16]
	.pad #8
	sub	sp, sp, #8
	ldr	r3, .L397
	str	r2, [sp, #4]
	ldr	r2, [sp, #4]
	bic	r2, r2, #4
	str	r2, [sp, #4]
	ldr	r2, [sp, #4]
	str	r2, [r0, #16]
	str	r3, [r0, #8]
	orr	r3, r3, #4
	str	r3, [r0, #8]
	add	sp, sp, #8
	@ sp needed
	bx	lr
.L398:
	.align	2
.L397:
	.word	538969130
	.fnend
	.size	NandcSendDumpDataStart, .-NandcSendDumpDataStart
	.align	1
	.global	NandcSendDumpDataDone
	.thumb
	.thumb_func
	.type	NandcSendDumpDataDone, %function
NandcSendDumpDataDone:
	.fnstart
	@ args = 0, pretend = 0, frame = 8
	@ frame_needed = 0, uses_anonymous_args = 0
	@ link register save eliminated.
	.pad #8
	sub	sp, sp, #8
.L400:
	ldr	r3, [r0, #8]
	str	r3, [sp, #4]
	ldr	r3, [sp, #4]
	lsls	r3, r3, #11
	bpl	.L400
	add	sp, sp, #8
	@ sp needed
	bx	lr
	.fnend
	.size	NandcSendDumpDataDone, .-NandcSendDumpDataDone
	.align	1
	.global	NandcXferStart
	.thumb
	.thumb_func
	.type	NandcXferStart, %function
NandcXferStart:
	.fnstart
	@ args = 8, pretend = 0, frame = 16
	@ frame_needed = 0, uses_anonymous_args = 0
	push	{r4, r5, r6, r7, r8, r9, r10, fp, lr}
	.save {r4, r5, r6, r7, r8, r9, r10, fp, lr}
	.pad #20
	sub	sp, sp, #20
	mov	r8, r2
	mov	r7, r1
	ldr	r2, [sp, #60]
	ldr	fp, [sp, #56]
	cbnz	r2, .L417
	adds	r2, fp, #0
	it	ne
	movne	r2, #1
	b	.L404
.L417:
	movs	r2, #1
.L404:
	ldr	r5, .L422
	movs	r4, #0
	add	r0, r5, r0, lsl #3
	ldr	r6, [r0, #12]
	ldrb	r1, [r0, #16]	@ zero_extendqisi2
	movs	r0, #16
	ldr	r9, [r6, #12]
	bfi	r9, r0, #8, #8
	bfi	r9, r4, #3, #1
	bfi	r4, r7, #1, #1
	bfi	r9, r1, #5, #3
	orr	r4, r4, #8
	movs	r1, #1
	bfi	r4, r1, #5, #2
	lsrs	r3, r3, r1
	orr	r4, r4, #536870912
	orr	r4, r4, #1024
	bfi	r4, r3, #4, #1
	ldr	r3, [r5, #1740]
	cmp	r3, #3
	bls	.L405
	ldr	r3, [r6, #16]
	str	r3, [sp, #12]
	ldr	r3, [sp, #12]
	bic	r3, r3, #4
	str	r3, [sp, #12]
	cmp	r2, #0
	beq	.L406
	cbnz	r7, .L407
.L415:
	mov	r0, r6
	add	r8, r8, #1
	bl	rk_nandc_xfer_irq_flag_init
	ldr	r3, [r6, #368]
	asr	r8, r8, #1
	orr	r3, r3, #1
	str	r3, [r6, #368]
	ldr	r3, [r6, #364]
	bfi	r4, r8, #22, #6
	orr	r3, r3, #1
	str	r3, [r6, #364]
	cmp	fp, #0
	beq	.L408
	mov	r0, fp
	b	.L409
.L407:
	ldr	r3, [r5, #1788]
	mov	ip, r5
	ldr	r0, [sp, #60]
	cmp	r3, #25
	ite	cc
	movcc	r3, #64
	movcs	r3, #128
	str	r3, [sp]
	lsr	r3, r8, #1
	str	r3, [sp, #4]
	movs	r3, #0
	mov	r1, r3
.L411:
	ldr	r2, [sp, #4]
	cmp	r1, r2
	bcs	.L415
	ldr	r2, [sp, #60]
	lsr	r10, r3, #2
	cbz	r2, .L412
	ldrh	r2, [r0, #2]
	ldrh	lr, [r0], #4
	orr	lr, lr, r2, lsl #16
	ldr	r2, [ip, #1756]
	str	lr, [r2, r10, lsl #2]
	b	.L413
.L412:
	ldr	r2, [ip, #1756]
	mov	lr, r2
	mov	r2, #-1
	str	r2, [lr, r10, lsl #2]
.L413:
	ldr	r2, [sp]
	adds	r1, r1, #1
	add	r3, r3, r2
	b	.L411
.L408:
	ldr	r0, [r5, #1752]
.L409:
	ldr	r3, [r5, #1756]
	ubfx	r8, r4, #22, #5
	mov	r2, r7
	str	r0, [r5, #1760]
	lsl	r1, r8, #10
	str	r3, [r5, #1764]
	bl	rknand_dma_map_single
	mov	r2, r7
	lsl	r1, r8, #7
	clz	r7, r7
	lsrs	r7, r7, #5
	str	r0, [r5, #1768]
	ldr	r0, [r5, #1764]
	bl	rknand_dma_map_single
	movs	r3, #1
	str	r3, [r5, #1776]
	tst	fp, #3
	ldr	r3, [r5, #1768]
	str	r0, [r5, #1772]
	str	r3, [r6, #20]
	ldr	r3, [r5, #1772]
	str	r3, [r6, #24]
	mov	r3, #0
	str	r3, [sp, #12]
	ldr	r3, [sp, #12]
	bic	r3, r3, #15872
	orr	r3, r3, #8192
	str	r3, [sp, #12]
	ldr	r3, [sp, #12]
	orr	r3, r3, #448
	str	r3, [sp, #12]
	itttt	eq
	ldreq	r3, [sp, #12]
	biceq	r3, r3, #56
	orreq	r3, r3, #16
	streq	r3, [sp, #12]
	ldr	r3, [sp, #12]
	orr	r3, r3, #4
	str	r3, [sp, #12]
	ldr	r3, [sp, #12]
	bic	r3, r3, #2
	orr	r7, r3, r7, lsl #1
	str	r7, [sp, #12]
	ldr	r3, [sp, #12]
	orr	r3, r3, #1
	str	r3, [sp, #12]
.L406:
	ldr	r3, [sp, #12]
	str	r3, [r6, #16]
.L405:
	str	r9, [r6, #12]
	str	r4, [r6, #8]
	orr	r4, r4, #4
	str	r4, [r6, #8]
	add	sp, sp, #20
	@ sp needed
	pop	{r4, r5, r6, r7, r8, r9, r10, fp, pc}
.L423:
	.align	2
.L422:
	.word	.LANCHOR0
	.fnend
	.size	NandcXferStart, .-NandcXferStart
	.align	1
	.global	Ftl_log2
	.thumb
	.thumb_func
	.type	Ftl_log2, %function
Ftl_log2:
	.fnstart
	@ args = 0, pretend = 0, frame = 0
	@ frame_needed = 0, uses_anonymous_args = 0
	@ link register save eliminated.
	movs	r1, #0
	movs	r2, #1
.L425:
	cmp	r2, r0
	uxth	r3, r1
	add	r1, r1, #1
	bhi	.L427
	lsls	r2, r2, #1
	b	.L425
.L427:
	subs	r0, r3, #1
	uxth	r0, r0
	bx	lr
	.fnend
	.size	Ftl_log2, .-Ftl_log2
	.align	1
	.global	FtlPrintInfo
	.thumb
	.thumb_func
	.type	FtlPrintInfo, %function
FtlPrintInfo:
	.fnstart
	@ args = 0, pretend = 0, frame = 0
	@ frame_needed = 0, uses_anonymous_args = 0
	@ link register save eliminated.
	bx	lr
	.fnend
	.size	FtlPrintInfo, .-FtlPrintInfo
	.align	1
	.global	FtlSysBlkNumInit
	.thumb
	.thumb_func
	.type	FtlSysBlkNumInit, %function
FtlSysBlkNumInit:
	.fnstart
	@ args = 0, pretend = 0, frame = 0
	@ frame_needed = 0, uses_anonymous_args = 0
	@ link register save eliminated.
	ldr	r3, .L431
	cmp	r0, #23
	it	ls
	movls	r0, #24
	ldrh	r2, [r3, #1804]
	ldrh	r1, [r3, #1814]
	str	r0, [r3, #1800]
	muls	r2, r0, r2
	subs	r0, r1, r0
	ldr	r1, [r3, #1820]
	strh	r0, [r3, #1812]	@ movhi
	movs	r0, #0
	str	r2, [r3, #1808]
	subs	r2, r1, r2
	str	r2, [r3, #1816]
	bx	lr
.L432:
	.align	2
.L431:
	.word	.LANCHOR0
	.fnend
	.size	FtlSysBlkNumInit, .-FtlSysBlkNumInit
	.align	1
	.global	FtlConstantsInit
	.thumb
	.thumb_func
	.type	FtlConstantsInit, %function
FtlConstantsInit:
	.fnstart
	@ args = 0, pretend = 0, frame = 16
	@ frame_needed = 0, uses_anonymous_args = 0
	push	{r4, r5, r6, r7, r8, r9, r10, fp, lr}
	.save {r4, r5, r6, r7, r8, r9, r10, fp, lr}
	.pad #20
	sub	sp, sp, #20
	ldrh	r1, [r0, #14]
	mov	r5, r0
	ldr	r4, .L461
	ldrh	lr, [r0, #8]
	str	r1, [sp]
	ldrh	r1, [sp]
	ldrh	r2, [r0, #10]
	ldrh	r3, [r0, #12]
	add	r0, r4, #1832
	strh	r1, [r4, #1814]	@ movhi
	movs	r1, #0
	strh	lr, [r4, #1824]	@ movhi
	strh	r2, [r4, #1826]	@ movhi
	strh	r3, [r4, #1828]	@ movhi
.L434:
	strb	r1, [r1, r0]
	adds	r1, r1, #1
	cmp	r1, #32
	bne	.L434
	ldrh	r0, [r5, #14]
	ldrh	r1, [r5, #20]
	cmp	r1, r0, lsr #8
	bcs	.L435
	uxtb	r10, r3
	ldr	r9, .L461+4
	lsl	r1, r10, #1
	uxtb	r1, r1
	str	r1, [sp, #8]
	subs	r1, r2, #1
	muls	r1, r3, r1
	str	r1, [sp, #4]
	movs	r1, #0
.L436:
	cmp	r1, r3
	bcs	.L438
	ldr	r6, [sp, #4]
	rsb	ip, r3, r1
	uxtb	r0, r1
	add	ip, ip, r9
	adds	r6, r1, r6
	add	r6, r9, r6
	str	r6, [sp, #12]
	movs	r6, #0
	mov	r8, r6
.L439:
	cmp	r8, r2
	add	r6, r6, r3
	bcs	.L460
	ldr	r7, [sp, #12]
	add	fp, r0, r10
	strb	r0, [ip, r6]
	add	r8, r8, #1
	strb	fp, [r7, r6]
	ldr	r7, [sp, #8]
	add	r0, r0, r7
	uxtb	r0, r0
	b	.L439
.L460:
	adds	r1, r1, #1
	b	.L436
.L438:
	lsls	r2, r2, #1
	strh	r2, [r4, #1826]	@ movhi
	ldr	r2, [sp]
	lsrs	r7, r2, #1
	strh	r7, [r4, #1814]	@ movhi
.L435:
	cmp	lr, #1
	mov	r2, #5
	strh	r2, [r4, #1864]	@ movhi
	mov	r2, #0
	strh	r2, [r4, #1866]	@ movhi
	it	eq
	ldreq	r2, .L461
	ldrb	r9, [r4]	@ zero_extendqisi2
	it	eq
	strheq	lr, [r2, #1864]	@ movhi
	mov	r2, #4352
	strh	r2, [r4, #1868]	@ movhi
	cmp	r9, #0
	beq	.L441
	ldr	r2, .L461
	mov	r1, #384
	strh	r1, [r2, #1868]	@ movhi
.L441:
	ldrh	r7, [r4, #1826]
	ldrh	r6, [r4, #1814]
	ldrh	r8, [r5, #16]
	smulbb	r7, r7, r3
	ldrh	fp, [r5, #20]
	smulbb	r3, r6, r3
	ldrh	r1, [r5, #18]
	mov	r0, fp
	strh	r8, [r4, #1872]	@ movhi
	strh	fp, [r4, #1878]	@ movhi
	uxth	r7, r7
	strh	r1, [r4, #1874]	@ movhi
	str	r1, [sp]
	strh	r3, [r4, #1870]	@ movhi
	smulbb	r3, r7, r8
	strh	r7, [r4, #1804]	@ movhi
	strh	r3, [r4, #1876]	@ movhi
	bl	Ftl_log2
	lsl	r3, fp, #9
	cmp	r6, #1024
	uxth	r3, r3
	strh	r3, [r4, #1882]	@ movhi
	it	hi
	ldrhi	r2, .L461
	lsr	r3, r3, #8
	strh	r3, [r4, #1884]	@ movhi
	ldrh	r3, [r5, #26]
	strh	r3, [r4, #1886]	@ movhi
	mul	r3, r6, r7
	str	r3, [r4, #1820]
	itt	hi
	uxtbhi	r3, r6
	strhhi	r3, [r2, #1866]	@ movhi
	mov	r10, r0
	ldrh	r5, [r4, #1866]
	ldr	r1, [sp]
	subs	r5, r6, r5
	strh	r0, [r4, #1880]	@ movhi
	ldrh	r0, [r4, #1868]
	muls	r5, r7, r5
	ldr	r3, .L461
	lsls	r0, r0, #3
	mul	r1, r1, fp
	str	r3, [sp]
	mul	r5, fp, r5
	mul	r5, r8, r5
	asrs	r5, r5, #11
	str	r5, [r4, #1888]
	bl	__aeabi_idiv
	ldr	r3, [sp]
	uxth	r0, r0
	cmp	r0, #4
	itet	ls
	movls	r2, #4
	strhhi	r0, [r3, #1892]	@ movhi
	strhls	r2, [r3, #1892]	@ movhi
	cmp	r9, #0
	beq	.L445
	mov	r3, #640
	strh	r3, [r4, #1868]	@ movhi
.L445:
	ldrh	r3, [r4, #1868]
	lsls	r6, r6, #6
	mov	r1, r7
	ldr	r5, .L461
	asr	r3, r3, r10
	add	r10, r10, #9
	asr	r6, r6, r10
	adds	r3, r3, #2
	strh	r3, [r4, #1894]	@ movhi
	uxth	r0, r6
	strh	r6, [r4, #1896]	@ movhi
	add	r6, r0, #8
	mul	r3, r7, r0
	ldrh	r0, [r4, #1892]
	str	r3, [r4, #1900]
	bl	__aeabi_uidiv
	cmp	r7, #1
	uxtah	r0, r6, r0
	ldr	r6, .L461
	it	eq
	addeq	r0, r0, #4
	str	r0, [r5, #1800]
	ldrh	r0, [r4, #1800]
	bl	FtlSysBlkNumInit
	ldr	r3, [r4, #1800]
	ldr	r5, [r4, #1816]
	mov	r0, #2048
	ldrh	r7, [r4, #1878]
	str	r3, [r4, #1904]
	ldrh	r3, [r4, #1872]
	lsls	r5, r5, #2
	mov	r1, r7
	muls	r5, r3, r5
	ldrh	r3, [r4, #1880]
	adds	r3, r3, #9
	lsrs	r5, r5, r3
	adds	r5, r5, #2
	uxth	r5, r5
	strh	r5, [r4, #1908]	@ movhi
	bl	__aeabi_idiv
	ldrh	r2, [r4, #1892]
	movs	r3, #0
	str	r3, [r4, #1912]
	adds	r3, r2, #3
	strh	r3, [r4, #1892]	@ movhi
	ldr	r3, [r4, #1900]
	adds	r1, r3, #3
	str	r1, [r4, #1900]
	strh	r0, [r4, #1910]	@ movhi
	ldrb	r0, [r4, #140]	@ zero_extendqisi2
	cbz	r0, .L448
	adds	r2, r2, #4
	adds	r3, r3, #5
	strh	r2, [r6, #1892]	@ movhi
	b	.L459
.L448:
	cmp	r1, #7
	bhi	.L449
	movs	r3, #8
.L459:
	str	r3, [r6, #1900]
.L449:
	ldrh	r2, [r4, #1812]
	movs	r3, #0
	strh	r3, [r4, #1916]	@ movhi
	movs	r0, #0
	lsrs	r3, r2, #3
	add	r3, r3, r2, lsl #1
	adds	r3, r3, #52
	add	r5, r3, r5, lsl #2
	cmp	r5, r7, lsl #9
	ittt	cc
	movcc	r2, #1
	ldrcc	r3, .L461
	strhcc	r2, [r3, #1916]	@ movhi
	add	sp, sp, #20
	@ sp needed
	pop	{r4, r5, r6, r7, r8, r9, r10, fp, pc}
.L462:
	.align	2
.L461:
	.word	.LANCHOR0
	.word	.LANCHOR0+1832
	.fnend
	.size	FtlConstantsInit, .-FtlConstantsInit
	.align	1
	.global	IsBlkInVendorPart
	.thumb
	.thumb_func
	.type	IsBlkInVendorPart, %function
IsBlkInVendorPart:
	.fnstart
	@ args = 0, pretend = 0, frame = 0
	@ frame_needed = 0, uses_anonymous_args = 0
	@ link register save eliminated.
	ldr	r2, .L470
	ldrh	r3, [r2, #1918]
	cbz	r3, .L469
	ldr	r3, [r2, #1920]
	ldrh	r2, [r2, #1892]
	add	r2, r3, r2, lsl #1
.L465:
	cmp	r3, r2
	beq	.L469
	ldrh	r1, [r3], #2
	cmp	r1, r0
	bne	.L465
	movs	r0, #1
	bx	lr
.L469:
	movs	r0, #0
	bx	lr
.L471:
	.align	2
.L470:
	.word	.LANCHOR0
	.fnend
	.size	IsBlkInVendorPart, .-IsBlkInVendorPart
	.align	1
	.global	FtlCacheMetchLpa
	.thumb
	.thumb_func
	.type	FtlCacheMetchLpa, %function
FtlCacheMetchLpa:
	.fnstart
	@ args = 0, pretend = 0, frame = 0
	@ frame_needed = 0, uses_anonymous_args = 0
	ldr	r2, .L480
	push	{r4, r5, r6, lr}
	.save {r4, r5, r6, lr}
	ldr	r3, [r2, #1924]
	cbz	r3, .L479
	ldr	r5, [r2, #1928]
	movs	r6, #36
	movs	r2, #0
.L475:
	mla	r4, r6, r2, r5
	ldr	r4, [r4, #16]
	cmp	r4, r0
	bcc	.L474
	cmp	r4, r1
	bls	.L477
.L474:
	adds	r2, r2, #1
	cmp	r2, r3
	bne	.L475
.L479:
	movs	r0, #0
	pop	{r4, r5, r6, pc}
.L477:
	movs	r0, #1
	pop	{r4, r5, r6, pc}
.L481:
	.align	2
.L480:
	.word	.LANCHOR0
	.fnend
	.size	FtlCacheMetchLpa, .-FtlCacheMetchLpa
	.align	1
	.global	FtlGetCap
	.thumb
	.thumb_func
	.type	FtlGetCap, %function
FtlGetCap:
	.fnstart
	@ args = 0, pretend = 0, frame = 0
	@ frame_needed = 0, uses_anonymous_args = 0
	@ link register save eliminated.
	ldr	r3, .L483
	ldr	r0, [r3, #1912]
	bx	lr
.L484:
	.align	2
.L483:
	.word	.LANCHOR0
	.fnend
	.size	FtlGetCap, .-FtlGetCap
	.align	1
	.global	ftl_get_density
	.thumb
	.thumb_func
	.type	ftl_get_density, %function
ftl_get_density:
	.fnstart
	@ args = 0, pretend = 0, frame = 0
	@ frame_needed = 0, uses_anonymous_args = 0
	@ link register save eliminated.
	ldr	r3, .L486
	ldr	r0, [r3, #1912]
	bx	lr
.L487:
	.align	2
.L486:
	.word	.LANCHOR0
	.fnend
	.size	ftl_get_density, .-ftl_get_density
	.align	1
	.global	FtlGetLpn
	.thumb
	.thumb_func
	.type	FtlGetLpn, %function
FtlGetLpn:
	.fnstart
	@ args = 0, pretend = 0, frame = 0
	@ frame_needed = 0, uses_anonymous_args = 0
	@ link register save eliminated.
	ldr	r3, .L489
	ldr	r0, [r3, #1932]
	bx	lr
.L490:
	.align	2
.L489:
	.word	.LANCHOR0
	.fnend
	.size	FtlGetLpn, .-FtlGetLpn
	.align	1
	.global	FtlBbmMapBadBlock
	.thumb
	.thumb_func
	.type	FtlBbmMapBadBlock, %function
FtlBbmMapBadBlock:
	.fnstart
	@ args = 0, pretend = 0, frame = 0
	@ frame_needed = 0, uses_anonymous_args = 0
	push	{r0, r1, r2, r4, r5, r6, r7, lr}
	.save {r4, r5, r6, r7, lr}
	.pad #12
	mov	r6, r0
	ldr	r5, .L492
	ldrh	r4, [r5, #1870]
	mov	r1, r4
	bl	__aeabi_uidiv
	uxth	r2, r0
	smulbb	r3, r2, r4
	add	r1, r5, r2, lsl #2
	ldr	r4, [r1, #1964]
	movs	r1, #1
	subs	r3, r6, r3
	uxth	r3, r3
	and	r0, r3, #31
	lsrs	r7, r3, #5
	lsls	r1, r1, r0
	ldr	r0, [r4, r7, lsl #2]
	orrs	r1, r1, r0
	ldr	r0, .L492+4
	str	r1, [r4, r7, lsl #2]
	str	r1, [sp]
	mov	r1, r6
	bl	printk
	ldrh	r3, [r5, #1942]
	movs	r0, #0
	adds	r3, r3, #1
	strh	r3, [r5, #1942]	@ movhi
	add	sp, sp, #12
	@ sp needed
	pop	{r4, r5, r6, r7, pc}
.L493:
	.align	2
.L492:
	.word	.LANCHOR0
	.word	.LC2
	.fnend
	.size	FtlBbmMapBadBlock, .-FtlBbmMapBadBlock
	.global	__aeabi_uidivmod
	.align	1
	.global	FtlBbmIsBadBlock
	.thumb
	.thumb_func
	.type	FtlBbmIsBadBlock, %function
FtlBbmIsBadBlock:
	.fnstart
	@ args = 0, pretend = 0, frame = 0
	@ frame_needed = 0, uses_anonymous_args = 0
	push	{r3, r4, r5, r6, r7, lr}
	.save {r3, r4, r5, r6, r7, lr}
	mov	r7, r0
	ldr	r5, .L495
	ldrh	r6, [r5, #1870]
	mov	r1, r6
	bl	__aeabi_uidivmod
	mov	r0, r7
	uxth	r4, r1
	mov	r1, r6
	bl	__aeabi_uidiv
	lsrs	r2, r4, #5
	and	r4, r4, #31
	uxth	r0, r0
	add	r5, r5, r0, lsl #2
	ldr	r3, [r5, #1964]
	ldr	r0, [r3, r2, lsl #2]
	lsrs	r0, r0, r4
	and	r0, r0, #1
	pop	{r3, r4, r5, r6, r7, pc}
.L496:
	.align	2
.L495:
	.word	.LANCHOR0
	.fnend
	.size	FtlBbmIsBadBlock, .-FtlBbmIsBadBlock
	.align	1
	.global	FtlBbtInfoPrint
	.thumb
	.thumb_func
	.type	FtlBbtInfoPrint, %function
FtlBbtInfoPrint:
	.fnstart
	@ args = 0, pretend = 0, frame = 0
	@ frame_needed = 0, uses_anonymous_args = 0
	@ link register save eliminated.
	bx	lr
	.fnend
	.size	FtlBbtInfoPrint, .-FtlBbtInfoPrint
	.align	1
	.global	FtlBbtCalcTotleCnt
	.thumb
	.thumb_func
	.type	FtlBbtCalcTotleCnt, %function
FtlBbtCalcTotleCnt:
	.fnstart
	@ args = 0, pretend = 0, frame = 0
	@ frame_needed = 0, uses_anonymous_args = 0
	push	{r4, r5, r6, lr}
	.save {r4, r5, r6, lr}
	movs	r5, #0
	ldr	r4, .L506
	ldrh	r6, [r4, #1870]
	ldrh	r3, [r4, #1826]
	mov	r4, r5
	muls	r6, r3, r6
.L499:
	uxth	r0, r5
	cmp	r0, r6
	bge	.L505
	bl	FtlBbmIsBadBlock
	cbz	r0, .L500
	adds	r4, r4, #1
	uxth	r4, r4
.L500:
	adds	r5, r5, #1
	b	.L499
.L505:
	mov	r0, r4
	pop	{r4, r5, r6, pc}
.L507:
	.align	2
.L506:
	.word	.LANCHOR0
	.fnend
	.size	FtlBbtCalcTotleCnt, .-FtlBbtCalcTotleCnt
	.align	1
	.global	V2P_block
	.thumb
	.thumb_func
	.type	V2P_block, %function
V2P_block:
	.fnstart
	@ args = 0, pretend = 0, frame = 0
	@ frame_needed = 0, uses_anonymous_args = 0
	push	{r3, r4, r5, r6, r7, lr}
	.save {r3, r4, r5, r6, r7, lr}
	mov	r4, r1
	ldr	r6, .L509
	mov	r7, r0
	ldrh	r5, [r6, #1828]
	mov	r1, r5
	bl	__aeabi_uidivmod
	mov	r0, r7
	smlabb	r4, r4, r5, r1
	mov	r1, r5
	bl	__aeabi_uidiv
	ldrh	r3, [r6, #1870]
	smlabb	r0, r3, r0, r4
	uxth	r0, r0
	pop	{r3, r4, r5, r6, r7, pc}
.L510:
	.align	2
.L509:
	.word	.LANCHOR0
	.fnend
	.size	V2P_block, .-V2P_block
	.align	1
	.global	P2V_plane
	.thumb
	.thumb_func
	.type	P2V_plane, %function
P2V_plane:
	.fnstart
	@ args = 0, pretend = 0, frame = 0
	@ frame_needed = 0, uses_anonymous_args = 0
	ldr	r3, .L512
	push	{r4, r5, r6, lr}
	.save {r4, r5, r6, lr}
	mov	r6, r0
	ldrh	r1, [r3, #1870]
	ldrh	r5, [r3, #1828]
	bl	__aeabi_uidiv
	mov	r1, r5
	smulbb	r4, r0, r5
	mov	r0, r6
	bl	__aeabi_uidivmod
	add	r1, r1, r4
	uxth	r0, r1
	pop	{r4, r5, r6, pc}
.L513:
	.align	2
.L512:
	.word	.LANCHOR0
	.fnend
	.size	P2V_plane, .-P2V_plane
	.align	1
	.global	P2V_block_in_plane
	.thumb
	.thumb_func
	.type	P2V_block_in_plane, %function
P2V_block_in_plane:
	.fnstart
	@ args = 0, pretend = 0, frame = 0
	@ frame_needed = 0, uses_anonymous_args = 0
	push	{r4, lr}
	.save {r4, lr}
	ldr	r4, .L515
	ldrh	r1, [r4, #1870]
	bl	__aeabi_uidivmod
	uxth	r0, r1
	ldrh	r1, [r4, #1828]
	bl	__aeabi_uidiv
	uxth	r0, r0
	pop	{r4, pc}
.L516:
	.align	2
.L515:
	.word	.LANCHOR0
	.fnend
	.size	P2V_block_in_plane, .-P2V_block_in_plane
	.align	1
	.global	ftl_cmp_data_ver
	.thumb
	.thumb_func
	.type	ftl_cmp_data_ver, %function
ftl_cmp_data_ver:
	.fnstart
	@ args = 0, pretend = 0, frame = 0
	@ frame_needed = 0, uses_anonymous_args = 0
	@ link register save eliminated.
	cmp	r0, r1
	bls	.L518
	subs	r0, r0, r1
	cmp	r0, #-2147483648
	ite	hi
	movhi	r0, #0
	movls	r0, #1
	bx	lr
.L518:
	subs	r0, r1, r0
	cmp	r0, #-2147483648
	ite	ls
	movls	r0, #0
	movhi	r0, #1
	bx	lr
	.fnend
	.size	ftl_cmp_data_ver, .-ftl_cmp_data_ver
	.align	1
	.global	FtlFreeSysBlkQueueEmpty
	.thumb
	.thumb_func
	.type	FtlFreeSysBlkQueueEmpty, %function
FtlFreeSysBlkQueueEmpty:
	.fnstart
	@ args = 0, pretend = 0, frame = 0
	@ frame_needed = 0, uses_anonymous_args = 0
	@ link register save eliminated.
	ldr	r3, .L521
	ldrh	r0, [r3, #2002]
	clz	r0, r0
	lsrs	r0, r0, #5
	bx	lr
.L522:
	.align	2
.L521:
	.word	.LANCHOR0
	.fnend
	.size	FtlFreeSysBlkQueueEmpty, .-FtlFreeSysBlkQueueEmpty
	.align	1
	.global	FtlFreeSysBlkQueueFull
	.thumb
	.thumb_func
	.type	FtlFreeSysBlkQueueFull, %function
FtlFreeSysBlkQueueFull:
	.fnstart
	@ args = 0, pretend = 0, frame = 0
	@ frame_needed = 0, uses_anonymous_args = 0
	@ link register save eliminated.
	ldr	r3, .L524
	ldrh	r0, [r3, #2002]
	sub	r3, r0, #1024
	rsbs	r0, r3, #0
	adcs	r0, r0, r3
	bx	lr
.L525:
	.align	2
.L524:
	.word	.LANCHOR0
	.fnend
	.size	FtlFreeSysBlkQueueFull, .-FtlFreeSysBlkQueueFull
	.align	1
	.global	FtlFreeSysBlkQueueIn
	.thumb
	.thumb_func
	.type	FtlFreeSysBlkQueueIn, %function
FtlFreeSysBlkQueueIn:
	.fnstart
	@ args = 0, pretend = 0, frame = 0
	@ frame_needed = 0, uses_anonymous_args = 0
	subs	r3, r0, #1
	movw	r2, #65533
	push	{r4, r5, r6, lr}
	.save {r4, r5, r6, lr}
	uxth	r3, r3
	cmp	r3, r2
	mov	r5, r0
	bhi	.L526
	ldr	r4, .L535
	ldrh	r3, [r4, #2002]
	cmp	r3, #1024
	beq	.L526
	cbz	r1, .L528
	ldr	r3, [r4, #4052]
	cbnz	r3, .L528
	bl	P2V_block_in_plane
	movs	r1, #1
	lsls	r3, r5, #10
	mov	r2, r1
	mov	r6, r0
	ldr	r0, [r4, #4056]
	str	r3, [r0, #4]
	bl	FlashEraseBlocks
	ldr	r2, [r4, #4060]
	ldrh	r3, [r2, r6, lsl #1]
	adds	r3, r3, #1
	strh	r3, [r2, r6, lsl #1]	@ movhi
	ldr	r3, [r4, #4064]
	adds	r3, r3, #1
	str	r3, [r4, #4064]
.L528:
	ldrh	r3, [r4, #2002]
	adds	r3, r3, #1
	strh	r3, [r4, #2002]	@ movhi
	ldrh	r3, [r4, #2000]
	add	r2, r4, r3, lsl #1
	adds	r3, r3, #1
	ubfx	r3, r3, #0, #10
	strh	r3, [r4, #2000]	@ movhi
	strh	r5, [r2, #2004]	@ movhi
.L526:
	pop	{r4, r5, r6, pc}
.L536:
	.align	2
.L535:
	.word	.LANCHOR0
	.fnend
	.size	FtlFreeSysBlkQueueIn, .-FtlFreeSysBlkQueueIn
	.align	1
	.global	FtlFreeSysBLkSort
	.thumb
	.thumb_func
	.type	FtlFreeSysBLkSort, %function
FtlFreeSysBLkSort:
	.fnstart
	@ args = 0, pretend = 0, frame = 0
	@ frame_needed = 0, uses_anonymous_args = 0
	ldr	r3, .L548
	push	{r4, r5, r6, lr}
	.save {r4, r5, r6, lr}
	add	r2, r3, #4096
	ldrh	r4, [r2]
	ldrh	r2, [r3, #2002]
	cbz	r2, .L537
	movs	r0, #0
	ldrh	r1, [r3, #1998]
	ldrh	r2, [r3, #2000]
	and	r4, r4, #31
	mov	r6, r0
.L539:
	uxth	r5, r0
	adds	r0, r0, #1
	cmp	r5, r4
	bge	.L547
	add	r5, r3, r1, lsl #1
	adds	r1, r1, #1
	ubfx	r1, r1, #0, #10
	ldrh	r6, [r5, #2004]
	add	r5, r3, r2, lsl #1
	strh	r6, [r5, #2004]	@ movhi
	movs	r6, #1
	add	r2, r2, r6
	ubfx	r2, r2, #0, #10
	b	.L539
.L547:
	cbz	r6, .L537
	strh	r1, [r3, #1998]	@ movhi
	strh	r2, [r3, #2000]	@ movhi
.L537:
	pop	{r4, r5, r6, pc}
.L549:
	.align	2
.L548:
	.word	.LANCHOR0
	.fnend
	.size	FtlFreeSysBLkSort, .-FtlFreeSysBLkSort
	.align	1
	.global	FtlFreeSysBlkQueueOut
	.thumb
	.thumb_func
	.type	FtlFreeSysBlkQueueOut, %function
FtlFreeSysBlkQueueOut:
	.fnstart
	@ args = 0, pretend = 0, frame = 0
	@ frame_needed = 0, uses_anonymous_args = 0
	push	{r4, r5, r6, r7, r8, lr}
	.save {r4, r5, r6, r7, r8, lr}
	ldr	r4, .L560
	mov	r6, r4
.L551:
	ldrh	r1, [r4, #2002]
	cbz	r1, .L552
	ldrh	r3, [r4, #1998]
	subs	r1, r1, #1
	ldr	r8, [r4, #4052]
	strh	r1, [r4, #2002]	@ movhi
	add	r2, r4, r3, lsl #1
	adds	r3, r3, #1
	ubfx	r3, r3, #0, #10
	strh	r3, [r4, #1998]	@ movhi
	ldrh	r5, [r2, #2004]
	cmp	r8, #0
	bne	.L553
	mov	r0, r5
	bl	P2V_block_in_plane
	lsls	r3, r5, #10
	mov	r7, r0
	ldr	r0, [r4, #4056]
	str	r3, [r0, #4]
	ldrb	r3, [r4, #140]	@ zero_extendqisi2
	cbz	r3, .L554
	mov	r1, r8
	movs	r2, #1
	bl	FlashEraseBlocks
.L554:
	movs	r1, #1
	ldr	r0, [r6, #4056]
	mov	r2, r1
	bl	FlashEraseBlocks
	ldr	r2, [r6, #4060]
	ldrh	r3, [r2, r7, lsl #1]
	adds	r3, r3, #1
	strh	r3, [r2, r7, lsl #1]	@ movhi
	ldr	r3, [r6, #4064]
	adds	r3, r3, #1
	str	r3, [r6, #4064]
	b	.L553
.L552:
	ldr	r0, .L560+4
	bl	printk
.L555:
	b	.L555
.L553:
	subs	r3, r5, #1
	movw	r2, #65533
	uxth	r3, r3
	cmp	r3, r2
	bls	.L556
	mov	r1, r5
	ldrh	r2, [r6, #2002]
	ldr	r0, .L560+8
	bl	printk
	b	.L551
.L556:
	mov	r0, r5
	pop	{r4, r5, r6, r7, r8, pc}
.L561:
	.align	2
.L560:
	.word	.LANCHOR0
	.word	.LC3
	.word	.LC4
	.fnend
	.size	FtlFreeSysBlkQueueOut, .-FtlFreeSysBlkQueueOut
	.align	1
	.global	test_node_in_list
	.thumb
	.thumb_func
	.type	test_node_in_list, %function
test_node_in_list:
	.fnstart
	@ args = 0, pretend = 0, frame = 0
	@ frame_needed = 0, uses_anonymous_args = 0
	ldr	r3, .L567
	push	{r4, r5, lr}
	.save {r4, r5, lr}
	movw	r5, #65535
	ldr	r4, [r3, #-228]
	ldr	r2, [r0]
	ldr	r3, .L567+4
	subs	r0, r2, r4
	asrs	r0, r0, #1
	muls	r3, r0, r3
	movs	r0, #6
	uxth	r3, r3
.L564:
	cmp	r1, r3
	beq	.L565
	ldrh	r3, [r2]
	cmp	r3, r5
	beq	.L566
	mla	r2, r0, r3, r4
	b	.L564
.L565:
	movs	r0, #1
	pop	{r4, r5, pc}
.L566:
	movs	r0, #0
	pop	{r4, r5, pc}
.L568:
	.align	2
.L567:
	.word	.LANCHOR2
	.word	-1431655765
	.fnend
	.size	test_node_in_list, .-test_node_in_list
	.align	1
	.global	insert_data_list
	.thumb
	.thumb_func
	.type	insert_data_list, %function
insert_data_list:
	.fnstart
	@ args = 0, pretend = 0, frame = 8
	@ frame_needed = 0, uses_anonymous_args = 0
	push	{r0, r1, r2, r4, r5, r6, r7, r8, r9, r10, fp, lr}
	.save {r4, r5, r6, r7, r8, r9, r10, fp, lr}
	.pad #12
	ldr	r5, .L585
	ldrh	r3, [r5, #1812]
	cmp	r3, r0
	bls	.L571
	movs	r4, #6
	ldr	r2, .L585+4
	movw	r3, #65535
	muls	r4, r0, r4
	ldr	lr, [r2, #-228]
	mov	r7, r2
	add	r1, lr, r4
	strh	r3, [r1, #2]	@ movhi
	strh	r3, [lr, r4]	@ movhi
	ldr	r3, [r2, #-224]
	cmp	r3, #0
	beq	.L584
	ldr	r8, [r2, #-220]
	lsl	fp, r0, #1
	ldrh	r2, [r1, #4]
	ldrh	r6, [r8, r0, lsl #1]
	cbz	r2, .L582
	muls	r6, r2, r6
	b	.L573
.L582:
	mov	r6, #-1
.L573:
	ldr	ip, [r7, #-228]
	ldr	r2, .L585+8
	rsb	r7, ip, r3
	ldr	r9, [r5, #4060]
	asrs	r7, r7, #1
	muls	r7, r2, r7
	uxth	r2, r7
	ldrh	r7, [r5, #1812]
	add	r5, r9, fp
	str	r5, [sp, #4]
	movs	r5, #0
	str	r7, [sp]
.L580:
	adds	r5, r5, #1
	ldr	r7, [sp]
	uxth	r5, r5
	cmp	r5, r7
	bhi	.L571
	cmp	r0, r2
	beq	.L571
	ldrh	r7, [r3, #4]
	lsl	r10, r2, #1
	ldrh	fp, [r8, r2, lsl #1]
	cbz	r7, .L583
	mul	r7, r7, fp
	b	.L575
.L583:
	mov	r7, #-1
.L575:
	cmp	r7, r6
	bne	.L576
	ldr	r7, [sp, #4]
	ldrh	r10, [r9, r10]
	ldrh	r7, [r7]
	cmp	r10, r7
	bcc	.L578
	b	.L577
.L576:
	bhi	.L577
.L578:
	ldrh	r7, [r3]
	movw	r10, #65535
	cmp	r7, r10
	bne	.L579
	strh	r2, [r1, #2]	@ movhi
	strh	r0, [r3]	@ movhi
	ldr	r3, .L585+4
	str	r1, [r3, #-216]
	b	.L571
.L579:
	movs	r3, #6
	mov	r2, r7
	mla	r3, r3, r7, ip
	b	.L580
.L577:
	strh	r2, [lr, r4]	@ movhi
	ldrh	r2, [r3, #2]
	strh	r2, [r1, #2]	@ movhi
	ldr	r2, .L585+4
	ldr	r4, [r2, #-224]
	cmp	r3, r4
	bne	.L581
	strh	r0, [r3, #2]	@ movhi
.L584:
	str	r1, [r2, #-224]
	b	.L571
.L581:
	ldrh	r4, [r3, #2]
	ldr	r1, [r2, #-228]
	movs	r2, #6
	muls	r2, r4, r2
	strh	r0, [r1, r2]	@ movhi
	strh	r0, [r3, #2]	@ movhi
.L571:
	movs	r0, #0
	add	sp, sp, #12
	@ sp needed
	pop	{r4, r5, r6, r7, r8, r9, r10, fp, pc}
.L586:
	.align	2
.L585:
	.word	.LANCHOR0
	.word	.LANCHOR2
	.word	-1431655765
	.fnend
	.size	insert_data_list, .-insert_data_list
	.align	1
	.global	INSERT_DATA_LIST
	.thumb
	.thumb_func
	.type	INSERT_DATA_LIST, %function
INSERT_DATA_LIST:
	.fnstart
	@ args = 0, pretend = 0, frame = 0
	@ frame_needed = 0, uses_anonymous_args = 0
	push	{r3, lr}
	.save {r3, lr}
	bl	insert_data_list
	ldr	r2, .L588
	ldrh	r3, [r2, #-212]
	adds	r3, r3, #1
	strh	r3, [r2, #-212]	@ movhi
	pop	{r3, pc}
.L589:
	.align	2
.L588:
	.word	.LANCHOR2
	.fnend
	.size	INSERT_DATA_LIST, .-INSERT_DATA_LIST
	.align	1
	.global	insert_free_list
	.thumb
	.thumb_func
	.type	insert_free_list, %function
insert_free_list:
	.fnstart
	@ args = 0, pretend = 0, frame = 0
	@ frame_needed = 0, uses_anonymous_args = 0
	push	{r4, r5, r6, r7, r8, r9, r10, lr}
	.save {r4, r5, r6, r7, r8, r9, r10, lr}
	movw	r5, #65535
	cmp	r0, r5
	beq	.L591
	movs	r1, #6
	ldr	r2, .L598
	mul	r7, r1, r0
	ldr	lr, [r2, #-228]
	mov	ip, r2
	add	r6, lr, r7
	strh	r5, [r6, #2]	@ movhi
	strh	r5, [lr, r7]	@ movhi
	ldr	r3, [r2, #-208]
	cbz	r3, .L597
	ldr	r2, .L598+4
	ldr	r8, [ip, #-228]
	rsb	r4, r8, r3
	ldr	r9, [r2, #4060]
	ldr	r2, .L598+8
	asrs	r4, r4, #1
	ldrh	r10, [r9, r0, lsl #1]
	muls	r4, r2, r4
	uxth	r2, r4
.L595:
	ldrh	r4, [r9, r2, lsl #1]
	cmp	r4, r10
	bcs	.L593
	ldrh	r4, [r3]
	cmp	r4, r5
	bne	.L594
	strh	r2, [r6, #2]	@ movhi
	strh	r0, [r3]	@ movhi
	b	.L591
.L594:
	mla	r3, r1, r4, r8
	mov	r2, r4
	b	.L595
.L593:
	ldrh	r1, [r3, #2]
	strh	r1, [r6, #2]	@ movhi
	strh	r2, [lr, r7]	@ movhi
	ldr	r1, [ip, #-208]
	ldr	r2, .L598
	cmp	r3, r1
	bne	.L596
	strh	r0, [r3, #2]	@ movhi
.L597:
	str	r6, [r2, #-208]
	b	.L591
.L596:
	ldrh	r4, [r3, #2]
	ldr	r1, [r2, #-228]
	movs	r2, #6
	muls	r2, r4, r2
	strh	r0, [r1, r2]	@ movhi
	strh	r0, [r3, #2]	@ movhi
.L591:
	movs	r0, #0
	pop	{r4, r5, r6, r7, r8, r9, r10, pc}
.L599:
	.align	2
.L598:
	.word	.LANCHOR2
	.word	.LANCHOR0
	.word	-1431655765
	.fnend
	.size	insert_free_list, .-insert_free_list
	.align	1
	.global	INSERT_FREE_LIST
	.thumb
	.thumb_func
	.type	INSERT_FREE_LIST, %function
INSERT_FREE_LIST:
	.fnstart
	@ args = 0, pretend = 0, frame = 0
	@ frame_needed = 0, uses_anonymous_args = 0
	push	{r3, lr}
	.save {r3, lr}
	bl	insert_free_list
	ldr	r2, .L601
	ldrh	r3, [r2, #-204]
	adds	r3, r3, #1
	strh	r3, [r2, #-204]	@ movhi
	pop	{r3, pc}
.L602:
	.align	2
.L601:
	.word	.LANCHOR2
	.fnend
	.size	INSERT_FREE_LIST, .-INSERT_FREE_LIST
	.align	1
	.global	List_remove_node
	.thumb
	.thumb_func
	.type	List_remove_node, %function
List_remove_node:
	.fnstart
	@ args = 0, pretend = 0, frame = 0
	@ frame_needed = 0, uses_anonymous_args = 0
	push	{r4, r5, r6, r7, lr}
	.save {r4, r5, r6, r7, lr}
	movs	r4, #6
	ldr	r7, .L608
	movw	r6, #65535
	muls	r1, r4, r1
	ldr	r3, [r0]
	ldr	r2, [r7, #-228]
	adds	r5, r2, r1
	cmp	r5, r3
	ldrh	r3, [r2, r1]
	bne	.L604
	cmp	r3, r6
	ittee	eq
	moveq	r3, #0
	streq	r3, [r0]
	mlane	r3, r4, r3, r2
	strne	r3, [r0]
	it	ne
	strhne	r6, [r3, #2]	@ movhi
	b	.L606
.L604:
	cmp	r3, r6
	ldrh	r0, [r5, #2]
	bne	.L607
	cmp	r0, r3
	beq	.L606
	muls	r0, r4, r0
	strh	r3, [r2, r0]	@ movhi
	b	.L606
.L607:
	mla	r3, r4, r3, r2
	strh	r0, [r3, #2]	@ movhi
	ldrh	r6, [r5, #2]
	ldrh	r0, [r2, r1]
	ldr	r3, [r7, #-228]
	muls	r4, r6, r4
	strh	r0, [r3, r4]	@ movhi
.L606:
	movw	r3, #65535
	movs	r0, #0
	strh	r3, [r2, r1]	@ movhi
	strh	r3, [r5, #2]	@ movhi
	pop	{r4, r5, r6, r7, pc}
.L609:
	.align	2
.L608:
	.word	.LANCHOR2
	.fnend
	.size	List_remove_node, .-List_remove_node
	.align	1
	.global	List_pop_index_node
	.thumb
	.thumb_func
	.type	List_pop_index_node, %function
List_pop_index_node:
	.fnstart
	@ args = 0, pretend = 0, frame = 0
	@ frame_needed = 0, uses_anonymous_args = 0
	push	{r4, r5, r6, lr}
	.save {r4, r5, r6, lr}
	ldr	r3, [r0]
	cbz	r3, .L616
	ldr	r2, .L617
	movs	r6, #6
	movw	r5, #65535
	ldr	r4, [r2, #-228]
.L612:
	cbnz	r1, .L613
.L615:
	subs	r4, r3, r4
	ldr	r3, .L617+4
	asrs	r4, r4, #1
	muls	r4, r3, r4
	uxth	r4, r4
	mov	r1, r4
	bl	List_remove_node
	mov	r0, r4
	pop	{r4, r5, r6, pc}
.L613:
	ldrh	r2, [r3]
	cmp	r2, r5
	beq	.L615
	subs	r1, r1, #1
	mla	r3, r6, r2, r4
	uxth	r1, r1
	b	.L612
.L616:
	movw	r0, #65535
	pop	{r4, r5, r6, pc}
.L618:
	.align	2
.L617:
	.word	.LANCHOR2
	.word	-1431655765
	.fnend
	.size	List_pop_index_node, .-List_pop_index_node
	.align	1
	.global	List_get_gc_head_node
	.thumb
	.thumb_func
	.type	List_get_gc_head_node, %function
List_get_gc_head_node:
	.fnstart
	@ args = 0, pretend = 0, frame = 0
	@ frame_needed = 0, uses_anonymous_args = 0
	ldr	r2, .L626
	push	{r4, lr}
	.save {r4, lr}
	ldr	r3, [r2, #-224]
	cbz	r3, .L624
	movs	r4, #6
	ldr	r1, [r2, #-228]
	movw	r2, #65535
.L621:
	cbz	r0, .L622
	ldrh	r3, [r3]
	cmp	r3, r2
	beq	.L624
	subs	r0, r0, #1
	mla	r3, r4, r3, r1
	uxth	r0, r0
	b	.L621
.L624:
	movw	r0, #65535
	pop	{r4, pc}
.L622:
	subs	r3, r3, r1
	ldr	r0, .L626+4
	asrs	r3, r3, #1
	muls	r0, r3, r0
	uxth	r0, r0
	pop	{r4, pc}
.L627:
	.align	2
.L626:
	.word	.LANCHOR2
	.word	-1431655765
	.fnend
	.size	List_get_gc_head_node, .-List_get_gc_head_node
	.align	1
	.global	List_update_data_list
	.thumb
	.thumb_func
	.type	List_update_data_list, %function
List_update_data_list:
	.fnstart
	@ args = 0, pretend = 0, frame = 0
	@ frame_needed = 0, uses_anonymous_args = 0
	push	{r3, r4, r5, r6, r7, lr}
	.save {r3, r4, r5, r6, r7, lr}
	mov	r5, r0
	ldr	r4, .L635
	ldrh	r3, [r4, #-200]
	cmp	r3, r0
	beq	.L629
	ldrh	r3, [r4, #-152]
	cmp	r3, r0
	beq	.L629
	ldrh	r3, [r4, #-104]
	cmp	r3, r0
	beq	.L629
	movs	r3, #6
	ldr	r1, [r4, #-228]
	ldr	r2, [r4, #-224]
	muls	r3, r0, r3
	adds	r0, r1, r3
	cmp	r0, r2
	beq	.L629
	ldr	r6, [r4, #-220]
	ldrh	r2, [r0, #4]
	ldrh	r7, [r6, r5, lsl #1]
	cbz	r2, .L633
	muls	r2, r7, r2
	b	.L630
.L633:
	mov	r2, #-1
.L630:
	ldrh	r0, [r0, #2]
	movw	r7, #65535
	cmp	r0, r7
	bne	.L631
	ldrh	r3, [r1, r3]
	cmp	r3, r0
	beq	.L629
.L631:
	movs	r3, #6
	muls	r3, r0, r3
	ldr	r0, .L635+4
	asrs	r7, r3, #1
	add	r3, r3, r1
	muls	r0, r7, r0
	ldrh	r3, [r3, #4]
	ldrh	r0, [r6, r0, lsl #1]
	cbz	r3, .L634
	muls	r3, r0, r3
	b	.L632
.L634:
	mov	r3, #-1
.L632:
	cmp	r2, r3
	bcs	.L629
	ldr	r0, .L635+8
	mov	r1, r5
	bl	List_remove_node
	ldrh	r3, [r4, #-212]
	mov	r0, r5
	subs	r3, r3, #1
	strh	r3, [r4, #-212]	@ movhi
	bl	INSERT_DATA_LIST
.L629:
	movs	r0, #0
	pop	{r3, r4, r5, r6, r7, pc}
.L636:
	.align	2
.L635:
	.word	.LANCHOR2
	.word	-1431655765
	.word	.LANCHOR2-224
	.fnend
	.size	List_update_data_list, .-List_update_data_list
	.align	1
	.global	ftl_map_blk_alloc_new_blk
	.thumb
	.thumb_func
	.type	ftl_map_blk_alloc_new_blk, %function
ftl_map_blk_alloc_new_blk:
	.fnstart
	@ args = 0, pretend = 0, frame = 0
	@ frame_needed = 0, uses_anonymous_args = 0
	push	{r3, r4, r5, r6, r7, lr}
	.save {r3, r4, r5, r6, r7, lr}
	movs	r3, #0
	ldrh	r1, [r0, #10]
	mov	r4, r0
	ldr	r2, [r0, #12]
.L638:
	uxth	r5, r3
	cmp	r5, r1
	bcs	.L641
	mov	r7, r2
	adds	r3, r3, #1
	ldrh	r6, [r7]
	adds	r2, r2, #2
	cmp	r6, #0
	bne	.L638
	bl	FtlFreeSysBlkQueueOut
	movw	r2, #65533
	subs	r3, r0, #1
	mov	r1, r0
	strh	r0, [r7]	@ movhi
	uxth	r3, r3
	cmp	r3, r2
	bls	.L639
	ldr	r3, .L644
	ldr	r0, .L644+4
	ldrh	r2, [r3, #2002]
	bl	printk
.L640:
	b	.L640
.L639:
	ldr	r3, [r4, #28]
	strh	r6, [r4, #2]	@ movhi
	adds	r3, r3, #1
	str	r3, [r4, #28]
	ldrh	r3, [r4, #8]
	strh	r5, [r4]	@ movhi
	adds	r3, r3, #1
	strh	r3, [r4, #8]	@ movhi
.L641:
	movs	r0, #0
	pop	{r3, r4, r5, r6, r7, pc}
.L645:
	.align	2
.L644:
	.word	.LANCHOR0
	.word	.LC5
	.fnend
	.size	ftl_map_blk_alloc_new_blk, .-ftl_map_blk_alloc_new_blk
	.align	1
	.global	select_l2p_ram_region
	.thumb
	.thumb_func
	.type	select_l2p_ram_region, %function
select_l2p_ram_region:
	.fnstart
	@ args = 0, pretend = 0, frame = 0
	@ frame_needed = 0, uses_anonymous_args = 0
	push	{r4, r5, r6, r7, lr}
	.save {r4, r5, r6, r7, lr}
	movs	r1, #0
	ldr	r3, .L660
	movs	r4, #12
	ldr	r7, .L660+4
	movw	r5, #65535
	ldrh	r2, [r3, #1910]
	ldr	r3, [r7, #-56]
.L647:
	uxth	r0, r1
	cmp	r0, r2
	bcs	.L658
	adds	r1, r1, #1
	mla	r6, r4, r1, r3
	ldrh	r6, [r6, #-12]
	cmp	r6, r5
	bne	.L647
	b	.L648
.L658:
	movs	r1, #0
	mov	r6, #-2147483648
	mov	lr, #12
	mov	r0, r2
.L650:
	uxth	r5, r1
	cmp	r5, r2
	bcs	.L659
	mla	r4, lr, r1, r3
	ldr	r4, [r4, #4]
	cmp	r4, #0
	blt	.L651
	cmp	r4, r6
	itt	cc
	movcc	r6, r4
	movcc	r0, r5
.L651:
	adds	r1, r1, #1
	b	.L650
.L659:
	cmp	r0, r2
	bcc	.L648
	ldrh	r7, [r7, #-52]
	movs	r1, #0
	mov	r4, #-1
	mov	r0, r2
.L653:
	uxth	r5, r1
	cmp	r5, r2
	bcs	.L648
	ldr	r6, [r3, #4]
	cmp	r6, r4
	bcs	.L654
	ldrh	lr, [r3]
	cmp	lr, r7
	itt	ne
	movne	r4, r6
	movne	r0, r5
.L654:
	adds	r1, r1, #1
	adds	r3, r3, #12
	b	.L653
.L648:
	pop	{r4, r5, r6, r7, pc}
.L661:
	.align	2
.L660:
	.word	.LANCHOR0
	.word	.LANCHOR2
	.fnend
	.size	select_l2p_ram_region, .-select_l2p_ram_region
	.align	1
	.global	FtlUpdateVaildLpn
	.thumb
	.thumb_func
	.type	FtlUpdateVaildLpn, %function
FtlUpdateVaildLpn:
	.fnstart
	@ args = 0, pretend = 0, frame = 0
	@ frame_needed = 0, uses_anonymous_args = 0
	ldr	r1, .L669
	push	{r4, r5, lr}
	.save {r4, r5, lr}
	ldrh	r2, [r1, #-50]
	mov	r3, r1
	cmp	r2, #4
	bhi	.L663
	cbnz	r0, .L663
	adds	r2, r2, #1
	strh	r2, [r1, #-50]	@ movhi
	pop	{r4, r5, pc}
.L663:
	ldr	r1, .L669+4
	movs	r2, #0
	strh	r2, [r3, #-50]	@ movhi
	movw	r5, #65535
	str	r2, [r3, #-48]
	ldrh	r1, [r1, #1812]
	ldr	r2, [r3, #-220]
	add	r1, r2, r1, lsl #1
.L664:
	cmp	r2, r1
	beq	.L668
	ldrh	r4, [r2], #2
	cmp	r4, r5
	ittt	ne
	ldrne	r0, [r3, #-48]
	addne	r0, r0, r4
	strne	r0, [r3, #-48]
	b	.L664
.L668:
	pop	{r4, r5, pc}
.L670:
	.align	2
.L669:
	.word	.LANCHOR2
	.word	.LANCHOR0
	.fnend
	.size	FtlUpdateVaildLpn, .-FtlUpdateVaildLpn
	.align	1
	.global	ftl_set_blk_mode
	.thumb
	.thumb_func
	.type	ftl_set_blk_mode, %function
ftl_set_blk_mode:
	.fnstart
	@ args = 0, pretend = 0, frame = 0
	@ frame_needed = 0, uses_anonymous_args = 0
	@ link register save eliminated.
	lsrs	r3, r0, #5
	ldr	r2, .L674
	and	r0, r0, #31
	uxth	r3, r3
	cbz	r1, .L672
	ldr	r1, [r2, #-44]
	movs	r2, #1
	lsls	r2, r2, r0
	ldr	r0, [r1, r3, lsl #2]
	orrs	r2, r2, r0
	str	r2, [r1, r3, lsl #2]
	bx	lr
.L672:
	ldr	r1, [r2, #-44]
	movs	r2, #1
	lsls	r2, r2, r0
	ldr	r0, [r1, r3, lsl #2]
	bic	r0, r0, r2
	str	r0, [r1, r3, lsl #2]
	bx	lr
.L675:
	.align	2
.L674:
	.word	.LANCHOR2
	.fnend
	.size	ftl_set_blk_mode, .-ftl_set_blk_mode
	.align	1
	.global	ftl_get_blk_mode
	.thumb
	.thumb_func
	.type	ftl_get_blk_mode, %function
ftl_get_blk_mode:
	.fnstart
	@ args = 0, pretend = 0, frame = 0
	@ frame_needed = 0, uses_anonymous_args = 0
	@ link register save eliminated.
	ldr	r3, .L677
	lsrs	r1, r0, #5
	ldr	r2, [r3, #-44]
	and	r3, r0, #31
	ldr	r0, [r2, r1, lsl #2]
	lsrs	r0, r0, r3
	and	r0, r0, #1
	bx	lr
.L678:
	.align	2
.L677:
	.word	.LANCHOR2
	.fnend
	.size	ftl_get_blk_mode, .-ftl_get_blk_mode
	.align	1
	.global	ftl_sb_update_avl_pages
	.thumb
	.thumb_func
	.type	ftl_sb_update_avl_pages, %function
ftl_sb_update_avl_pages:
	.fnstart
	@ args = 0, pretend = 0, frame = 0
	@ frame_needed = 0, uses_anonymous_args = 0
	movs	r3, #0
	strh	r3, [r0, #4]	@ movhi
	ldr	r3, .L688
	push	{r4, r5, r6, r7, lr}
	.save {r4, r5, r6, r7, lr}
	adds	r4, r2, #7
	ldrh	r5, [r3, #1804]
	movw	r7, #65535
	add	r4, r0, r4, lsl #1
.L680:
	cmp	r2, r5
	bcs	.L686
	ldrh	r6, [r4, #2]!
	adds	r2, r2, #1
	cmp	r6, r7
	uxth	r2, r2
	ittt	ne
	ldrhne	r6, [r0, #4]
	addne	r6, r6, #1
	strhne	r6, [r0, #4]	@ movhi
	b	.L680
.L686:
	ldrh	r6, [r3, #1872]
	add	r4, r0, #14
	movs	r2, #0
	movw	r7, #65535
.L683:
	uxth	r3, r2
	cmp	r3, r5
	bcs	.L687
	ldrh	r3, [r4, #2]!
	adds	r2, r2, #1
	cmp	r3, r7
	itttt	ne
	ldrhne	r3, [r0, #4]
	addne	r3, r3, r6
	addne	r3, r3, #-1
	subne	r3, r3, r1
	it	ne
	strhne	r3, [r0, #4]	@ movhi
	b	.L683
.L687:
	pop	{r4, r5, r6, r7, pc}
.L689:
	.align	2
.L688:
	.word	.LANCHOR0
	.fnend
	.size	ftl_sb_update_avl_pages, .-ftl_sb_update_avl_pages
	.align	1
	.global	make_superblock
	.thumb
	.thumb_func
	.type	make_superblock, %function
make_superblock:
	.fnstart
	@ args = 0, pretend = 0, frame = 0
	@ frame_needed = 0, uses_anonymous_args = 0
	push	{r3, r4, r5, r6, r7, r8, r9, r10, fp, lr}
	.save {r3, r4, r5, r6, r7, r8, r9, r10, fp, lr}
	movs	r3, #0
	ldr	r6, .L703
	add	r7, r0, #16
	mov	r4, r0
	mov	r5, r3
	add	r10, r6, #1832
	movw	r9, #65535
	ldrh	r8, [r6, #1804]
	strh	r3, [r0, #4]	@ movhi
	strb	r3, [r0, #7]
.L691:
	uxth	r3, r5
	cmp	r3, r8
	bcs	.L702
	ldrb	r0, [r10, r5]	@ zero_extendqisi2
	ldrh	r1, [r4]
	bl	V2P_block
	strh	r9, [r7]	@ movhi
	mov	fp, r0
	bl	FtlBbmIsBadBlock
	cbnz	r0, .L692
	strh	fp, [r7]	@ movhi
	ldrb	r3, [r4, #7]	@ zero_extendqisi2
	adds	r3, r3, #1
	strb	r3, [r4, #7]
.L692:
	adds	r5, r5, #1
	adds	r7, r7, #2
	b	.L691
.L702:
	ldrb	r2, [r4, #7]	@ zero_extendqisi2
	ldrh	r3, [r6, #1872]
	smulbb	r3, r2, r3
	strh	r3, [r4, #4]	@ movhi
	movs	r3, #0
	strb	r3, [r4, #9]
	ldr	r3, [r6, #1796]
	cbz	r3, .L694
	ldr	r3, .L703
	ldrh	r2, [r4]
	ldr	r3, [r3, #4060]
	ldrh	r3, [r3, r2, lsl #1]
	cmp	r3, #79
	itt	ls
	movls	r3, #1
	strbls	r3, [r4, #9]
.L694:
	ldrb	r3, [r6]	@ zero_extendqisi2
	cbz	r3, .L695
	movs	r3, #1
	strb	r3, [r4, #9]
.L695:
	movs	r0, #0
	pop	{r3, r4, r5, r6, r7, r8, r9, r10, fp, pc}
.L704:
	.align	2
.L703:
	.word	.LANCHOR0
	.fnend
	.size	make_superblock, .-make_superblock
	.align	1
	.global	update_multiplier_value
	.thumb
	.thumb_func
	.type	update_multiplier_value, %function
update_multiplier_value:
	.fnstart
	@ args = 0, pretend = 0, frame = 0
	@ frame_needed = 0, uses_anonymous_args = 0
	push	{r3, r4, r5, r6, r7, r8, r9, lr}
	.save {r3, r4, r5, r6, r7, r8, r9, lr}
	movs	r5, #0
	ldr	r3, .L714
	mov	r7, r0
	mov	r4, r5
	add	r6, r3, #1832
	ldrh	r8, [r3, #1804]
	ldrh	r9, [r3, #1872]
.L706:
	uxth	r3, r5
	cmp	r3, r8
	bcs	.L713
	mov	r1, r7
	ldrb	r0, [r6, r5]	@ zero_extendqisi2
	bl	V2P_block
	bl	FtlBbmIsBadBlock
	cbnz	r0, .L707
	add	r4, r4, r9
	uxth	r4, r4
.L707:
	adds	r5, r5, #1
	b	.L706
.L713:
	cbz	r4, .L709
	mov	r1, r4
	mov	r0, #32768
	bl	__aeabi_idiv
	uxth	r4, r0
.L709:
	ldr	r3, .L714+4
	movs	r2, #6
	movs	r0, #0
	ldr	r3, [r3, #-228]
	mla	r7, r2, r7, r3
	strh	r4, [r7, #4]	@ movhi
	pop	{r3, r4, r5, r6, r7, r8, r9, pc}
.L715:
	.align	2
.L714:
	.word	.LANCHOR0
	.word	.LANCHOR2
	.fnend
	.size	update_multiplier_value, .-update_multiplier_value
	.align	1
	.global	GetFreeBlockMinEraseCount
	.thumb
	.thumb_func
	.type	GetFreeBlockMinEraseCount, %function
GetFreeBlockMinEraseCount:
	.fnstart
	@ args = 0, pretend = 0, frame = 0
	@ frame_needed = 0, uses_anonymous_args = 0
	@ link register save eliminated.
	ldr	r3, .L719
	ldr	r0, [r3, #-208]
	cbz	r0, .L717
	ldr	r3, [r3, #-228]
	subs	r0, r0, r3
	ldr	r3, .L719+4
	asrs	r0, r0, #1
	muls	r0, r3, r0
	ldr	r3, .L719+8
	ldr	r3, [r3, #4060]
	uxth	r0, r0
	ldrh	r0, [r3, r0, lsl #1]
.L717:
	bx	lr
.L720:
	.align	2
.L719:
	.word	.LANCHOR2
	.word	-1431655765
	.word	.LANCHOR0
	.fnend
	.size	GetFreeBlockMinEraseCount, .-GetFreeBlockMinEraseCount
	.align	1
	.global	GetFreeBlockMaxEraseCount
	.thumb
	.thumb_func
	.type	GetFreeBlockMaxEraseCount, %function
GetFreeBlockMaxEraseCount:
	.fnstart
	@ args = 0, pretend = 0, frame = 0
	@ frame_needed = 0, uses_anonymous_args = 0
	ldr	r1, .L729
	push	{r4, r5, r6, lr}
	.save {r4, r5, r6, lr}
	ldr	r3, [r1, #-208]
	cbz	r3, .L727
	ldrh	r2, [r1, #-204]
	movs	r5, #6
	ldr	r1, [r1, #-228]
	movw	r6, #65535
	rsb	r2, r2, r2, lsl #3
	subs	r3, r3, r1
	asrs	r2, r2, #3
	asrs	r3, r3, #1
	cmp	r0, r2
	it	gt
	uxthgt	r0, r2
	ldr	r2, .L729+4
	muls	r3, r2, r3
	movs	r2, #0
	uxth	r3, r3
.L724:
	uxth	r4, r2
	cmp	r4, r0
	bcs	.L726
	mul	r4, r5, r3
	adds	r2, r2, #1
	ldrh	r4, [r1, r4]
	cmp	r4, r6
	bne	.L728
.L726:
	ldr	r2, .L729+8
	ldr	r2, [r2, #4060]
	ldrh	r0, [r2, r3, lsl #1]
	pop	{r4, r5, r6, pc}
.L728:
	mov	r3, r4
	b	.L724
.L727:
	mov	r0, r3
	pop	{r4, r5, r6, pc}
.L730:
	.align	2
.L729:
	.word	.LANCHOR2
	.word	-1431655765
	.word	.LANCHOR0
	.fnend
	.size	GetFreeBlockMaxEraseCount, .-GetFreeBlockMaxEraseCount
	.align	1
	.global	FtlPrintInfo2buf
	.thumb
	.thumb_func
	.type	FtlPrintInfo2buf, %function
FtlPrintInfo2buf:
	.fnstart
	@ args = 0, pretend = 0, frame = 32
	@ frame_needed = 0, uses_anonymous_args = 0
	push	{r4, r5, r6, r7, r8, r9, r10, fp, lr}
	.save {r4, r5, r6, r7, r8, r9, r10, fp, lr}
	mov	r8, r0
	ldr	r7, .L742
	.pad #52
	sub	sp, sp, #52
	ldr	r6, .L742+4
	add	r5, r8, #12
	ldr	r1, .L742+8
	ldr	r3, [r7]
	str	r3, [sp, #44]
	bl	strcpy
	mov	r0, r5
	ldr	r1, .L742+12
	ldr	r2, [r6, #112]
	bl	sprintf
	ldr	r1, .L742+16
	ldr	r2, [r6, #1888]
	add	r5, r5, r0
	mov	r0, r5
	bl	sprintf
	ldr	r3, .L742+20
	ldr	r3, [r3, #504]
	cmp	r3, #1
	add	r4, r5, r0
	bne	.L737
	add	r0, sp, #28
	add	r1, sp, #32
	add	r2, sp, #36
	add	r3, sp, #40
	bl	NandcGetTimeCfg
	mov	r0, r4
	ldr	r1, .L742+24
	ldr	r9, .L742+240
	ldr	r3, [sp, #36]
	ldr	r2, [sp, #28]
	str	r3, [sp]
	ldr	r3, [sp, #40]
	str	r3, [sp, #4]
	ldr	r3, [sp, #32]
	bl	sprintf
	ldr	r1, .L742+28
	add	r4, r4, r0
	add	r5, r4, #10
	mov	r0, r4
	bl	strcpy
	mov	r0, r5
	ldr	r1, .L742+32
	ldr	r2, [r6, #1932]
	bl	sprintf
	ldr	r1, .L742+36
	ldr	r2, [r9, #-48]
	add	r5, r5, r0
	mov	r0, r5
	bl	sprintf
	ldr	r1, .L742+40
	ldr	r2, [r9, #-40]
	add	r5, r5, r0
	mov	r0, r5
	bl	sprintf
	ldr	r1, .L742+44
	ldr	r2, [r9, #-36]
	add	r5, r5, r0
	mov	r0, r5
	bl	sprintf
	ldr	r1, .L742+48
	ldr	r2, [r9, #-32]
	add	r5, r5, r0
	mov	r0, r5
	bl	sprintf
	ldr	r1, .L742+52
	ldr	r2, [r9, #-28]
	add	r5, r5, r0
	mov	r0, r5
	bl	sprintf
	ldr	r1, .L742+56
	ldr	r2, [r9, #-24]
	add	r5, r5, r0
	mov	r0, r5
	bl	sprintf
	ldr	r1, .L742+60
	ldr	r2, [r9, #-20]
	add	r5, r5, r0
	mov	r0, r5
	bl	sprintf
	ldr	r2, [r9, #-16]
	ldr	r1, .L742+64
	lsrs	r2, r2, #11
	add	r5, r5, r0
	mov	r0, r5
	bl	sprintf
	ldr	r2, [r9, #-12]
	ldr	r1, .L742+68
	lsrs	r2, r2, #11
	add	r5, r5, r0
	mov	r0, r5
	bl	sprintf
	ldr	r1, .L742+72
	ldr	r2, [r9, #-8]
	add	r5, r5, r0
	mov	r0, r5
	bl	sprintf
	ldr	r1, .L742+76
	ldr	r2, [r9, #-4]
	add	r5, r5, r0
	mov	r0, r5
	bl	sprintf
	add	r5, r5, r0
	bl	FtlBbtCalcTotleCnt
	ldr	r1, .L742+80
	ldrh	r2, [r6, #1942]
	mov	r3, r0
	mov	r0, r5
	bl	sprintf
	ldr	r1, .L742+84
	ldrh	r2, [r9, #-204]
	add	r5, r5, r0
	mov	r0, r5
	bl	sprintf
	ldr	r1, .L742+88
	ldr	r2, [r9]
	adds	r4, r5, r0
	mov	r0, r4
	bl	sprintf
	ldr	r1, .L742+92
	ldr	r2, [r9, #4]
	add	r4, r4, r0
	mov	r0, r4
	bl	sprintf
	ldr	r1, .L742+96
	ldr	r2, [r9, #8]
	add	r4, r4, r0
	mov	r0, r4
	bl	sprintf
	ldr	r1, .L742+100
	ldr	r2, [r6, #4064]
	add	r4, r4, r0
	mov	r0, r4
	bl	sprintf
	ldr	r1, .L742+104
	ldr	r2, [r9, #12]
	add	r4, r4, r0
	mov	r0, r4
	bl	sprintf
	ldr	r1, .L742+108
	ldr	r2, [r9, #16]
	add	r4, r4, r0
	mov	r0, r4
	bl	sprintf
	movw	r3, #4098
	ldrh	r2, [r6, r3]
	ldr	r1, .L742+112
	add	r4, r4, r0
	mov	r0, r4
	bl	sprintf
	add	r3, r6, #4096
	ldr	r1, .L742+116
	ldrh	r2, [r3]
	add	r4, r4, r0
	mov	r0, r4
	bl	sprintf
	ldr	r1, .L742+120
	ldr	r2, [r6, #1912]
	add	r4, r4, r0
	mov	r0, r4
	bl	sprintf
	ldr	r1, .L742+124
	ldr	r2, [r6, #1904]
	add	r4, r4, r0
	mov	r0, r4
	bl	sprintf
	ldr	r1, .L742+128
	ldr	r2, [r6, #1800]
	add	r4, r4, r0
	mov	r0, r4
	bl	sprintf
	ldr	r1, .L742+132
	ldrh	r2, [r6, #2002]
	add	r4, r4, r0
	mov	r0, r4
	bl	sprintf
	ldr	r1, .L742+136
	ldrh	r2, [r6, #1812]
	add	r4, r4, r0
	mov	r0, r4
	bl	sprintf
	ldr	r1, .L742+140
	ldrh	r2, [r9, #20]
	add	r4, r4, r0
	mov	r0, r4
	bl	sprintf
	ldr	r1, .L742+144
	ldr	r2, [r6, #1816]
	add	r4, r4, r0
	mov	r0, r4
	bl	sprintf
	ldr	r1, .L742+148
	ldrh	r2, [r9, #24]
	add	r4, r4, r0
	mov	r0, r4
	bl	sprintf
	ldr	r1, .L742+152
	ldrh	r2, [r6, #1936]
	add	r4, r4, r0
	mov	r0, r4
	bl	sprintf
	ldr	r1, .L742+156
	ldrh	r2, [r9, #-198]
	add	r4, r4, r0
	mov	r0, r4
	bl	sprintf
	ldr	r1, .L742+160
	ldrb	r2, [r9, #-194]	@ zero_extendqisi2
	add	r4, r4, r0
	mov	r0, r4
	bl	sprintf
	ldr	r1, .L742+164
	ldrh	r2, [r9, #-200]
	add	r4, r4, r0
	mov	r0, r4
	bl	sprintf
	ldr	r1, .L742+168
	ldrb	r2, [r9, #-192]	@ zero_extendqisi2
	add	r4, r4, r0
	mov	r0, r4
	bl	sprintf
	ldr	r1, .L742+172
	ldrh	r2, [r9, #-196]
	add	r4, r4, r0
	mov	r0, r4
	bl	sprintf
	ldr	r3, [r9, #-220]
	ldrh	r2, [r9, #-200]
	ldr	r1, .L742+176
	ldrh	r2, [r3, r2, lsl #1]
	add	r4, r4, r0
	mov	r0, r4
	bl	sprintf
	ldr	r1, .L742+180
	ldrh	r2, [r9, #-150]
	add	r4, r4, r0
	mov	r0, r4
	bl	sprintf
	ldr	r1, .L742+184
	ldrb	r2, [r9, #-146]	@ zero_extendqisi2
	add	r4, r4, r0
	mov	r0, r4
	bl	sprintf
	ldr	r1, .L742+188
	ldrh	r2, [r9, #-152]
	add	r4, r4, r0
	mov	r0, r4
	bl	sprintf
	ldr	r1, .L742+192
	ldrb	r2, [r9, #-144]	@ zero_extendqisi2
	add	r4, r4, r0
	mov	r0, r4
	bl	sprintf
	ldr	r1, .L742+196
	ldrh	r2, [r9, #-148]
	add	r4, r4, r0
	mov	r0, r4
	bl	sprintf
	ldr	r3, [r9, #-220]
	ldrh	r2, [r9, #-152]
	ldr	r1, .L742+200
	ldrh	r2, [r3, r2, lsl #1]
	add	r4, r4, r0
	mov	r0, r4
	bl	sprintf
	ldr	r1, .L742+204
	ldrh	r2, [r9, #-102]
	add	r4, r4, r0
	mov	r0, r4
	bl	sprintf
	ldr	r1, .L742+208
	ldrb	r2, [r9, #-98]	@ zero_extendqisi2
	add	r4, r4, r0
	mov	r0, r4
	bl	sprintf
	ldr	r1, .L742+212
	ldrh	r2, [r9, #-104]
	add	r4, r4, r0
	mov	r0, r4
	bl	sprintf
	ldr	r1, .L742+216
	ldrb	r2, [r9, #-96]	@ zero_extendqisi2
	add	r4, r4, r0
	mov	r0, r4
	bl	sprintf
	ldr	r1, .L742+220
	ldrh	r2, [r9, #-100]
	add	r4, r4, r0
	mov	r0, r4
	bl	sprintf
	ldr	r1, .L742+224
	ldrh	r2, [r9, #42]
	add	r4, r4, r0
	mov	r0, r4
	bl	sprintf
	ldr	r1, .L742+228
	ldrb	r2, [r9, #46]	@ zero_extendqisi2
	add	r4, r4, r0
	mov	r0, r4
	bl	sprintf
	ldr	r1, .L742+232
	ldrh	r2, [r9, #40]
	add	r4, r4, r0
	mov	r0, r4
	bl	sprintf
	ldr	r1, .L742+236
	ldrb	r2, [r9, #48]	@ zero_extendqisi2
	add	r4, r4, r0
	mov	r0, r4
	b	.L743
.L744:
	.align	2
.L742:
	.word	__stack_chk_guard
	.word	.LANCHOR0
	.word	.LC6
	.word	.LC7
	.word	.LC8
	.word	.LANCHOR1
	.word	.LC9
	.word	.LC10
	.word	.LC11
	.word	.LC12
	.word	.LC13
	.word	.LC14
	.word	.LC15
	.word	.LC16
	.word	.LC17
	.word	.LC18
	.word	.LC19
	.word	.LC20
	.word	.LC21
	.word	.LC22
	.word	.LC23
	.word	.LC24
	.word	.LC25
	.word	.LC26
	.word	.LC27
	.word	.LC28
	.word	.LC29
	.word	.LC30
	.word	.LC31
	.word	.LC32
	.word	.LC33
	.word	.LC34
	.word	.LC35
	.word	.LC36
	.word	.LC37
	.word	.LC38
	.word	.LC39
	.word	.LC40
	.word	.LC41
	.word	.LC42
	.word	.LC43
	.word	.LC44
	.word	.LC45
	.word	.LC46
	.word	.LC47
	.word	.LC48
	.word	.LC49
	.word	.LC50
	.word	.LC51
	.word	.LC52
	.word	.LC53
	.word	.LC54
	.word	.LC55
	.word	.LC56
	.word	.LC57
	.word	.LC58
	.word	.LC59
	.word	.LC60
	.word	.LC61
	.word	.LC62
	.word	.LANCHOR2
.L743:
	bl	sprintf
	ldr	r1, .L745
	ldrh	r2, [r9, #44]
	add	r4, r4, r0
	mov	r0, r4
	bl	sprintf
	ldr	r1, [r9, #176]
	ldr	r2, [r9, #88]
	ldr	r3, [r6, #1796]
	orr	r2, r3, r2, lsl #8
	ldr	r3, [r9, #172]
	str	r1, [sp]
	add	r4, r4, r0
	ldr	r1, [r9, #168]
	mov	r0, r4
	str	r1, [sp, #4]
	ldr	r1, .L745+4
	bl	sprintf
	ldr	r1, .L745+8
	ldr	r2, [r9, #164]
	add	r4, r4, r0
	mov	r0, r4
	bl	sprintf
	ldr	r1, .L745+12
	ldr	r2, [r9, #188]
	add	r4, r4, r0
	mov	r0, r4
	bl	sprintf
	ldr	r1, .L745+16
	ldrh	r2, [r9, #604]
	add	r4, r4, r0
	mov	r0, r4
	bl	sprintf
	ldr	r1, .L745+20
	ldrh	r2, [r9, #606]
	add	r4, r4, r0
	mov	r0, r4
	bl	sprintf
	ldr	r1, .L745+24
	ldr	r2, [r9, #608]
	add	r4, r4, r0
	mov	r0, r4
	bl	sprintf
	ldr	r1, .L745+28
	ldrh	r2, [r9, #612]
	add	r4, r4, r0
	mov	r0, r4
	bl	sprintf
	add	r4, r4, r0
	bl	GetFreeBlockMinEraseCount
	ldr	r1, .L745+32
	mov	r2, r0
	mov	r0, r4
	bl	sprintf
	add	r4, r4, r0
	ldrh	r0, [r9, #-204]
	bl	GetFreeBlockMaxEraseCount
	ldr	r1, .L745+36
	mov	r2, r0
	mov	r0, r4
	bl	sprintf
	ldrh	r3, [r9, #40]
	movw	r2, #65535
	cmp	r3, r2
	add	r4, r4, r0
	beq	.L734
	ldr	r2, [r9, #-220]
	mov	r0, r4
	ldr	r1, .L745+40
	ldrh	r2, [r2, r3, lsl #1]
	bl	sprintf
	add	r4, r4, r0
.L734:
	movs	r0, #0
	movs	r5, #0
	bl	List_get_gc_head_node
	mov	fp, #6
	movw	ip, #65535
	uxth	r3, r0
.L736:
	cmp	r3, ip
	str	ip, [sp, #20]
	beq	.L735
	ldr	r2, [r9, #-220]
	mov	r0, r4
	mul	r10, fp, r3
	ldr	r1, .L745+44
	ldrh	r2, [r2, r3, lsl #1]
	str	r2, [sp]
	ldr	r2, [r9, #-228]
	add	r2, r2, r10
	ldrh	r2, [r2, #4]
	str	r2, [sp, #4]
	ldr	r2, [r6, #4060]
	ldrh	r2, [r2, r3, lsl #1]
	str	r2, [sp, #8]
	mov	r2, r5
	bl	sprintf
	adds	r5, r5, #1
	ldr	r3, [r9, #-228]
	cmp	r5, #16
	ldrh	r3, [r3, r10]
	add	r4, r4, r0
	ldr	ip, [sp, #20]
	bne	.L736
.L735:
	ldr	r3, [r9, #-228]
	mov	r10, #0
	ldr	r5, [r9, #-208]
	movw	ip, #65535
	subs	r5, r5, r3
	ldr	r3, .L745+48
	asrs	r5, r5, #1
	muls	r3, r5, r3
	movs	r5, #6
	uxth	r3, r3
.L738:
	cmp	r3, ip
	str	ip, [sp, #20]
	beq	.L737
	mul	fp, r5, r3
	ldr	r2, [r9, #-228]
	mov	r0, r4
	ldr	r1, .L745+52
	add	r2, r2, fp
	ldrh	r2, [r2, #4]
	str	r2, [sp]
	ldr	r2, [r6, #4060]
	ldrh	r2, [r2, r3, lsl #1]
	str	r2, [sp, #4]
	mov	r2, r10
	bl	sprintf
	add	r10, r10, #1
	ldr	r3, [r9, #-228]
	cmp	r10, #4
	ldrh	r3, [r3, fp]
	add	r4, r4, r0
	ldr	ip, [sp, #20]
	bne	.L738
.L737:
	ldr	r2, [sp, #44]
	rsb	r0, r8, r4
	ldr	r3, [r7]
	cmp	r2, r3
	beq	.L739
	bl	__stack_chk_fail
.L739:
	add	sp, sp, #52
	@ sp needed
	pop	{r4, r5, r6, r7, r8, r9, r10, fp, pc}
.L746:
	.align	2
.L745:
	.word	.LC63
	.word	.LC64
	.word	.LC65
	.word	.LC66
	.word	.LC67
	.word	.LC68
	.word	.LC69
	.word	.LC70
	.word	.LC71
	.word	.LC72
	.word	.LC73
	.word	.LC74
	.word	-1431655765
	.word	.LC75
	.fnend
	.size	FtlPrintInfo2buf, .-FtlPrintInfo2buf
	.align	1
	.global	ftl_proc_ftl_read
	.thumb
	.thumb_func
	.type	ftl_proc_ftl_read, %function
ftl_proc_ftl_read:
	.fnstart
	@ args = 0, pretend = 0, frame = 0
	@ frame_needed = 0, uses_anonymous_args = 0
	push	{r3, r4, r5, lr}
	.save {r3, r4, r5, lr}
	mov	r5, r0
	ldr	r1, .L748
	ldr	r2, .L748+4
	bl	sprintf
	adds	r4, r5, r0
	mov	r0, r4
	bl	FtlPrintInfo2buf
	add	r0, r0, r4
	subs	r0, r0, r5
	pop	{r3, r4, r5, pc}
.L749:
	.align	2
.L748:
	.word	.LC76
	.word	.LC77
	.fnend
	.size	ftl_proc_ftl_read, .-ftl_proc_ftl_read
	.align	1
	.global	GetSwlReplaceBlock
	.thumb
	.thumb_func
	.type	GetSwlReplaceBlock, %function
GetSwlReplaceBlock:
	.fnstart
	@ args = 0, pretend = 0, frame = 8
	@ frame_needed = 0, uses_anonymous_args = 0
	push	{r4, r5, r6, r7, r8, r9, r10, fp, lr}
	.save {r4, r5, r6, r7, r8, r9, r10, fp, lr}
	.pad #28
	sub	sp, sp, #28
	ldr	r4, .L778
	ldr	r2, [r4, #8]
	ldr	r3, [r4, #16]
	cmp	r2, r3
	bcs	.L751
	ldr	r2, .L778+4
	movs	r3, #0
	str	r3, [r4]
	ldrh	r1, [r2, #1812]
	mov	r5, r2
	ldr	r0, [r2, #4060]
.L752:
	cmp	r3, r1
	bcs	.L777
	ldrh	r6, [r0, r3, lsl #1]
	adds	r3, r3, #1
	ldr	r2, [r4]
	add	r2, r2, r6
	str	r2, [r4]
	b	.L752
.L777:
	ldr	r6, [r4]
	mov	r0, r6
	bl	__aeabi_uidiv
	ldrh	r1, [r5, #1864]
	str	r0, [r4, #8]
	ldr	r0, [r4, #4]
	subs	r0, r6, r0
	bl	__aeabi_uidiv
	str	r0, [r4]
	b	.L754
.L751:
	ldr	r3, [r4, #12]
	cmp	r2, r3
	bls	.L754
	ldr	r1, .L778+4
	adds	r3, r3, #1
	str	r3, [r4, #12]
	movs	r3, #0
.L756:
	ldrh	r2, [r1, #1812]
	cmp	r3, r2
	bcs	.L754
	ldr	r0, [r1, #4060]
	ldrh	r2, [r0, r3, lsl #1]
	adds	r2, r2, #1
	strh	r2, [r0, r3, lsl #1]	@ movhi
	adds	r3, r3, #1
	b	.L756
.L754:
	ldr	r6, [r4, #16]
	ldr	r8, [r4, #8]
	add	r3, r6, #256
	cmp	r3, r8
	bls	.L759
	ldr	r2, .L778
	add	r3, r6, #768
	ldr	r2, [r2, #12]
	cmp	r3, r2
	bls	.L759
	ldr	r3, .L778+4
	ldr	r3, [r3, #1796]
	cbnz	r3, .L760
.L762:
	movw	r0, #65535
	b	.L761
.L760:
	cmp	r6, #40
	bhi	.L762
.L759:
	ldrh	r0, [r4, #-204]
	add	r0, r0, r0, lsl #1
	ubfx	r0, r0, #2, #16
	bl	GetFreeBlockMaxEraseCount
	add	r3, r6, #64
	cmp	r0, r3
	mov	r9, r0
	bcs	.L763
	cmp	r6, #40
	bhi	.L762
.L763:
	ldr	r3, [r4, #-224]
	cmp	r3, #0
	beq	.L762
	ldr	r2, .L778+4
	movw	r7, #65535
	mov	ip, #6
	mov	r5, r7
	mov	lr, r7
	ldrh	r1, [r2, #1812]
	ldr	r10, [r2, #4060]
	str	r1, [sp, #20]
	ldr	r1, .L778
	ldr	r0, [r1, #-228]
	movs	r1, #0
.L764:
	ldrh	r2, [r3]
	cmp	r2, lr
	str	r2, [sp, #16]
	beq	.L766
	adds	r1, r1, #1
	ldr	r2, [sp, #20]
	uxth	r1, r1
	cmp	r1, r2
	bhi	.L762
	ldrh	fp, [r3, #4]
	cmp	fp, #0
	beq	.L765
	subs	r3, r3, r0
	ldr	r2, .L778+8
	asrs	r3, r3, #1
	muls	r3, r2, r3
	uxth	r3, r3
	ldrh	fp, [r10, r3, lsl #1]
	cmp	fp, r6
	bls	.L770
	cmp	fp, r7
	itt	cc
	movcc	r7, fp
	movcc	r5, r3
.L765:
	ldr	r3, [sp, #16]
	mla	r3, ip, r3, r0
	b	.L764
.L770:
	mov	r5, r3
.L766:
	movw	r3, #65535
	cmp	r5, r3
	beq	.L762
	ldrh	fp, [r10, r5, lsl #1]
	lsls	r3, r5, #1
	cmp	fp, r6
	bls	.L768
	str	r3, [sp, #16]
	bl	GetFreeBlockMinEraseCount
	ldr	r3, [sp, #16]
	cmp	r0, r6
	it	hi
	strhi	r7, [r4, #16]
.L768:
	cmp	fp, r8
	bcs	.L762
	add	r2, fp, #128
	cmp	r9, r2
	ble	.L762
	add	r2, fp, #256
	cmp	r2, r8
	bcc	.L769
	ldr	r2, [r4, #12]
	add	fp, fp, #768
	cmp	fp, r2
	bcs	.L762
.L769:
	ldr	r2, [r4, #-220]
	mov	r1, r5
	ldr	r0, .L778+12
	ldrh	r2, [r2, r3]
	str	r2, [sp]
	mov	r2, r8
	ldrh	r3, [r10, r3]
	str	r9, [sp, #8]
	str	r3, [sp, #4]
	ldr	r3, [r4, #12]
	bl	printk
	mov	r0, r5
	movs	r3, #1
	str	r3, [r4, #616]
.L761:
	add	sp, sp, #28
	@ sp needed
	pop	{r4, r5, r6, r7, r8, r9, r10, fp, pc}
.L779:
	.align	2
.L778:
	.word	.LANCHOR2
	.word	.LANCHOR0
	.word	-1431655765
	.word	.LC78
	.fnend
	.size	GetSwlReplaceBlock, .-GetSwlReplaceBlock
	.align	1
	.global	free_data_superblock
	.thumb
	.thumb_func
	.type	free_data_superblock, %function
free_data_superblock:
	.fnstart
	@ args = 0, pretend = 0, frame = 0
	@ frame_needed = 0, uses_anonymous_args = 0
	movw	r2, #65535
	cmp	r0, r2
	push	{r3, lr}
	.save {r3, lr}
	beq	.L781
	ldr	r2, .L782
	movs	r1, #0
	ldr	r2, [r2, #-220]
	strh	r1, [r2, r0, lsl #1]	@ movhi
	bl	INSERT_FREE_LIST
.L781:
	movs	r0, #0
	pop	{r3, pc}
.L783:
	.align	2
.L782:
	.word	.LANCHOR2
	.fnend
	.size	free_data_superblock, .-free_data_superblock
	.align	1
	.global	FtlGcBufInit
	.thumb
	.thumb_func
	.type	FtlGcBufInit, %function
FtlGcBufInit:
	.fnstart
	@ args = 0, pretend = 0, frame = 0
	@ frame_needed = 0, uses_anonymous_args = 0
	ldr	r2, .L795
	mov	ip, #36
	ldr	r0, .L795+4
	movs	r3, #0
	push	{r4, r5, r6, r7, r8, r9, r10, fp, lr}
	.save {r4, r5, r6, r7, r8, r9, r10, fp, lr}
	movs	r7, #12
	mov	lr, #1
	mov	r6, r0
	mov	r4, r2
	str	r3, [r2, #620]
.L785:
	ldrh	r1, [r0, #1804]
	adds	r5, r3, #1
	uxth	r3, r3
	ldr	r8, .L795+4
	cmp	r3, r1
	bcs	.L793
	mul	r8, r7, r3
	ldr	r9, [r2, #624]
	add	r1, r9, r8
	str	lr, [r1, #8]
	ldrh	r1, [r0, #1882]
	muls	r1, r3, r1
	it	mi
	addmi	r1, r1, #3
	bic	r10, r1, #3
	ldr	r1, [r4, #628]
	add	r1, r1, r10
	str	r1, [r9, r8]
	ldr	r10, [r2, #624]
	ldrh	r1, [r6, #1884]
	muls	r1, r3, r1
	it	mi
	addmi	r1, r1, #3
	add	r9, r10, r8
	bic	fp, r1, #3
	ldr	r1, [r4, #632]
	add	r1, r1, fp
	str	r1, [r9, #4]
	ldr	r1, [r2, #636]
	mla	r3, ip, r3, r1
	ldr	r1, [r10, r8]
	str	r1, [r3, #8]
	ldr	r1, [r9, #4]
	str	r1, [r3, #12]
	mov	r3, r5
	b	.L785
.L793:
	ldr	r0, .L795
	mov	lr, #12
	movs	r5, #0
.L789:
	ldr	r3, [r2, #640]
	cmp	r1, r3
	bcs	.L794
	mul	r7, lr, r1
	ldr	r6, [r0, #624]
	ldr	r4, [r0, #628]
	adds	r3, r6, r7
	str	r5, [r3, #8]
	ldrh	r3, [r8, #1882]
	muls	r3, r1, r3
	it	mi
	addmi	r3, r3, #3
	bic	r3, r3, #3
	add	r3, r3, r4
	str	r3, [r6, r7]
	ldr	r3, [r2, #624]
	ldr	r6, [r0, #632]
	add	r7, r7, r3
	ldrh	r3, [r8, #1884]
	muls	r3, r1, r3
	add	r1, r1, #1
	it	mi
	addmi	r3, r3, #3
	bic	r3, r3, #3
	uxth	r1, r1
	add	r3, r3, r6
	str	r3, [r7, #4]
	b	.L789
.L794:
	pop	{r4, r5, r6, r7, r8, r9, r10, fp, pc}
.L796:
	.align	2
.L795:
	.word	.LANCHOR2
	.word	.LANCHOR0
	.fnend
	.size	FtlGcBufInit, .-FtlGcBufInit
	.align	1
	.global	FtlGcBufFree
	.thumb
	.thumb_func
	.type	FtlGcBufFree, %function
FtlGcBufFree:
	.fnstart
	@ args = 0, pretend = 0, frame = 0
	@ frame_needed = 0, uses_anonymous_args = 0
	ldr	r3, .L804
	push	{r4, r5, r6, r7, r8, r9, r10, lr}
	.save {r4, r5, r6, r7, r8, r9, r10, lr}
	movs	r5, #0
	ldr	lr, [r3, #640]
	mov	r10, #36
	ldr	r6, [r3, #624]
	mov	r8, #12
	mov	ip, r5
.L798:
	uxth	r4, r5
	cmp	r4, r1
	bcs	.L797
	mla	r4, r10, r4, r0
	movs	r2, #0
.L799:
	uxth	r3, r2
	cmp	r3, lr
	bcs	.L800
	mul	r3, r8, r3
	ldr	r7, [r4, #8]
	adds	r2, r2, #1
	add	r9, r6, r3
	ldr	r3, [r6, r3]
	cmp	r3, r7
	bne	.L799
	str	ip, [r9, #8]
.L800:
	adds	r5, r5, #1
	b	.L798
.L797:
	pop	{r4, r5, r6, r7, r8, r9, r10, pc}
.L805:
	.align	2
.L804:
	.word	.LANCHOR2
	.fnend
	.size	FtlGcBufFree, .-FtlGcBufFree
	.align	1
	.global	FtlGcBufAlloc
	.thumb
	.thumb_func
	.type	FtlGcBufAlloc, %function
FtlGcBufAlloc:
	.fnstart
	@ args = 0, pretend = 0, frame = 0
	@ frame_needed = 0, uses_anonymous_args = 0
	ldr	r3, .L814
	mov	ip, #1
	push	{r4, r5, r6, r7, r8, r9, lr}
	.save {r4, r5, r6, r7, r8, r9, lr}
	movs	r4, #0
	ldr	r5, [r3, #640]
	mov	lr, #12
	ldr	r6, [r3, #624]
	mov	r8, #36
.L807:
	uxth	r2, r4
	cmp	r2, r1
	bcs	.L813
	mov	r9, #0
.L808:
	uxth	r3, r9
	cmp	r3, r5
	bcs	.L809
	mla	r3, lr, r3, r6
	add	r9, r9, #1
	ldr	r7, [r3, #8]
	cmp	r7, #0
	bne	.L808
	mla	r2, r8, r2, r0
	ldr	r7, [r3]
	str	ip, [r3, #8]
	str	r7, [r2, #8]
	ldr	r3, [r3, #4]
	str	r3, [r2, #12]
.L809:
	adds	r4, r4, #1
	b	.L807
.L813:
	pop	{r4, r5, r6, r7, r8, r9, pc}
.L815:
	.align	2
.L814:
	.word	.LANCHOR2
	.fnend
	.size	FtlGcBufAlloc, .-FtlGcBufAlloc
	.align	1
	.global	IsBlkInGcList
	.thumb
	.thumb_func
	.type	IsBlkInGcList, %function
IsBlkInGcList:
	.fnstart
	@ args = 0, pretend = 0, frame = 0
	@ frame_needed = 0, uses_anonymous_args = 0
	@ link register save eliminated.
	ldr	r2, .L822
	ldr	r3, [r2, #644]
	ldrh	r2, [r2, #648]
	add	r2, r3, r2, lsl #1
.L817:
	cmp	r3, r2
	beq	.L821
	ldrh	r1, [r3], #2
	cmp	r1, r0
	bne	.L817
	movs	r0, #1
	bx	lr
.L821:
	movs	r0, #0
	bx	lr
.L823:
	.align	2
.L822:
	.word	.LANCHOR2
	.fnend
	.size	IsBlkInGcList, .-IsBlkInGcList
	.align	1
	.global	FtlGcUpdatePage
	.thumb
	.thumb_func
	.type	FtlGcUpdatePage, %function
FtlGcUpdatePage:
	.fnstart
	@ args = 0, pretend = 0, frame = 0
	@ frame_needed = 0, uses_anonymous_args = 0
	push	{r4, r5, r6, r7, r8, lr}
	.save {r4, r5, r6, r7, r8, lr}
	mov	r6, r0
	ubfx	r0, r0, #10, #16
	mov	r7, r1
	mov	r8, r2
	bl	P2V_block_in_plane
	ldr	r3, .L831
	movs	r4, #0
	ldrh	r1, [r3, #648]
	ldr	r2, [r3, #644]
.L825:
	uxth	r5, r4
	cmp	r5, r1
	bcs	.L829
	adds	r4, r4, #1
	add	lr, r2, r4, lsl #1
	ldrh	lr, [lr, #-2]
	cmp	lr, r0
	bne	.L825
.L829:
	cmp	r5, r1
	bne	.L827
	strh	r0, [r2, r5, lsl #1]	@ movhi
	ldrh	r0, [r3, #648]
	adds	r0, r0, #1
	strh	r0, [r3, #648]	@ movhi
.L827:
	ldrh	r2, [r3, #656]
	movs	r0, #12
	muls	r0, r2, r0
	ldr	r2, [r3, #652]
	adds	r1, r2, r0
	str	r7, [r1, #4]
	str	r8, [r1, #8]
	str	r6, [r2, r0]
	ldrh	r2, [r3, #656]
	adds	r2, r2, #1
	strh	r2, [r3, #656]	@ movhi
	pop	{r4, r5, r6, r7, r8, pc}
.L832:
	.align	2
.L831:
	.word	.LANCHOR2
	.fnend
	.size	FtlGcUpdatePage, .-FtlGcUpdatePage
	.align	1
	.global	FtlGcRefreshOpenBlock
	.thumb
	.thumb_func
	.type	FtlGcRefreshOpenBlock, %function
FtlGcRefreshOpenBlock:
	.fnstart
	@ args = 0, pretend = 0, frame = 0
	@ frame_needed = 0, uses_anonymous_args = 0
	push	{r3, r4, r5, lr}
	.save {r3, r4, r5, lr}
	mov	r5, r0
	ldr	r4, .L840
	ldrh	r3, [r4, #658]
	cmp	r3, r0
	beq	.L835
	ldrh	r3, [r4, #660]
	cmp	r3, r0
	beq	.L835
	ldrh	r3, [r4, #662]
	cmp	r3, r0
	beq	.L835
	ldrh	r3, [r4, #664]
	cmp	r3, r0
	beq	.L835
	ldr	r0, .L840+4
	mov	r1, r5
	bl	printk
	ldrh	r2, [r4, #658]
	movw	r3, #65535
	cmp	r2, r3
	bne	.L837
	strh	r5, [r4, #658]	@ movhi
	b	.L835
.L837:
	ldrh	r2, [r4, #660]
	cmp	r2, r3
	bne	.L838
	strh	r5, [r4, #660]	@ movhi
	b	.L835
.L838:
	ldrh	r2, [r4, #662]
	cmp	r2, r3
	bne	.L839
	strh	r5, [r4, #662]	@ movhi
	b	.L835
.L839:
	ldrh	r2, [r4, #664]
	cmp	r2, r3
	it	eq
	strheq	r5, [r4, #664]	@ movhi
.L835:
	movs	r0, #0
	pop	{r3, r4, r5, pc}
.L841:
	.align	2
.L840:
	.word	.LANCHOR2
	.word	.LC79
	.fnend
	.size	FtlGcRefreshOpenBlock, .-FtlGcRefreshOpenBlock
	.align	1
	.global	FtlGcRefreshBlock
	.thumb
	.thumb_func
	.type	FtlGcRefreshBlock, %function
FtlGcRefreshBlock:
	.fnstart
	@ args = 0, pretend = 0, frame = 0
	@ frame_needed = 0, uses_anonymous_args = 0
	push	{r3, r4, r5, lr}
	.save {r3, r4, r5, lr}
	mov	r5, r0
	ldr	r4, .L852
	ldrh	r3, [r4, #658]
	cmp	r3, r0
	beq	.L850
	ldrh	r3, [r4, #660]
	cmp	r3, r0
	beq	.L850
	ldrh	r3, [r4, #662]
	cmp	r3, r0
	beq	.L850
	ldrh	r3, [r4, #664]
	cmp	r3, r0
	beq	.L850
	ldr	r0, .L852+4
	mov	r1, r5
	bl	printk
	ldrh	r2, [r4, #658]
	movw	r3, #65535
	cmp	r2, r3
	bne	.L844
	strh	r5, [r4, #658]	@ movhi
	b	.L850
.L844:
	ldrh	r2, [r4, #660]
	cmp	r2, r3
	bne	.L845
	strh	r5, [r4, #660]	@ movhi
	b	.L850
.L845:
	ldrh	r2, [r4, #662]
	cmp	r2, r3
	bne	.L846
	strh	r5, [r4, #662]	@ movhi
	b	.L850
.L846:
	ldrh	r2, [r4, #664]
	cmp	r2, r3
	bne	.L851
	strh	r5, [r4, #664]	@ movhi
.L850:
	movs	r0, #0
	pop	{r3, r4, r5, pc}
.L851:
	mov	r0, #-1
	pop	{r3, r4, r5, pc}
.L853:
	.align	2
.L852:
	.word	.LANCHOR2
	.word	.LC79
	.fnend
	.size	FtlGcRefreshBlock, .-FtlGcRefreshBlock
	.align	1
	.global	FtlGcMarkBadPhyBlk
	.thumb
	.thumb_func
	.type	FtlGcMarkBadPhyBlk, %function
FtlGcMarkBadPhyBlk:
	.fnstart
	@ args = 0, pretend = 0, frame = 0
	@ frame_needed = 0, uses_anonymous_args = 0
	push	{r4, r5, r6, lr}
	.save {r4, r5, r6, lr}
	mov	r4, r0
	bl	P2V_block_in_plane
	ldr	r6, .L863
	mov	r2, r4
	ldrh	r1, [r6, #666]
	mov	r5, r0
	ldr	r0, .L863+4
	bl	printk
	mov	r0, r5
	bl	FtlGcRefreshBlock
	ldr	r2, .L863+8
	mov	r3, r6
	ldr	r1, [r2, #1796]
	cbz	r1, .L855
	ldr	r1, [r2, #4060]
	ldrh	r2, [r1, r5, lsl #1]
	cmp	r2, #39
	itt	hi
	subhi	r2, r2, #40
	strhhi	r2, [r1, r5, lsl #1]	@ movhi
.L855:
	ldrh	r2, [r3, #666]
	movs	r1, #0
	ldr	r5, .L863+12
.L856:
	uxth	r0, r1
	cmp	r0, r2
	bcs	.L862
	adds	r1, r1, #1
	add	r0, r5, r1, lsl #1
	ldrh	r0, [r0, #-2]
	cmp	r0, r4
	bne	.L856
	b	.L857
.L862:
	cmp	r2, #15
	itttt	ls
	addls	r1, r2, #1
	strhls	r1, [r3, #666]	@ movhi
	addls	r3, r3, r2, lsl #1
	strhls	r4, [r3, #668]	@ movhi
.L857:
	movs	r0, #0
	pop	{r4, r5, r6, pc}
.L864:
	.align	2
.L863:
	.word	.LANCHOR2
	.word	.LC80
	.word	.LANCHOR0
	.word	.LANCHOR2+668
	.fnend
	.size	FtlGcMarkBadPhyBlk, .-FtlGcMarkBadPhyBlk
	.align	1
	.global	FtlGcReFreshBadBlk
	.thumb
	.thumb_func
	.type	FtlGcReFreshBadBlk, %function
FtlGcReFreshBadBlk:
	.fnstart
	@ args = 0, pretend = 0, frame = 0
	@ frame_needed = 0, uses_anonymous_args = 0
	push	{r4, lr}
	.save {r4, lr}
	ldr	r4, .L871
	ldrh	r3, [r4, #666]
	cbz	r3, .L866
	ldrh	r1, [r4, #658]
	movw	r2, #65535
	cmp	r1, r2
	bne	.L866
	ldrh	r2, [r4, #702]
	cmp	r2, r3
	itt	cs
	movcs	r3, #0
	strhcs	r3, [r4, #702]	@ movhi
	ldrh	r3, [r4, #702]
	add	r3, r4, r3, lsl #1
	ldrh	r0, [r3, #668]
	bl	P2V_block_in_plane
	bl	FtlGcRefreshBlock
	ldrh	r3, [r4, #702]
	adds	r3, r3, #1
	strh	r3, [r4, #702]	@ movhi
.L866:
	movs	r0, #0
	pop	{r4, pc}
.L872:
	.align	2
.L871:
	.word	.LANCHOR2
	.fnend
	.size	FtlGcReFreshBadBlk, .-FtlGcReFreshBadBlk
	.align	1
	.global	ftl_memset
	.thumb
	.thumb_func
	.type	ftl_memset, %function
ftl_memset:
	.fnstart
	@ args = 0, pretend = 0, frame = 0
	@ frame_needed = 0, uses_anonymous_args = 0
	@ link register save eliminated.
	b	memset
	.fnend
	.size	ftl_memset, .-ftl_memset
	.align	1
	.global	BuildFlashLsbPageTable
	.thumb
	.thumb_func
	.type	BuildFlashLsbPageTable, %function
BuildFlashLsbPageTable:
	.fnstart
	@ args = 0, pretend = 0, frame = 0
	@ frame_needed = 0, uses_anonymous_args = 0
	push	{r4, r5, r6, lr}
	.save {r4, r5, r6, lr}
	mov	r4, r1
	cbnz	r0, .L875
	ldr	r3, .L904
.L876:
	strh	r0, [r3, r0, lsl #1]	@ movhi
	adds	r0, r0, #1
	cmp	r0, #256
	bne	.L876
.L880:
	movs	r1, #255
	ldr	r0, .L904+4
	mov	r2, #1024
	uxth	r4, r4
	bl	ftl_memset
	movs	r3, #0
	ldr	r1, .L904
	ldr	r0, .L904+8
	b	.L877
.L875:
	cmp	r0, #1
	bne	.L878
	ldr	r5, .L904
	movs	r3, #0
.L879:
	uxth	r2, r3
	cmp	r2, #3
	ite	ls
	movls	r0, #0
	movhi	r0, #1
	bics	r1, r0, r3
	ite	ne
	movne	r1, #2
	moveq	r1, #3
	rsb	r1, r1, r2, lsl #1
	cmp	r0, #0
	it	ne
	movne	r2, r1
	strh	r2, [r5, r3, lsl #1]	@ movhi
	adds	r3, r3, #1
	cmp	r3, #256
	bne	.L879
	b	.L880
.L878:
	cmp	r0, #2
	bne	.L881
	ldr	r0, .L904
	movs	r3, #0
.L882:
	uxth	r2, r3
	lsls	r1, r2, #1
	subs	r1, r1, #1
	cmp	r2, #1
	it	hi
	movhi	r2, r1
	strh	r2, [r0, r3, lsl #1]	@ movhi
	adds	r3, r3, #1
	cmp	r3, #256
	bne	.L882
	b	.L880
.L881:
	cmp	r0, #3
	bne	.L883
	ldr	r5, .L904
	movs	r3, #0
.L884:
	uxth	r2, r3
	cmp	r2, #5
	ite	ls
	movls	r0, #0
	movhi	r0, #1
	bics	r1, r0, r3
	ite	ne
	movne	r1, #4
	moveq	r1, #5
	rsb	r1, r1, r2, lsl #1
	cmp	r0, #0
	it	ne
	movne	r2, r1
	strh	r2, [r5, r3, lsl #1]	@ movhi
	adds	r3, r3, #1
	cmp	r3, #256
	bne	.L884
	b	.L880
.L883:
	cmp	r0, #4
	mov	r3, #0
	bne	.L885
	ldr	r2, .L904+12
	strh	r3, [r2, #144]	@ movhi
	movs	r3, #1
	strh	r0, [r2, #152]	@ movhi
	strh	r3, [r2, #146]	@ movhi
	movs	r3, #2
	strh	r3, [r2, #148]	@ movhi
	movs	r3, #3
	strh	r3, [r2, #150]	@ movhi
	movs	r3, #5
	strh	r3, [r2, #154]	@ movhi
	movs	r3, #7
	strh	r3, [r2, #156]	@ movhi
	movs	r3, #8
	strh	r3, [r2, #158]!	@ movhi
.L886:
	tst	r3, #1
	ite	ne
	movne	r1, #7
	moveq	r1, #6
	rsb	r1, r1, r3, lsl #1
	adds	r3, r3, #1
	strh	r1, [r2, #2]!	@ movhi
	uxth	r3, r3
	cmp	r3, #256
	bne	.L886
	b	.L880
.L885:
	cmp	r0, #5
	bne	.L887
	ldr	r2, .L904
.L888:
	strh	r3, [r2, r3, lsl #1]	@ movhi
	adds	r3, r3, #1
	cmp	r3, #16
	bne	.L888
	ldr	r2, .L904+16
.L889:
	strh	r3, [r2, #2]!	@ movhi
	adds	r3, r3, #2
	uxth	r3, r3
	cmp	r3, #496
	bne	.L889
	b	.L880
.L887:
	cmp	r0, #6
	bne	.L890
	ldr	r5, .L904
.L891:
	uxth	r2, r3
	cmp	r2, #5
	ite	ls
	movls	r0, #0
	movhi	r0, #1
	add	r1, r2, r2, lsl #1
	bics	r6, r0, r3
	ite	ne
	movne	r6, #10
	moveq	r6, #12
	subs	r1, r1, r6
	cmp	r0, #0
	it	ne
	movne	r2, r1
	strh	r2, [r5, r3, lsl #1]	@ movhi
	adds	r3, r3, #1
	cmp	r3, #256
	bne	.L891
	b	.L880
.L890:
	cmp	r0, #9
	bne	.L880
	ldr	r2, .L904+12
	movw	r1, #509
	strh	r3, [r2, #144]	@ movhi
	movs	r3, #1
	strh	r3, [r2, #146]	@ movhi
	movs	r3, #2
	strh	r3, [r2, #148]!	@ movhi
	movs	r3, #3
.L892:
	strh	r3, [r2, #2]!	@ movhi
	adds	r3, r3, #2
	uxth	r3, r3
	cmp	r3, r1
	bne	.L892
	b	.L880
.L877:
	uxth	r2, r3
	cmp	r2, r4
	bcs	.L903
	ldrh	r2, [r1, r3, lsl #1]
	adds	r3, r3, #1
	add	r5, r0, r2, lsl #1
	strh	r2, [r5, #704]	@ movhi
	b	.L877
.L903:
	pop	{r4, r5, r6, pc}
.L905:
	.align	2
.L904:
	.word	.LANCHOR0+144
	.word	.LANCHOR2+704
	.word	.LANCHOR2
	.word	.LANCHOR0
	.word	.LANCHOR0+174
	.fnend
	.size	BuildFlashLsbPageTable, .-BuildFlashLsbPageTable
	.align	1
	.global	FlashDieInfoInit
	.thumb
	.thumb_func
	.type	FlashDieInfoInit, %function
FlashDieInfoInit:
	.fnstart
	@ args = 0, pretend = 0, frame = 0
	@ frame_needed = 0, uses_anonymous_args = 0
	push	{r3, r4, r5, r6, r7, r8, r9, r10, fp, lr}
	.save {r3, r4, r5, r6, r7, r8, r9, r10, fp, lr}
	movs	r7, #0
	ldr	r3, .L920
	ldr	r4, .L920+4
	ldr	r6, .L920+8
	ldrh	r0, [r3, #482]
	addw	fp, r4, #1556
	strb	r7, [r4, #1717]
	mov	r9, r4
	strb	r7, [r6, #1728]
	bl	FlashBlockAlignInit
	mov	r1, r7
	movs	r2, #8
	add	r0, r4, #1720
	bl	ftl_memset
	mov	r1, r7
	movs	r2, #32
	add	r0, r4, #656
	bl	ftl_memset
	addw	r0, r4, #1588
	mov	r1, r7
	movs	r2, #128
	bl	ftl_memset
	ldr	r5, [r4, #692]
	add	r8, r5, #1
.L908:
	mov	r0, r8
	add	r1, fp, r7, lsl #3
	ldrb	r2, [r5]	@ zero_extendqisi2
	bl	FlashMemCmp8
	ldr	r10, .L920+12
	cbnz	r0, .L907
	ldrb	r3, [r9, #1717]	@ zero_extendqisi2
	add	r2, r9, r3, lsl #2
	str	r0, [r2, #656]
	adds	r2, r3, #1
	add	r3, r3, r9
	strb	r2, [r9, #1717]
	strb	r7, [r3, #1720]
.L907:
	adds	r7, r7, #1
	cmp	r7, #4
	bne	.L908
	ldrb	r3, [r4, #1717]	@ zero_extendqisi2
	ldr	r2, .L920+4
	strb	r3, [r6, #1728]
	ldrb	r3, [r5, #8]	@ zero_extendqisi2
	cmp	r3, #2
	beq	.L909
.L913:
	ldrb	r3, [r5, #13]	@ zero_extendqisi2
	ldrb	r2, [r4, #1717]	@ zero_extendqisi2
	smulbb	r2, r2, r3
	ldrh	r3, [r5, #14]
	smulbb	r3, r2, r3
	strh	r3, [r6, #1730]	@ movhi
	pop	{r3, r4, r5, r6, r7, r8, r9, r10, fp, pc}
.L909:
	ldr	r9, [r2, #4]
	movs	r7, #0
	mov	fp, r2
.L912:
	mov	r0, r8
	add	r1, r10, r7, lsl #3
	ldrb	r2, [r5]	@ zero_extendqisi2
	bl	FlashMemCmp8
	cbnz	r0, .L910
	ldrb	r0, [r5, #13]	@ zero_extendqisi2
	ldrh	r3, [r5, #14]
	ldrb	r2, [fp, #1717]	@ zero_extendqisi2
	mul	r0, r9, r0
	and	r3, r3, #65280
	add	r1, fp, r2, lsl #2
	muls	r3, r0, r3
	str	r3, [r1, #656]
	ldrb	r0, [r5, #23]	@ zero_extendqisi2
	cbz	r0, .L911
	lsls	r3, r3, #1
	str	r3, [r1, #656]
.L911:
	adds	r3, r2, #1
	add	r2, r2, r4
	strb	r3, [r4, #1717]
	strb	r7, [r2, #1720]
.L910:
	adds	r7, r7, #1
	cmp	r7, #4
	bne	.L912
	b	.L913
.L921:
	.align	2
.L920:
	.word	.LANCHOR1
	.word	.LANCHOR0
	.word	.LANCHOR2
	.word	.LANCHOR0+1556
	.fnend
	.size	FlashDieInfoInit, .-FlashDieInfoInit
	.align	1
	.global	ftl_read_flash_info
	.thumb
	.thumb_func
	.type	ftl_read_flash_info, %function
ftl_read_flash_info:
	.fnstart
	@ args = 0, pretend = 0, frame = 0
	@ frame_needed = 0, uses_anonymous_args = 0
	push	{r4, r5, r6, lr}
	.save {r4, r5, r6, lr}
	movs	r1, #0
	movs	r2, #11
	mov	r4, r0
	bl	ftl_memset
	ldr	r3, .L926
	movs	r5, #1
	ldr	r2, [r3, #692]
	ldrb	r1, [r2, #9]	@ zero_extendqisi2
	ldr	r2, [r3, #4]
	smulbb	r2, r1, r2
	strh	r2, [r4, #4]	@ unaligned
	ldrb	r2, [r3, #1792]	@ zero_extendqisi2
	strb	r2, [r4, #7]
	ldr	r2, [r3, #1912]
	str	r2, [r4]	@ unaligned
	ldr	r2, [r3, #692]
	add	r3, r3, #1720
	ldrb	r0, [r3, #-3]	@ zero_extendqisi2
	ldrb	r1, [r2, #9]	@ zero_extendqisi2
	strb	r1, [r4, #6]
	movs	r1, #32
	strb	r1, [r4, #8]
	ldrb	r2, [r2, #7]	@ zero_extendqisi2
	strb	r2, [r4, #9]
	movs	r2, #0
	strb	r2, [r4, #10]
.L923:
	uxtb	r1, r2
	cmp	r1, r0
	bcs	.L925
	ldrb	r1, [r2, r3]	@ zero_extendqisi2
	adds	r2, r2, #1
	lsl	r6, r5, r1
	ldrb	r1, [r4, #10]	@ zero_extendqisi2
	orrs	r1, r1, r6
	strb	r1, [r4, #10]
	b	.L923
.L925:
	pop	{r4, r5, r6, pc}
.L927:
	.align	2
.L926:
	.word	.LANCHOR0
	.fnend
	.size	ftl_read_flash_info, .-ftl_read_flash_info
	.align	1
	.global	FtlMemInit
	.thumb
	.thumb_func
	.type	FtlMemInit, %function
FtlMemInit:
	.fnstart
	@ args = 0, pretend = 0, frame = 0
	@ frame_needed = 0, uses_anonymous_args = 0
	push	{r3, r4, r5, r6, r7, r8, r9, lr}
	.save {r3, r4, r5, r6, r7, r8, r9, lr}
	mov	r0, #1024
	ldr	r4, .L1032
	movs	r6, #0
	ldr	r5, .L1032+4
	movw	r3, #65535
	movs	r7, #12
	mov	r8, #36
	strh	r6, [r4, #1732]	@ movhi
	str	r6, [r4, #1736]
	str	r6, [r4, #88]
	str	r6, [r4, #-8]
	str	r6, [r4, #-4]
	str	r6, [r4, #-20]
	str	r6, [r4, #-32]
	str	r6, [r4, #-36]
	str	r6, [r4, #-28]
	str	r6, [r4, #-24]
	str	r6, [r4, #-40]
	str	r6, [r4]
	str	r6, [r4, #4]
	str	r6, [r5, #4064]
	str	r6, [r4, #12]
	str	r6, [r4, #16]
	str	r6, [r4, #1740]
	str	r6, [r4, #616]
	str	r3, [r4, #1744]
	str	r6, [r4, #1748]
	str	r6, [r4, #608]
	str	r6, [r4, #1752]
	strh	r3, [r4, #658]	@ movhi
	strh	r3, [r4, #660]	@ movhi
	strh	r3, [r4, #662]	@ movhi
	strh	r3, [r4, #664]	@ movhi
	movs	r3, #32
	strh	r6, [r4, #612]	@ movhi
	strh	r3, [r4, #604]	@ movhi
	movs	r3, #128
	strh	r6, [r4, #666]	@ movhi
	strh	r3, [r4, #606]	@ movhi
	strh	r6, [r4, #1756]	@ movhi
	strh	r6, [r4, #702]	@ movhi
	ldrh	r1, [r5, #1878]
	bl	__aeabi_idiv
	ldrh	r3, [r5, #1804]
	str	r6, [r5, #1924]
	lsls	r3, r3, #2
	cmp	r0, r3
	str	r0, [r4, #1760]
	ldrh	r0, [r5, #1876]
	it	hi
	strhi	r3, [r4, #1760]
	lsls	r0, r0, #1
	bl	ftl_malloc
	str	r0, [r4, #644]
	ldrh	r0, [r5, #1876]
	muls	r0, r7, r0
	bl	ftl_malloc
	ldrh	r6, [r5, #1804]
	mul	r6, r8, r6
	lsl	r9, r6, #3
	str	r0, [r4, #652]
	mov	r0, r9
	bl	ftl_malloc
	str	r0, [r4, #1764]
	mov	r0, r6
	bl	ftl_malloc
	str	r0, [r4, #1768]
	mov	r0, r9
	bl	ftl_malloc
	str	r0, [r4, #1772]
	mov	r0, r6
	bl	ftl_malloc
	str	r0, [r5, #4056]
	mov	r0, r6
	bl	ftl_malloc
	str	r0, [r4, #636]
	ldr	r0, [r4, #1760]
	mul	r0, r8, r0
	bl	ftl_malloc
	ldrh	r6, [r5, #1882]
	ldrh	r3, [r5, #1804]
	lsls	r3, r3, #1
	adds	r3, r3, #1
	str	r3, [r4, #640]
	str	r0, [r5, #1928]
	mov	r0, r6
	bl	ftl_malloc
	str	r0, [r4, #1776]
	mov	r0, r6
	bl	ftl_malloc
	str	r0, [r4, #1780]
	mov	r0, r6
	bl	ftl_malloc
	str	r0, [r4, #1784]
	ldr	r0, [r4, #640]
	muls	r0, r6, r0
	bl	ftl_malloc
	str	r0, [r4, #628]
	ldr	r0, [r4, #1760]
	muls	r0, r6, r0
	bl	ftl_malloc
	str	r0, [r4, #1788]
	mov	r0, r6
	bl	ftl_malloc
	str	r0, [r4, #1792]
	mov	r0, r6
	bl	ftl_malloc
	str	r0, [r4, #1796]
	ldr	r0, [r4, #640]
	muls	r0, r7, r0
	bl	ftl_malloc
	ldrh	r3, [r5, #1804]
	ldrh	r6, [r5, #1884]
	muls	r6, r3, r6
	str	r0, [r4, #624]
	mov	r0, r6
	bl	ftl_malloc
	str	r0, [r4, #1800]
	lsls	r0, r6, #3
	bl	ftl_malloc
	ldrh	r3, [r5, #1884]
	str	r0, [r4, #1804]
	ldr	r0, [r4, #640]
	muls	r0, r3, r0
	bl	ftl_malloc
	ldrh	r3, [r5, #1884]
	str	r0, [r4, #632]
	ldr	r0, [r4, #1760]
	muls	r0, r3, r0
	bl	ftl_malloc
	str	r0, [r4, #1808]
	ldrh	r0, [r5, #1814]
	lsls	r0, r0, #1
	uxth	r0, r0
	strh	r0, [r4, #1812]	@ movhi
	bl	ftl_malloc
	str	r0, [r4, #1816]
	ldrh	r0, [r4, #1812]
	addw	r0, r0, #547
	lsrs	r0, r0, #9
	strh	r0, [r4, #1812]	@ movhi
	lsls	r0, r0, #9
	bl	ftl_malloc
	ldrh	r6, [r5, #1814]
	lsls	r6, r6, #1
	str	r0, [r4, #1820]
	adds	r0, r0, #32
	str	r0, [r5, #4060]
	mov	r0, r6
	bl	ftl_malloc
	str	r0, [r4, #1824]
	mov	r0, r6
	bl	ftl_malloc
	ldr	r6, [r5, #1900]
	lsls	r6, r6, #1
	str	r0, [r4, #-220]
	mov	r0, r6
	bl	ftl_malloc
	str	r0, [r4, #1828]
	mov	r0, r6
	bl	ftl_malloc
	str	r0, [r4, #1832]
	ldrh	r0, [r5, #1814]
	lsrs	r0, r0, #3
	adds	r0, r0, #4
	bl	ftl_malloc
	str	r0, [r4, #-44]
	ldrh	r0, [r5, #1892]
	lsls	r0, r0, #1
	bl	ftl_malloc
	str	r0, [r5, #1920]
	ldrh	r0, [r5, #1892]
	lsls	r0, r0, #1
	bl	ftl_malloc
	str	r0, [r4, #1836]
	ldrh	r0, [r5, #1892]
	lsls	r0, r0, #2
	bl	ftl_malloc
	str	r0, [r4, #1840]
	ldrh	r0, [r5, #1894]
	lsls	r0, r0, #2
	bl	ftl_malloc
	ldrh	r2, [r5, #1894]
	movs	r1, #0
	lsls	r2, r2, #2
	str	r0, [r4, #1844]
	bl	ftl_memset
	ldrh	r6, [r5, #1908]
	lsls	r6, r6, #2
	mov	r0, r6
	bl	ftl_malloc
	str	r0, [r4, #1848]
	mov	r0, r6
	bl	ftl_malloc
	ldr	r6, .L1032+8
	str	r0, [r4, #1852]
	ldr	r0, [r5, #1900]
	lsls	r0, r0, #2
	bl	ftl_malloc
	str	r0, [r4, #1856]
	ldrh	r0, [r5, #1910]
	muls	r0, r7, r0
	bl	ftl_malloc
	ldrh	r3, [r5, #1910]
	str	r0, [r4, #-56]
	ldrh	r0, [r5, #1882]
	muls	r0, r3, r0
	bl	ftl_malloc
	ldrh	r3, [r5, #1814]
	str	r0, [r4, #1860]
	movs	r0, #6
	muls	r0, r3, r0
	bl	ftl_malloc
	ldrh	r3, [r5, #1870]
	adds	r3, r3, #31
	asrs	r3, r3, #5
	strh	r3, [r4, #1864]	@ movhi
	str	r0, [r4, #-228]
	ldrh	r0, [r5, #1826]
	muls	r0, r3, r0
	lsls	r0, r0, #2
	bl	ftl_malloc
	ldrh	r2, [r4, #1864]
	ldrh	r7, [r5, #1826]
	movs	r3, #1
	lsls	r2, r2, #2
	mov	r1, r2
	str	r0, [r5, #1964]
.L930:
	cmp	r3, r7
	bcs	.L1030
	ldr	r0, [r5, #1964]
	adds	r3, r3, #1
	add	r0, r0, r1
	add	r1, r1, r2
	str	r0, [r6, #4]!
	b	.L930
.L1030:
	ldr	r2, .L1032+12
	movs	r1, #0
.L932:
	cmp	r3, #8
	beq	.L1031
	add	r0, r2, r3, lsl #2
	adds	r3, r3, #1
	str	r1, [r0, #28]
	b	.L932
.L1031:
	ldr	r2, [r4, #1828]
	ldr	r3, .L1032
	cbnz	r2, .L934
.L936:
	ldr	r1, .L1032+16
	ldr	r0, .L1032+20
	bl	printk
	mov	r0, #-1
	pop	{r3, r4, r5, r6, r7, r8, r9, pc}
.L1033:
	.align	2
.L1032:
	.word	.LANCHOR2
	.word	.LANCHOR0
	.word	.LANCHOR0+1964
	.word	.LANCHOR0+1936
	.word	.LANCHOR3
	.word	.LC81
.L934:
	ldr	r2, [r3, #1832]
	cmp	r2, #0
	beq	.L936
	ldr	r2, [r3, #1848]
	cmp	r2, #0
	beq	.L936
	ldr	r2, [r3, #1856]
	cmp	r2, #0
	beq	.L936
	ldr	r2, [r3, #-56]
	cmp	r2, #0
	beq	.L936
	ldr	r2, [r3, #1860]
	cmp	r2, #0
	beq	.L936
	ldr	r2, [r3, #-228]
	cmp	r2, #0
	beq	.L936
	ldr	r2, [r5, #1964]
	cmp	r2, #0
	beq	.L936
	ldr	r3, [r3, #-220]
	cmp	r3, #0
	beq	.L936
	ldr	r2, [r4, #644]
	ldr	r3, .L1034
	cmp	r2, #0
	beq	.L936
	ldr	r2, [r3, #652]
	cmp	r2, #0
	beq	.L936
	ldr	r2, [r3, #1764]
	cmp	r2, #0
	beq	.L936
	ldr	r2, [r3, #1772]
	cmp	r2, #0
	beq	.L936
	ldr	r2, [r5, #4056]
	cmp	r2, #0
	beq	.L936
	ldr	r2, [r3, #636]
	cmp	r2, #0
	beq	.L936
	ldr	r2, [r3, #1768]
	cmp	r2, #0
	beq	.L936
	ldr	r2, [r3, #1776]
	cmp	r2, #0
	beq	.L936
	ldr	r2, [r3, #1780]
	cmp	r2, #0
	beq	.L936
	ldr	r3, [r3, #1784]
	cmp	r3, #0
	beq	.L936
	ldr	r2, [r4, #628]
	ldr	r3, .L1034
	cmp	r2, #0
	beq	.L936
	ldr	r2, [r3, #1792]
	cmp	r2, #0
	beq	.L936
	ldr	r2, [r3, #1796]
	cmp	r2, #0
	beq	.L936
	ldr	r2, [r3, #624]
	cmp	r2, #0
	beq	.L936
	ldr	r2, [r3, #1800]
	cmp	r2, #0
	beq	.L936
	ldr	r2, [r3, #1804]
	cmp	r2, #0
	beq	.L936
	ldr	r2, [r3, #632]
	cmp	r2, #0
	beq	.L936
	ldr	r2, .L1034+4
	ldr	r1, [r2, #4060]
	cmp	r1, #0
	beq	.L936
	ldr	r3, [r3, #1816]
	cmp	r3, #0
	beq	.L936
	ldr	r3, [r2, #1920]
	cmp	r3, #0
	beq	.L936
	ldr	r3, .L1034
	ldr	r2, [r3, #1836]
	cmp	r2, #0
	beq	.L936
	ldr	r2, [r3, #1840]
	cmp	r2, #0
	beq	.L936
	ldr	r3, [r3, #1844]
	cmp	r3, #0
	beq	.L936
	movs	r0, #0
	pop	{r3, r4, r5, r6, r7, r8, r9, pc}
.L1035:
	.align	2
.L1034:
	.word	.LANCHOR2
	.word	.LANCHOR0
	.fnend
	.size	FtlMemInit, .-FtlMemInit
	.align	1
	.global	FtlBbt2Bitmap
	.thumb
	.thumb_func
	.type	FtlBbt2Bitmap, %function
FtlBbt2Bitmap:
	.fnstart
	@ args = 0, pretend = 0, frame = 0
	@ frame_needed = 0, uses_anonymous_args = 0
	push	{r3, r4, r5, r6, r7, lr}
	.save {r3, r4, r5, r6, r7, lr}
	mov	r4, r0
	ldr	r3, .L1041
	mov	r0, r1
	mov	r5, r1
	movs	r1, #0
	movs	r6, #1
	movw	r7, #65535
	ldrh	r2, [r3, #1864]
	lsls	r2, r2, #2
	bl	ftl_memset
	subs	r2, r4, #2
	addw	r4, r4, #1022
.L1038:
	ldrh	r3, [r2, #2]!
	cmp	r3, r7
	beq	.L1036
	lsrs	r1, r3, #5
	cmp	r2, r4
	and	r3, r3, #31
	ldr	r0, [r5, r1, lsl #2]
	lsl	r3, r6, r3
	orr	r3, r3, r0
	str	r3, [r5, r1, lsl #2]
	bne	.L1038
.L1036:
	pop	{r3, r4, r5, r6, r7, pc}
.L1042:
	.align	2
.L1041:
	.word	.LANCHOR2
	.fnend
	.size	FtlBbt2Bitmap, .-FtlBbt2Bitmap
	.align	1
	.global	FtlBbtMemInit
	.thumb
	.thumb_func
	.type	FtlBbtMemInit, %function
FtlBbtMemInit:
	.fnstart
	@ args = 0, pretend = 0, frame = 0
	@ frame_needed = 0, uses_anonymous_args = 0
	@ link register save eliminated.
	ldr	r0, .L1044
	movw	r3, #65535
	movs	r1, #255
	movs	r2, #16
	addw	r0, r0, #1948
	strh	r3, [r0, #-12]	@ movhi
	movs	r3, #0
	strh	r3, [r0, #-6]	@ movhi
	b	ftl_memset
.L1045:
	.align	2
.L1044:
	.word	.LANCHOR0
	.fnend
	.size	FtlBbtMemInit, .-FtlBbtMemInit
	.align	1
	.global	FtlFreeSysBlkQueueInit
	.thumb
	.thumb_func
	.type	FtlFreeSysBlkQueueInit, %function
FtlFreeSysBlkQueueInit:
	.fnstart
	@ args = 0, pretend = 0, frame = 0
	@ frame_needed = 0, uses_anonymous_args = 0
	ldr	r3, .L1047
	mov	r2, #2048
	push	{r4, lr}
	.save {r4, lr}
	movs	r4, #0
	strh	r0, [r3, #1996]	@ movhi
	addw	r0, r3, #2004
	mov	r1, r4
	strh	r4, [r3, #1998]	@ movhi
	strh	r4, [r3, #2000]	@ movhi
	strh	r4, [r3, #2002]	@ movhi
	bl	ftl_memset
	mov	r0, r4
	pop	{r4, pc}
.L1048:
	.align	2
.L1047:
	.word	.LANCHOR0
	.fnend
	.size	FtlFreeSysBlkQueueInit, .-FtlFreeSysBlkQueueInit
	.align	1
	.global	ftl_free_no_use_map_blk
	.thumb
	.thumb_func
	.type	ftl_free_no_use_map_blk, %function
ftl_free_no_use_map_blk:
	.fnstart
	@ args = 0, pretend = 0, frame = 0
	@ frame_needed = 0, uses_anonymous_args = 0
	push	{r3, r4, r5, r6, r7, r8, r9, r10, fp, lr}
	.save {r3, r4, r5, r6, r7, r8, r9, r10, fp, lr}
	movs	r1, #0
	ldrh	r2, [r0, #10]
	mov	r4, r0
	ldr	r6, [r0, #20]
	ldr	r7, [r0, #12]
	ldr	r5, [r0, #24]
	lsls	r2, r2, #1
	mov	r0, r6
	bl	ftl_memset
	movs	r1, #0
.L1050:
	ldrh	r2, [r4, #6]
	uxth	r3, r1
	cmp	r2, r3
	bls	.L1069
	ldr	r2, [r5, r3, lsl #2]
	movs	r0, #0
	ubfx	r2, r2, #10, #16
.L1051:
	ldrh	lr, [r4, #10]
	uxth	r3, r0
	cmp	lr, r3
	bls	.L1070
	ldrh	lr, [r7, r3, lsl #1]
	cmp	lr, r2
	bne	.L1052
	cbz	r2, .L1052
	ldrh	lr, [r6, r3, lsl #1]
	add	lr, lr, #1
	strh	lr, [r6, r3, lsl #1]	@ movhi
.L1052:
	adds	r0, r0, #1
	b	.L1051
.L1070:
	adds	r1, r1, #1
	b	.L1050
.L1069:
	ldr	r3, .L1073
	mov	r8, #0
	mov	r10, r8
	ldrh	r2, [r3, #1874]
	ldrh	r3, [r4]
	strh	r2, [r6, r3, lsl #1]	@ movhi
	mov	r2, r8
	ldrh	r9, [r6]
.L1055:
	ldrh	r3, [r4, #10]
	uxth	r5, r8
	cmp	r3, r5
	bls	.L1071
	ldrh	r3, [r6, r5, lsl #1]
	lsls	r1, r5, #1
	cmp	r9, r3
	bls	.L1056
	ldrh	r0, [r7, r5, lsl #1]
	add	fp, r7, r1
	cbnz	r0, .L1057
	b	.L1058
.L1056:
	cbnz	r3, .L1058
	ldrh	r0, [r7, r1]
	add	fp, r7, r1
	cbz	r0, .L1058
	mov	r5, r2
	b	.L1060
.L1057:
	cbnz	r3, .L1072
	mov	r9, r3
.L1060:
	movs	r1, #1
	bl	FtlFreeSysBlkQueueIn
	strh	r10, [fp]	@ movhi
	ldrh	r3, [r4, #8]
	mov	r2, r5
	subs	r3, r3, #1
	strh	r3, [r4, #8]	@ movhi
.L1058:
	add	r8, r8, #1
	b	.L1055
.L1072:
	mov	r2, r5
	mov	r9, r3
	b	.L1058
.L1071:
	mov	r0, r2
	pop	{r3, r4, r5, r6, r7, r8, r9, r10, fp, pc}
.L1074:
	.align	2
.L1073:
	.word	.LANCHOR0
	.fnend
	.size	ftl_free_no_use_map_blk, .-ftl_free_no_use_map_blk
	.align	1
	.global	FtlL2PDataInit
	.thumb
	.thumb_func
	.type	FtlL2PDataInit, %function
FtlL2PDataInit:
	.fnstart
	@ args = 0, pretend = 0, frame = 0
	@ frame_needed = 0, uses_anonymous_args = 0
	push	{r3, r4, r5, r6, r7, r8, r9, lr}
	.save {r3, r4, r5, r6, r7, r8, r9, lr}
	movs	r1, #0
	ldr	r4, .L1079
	movs	r7, #0
	ldr	r5, .L1079+4
	mov	r6, r7
	ldr	r2, [r4, #1900]
	mov	r9, r4
	ldr	r0, [r5, #1832]
	lsls	r2, r2, #1
	bl	ftl_memset
	ldrh	r3, [r4, #1882]
	ldrh	r2, [r4, #1910]
	movs	r1, #255
	ldr	r0, [r5, #1860]
	muls	r2, r3, r2
	bl	ftl_memset
	mov	r3, r5
	movs	r5, #12
	mov	r2, r4
	movw	lr, #65535
.L1076:
	ldrh	ip, [r2, #1910]
	adds	r0, r7, #1
	uxth	r7, r7
	ldr	r1, .L1079
	cmp	ip, r7
	bls	.L1078
	mul	r1, r5, r7
	ldr	ip, [r3, #-56]
	add	r8, ip, r1
	str	r6, [r8, #4]
	strh	lr, [ip, r1]	@ movhi
	ldr	r4, [r3, #-56]
	add	ip, r4, r1
	ldrh	r1, [r9, #1882]
	muls	r1, r7, r1
	ldr	r7, [r3, #1860]
	bic	r1, r1, #3
	add	r1, r1, r7
	mov	r7, r0
	str	r1, [ip, #8]
	b	.L1076
.L1078:
	movw	r2, #65535
	strh	r2, [r3, #1870]	@ movhi
	strh	r2, [r3, #1868]	@ movhi
	ldr	r2, [r1, #1900]
	strh	r2, [r3, #1878]	@ movhi
	movw	r2, #61634
	strh	r2, [r3, #1872]	@ movhi
	ldrh	r2, [r3, #1912]
	strh	r2, [r3, #1876]	@ movhi
	ldrh	r2, [r1, #1908]
	strh	r2, [r3, #1874]	@ movhi
	ldr	r2, [r3, #1828]
	str	r2, [r3, #1880]
	ldr	r2, [r3, #1856]
	str	r2, [r3, #1884]
	ldr	r2, [r3, #1832]
	str	r2, [r3, #1888]
	ldr	r2, [r3, #1848]
	str	r2, [r3, #1892]
	pop	{r3, r4, r5, r6, r7, r8, r9, pc}
.L1080:
	.align	2
.L1079:
	.word	.LANCHOR0
	.word	.LANCHOR2
	.fnend
	.size	FtlL2PDataInit, .-FtlL2PDataInit
	.align	1
	.global	FtlVariablesInit
	.thumb
	.thumb_func
	.type	FtlVariablesInit, %function
FtlVariablesInit:
	.fnstart
	@ args = 0, pretend = 0, frame = 0
	@ frame_needed = 0, uses_anonymous_args = 0
	push	{r4, r5, r6, lr}
	.save {r4, r5, r6, lr}
	movs	r4, #0
	ldr	r5, .L1082
	movw	r3, #65535
	ldr	r6, .L1082+4
	mov	r1, r4
	ldrh	r2, [r5, #1892]
	ldr	r0, [r5, #1920]
	strh	r3, [r6, #1920]	@ movhi
	mov	r3, #-1
	lsls	r2, r2, #1
	str	r3, [r6, #1932]
	str	r4, [r6, #1916]
	str	r4, [r6, #1924]
	str	r4, [r6, #1928]
	str	r4, [r5, #1796]
	strh	r4, [r5, #1918]	@ movhi
	bl	ftl_memset
	ldrh	r2, [r5, #1814]
	mov	r1, r4
	ldr	r0, [r5, #4060]
	lsls	r2, r2, #1
	bl	ftl_memset
	ldrh	r2, [r5, #1814]
	mov	r1, r4
	ldr	r0, [r6, #1816]
	lsls	r2, r2, #1
	bl	ftl_memset
	mov	r1, r4
	addw	r0, r5, #4068
	movs	r2, #48
	bl	ftl_memset
	mov	r1, r4
	mov	r2, #512
	add	r0, r6, #92
	bl	ftl_memset
	bl	FtlGcBufInit
	bl	FtlL2PDataInit
	mov	r0, r4
	pop	{r4, r5, r6, pc}
.L1083:
	.align	2
.L1082:
	.word	.LANCHOR0
	.word	.LANCHOR2
	.fnend
	.size	FtlVariablesInit, .-FtlVariablesInit
	.align	1
	.global	SupperBlkListInit
	.thumb
	.thumb_func
	.type	SupperBlkListInit, %function
SupperBlkListInit:
	.fnstart
	@ args = 0, pretend = 0, frame = 16
	@ frame_needed = 0, uses_anonymous_args = 0
	push	{r4, r5, r6, r7, r8, r9, r10, fp, lr}
	.save {r4, r5, r6, r7, r8, r9, r10, fp, lr}
	movs	r2, #6
	ldr	r6, .L1095
	movs	r5, #0
	ldr	r4, .L1095+4
	.pad #20
	sub	sp, sp, #20
	movs	r1, #0
	mov	r9, r5
	ldrh	r3, [r6, #1814]
	mov	r10, r5
	ldr	r0, [r4, #-228]
	mov	r8, r6
	muls	r2, r3, r2
	bl	ftl_memset
	str	r5, [r4, #-208]
	str	r5, [r4, #-224]
	str	r5, [r4, #-216]
	strh	r5, [r4, #-212]	@ movhi
	strh	r5, [r4, #-204]	@ movhi
	strh	r5, [r4, #1732]	@ movhi
.L1085:
	uxth	fp, r5
	ldrh	r2, [r8, #1812]
	sxth	r7, fp
	cmp	r7, r2
	bge	.L1092
	ldr	r3, .L1095
	movs	r2, #0
	mov	r6, r2
	ldrh	ip, [r3, #1804]
	ldrh	r3, [r3, #1872]
	str	r3, [sp, #4]
.L1093:
	sxth	r1, r2
	cmp	r1, ip
	bge	.L1094
	add	r1, r1, r8
	str	r2, [sp, #12]
	str	ip, [sp, #8]
	ldrb	r0, [r1, #1832]	@ zero_extendqisi2
	mov	r1, fp
	bl	V2P_block
	bl	FtlBbmIsBadBlock
	ldr	ip, [sp, #8]
	ldr	r2, [sp, #12]
	cbnz	r0, .L1086
	ldr	r3, [sp, #4]
	add	r6, r6, r3
	uxth	r6, r6
.L1086:
	adds	r2, r2, #1
	b	.L1093
.L1094:
	cbz	r6, .L1088
	sxth	r1, r6
	mov	r0, #32768
	bl	__aeabi_idiv
	uxth	r6, r0
	b	.L1089
.L1088:
	ldr	r1, [r4, #-220]
	sxth	r2, fp
	movw	r0, #65535
	strh	r0, [r1, r2, lsl #1]	@ movhi
.L1089:
	add	r0, r7, r7, lsl #1
	ldr	r1, [r4, #-228]
	ldr	r2, .L1095+4
	add	r1, r1, r0, lsl #1
	strh	r6, [r1, #4]	@ movhi
	ldrh	r1, [r4, #-200]
	cmp	r7, r1
	beq	.L1090
	ldrh	r1, [r2, #-152]
	cmp	r7, r1
	beq	.L1090
	ldrh	r1, [r2, #-104]
	cmp	r7, r1
	beq	.L1090
	ldr	r2, [r2, #-220]
	ldrh	r2, [r2, r7, lsl #1]
	cbnz	r2, .L1091
	add	r9, r9, #1
	mov	r0, fp
	uxth	r9, r9
	bl	INSERT_FREE_LIST
	b	.L1090
.L1091:
	add	r10, r10, #1
	mov	r0, fp
	uxth	r10, r10
	bl	INSERT_DATA_LIST
.L1090:
	adds	r5, r5, #1
	b	.L1085
.L1092:
	movs	r0, #0
	strh	r10, [r4, #-212]	@ movhi
	strh	r9, [r4, #-204]	@ movhi
	add	sp, sp, #20
	@ sp needed
	pop	{r4, r5, r6, r7, r8, r9, r10, fp, pc}
.L1096:
	.align	2
.L1095:
	.word	.LANCHOR0
	.word	.LANCHOR2
	.fnend
	.size	SupperBlkListInit, .-SupperBlkListInit
	.align	1
	.global	FtlGcPageVarInit
	.thumb
	.thumb_func
	.type	FtlGcPageVarInit, %function
FtlGcPageVarInit:
	.fnstart
	@ args = 0, pretend = 0, frame = 0
	@ frame_needed = 0, uses_anonymous_args = 0
	push	{r3, r4, r5, lr}
	.save {r3, r4, r5, lr}
	movs	r1, #255
	ldr	r5, .L1098
	movs	r3, #0
	ldr	r4, .L1098+4
	ldrh	r2, [r5, #1876]
	ldr	r0, [r4, #644]
	strh	r3, [r4, #648]	@ movhi
	lsls	r2, r2, #1
	strh	r3, [r4, #656]	@ movhi
	bl	ftl_memset
	ldrh	r3, [r5, #1876]
	movs	r2, #12
	ldr	r0, [r4, #652]
	movs	r1, #255
	muls	r2, r3, r2
	bl	ftl_memset
	pop	{r3, r4, r5, lr}
	b	FtlGcBufInit
.L1099:
	.align	2
.L1098:
	.word	.LANCHOR0
	.word	.LANCHOR2
	.fnend
	.size	FtlGcPageVarInit, .-FtlGcPageVarInit
	.align	1
	.global	ftl_memcpy
	.thumb
	.thumb_func
	.type	ftl_memcpy, %function
ftl_memcpy:
	.fnstart
	@ args = 0, pretend = 0, frame = 0
	@ frame_needed = 0, uses_anonymous_args = 0
	@ link register save eliminated.
	b	memcpy
	.fnend
	.size	ftl_memcpy, .-ftl_memcpy
	.align	1
	.global	FlashReadIdbData
	.thumb
	.thumb_func
	.type	FlashReadIdbData, %function
FlashReadIdbData:
	.fnstart
	@ args = 0, pretend = 0, frame = 0
	@ frame_needed = 0, uses_anonymous_args = 0
	push	{r3, lr}
	.save {r3, lr}
	mov	r2, #2048
	ldr	r1, .L1102
	bl	ftl_memcpy
	movs	r0, #0
	pop	{r3, pc}
.L1103:
	.align	2
.L1102:
	.word	.LANCHOR2+1936
	.fnend
	.size	FlashReadIdbData, .-FlashReadIdbData
	.align	1
	.global	FlashLoadPhyInfoInRam
	.thumb
	.thumb_func
	.type	FlashLoadPhyInfoInRam, %function
FlashLoadPhyInfoInRam:
	.fnstart
	@ args = 0, pretend = 0, frame = 0
	@ frame_needed = 0, uses_anonymous_args = 0
	push	{r3, r4, r5, r6, r7, lr}
	.save {r3, r4, r5, r6, r7, lr}
	movs	r4, #0
	ldr	r5, .L1116
.L1108:
	mov	r0, r5
	ldr	r1, .L1116+4
	ldrb	r2, [r5, #-1]	@ zero_extendqisi2
	bl	FlashMemCmp8
	mov	r6, r0
	cbnz	r0, .L1105
	ldr	r5, .L1116+8
	lsls	r4, r4, #5
	add	r2, r5, #508
	adds	r7, r2, r4
	beq	.L1111
	add	r4, r4, r5
	mov	r3, r0
	addw	r1, r5, #3100
	ldrb	r2, [r4, #530]	@ zero_extendqisi2
	b	.L1110
.L1105:
	adds	r4, r4, #1
	adds	r5, r5, #32
	cmp	r4, #81
	bne	.L1108
	b	.L1111
.L1115:
	adds	r3, r3, #1
	cmp	r3, #4
	beq	.L1109
.L1110:
	lsls	r0, r3, #5
	ldrb	r0, [r0, r1]	@ zero_extendqisi2
	cmp	r0, r2
	bne	.L1115
.L1109:
	ldr	r1, .L1116+12
	movs	r2, #32
	ldr	r0, .L1116+16
	add	r1, r1, r3, lsl #5
	bl	ftl_memcpy
	mov	r1, r7
	movs	r2, #32
	ldr	r0, .L1116+20
	bl	ftl_memcpy
	ldrh	r0, [r5, #482]
	bl	FlashBlockAlignInit
	b	.L1106
.L1111:
	mov	r6, #-1
.L1106:
	mov	r0, r6
	pop	{r3, r4, r5, r6, r7, pc}
.L1117:
	.align	2
.L1116:
	.word	.LANCHOR1+509
	.word	.LANCHOR0+1556
	.word	.LANCHOR1
	.word	.LANCHOR1+3100
	.word	.LANCHOR0+44
	.word	.LANCHOR1+472
	.fnend
	.size	FlashLoadPhyInfoInRam, .-FlashLoadPhyInfoInRam
	.align	1
	.global	NandcCopy1KB
	.thumb
	.thumb_func
	.type	NandcCopy1KB, %function
NandcCopy1KB:
	.fnstart
	@ args = 4, pretend = 0, frame = 0
	@ frame_needed = 0, uses_anonymous_args = 0
	cmp	r1, #1
	push	{r4, r5, r6, lr}
	.save {r4, r5, r6, lr}
	mov	r4, r2
	add	r2, r0, #4096
	ldr	r6, [sp, #16]
	add	r5, r0, #512
	add	r2, r2, r4, lsl #9
	bne	.L1119
	cbz	r3, .L1120
	mov	r0, r2
	mov	r1, r3
	mov	r2, #1024
	bl	ftl_memcpy
.L1120:
	cbz	r6, .L1118
	ldrb	r3, [r6, #2]	@ zero_extendqisi2
	lsrs	r4, r4, #1
	ldrb	r2, [r6, #1]	@ zero_extendqisi2
	add	r4, r4, r4, lsl #1
	lsls	r3, r3, #16
	orr	r2, r3, r2, lsl #8
	ldrb	r3, [r6]	@ zero_extendqisi2
	lsls	r4, r4, #2
	orrs	r3, r3, r2
	ldrb	r2, [r6, #3]	@ zero_extendqisi2
	orr	r3, r3, r2, lsl #24
	str	r3, [r5, r4, lsl #2]
	pop	{r4, r5, r6, pc}
.L1119:
	cbz	r3, .L1123
	mov	r1, r2
	mov	r0, r3
	mov	r2, #1024
	bl	ftl_memcpy
.L1123:
	cbz	r6, .L1118
	lsrs	r4, r4, #1
	add	r4, r4, r4, lsl #1
	lsls	r4, r4, #2
	ldr	r3, [r5, r4, lsl #2]
	lsrs	r2, r3, #8
	strb	r3, [r6]
	strb	r2, [r6, #1]
	lsrs	r2, r3, #16
	lsrs	r3, r3, #24
	strb	r2, [r6, #2]
	strb	r3, [r6, #3]
.L1118:
	pop	{r4, r5, r6, pc}
	.fnend
	.size	NandcCopy1KB, .-NandcCopy1KB
	.align	1
	.global	ftl_memcpy32
	.thumb
	.thumb_func
	.type	ftl_memcpy32, %function
ftl_memcpy32:
	.fnstart
	@ args = 0, pretend = 0, frame = 0
	@ frame_needed = 0, uses_anonymous_args = 0
	movs	r3, #0
	push	{r4, lr}
	.save {r4, lr}
.L1135:
	cmp	r3, r2
	beq	.L1137
	ldr	r4, [r1, r3, lsl #2]
	str	r4, [r0, r3, lsl #2]
	adds	r3, r3, #1
	b	.L1135
.L1137:
	pop	{r4, pc}
	.fnend
	.size	ftl_memcpy32, .-ftl_memcpy32
	.align	1
	.global	ftl_memcmp
	.thumb
	.thumb_func
	.type	ftl_memcmp, %function
ftl_memcmp:
	.fnstart
	@ args = 0, pretend = 0, frame = 0
	@ frame_needed = 0, uses_anonymous_args = 0
	@ link register save eliminated.
	b	memcmp
	.fnend
	.size	ftl_memcmp, .-ftl_memcmp
	.align	1
	.global	timer_get_time
	.thumb
	.thumb_func
	.type	timer_get_time, %function
timer_get_time:
	.fnstart
	@ args = 0, pretend = 0, frame = 0
	@ frame_needed = 0, uses_anonymous_args = 0
	@ link register save eliminated.
	ldr	r3, .L1140
	ldr	r0, [r3]
	b	jiffies_to_msecs
.L1141:
	.align	2
.L1140:
	.word	jiffies
	.fnend
	.size	timer_get_time, .-timer_get_time
	.align	1
	.global	FlashSramLoadStore
	.thumb
	.thumb_func
	.type	FlashSramLoadStore, %function
FlashSramLoadStore:
	.fnstart
	@ args = 0, pretend = 0, frame = 0
	@ frame_needed = 0, uses_anonymous_args = 0
	push	{r4, r5, lr}
	.save {r4, r5, lr}
	mov	r5, r0
	ldr	r4, .L1145
	ldr	r4, [r4, #3984]
	add	r4, r4, #4096
	add	r1, r1, r4
	cbz	r2, .L1144
	mov	r0, r1
	mov	r1, r5
.L1144:
	mov	r2, r3
	pop	{r4, r5, lr}
	b	ftl_memcpy
.L1146:
	.align	2
.L1145:
	.word	.LANCHOR2
	.fnend
	.size	FlashSramLoadStore, .-FlashSramLoadStore
	.align	1
	.global	FlashCs123Init
	.thumb
	.thumb_func
	.type	FlashCs123Init, %function
FlashCs123Init:
	.fnstart
	@ args = 0, pretend = 0, frame = 0
	@ frame_needed = 0, uses_anonymous_args = 0
	@ link register save eliminated.
	bx	lr
	.fnend
	.size	FlashCs123Init, .-FlashCs123Init
	.align	1
	.global	rk_nand_suspend
	.thumb
	.thumb_func
	.type	rk_nand_suspend, %function
rk_nand_suspend:
	.fnstart
	@ args = 0, pretend = 0, frame = 0
	@ frame_needed = 0, uses_anonymous_args = 0
	@ link register save eliminated.
	b	ftl_flash_suspend
	.fnend
	.size	rk_nand_suspend, .-rk_nand_suspend
	.align	1
	.global	rk_nand_resume
	.thumb
	.thumb_func
	.type	rk_nand_resume, %function
rk_nand_resume:
	.fnstart
	@ args = 0, pretend = 0, frame = 0
	@ frame_needed = 0, uses_anonymous_args = 0
	@ link register save eliminated.
	b	ftl_flash_resume
	.fnend
	.size	rk_nand_resume, .-rk_nand_resume
	.align	1
	.global	rk_ftl_get_capacity
	.thumb
	.thumb_func
	.type	rk_ftl_get_capacity, %function
rk_ftl_get_capacity:
	.fnstart
	@ args = 0, pretend = 0, frame = 0
	@ frame_needed = 0, uses_anonymous_args = 0
	@ link register save eliminated.
	ldr	r3, .L1151
	ldr	r0, [r3, #1912]
	bx	lr
.L1152:
	.align	2
.L1151:
	.word	.LANCHOR0
	.fnend
	.size	rk_ftl_get_capacity, .-rk_ftl_get_capacity
	.align	1
	.global	rk_nandc_get_irq_status
	.thumb
	.thumb_func
	.type	rk_nandc_get_irq_status, %function
rk_nandc_get_irq_status:
	.fnstart
	@ args = 0, pretend = 0, frame = 0
	@ frame_needed = 0, uses_anonymous_args = 0
	@ link register save eliminated.
	ldr	r0, [r0, #372]
	bx	lr
	.fnend
	.size	rk_nandc_get_irq_status, .-rk_nandc_get_irq_status
	.align	1
	.global	rknand_proc_ftlread
	.thumb
	.thumb_func
	.type	rknand_proc_ftlread, %function
rknand_proc_ftlread:
	.fnstart
	@ args = 0, pretend = 0, frame = 0
	@ frame_needed = 0, uses_anonymous_args = 0
	@ link register save eliminated.
	b	ftl_proc_ftl_read
	.fnend
	.size	rknand_proc_ftlread, .-rknand_proc_ftlread
	.align	1
	.global	ReadFlashInfo
	.thumb
	.thumb_func
	.type	ReadFlashInfo, %function
ReadFlashInfo:
	.fnstart
	@ args = 0, pretend = 0, frame = 0
	@ frame_needed = 0, uses_anonymous_args = 0
	@ link register save eliminated.
	b	ftl_read_flash_info
	.fnend
	.size	ReadFlashInfo, .-ReadFlashInfo
	.align	1
	.global	rknand_print_hex
	.thumb
	.thumb_func
	.type	rknand_print_hex, %function
rknand_print_hex:
	.fnstart
	@ args = 0, pretend = 0, frame = 0
	@ frame_needed = 0, uses_anonymous_args = 0
	push	{r3, r4, r5, r6, r7, r8, r9, lr}
	.save {r3, r4, r5, r6, r7, r8, r9, lr}
	movs	r5, #0
	mov	r9, r0
	mov	r6, r1
	mov	r7, r2
	mov	r8, r3
	mov	r4, r5
.L1157:
	cmp	r4, r8
	beq	.L1165
	cbnz	r5, .L1158
	ldr	r0, .L1166
	mov	r1, r9
	mov	r2, r6
	mov	r3, r4
	bl	printk
.L1158:
	cmp	r7, #4
	ldr	r0, .L1166+4
	bne	.L1159
	ldr	r1, [r6, r4, lsl #2]
	b	.L1164
.L1159:
	cmp	r7, #2
	ite	eq
	ldrsheq	r1, [r6, r4, lsl #1]
	ldrbne	r1, [r6, r4]	@ zero_extendqisi2
.L1164:
	adds	r5, r5, #1
	bl	printk
	cmp	r5, #15
	bls	.L1162
	ldr	r0, .L1166+8
	movs	r5, #0
	ldr	r1, .L1166+12
	bl	printk
.L1162:
	adds	r4, r4, #1
	b	.L1157
.L1165:
	ldr	r0, .L1166+8
	ldr	r1, .L1166+12
	pop	{r3, r4, r5, r6, r7, r8, r9, lr}
	b	printk
.L1167:
	.align	2
.L1166:
	.word	.LC82
	.word	.LC83
	.word	.LC76
	.word	.LC84
	.fnend
	.size	rknand_print_hex, .-rknand_print_hex
	.align	1
	.global	HynixGetReadRetryDefault
	.thumb
	.thumb_func
	.type	HynixGetReadRetryDefault, %function
HynixGetReadRetryDefault:
	.fnstart
	@ args = 0, pretend = 0, frame = 40
	@ frame_needed = 0, uses_anonymous_args = 0
	push	{r4, r5, r6, r7, r8, r9, r10, fp, lr}
	.save {r4, r5, r6, r7, r8, r9, r10, fp, lr}
	cmp	r0, #2
	ldr	r7, .L1277
	mov	r3, #172
	mov	r1, #173
	mov	r2, #174
	.pad #44
	sub	sp, sp, #44
	mov	r4, r0
	strb	r3, [r7, #702]
	mov	r3, #175
	strb	r0, [r7, #698]
	strb	r1, [r7, #703]
	strb	r2, [r7, #704]
	strb	r3, [r7, #705]
	bne	.L1169
	movs	r3, #167
	strb	r3, [r7, #702]
	ldr	r3, .L1277+4
	movs	r2, #247
	movs	r5, #7
	strb	r2, [r3, #3245]
	b	.L1230
.L1169:
	cmp	r0, #3
	bne	.L1171
	movs	r3, #176
	strb	r3, [r7, #702]
	movs	r3, #177
	strb	r3, [r7, #703]
	movs	r3, #178
	strb	r3, [r7, #704]
	movs	r3, #179
	strb	r3, [r7, #705]
	movs	r3, #180
	strb	r3, [r7, #706]
	movs	r3, #181
	strb	r3, [r7, #707]
	movs	r3, #182
	strb	r3, [r7, #708]
	movs	r3, #183
	b	.L1271
.L1171:
	cmp	r0, #4
	bne	.L1172
	movs	r0, #204
	strb	r1, [r7, #707]
	strb	r0, [r7, #702]
	movs	r0, #191
	strb	r2, [r7, #708]
	strb	r0, [r7, #703]
	movs	r0, #170
	strb	r0, [r7, #704]
	movs	r0, #171
	strb	r0, [r7, #705]
	movs	r0, #205
	strb	r0, [r7, #706]
.L1271:
	movs	r5, #8
	strb	r3, [r7, #709]
	mov	r6, r5
	b	.L1170
.L1172:
	cmp	r0, #5
	bne	.L1173
	movs	r3, #56
	movs	r5, #8
	strb	r3, [r7, #702]
	movs	r3, #57
	strb	r3, [r7, #703]
	movs	r3, #58
	strb	r3, [r7, #704]
	movs	r3, #59
	strb	r3, [r7, #705]
	b	.L1230
.L1173:
	cmp	r0, #6
	bne	.L1174
	movs	r3, #14
	movs	r5, #12
	strb	r3, [r7, #702]
	movs	r3, #15
	strb	r3, [r7, #703]
	movs	r3, #16
	strb	r3, [r7, #704]
	movs	r3, #17
	strb	r3, [r7, #705]
	b	.L1230
.L1174:
	cmp	r0, #7
	bne	.L1175
	movs	r3, #176
	movs	r5, #12
	strb	r3, [r7, #702]
	movs	r6, #10
	movs	r3, #177
	strb	r3, [r7, #703]
	movs	r3, #178
	strb	r3, [r7, #704]
	movs	r3, #179
	strb	r3, [r7, #705]
	movs	r3, #180
	strb	r3, [r7, #706]
	movs	r3, #181
	strb	r3, [r7, #707]
	movs	r3, #182
	strb	r3, [r7, #708]
	movs	r3, #183
	strb	r3, [r7, #709]
	movs	r3, #212
	strb	r3, [r7, #710]
	movs	r3, #213
	strb	r3, [r7, #711]
	b	.L1170
.L1175:
	cmp	r0, #8
	mov	r5, #7
	bne	.L1230
	movs	r3, #6
	strb	r5, [r7, #703]
	strb	r3, [r7, #702]
	movs	r5, #50
	movs	r3, #9
	strb	r0, [r7, #704]
	strb	r3, [r7, #705]
	movs	r6, #5
	movs	r3, #10
	strb	r3, [r7, #706]
	b	.L1170
.L1230:
	movs	r6, #4
.L1170:
	subs	r3, r4, #1
	cmp	r3, #1
	bhi	.L1268
	ldr	r1, .L1277+8
	mov	r10, #0
.L1176:
	ldrb	r3, [r7, #1717]	@ zero_extendqisi2
	uxtb	r8, r10
	ldr	r2, .L1277
	cmp	r3, r8
	bls	.L1183
	add	r8, r8, r2
	addw	fp, r2, #701
	ldrb	r3, [r8, #1720]	@ zero_extendqisi2
	add	r4, r2, r3, lsl #6
	add	r3, r2, r3, lsl #3
	addw	r4, r4, #718
	movs	r2, #55
	ldrb	r8, [r3, #16]	@ zero_extendqisi2
	ldr	r0, [r3, #12]
	mov	r9, r4
	mov	r3, r4
	add	r8, r0, r8, lsl #8
	addw	ip, r8, #2056
.L1178:
	str	r2, [ip]
	ldrb	r0, [fp, #1]!	@ zero_extendqisi2
	str	r1, [sp, #16]
	str	r3, [sp, #12]
	str	r0, [r8, #2052]
	movs	r0, #80
	str	r2, [sp, #8]
	str	ip, [sp, #4]
	bl	NandcDelayns
	ldr	r0, [r8, #2048]
	ldr	r3, [sp, #12]
	ldr	ip, [sp, #4]
	ldr	r2, [sp, #8]
	strb	r0, [r3], #1
	subs	r0, r3, r4
	ldr	r1, [sp, #16]
	uxtb	r0, r0
	cmp	r0, r6
	bcc	.L1178
	movs	r2, #0
.L1179:
	movs	r3, #1
	add	lr, r1, r2
.L1180:
	ldrb	ip, [lr, r3, lsl #2]	@ zero_extendqisi2
	ldrb	r0, [r9]	@ zero_extendqisi2
	add	r0, r0, ip
	strb	r0, [r9, r3, lsl #3]
	adds	r3, r3, #1
	cmp	r3, #7
	bne	.L1180
	adds	r2, r2, #1
	add	r9, r9, #1
	cmp	r2, #4
	bne	.L1179
	movs	r3, #0
	add	r10, r10, #1
	strb	r3, [r4, #16]
	strb	r3, [r4, #24]
	strb	r3, [r4, #32]
	strb	r3, [r4, #40]
	strb	r3, [r4, #48]
	strb	r3, [r4, #41]
	strb	r3, [r4, #49]
	b	.L1176
.L1268:
	subs	r3, r4, #3
	cmp	r3, #5
	bhi	.L1183
	smulbb	r2, r6, r5
	lsls	r3, r2, #4
	asrs	r2, r2, #1
	str	r3, [sp, #36]
	lsls	r3, r2, #1
	str	r3, [sp, #8]
	movs	r3, #0
.L1275:
	str	r3, [sp, #20]
	ldrb	r3, [sp, #20]	@ zero_extendqisi2
	str	r3, [sp, #16]
	ldr	r3, .L1277
	ldr	r2, [sp, #16]
	ldrb	r3, [r3, #1717]	@ zero_extendqisi2
	cmp	r3, r2
	bhi	.L1228
.L1183:
	ldr	r3, .L1277
	strb	r6, [r3, #699]
	strb	r5, [r3, #700]
	add	sp, sp, #44
	@ sp needed
	pop	{r4, r5, r6, r7, r8, r9, r10, fp, pc}
.L1228:
	ldr	r2, [sp, #16]
	ldr	r3, .L1277
	add	r3, r3, r2
	ldrb	fp, [r3, #1720]	@ zero_extendqisi2
	ldr	r3, .L1277
	add	r3, r3, fp, lsl #3
	mov	r0, fp
	ldr	r10, [r3, #12]
	ldrb	r3, [r3, #16]	@ zero_extendqisi2
	lsls	r7, r3, #8
	str	r3, [sp, #4]
	add	r8, r10, r7
	movs	r3, #255
	str	r3, [r8, #2056]
	bl	NandcWaitFlashReady
	cmp	r4, #7
	bne	.L1185
	ldr	r2, .L1277+12
	movs	r3, #160
	mla	ip, r3, fp, r2
	add	r3, ip, #28
	b	.L1272
.L1185:
	cmp	r4, #8
	beq	.L1187
	ldr	r2, .L1277+12
	add	ip, r2, fp, lsl #6
	add	r3, ip, #20
.L1272:
	add	r7, r7, r10
	cmp	r4, #4
	str	r3, [sp, #24]
	mov	r3, #54
	str	r3, [r7, #2056]
	bne	.L1188
	movs	r3, #255
	str	r3, [r7, #2052]
	movs	r3, #64
	str	r3, [r7, #2048]
	movs	r3, #204
	b	.L1273
.L1188:
	subs	r3, r4, #5
	cmp	r3, #1
	bhi	.L1190
	ldr	r3, .L1277
	ldrb	r2, [r3, #702]	@ zero_extendqisi2
	ldr	r3, [sp, #4]
	add	r3, r10, r3, lsl #8
	str	r2, [r3, #2052]
	movs	r2, #82
	str	r2, [r3, #2048]
	b	.L1189
.L1190:
	cmp	r4, #7
	bne	.L1189
	movs	r3, #174
	str	r3, [r7, #2052]
	movs	r3, #0
	str	r3, [r7, #2048]
	movs	r3, #176
.L1273:
	str	r3, [r7, #2052]
	movs	r3, #77
	str	r3, [r7, #2048]
.L1189:
	ldr	r3, [sp, #4]
	cmp	r4, #6
	mov	r2, #22
	add	r3, r10, r3, lsl #8
	str	r2, [r3, #2056]
	mov	r2, #23
	str	r2, [r3, #2056]
	mov	r2, #4
	str	r2, [r3, #2056]
	mov	r2, #25
	str	r2, [r3, #2056]
	mov	r2, #0
	str	r2, [r3, #2056]
	str	r2, [r3, #2052]
	str	r2, [r3, #2052]
	it	eq
	moveq	r2, #31
	str	r2, [r3, #2052]
	movs	r2, #2
	str	r2, [r3, #2052]
	movs	r2, #0
	str	r2, [r3, #2052]
.L1229:
	ldr	r3, [sp, #4]
	movs	r2, #48
	mov	r0, fp
	add	r3, r10, r3, lsl #8
	str	r2, [r3, #2056]
	bl	NandcWaitFlashReady
	subs	r3, r4, #5
	cmp	r3, #1
	str	r3, [sp, #28]
	bls	.L1233
	cmp	r4, #8
	beq	.L1233
	cmp	r4, #7
	ite	ne
	movne	r2, #2
	moveq	r2, #32
	b	.L1193
.L1278:
	.align	2
.L1277:
	.word	.LANCHOR0
	.word	.LANCHOR1
	.word	.LANCHOR1+3228
	.word	.LANCHOR0+698
.L1233:
	movs	r2, #16
.L1193:
	ldr	r3, .L1279
	ldr	r1, [sp, #4]
	ldr	r3, [r3, #3988]
	add	r0, r10, r1, lsl #8
	mov	r7, r3
.L1194:
	ldr	r1, [r0, #2048]
	strb	r1, [r7], #1
	subs	r1, r7, r3
	uxtb	r1, r1
	cmp	r1, r2
	bcc	.L1194
	cmp	r4, #8
	bne	.L1195
	movs	r2, #0
.L1197:
	ldrb	r7, [r3, r2, lsl #2]	@ zero_extendqisi2
	uxtb	r1, r2
	cmp	r7, #50
	beq	.L1196
	add	r7, r3, r2, lsl #2
	ldrb	r7, [r7, #1]	@ zero_extendqisi2
	cmp	r7, #5
	beq	.L1196
	adds	r2, r2, #1
	cmp	r2, #8
	bne	.L1197
	b	.L1198
.L1196:
	cmp	r1, #7
	bne	.L1199
.L1198:
	ldr	r0, .L1279+4
	movs	r1, #0
	bl	printk
.L1200:
	b	.L1200
.L1195:
	cmp	r4, #7
	bne	.L1201
	movs	r2, #0
.L1203:
	ldrb	r7, [r3, r2, lsl #2]	@ zero_extendqisi2
	uxtb	r1, r2
	cmp	r7, #12
	beq	.L1202
	add	r7, r3, r2, lsl #2
	ldrb	r7, [r7, #1]	@ zero_extendqisi2
	cmp	r7, #10
	beq	.L1202
	adds	r2, r2, #1
	cmp	r2, #8
	bne	.L1203
	b	.L1204
.L1202:
	cmp	r1, #7
	bne	.L1199
.L1204:
	ldr	r0, .L1279+4
	movs	r1, #0
	bl	printk
.L1205:
	b	.L1205
.L1201:
	cmp	r4, #6
	bne	.L1199
	subs	r2, r3, #1
	adds	r3, r3, #7
.L1206:
	ldrb	r1, [r2, #1]!	@ zero_extendqisi2
	cmp	r1, #12
	beq	.L1199
	ldrb	r1, [r2, #8]	@ zero_extendqisi2
	cmp	r1, #4
	beq	.L1199
	cmp	r2, r3
	bne	.L1206
	ldr	r0, .L1279+4
	movs	r1, #0
	bl	printk
.L1208:
	b	.L1208
.L1199:
	ldr	r1, .L1279
	ldr	r7, [sp, #36]
	ldr	r2, [r1, #3988]
	adds	r7, r2, r7
	mov	r3, r2
.L1209:
	cmp	r3, r7
	beq	.L1276
	ldr	lr, [r0, #2048]
	strb	lr, [r3], #1
	b	.L1209
.L1276:
	ldr	r3, [r1, #3988]
	movs	r0, #8
	ldr	r1, [sp, #8]
	adds	r1, r3, r1
	str	r1, [sp, #32]
.L1212:
	ldr	r7, [sp, #8]
	add	lr, r1, r7
.L1211:
	ldrh	r7, [r1]
	mvns	r7, r7
	strh	r7, [r1], #2	@ movhi
	cmp	r1, lr
	bne	.L1211
	ldr	r7, [sp, #8]
	subs	r0, r0, #1
	add	r1, r1, r7
	bne	.L1212
	str	r3, [sp, #12]
.L1213:
	movs	r7, #0
	mov	r0, r7
.L1216:
	movs	r3, #1
	mov	lr, #0
	mov	r8, #16
	lsl	r1, r3, r0
	mov	ip, lr
.L1214:
	ldr	r3, [sp, #12]
	ldrh	r9, [r3, lr]
	ldr	r3, [sp, #8]
	and	r9, r9, r1
	cmp	r9, r1
	it	eq
	addeq	ip, ip, #1
	subs	r8, r8, #1
	add	lr, lr, r3
	bne	.L1214
	cmp	ip, #8
	add	r0, r0, #1
	itt	hi
	orrhi	r7, r7, r1
	uxthhi	r7, r7
	cmp	r0, #16
	bne	.L1216
	ldr	r3, [sp, #12]
	strh	r7, [r3], #2	@ movhi
	str	r3, [sp, #12]
	ldr	r1, [sp, #12]
	ldr	r3, [sp, #32]
	cmp	r1, r3
	bne	.L1213
	ldr	r3, .L1279
	ldr	r1, [r3, #3988]
	movs	r3, #0
	subs	r0, r1, #4
	add	r7, r1, #28
.L1218:
	ldr	lr, [r0, #4]!
	cmp	lr, #0
	it	eq
	addeq	r3, r3, #1
	cmp	r0, r7
	bne	.L1218
	cmp	r3, #7
	ble	.L1219
	ldr	r0, .L1279+8
	movs	r2, #1
	mov	r3, #1024
	bl	rknand_print_hex
	ldr	r0, .L1279+4
	movs	r1, #0
	bl	printk
.L1220:
	b	.L1220
.L1219:
	cmp	r4, #6
	beq	.L1235
	cmp	r4, #7
	beq	.L1236
	cmp	r4, #8
	ite	ne
	movne	r0, #8
	moveq	r0, #5
	b	.L1221
.L1235:
	movs	r0, #4
	b	.L1221
.L1236:
	movs	r0, #10
.L1221:
	add	r9, r6, #-1
	ldr	r1, [sp, #24]
	movs	r7, #0
	uxtb	r9, r9
	add	r9, r9, #1
.L1222:
	mov	ip, r1
	mov	r3, r2
.L1223:
	ldrb	lr, [r3], #1	@ zero_extendqisi2
	strb	lr, [ip], #1
	rsb	lr, r2, r3
	uxtb	lr, lr
	cmp	lr, r6
	bcc	.L1223
	adds	r7, r7, #1
	add	r2, r2, r9
	cmp	r7, r5
	add	r1, r1, r0
	blt	.L1222
	ldr	r3, [sp, #4]
	mov	r0, fp
	add	r7, r10, r3, lsl #8
	movs	r3, #255
	str	r3, [r7, #2056]
	bl	NandcWaitFlashReady
	ldr	r3, [sp, #28]
	cmp	r3, #1
	bhi	.L1225
	movs	r3, #54
	str	r3, [r7, #2056]
	ldr	r3, .L1279+12
	mov	r1, #-1
	ldr	r0, [sp, #16]
	ldrb	r3, [r3, #702]	@ zero_extendqisi2
	str	r3, [r7, #2052]
	movs	r3, #0
	str	r3, [r7, #2048]
	movs	r3, #22
	str	r3, [r7, #2056]
	bl	FlashReadCmd
	b	.L1226
.L1225:
	cmp	r4, #8
	ite	eq
	moveq	r3, #190
	movne	r3, #56
	str	r3, [r7, #2056]
.L1226:
	mov	r0, fp
	bl	NandcWaitFlashReady
	ldr	r3, [sp, #20]
	adds	r3, r3, #1
	b	.L1275
.L1187:
	movs	r3, #120
	movs	r2, #23
	str	r3, [r8, #2056]
	movs	r1, #25
	movs	r3, #0
	str	r3, [r8, #2052]
	str	r3, [r8, #2052]
	str	r3, [r8, #2052]
	str	r2, [r8, #2056]
	movs	r2, #4
	str	r2, [r8, #2056]
	str	r1, [r8, #2056]
	movs	r1, #218
	str	r1, [r8, #2056]
	movs	r1, #21
	str	r3, [r8, #2056]
	str	r3, [r8, #2052]
	str	r3, [r8, #2052]
	str	r1, [r8, #2052]
	str	r2, [r8, #2052]
	str	r3, [r8, #2052]
	ldr	r3, .L1279+16
	str	r3, [sp, #24]
	b	.L1229
.L1280:
	.align	2
.L1279:
	.word	.LANCHOR2
	.word	.LC85
	.word	.LC86
	.word	.LANCHOR0
	.word	.LANCHOR0+726
	.fnend
	.size	HynixGetReadRetryDefault, .-HynixGetReadRetryDefault
	.align	1
	.global	FlashGetReadRetryDefault
	.thumb
	.thumb_func
	.type	FlashGetReadRetryDefault, %function
FlashGetReadRetryDefault:
	.fnstart
	@ args = 0, pretend = 0, frame = 0
	@ frame_needed = 0, uses_anonymous_args = 0
	@ link register save eliminated.
	mov	r3, r0
	cmp	r0, #0
	beq	.L1281
	subs	r2, r0, #1
	cmp	r2, #7
	bhi	.L1283
	b	HynixGetReadRetryDefault
.L1283:
	cmp	r0, #49
	bne	.L1284
	ldr	r0, .L1304
	movs	r2, #64
	ldr	r1, .L1304+4
	addw	r0, r0, #702
	strb	r3, [r0, #-4]
	movs	r3, #4
	strb	r3, [r0, #-3]
	movs	r3, #15
	strb	r3, [r0, #-2]
	b	.L1302
.L1284:
	cmp	r0, #33
	beq	.L1285
	sub	r2, r0, #65
	cmp	r2, #1
	bhi	.L1286
.L1285:
	ldr	r0, .L1304
	strb	r3, [r0, #698]
	movs	r3, #4
	b	.L1303
.L1286:
	cmp	r0, #34
	beq	.L1287
	cmp	r0, #67
	bne	.L1288
.L1287:
	ldr	r0, .L1304
	strb	r3, [r0, #698]
	movs	r3, #5
.L1303:
	strb	r3, [r0, #699]
	movs	r2, #45
	movs	r3, #7
	addw	r0, r0, #702
	strb	r3, [r0, #-2]
	ldr	r1, .L1304+8
	b	.L1302
.L1288:
	cmp	r0, #35
	beq	.L1289
	cmp	r0, #68
	bne	.L1281
.L1289:
	ldr	r0, .L1304
	movs	r2, #95
	ldr	r1, .L1304+12
	addw	r0, r0, #702
	strb	r3, [r0, #-4]
	movs	r3, #5
	strb	r3, [r0, #-3]
	movs	r3, #17
	strb	r3, [r0, #-2]
.L1302:
	b	ftl_memcpy
.L1281:
	bx	lr
.L1305:
	.align	2
.L1304:
	.word	.LANCHOR0
	.word	.LANCHOR1+408
	.word	.LANCHOR1+256
	.word	.LANCHOR1+304
	.fnend
	.size	FlashGetReadRetryDefault, .-FlashGetReadRetryDefault
	.align	1
	.global	NandcXferComp
	.thumb
	.thumb_func
	.type	NandcXferComp, %function
NandcXferComp:
	.fnstart
	@ args = 0, pretend = 0, frame = 8
	@ frame_needed = 0, uses_anonymous_args = 0
	push	{r0, r1, r4, r5, r6, lr}
	.save {r4, r5, r6, lr}
	.pad #8
	ldr	r5, .L1345
	add	r0, r5, r0, lsl #3
	ldr	r3, [r5, #1740]
	ldr	r4, [r0, #12]
	cmp	r3, #3
	bls	.L1337
	ldr	r3, [r4, #16]
	lsls	r6, r3, #29
	bpl	.L1337
	mov	r0, r4
	bl	wait_for_nandc_xfer_completed
	ldr	r6, [r4, #16]
	ldr	r3, [r4, #8]
	ubfx	r6, r6, #1, #1
	str	r3, [sp]
	cmp	r6, #0
	beq	.L1319
	movs	r6, #0
.L1309:
	ldr	r2, [r4, #28]
	ldr	r3, [sp]
	ubfx	r2, r2, #16, #5
	ubfx	r3, r3, #22, #6
	cmp	r2, r3
	bge	.L1317
	ldr	r3, [r5, #1740]
	cmp	r3, #5
	bhi	.L1310
.L1313:
	adds	r6, r6, #1
	bic	r3, r6, #-16777216
	cmp	r3, #0
	bne	.L1309
	ldr	r2, [r4, #28]
	mov	r1, r6
	ldr	r3, [sp]
	ubfx	r2, r2, #16, #5
	ldr	r0, .L1345+4
	ubfx	r3, r3, #22, #6
	bl	printk
	ldr	r0, .L1345+8
	mov	r1, r4
	movs	r2, #4
	mov	r3, #512
	bl	rknand_print_hex
	b	.L1309
.L1310:
	ldr	r3, [r4]
	str	r3, [sp, #4]
	ldr	r3, [sp, #4]
	lsls	r0, r3, #18
	bpl	.L1313
	ldr	r3, [sp, #4]
	lsls	r1, r3, #14
	bpl	.L1313
.L1317:
	ldr	r3, [r5, #1776]
	ldr	r4, .L1345
	cmp	r3, #0
	beq	.L1318
	ldr	r1, [sp]
	movs	r2, #0
	ldr	r0, [r4, #1768]
	ubfx	r1, r1, #22, #5
	lsls	r1, r1, #10
	bl	rknand_dma_unmap_single
	ldr	r0, [r4, #1772]
	movs	r2, #0
	ldr	r1, [sp]
	ubfx	r1, r1, #22, #5
	lsls	r1, r1, #7
	bl	rknand_dma_unmap_single
	b	.L1318
.L1321:
	ldr	r3, [r4, #8]
	adds	r6, r6, #1
	str	r3, [sp]
	bic	r3, r6, #-16777216
	cbnz	r3, .L1319
	ldr	r2, [sp]
	mov	r1, r6
	ldr	r3, [r4, #28]
	ldr	r0, .L1345+12
	ubfx	r3, r3, #16, #5
	bl	printk
	ldr	r0, .L1345+8
	mov	r1, r4
	movs	r2, #4
	mov	r3, #512
	bl	rknand_print_hex
.L1319:
	ldr	r3, [sp]
	lsls	r2, r3, #11
	bpl	.L1321
	ldr	r3, [r5, #1784]
	cbz	r3, .L1322
	mov	r0, r4
	bl	NandcSendDumpDataStart
.L1322:
	ldr	r3, [r5, #1776]
	ldr	r6, .L1345
	cbz	r3, .L1323
	ldr	r1, [sp]
	movs	r2, #1
	ldr	r0, [r6, #1768]
	ubfx	r1, r1, #22, #5
	lsls	r1, r1, #10
	bl	rknand_dma_unmap_single
	ldr	r0, [r6, #1772]
	movs	r2, #1
	ldr	r1, [sp]
	ubfx	r1, r1, #22, #5
	lsls	r1, r1, #7
	bl	rknand_dma_unmap_single
.L1323:
	ldr	r3, [r5, #1784]
	cbz	r3, .L1318
	mov	r0, r4
	bl	NandcSendDumpDataDone
.L1318:
	movs	r3, #0
	str	r3, [r5, #1776]
	b	.L1306
.L1337:
	ldr	r3, [r4, #8]
	str	r3, [sp]
	ldr	r3, [sp]
	lsls	r3, r3, #11
	bpl	.L1337
.L1306:
	add	sp, sp, #8
	@ sp needed
	pop	{r4, r5, r6, pc}
.L1346:
	.align	2
.L1345:
	.word	.LANCHOR0
	.word	.LC87
	.word	.LC88
	.word	.LC89
	.fnend
	.size	NandcXferComp, .-NandcXferComp
	.align	1
	.global	NandcXferData
	.thumb
	.thumb_func
	.type	NandcXferData, %function
NandcXferData:
	.fnstart
	@ args = 4, pretend = 0, frame = 88
	@ frame_needed = 0, uses_anonymous_args = 0
	push	{r4, r5, r6, r7, r8, r9, r10, fp, lr}
	.save {r4, r5, r6, r7, r8, r9, r10, fp, lr}
	mov	r10, r3
	ldr	r3, .L1392
	mov	r7, r2
	.pad #100
	sub	sp, sp, #100
	ldr	r4, .L1392+4
	tst	r10, #63
	mov	r9, r0
	ldr	r2, [r3]
	mov	fp, r1
	ldr	r5, [sp, #136]
	str	r3, [sp, #16]
	str	r2, [sp, #92]
	add	r2, r4, r0, lsl #3
	ldr	r8, [r2, #12]
	bne	.L1348
	cbnz	r5, .L1349
	add	r0, sp, #28
	movs	r1, #255
	movs	r2, #64
	bl	ftl_memset
	add	r5, sp, #28
.L1349:
	mov	r0, r9
	str	r10, [sp]
	str	r5, [sp, #4]
	mov	r1, fp
	mov	r2, r7
	movs	r3, #0
	bl	NandcXferStart
	mov	r0, r9
	bl	NandcXferComp
	cmp	fp, #0
	bne	.L1376
	ldr	r3, [r4, #1788]
	lsrs	r1, r7, #1
	mov	r2, fp
	cmp	r3, #25
	mov	r3, fp
	ite	cc
	movcc	r6, #64
	movcs	r6, #128
.L1352:
	cmp	r2, r1
	add	r5, r5, #4
	add	lr, r3, r6
	bcs	.L1390
	ldr	r0, [r4, #1756]
	lsrs	r3, r3, #2
	adds	r2, r2, #1
	ldr	r3, [r0, r3, lsl #2]
	lsrs	r0, r3, #8
	strb	r3, [r5, #-4]
	strb	r0, [r5, #-3]
	lsrs	r0, r3, #16
	lsrs	r3, r3, #24
	strb	r0, [r5, #-2]
	strb	r3, [r5, #-1]
	mov	r3, lr
	b	.L1352
.L1390:
	movs	r2, #0
	ldr	r1, [r4, #1788]
	ldr	r0, [r4, #1740]
	lsrs	r7, r7, #2
	mov	r6, r2
.L1354:
	cmp	r2, r7
	bcs	.L1350
	cmp	r1, #0
	beq	.L1350
	add	r3, r2, #8
	ldr	r3, [r8, r3, lsl #2]
	str	r3, [sp, #24]
	ldr	r3, [sp, #24]
	lsls	r4, r3, #29
	bmi	.L1379
	ldr	r4, [sp, #24]
	ubfx	r4, r4, #15, #1
	cmp	r4, #0
	bne	.L1379
	cmp	r0, #5
	bls	.L1356
	ldr	r4, [sp, #24]
	ldr	r5, [sp, #24]
	ldr	r3, [sp, #24]
	ubfx	r4, r4, #3, #5
	ubfx	lr, r5, #27, #1
	ldr	r5, [sp, #24]
	ubfx	r3, r3, #16, #5
	ubfx	r5, r5, #29, #1
	orr	r4, r4, lr, lsl #5
	orr	r3, r3, r5, lsl #5
	cmp	r4, r3
	ldr	r3, [sp, #24]
	ittee	hi
	ldrhi	r4, [sp, #24]
	ubfxhi	r3, r3, #3, #5
	ldrls	r4, [sp, #24]
	ubfxls	r3, r3, #16, #5
	ite	hi
	ubfxhi	r4, r4, #27, #1
	ubfxls	r4, r4, #29, #1
	b	.L1389
.L1356:
	cmp	r0, #3
	bls	.L1358
	ldr	r4, [sp, #24]
	ldr	r5, [sp, #24]
	ldr	r3, [sp, #24]
	ubfx	r4, r4, #3, #5
	ubfx	lr, r5, #28, #1
	ldr	r5, [sp, #24]
	ubfx	r3, r3, #16, #5
	ubfx	r5, r5, #30, #1
	orr	r4, r4, lr, lsl #5
	orr	r3, r3, r5, lsl #5
	cmp	r4, r3
	bls	.L1359
	ldr	r3, [sp, #24]
	ldr	r4, [sp, #24]
	ubfx	r3, r3, #3, #5
	ubfx	r4, r4, #28, #1
.L1389:
	orr	r4, r3, r4, lsl #5
	b	.L1358
.L1359:
	ldr	r5, [sp, #24]
	ldr	r4, [sp, #24]
	ubfx	r5, r5, #16, #5
	ubfx	r4, r4, #30, #1
	orr	r4, r5, r4, lsl #5
.L1358:
	cmp	r6, r4
	it	cc
	movcc	r6, r4
	b	.L1355
.L1379:
	mov	r6, #-1
.L1355:
	adds	r2, r2, #1
	b	.L1354
.L1376:
	movs	r6, #0
.L1350:
	movs	r3, #0
	str	r3, [r8, #16]
	b	.L1361
.L1348:
	cmp	r1, #1
	mov	r4, #0
	bne	.L1388
	mov	r6, r4
.L1362:
	cmp	r4, r7
	bcs	.L1391
	and	ip, r4, #3
	cmp	r10, #0
	beq	.L1382
	add	r3, r10, r4, lsl #9
	b	.L1364
.L1382:
	mov	r3, r10
.L1364:
	cmp	r5, #0
	mov	r0, r8
	ite	ne
	movne	r2, #2
	moveq	r2, #0
	movs	r1, #1
	str	ip, [sp, #12]
	mla	r2, r4, r2, r5
	adds	r4, r4, #2
	str	r2, [sp]
	mov	r2, ip
	bl	NandcCopy1KB
	mov	r0, r9
	movs	r1, #1
	movs	r2, #2
	ldr	ip, [sp, #12]
	str	r6, [sp]
	str	r6, [sp, #4]
	mov	r3, ip
	bl	NandcXferStart
	mov	r0, r9
	bl	NandcXferComp
	b	.L1362
.L1391:
	movs	r6, #0
	b	.L1361
.L1388:
	str	r4, [sp]
	mov	r1, r4
	str	r4, [sp, #4]
	movs	r2, #2
	mov	r3, r4
	mov	r6, r4
	bl	NandcXferStart
	str	r10, [sp, #12]
.L1367:
	cmp	r4, r7
	bcs	.L1361
	mov	r0, r9
	bl	NandcXferComp
	ldr	r3, [r8, #32]
	add	ip, r4, #2
	cmp	ip, r7
	str	r3, [sp, #24]
	bcs	.L1368
	movs	r3, #0
	mov	r0, r9
	str	r3, [sp]
	movs	r2, #2
	str	r3, [sp, #4]
	mov	r1, r3
	and	r3, ip, #3
	str	ip, [sp, #20]
	bl	NandcXferStart
	ldr	ip, [sp, #20]
.L1368:
	ldr	r3, [sp, #24]
	lsls	r3, r3, #29
	bmi	.L1384
	ldr	r2, [sp, #24]
	ldr	r3, [sp, #24]
	ubfx	r2, r2, #3, #5
	ubfx	r3, r3, #27, #1
	orr	r3, r2, r3, lsl #5
	cmp	r6, r3
	it	cc
	movcc	r6, r3
	b	.L1369
.L1384:
	mov	r6, #-1
.L1369:
	cmp	r10, #0
	ldr	r3, [sp, #12]
	it	eq
	moveq	r3, #0
	cmp	r5, #0
	ite	ne
	movne	r1, #2
	moveq	r1, #0
	sub	r2, ip, #2
	mov	r0, r8
	mla	r4, r4, r1, r5
	and	r2, r2, #3
	movs	r1, #0
	str	ip, [sp, #20]
	str	r4, [sp]
	bl	NandcCopy1KB
	ldr	ip, [sp, #20]
	ldr	r3, [sp, #12]
	mov	r4, ip
	add	r3, r3, #1024
	str	r3, [sp, #12]
	b	.L1367
.L1361:
	ldr	r3, .L1392+4
	ldr	r3, [r3, #1740]
	cmp	r3, #5
	bls	.L1373
	cmp	fp, #0
	bne	.L1373
	ldr	r3, [r8]
	and	r2, r3, #139264
	cmp	r2, #139264
	ittt	eq
	moveq	r6, #-1
	orreq	r3, r3, #131072
	streq	r3, [r8]
.L1373:
	ldr	r3, [sp, #16]
	mov	r0, r6
	ldr	r2, [sp, #92]
	ldr	r3, [r3]
	cmp	r2, r3
	beq	.L1375
	bl	__stack_chk_fail
.L1375:
	add	sp, sp, #100
	@ sp needed
	pop	{r4, r5, r6, r7, r8, r9, r10, fp, pc}
.L1393:
	.align	2
.L1392:
	.word	__stack_chk_guard
	.word	.LANCHOR0
	.fnend
	.size	NandcXferData, .-NandcXferData
	.align	1
	.global	FlashReadRawPage
	.thumb
	.thumb_func
	.type	FlashReadRawPage, %function
FlashReadRawPage:
	.fnstart
	@ args = 0, pretend = 0, frame = 0
	@ frame_needed = 0, uses_anonymous_args = 0
	push	{r0, r1, r4, r5, r6, r7, r8, lr}
	.save {r4, r5, r6, r7, r8, lr}
	.pad #8
	mov	r8, r3
	ldr	r3, .L1396
	mov	r6, r1
	mov	r7, r2
	mov	r4, r0
	ldrb	r5, [r3, #481]	@ zero_extendqisi2
	cbnz	r0, .L1395
	ldr	r2, .L1396+4
	ldrb	r3, [r2, #1]	@ zero_extendqisi2
	ldr	r2, [r2, #4]
	muls	r2, r3, r2
	cmp	r1, r2
	it	cc
	movcc	r5, #4
.L1395:
	mov	r0, r4
	bl	NandcWaitFlashReady
	mov	r0, r4
	bl	NandcFlashCs
	mov	r1, r6
	mov	r0, r4
	bl	FlashReadCmd
	mov	r0, r4
	bl	NandcWaitFlashReady
	mov	r2, r5
	movs	r1, #0
	mov	r3, r7
	mov	r0, r4
	str	r8, [sp]
	bl	NandcXferData
	mov	r5, r0
	mov	r0, r4
	bl	NandcFlashDeCs
	mov	r0, r5
	add	sp, sp, #8
	@ sp needed
	pop	{r4, r5, r6, r7, r8, pc}
.L1397:
	.align	2
.L1396:
	.word	.LANCHOR1
	.word	.LANCHOR0
	.fnend
	.size	FlashReadRawPage, .-FlashReadRawPage
	.align	1
	.global	FlashDdrTunningRead
	.thumb
	.thumb_func
	.type	FlashDdrTunningRead, %function
FlashDdrTunningRead:
	.fnstart
	@ args = 4, pretend = 0, frame = 16
	@ frame_needed = 0, uses_anonymous_args = 0
	push	{r4, r5, r6, r7, r8, r9, r10, fp, lr}
	.save {r4, r5, r6, r7, r8, r9, r10, fp, lr}
	mov	r7, r3
	ldr	r4, .L1424
	.pad #20
	sub	sp, sp, #20
	mov	r10, r0
	mov	fp, r2
	str	r1, [sp]
	ldr	r3, [r4, #76]
	ldr	r3, [r3, #304]
	str	r3, [sp, #8]
	ldr	r3, [r4, #1740]
	cmp	r3, #8
	ldr	r3, [sp, #56]
	ite	cc
	movcc	r9, #6
	movcs	r9, #12
	cmp	r3, #0
	beq	.L1412
	movs	r0, #1
	bl	FlashSetInterfaceMode
	movs	r0, #1
	bl	NandcSetMode
	mov	r0, r10
	bl	FlashReset
	mov	r3, r7
	mov	r2, fp
	mov	r0, r10
	ldr	r1, [sp]
	bl	FlashReadRawPage
	mov	r6, r0
	ldrb	r0, [r4, #1716]	@ zero_extendqisi2
	bl	FlashSetInterfaceMode
	ldrb	r0, [r4, #1716]	@ zero_extendqisi2
	bl	NandcSetMode
	adds	r3, r6, #1
	bne	.L1401
.L1410:
	mov	r6, #-1
	b	.L1402
.L1401:
	mov	r2, r6
	ldr	r0, .L1424+4
	ldr	r1, [sp]
	bl	printk
	cmp	r6, #9
	itt	ls
	addls	r4, r4, r10, lsl #3
	ldrls	r3, [r4, #12]
	ldr	r4, .L1424+8
	itttt	ls
	ldrls	r2, [r3, #3840]
	ldrls	r2, [r3]
	orrls	r2, r2, #131072
	strls	r2, [r3]
	ldr	r3, [r4, #3992]
	adds	r3, r3, #1
	str	r3, [r4, #3992]
	cmp	r3, #2048
	bcc	.L1402
	movs	r7, #0
	str	r7, [r4, #3992]
	mov	fp, r7
	b	.L1400
.L1412:
	mov	r6, #1024
.L1400:
	movs	r4, #0
	mov	r8, #-1
	str	r4, [sp, #4]
	mov	ip, r4
	mov	r5, r4
.L1408:
	uxtb	r0, r9
	str	ip, [sp, #12]
	bl	NandcSetDdrPara
	mov	r3, r7
	mov	r0, r10
	mov	r2, fp
	ldr	r1, [sp]
	bl	FlashReadRawPage
	adds	r3, r6, #1
	cmp	r0, r3
	ldr	ip, [sp, #12]
	bhi	.L1404
	cmp	r0, #2
	bhi	.L1414
	adds	r5, r5, #1
	cmp	r5, #9
	bls	.L1414
	rsb	r4, r5, r9
	mov	r6, r0
	mov	r8, #0
	b	.L1406
.L1404:
	ldr	r3, [sp, #4]
	cmp	r3, r5
	bcs	.L1415
	cmp	r5, #7
	rsb	ip, r5, r4
	bhi	.L1416
	str	r5, [sp, #4]
	b	.L1415
.L1414:
	mov	r8, #0
	mov	r4, r9
	mov	r6, r0
	mov	r7, r8
	mov	fp, r8
	b	.L1405
.L1415:
	movs	r5, #0
.L1405:
	add	r9, r9, #2
	cmp	r9, #69
	bls	.L1408
.L1406:
	ldr	r3, [sp, #4]
	cmp	r3, r5
	it	cs
	movcs	r4, ip
	b	.L1407
.L1416:
	mov	r4, ip
.L1407:
	cbz	r4, .L1409
	ldr	r0, .L1424+12
	mov	r1, r4
	bl	printk
	uxtb	r0, r4
	bl	NandcSetDdrPara
.L1409:
	cmp	r8, #0
	beq	.L1402
	ldr	r0, .L1424+16
	mov	r1, r10
	ldr	r2, [sp]
	bl	printk
	ldr	r3, [sp, #56]
	cmp	r3, #0
	beq	.L1410
	ldr	r3, [sp, #8]
	ubfx	r0, r3, #8, #8
	bl	NandcSetDdrPara
.L1402:
	mov	r0, r6
	add	sp, sp, #20
	@ sp needed
	pop	{r4, r5, r6, r7, r8, r9, r10, fp, pc}
.L1425:
	.align	2
.L1424:
	.word	.LANCHOR0
	.word	.LC90
	.word	.LANCHOR2
	.word	.LC91
	.word	.LC92
	.fnend
	.size	FlashDdrTunningRead, .-FlashDdrTunningRead
	.align	1
	.global	FlashReadPage
	.thumb
	.thumb_func
	.type	FlashReadPage, %function
FlashReadPage:
	.fnstart
	@ args = 0, pretend = 0, frame = 0
	@ frame_needed = 0, uses_anonymous_args = 0
	push	{r0, r1, r2, r4, r5, r6, r7, r8, r9, r10, fp, lr}
	.save {r4, r5, r6, r7, r8, r9, r10, fp, lr}
	.pad #12
	mov	r8, r2
	mov	r5, r0
	mov	r6, r1
	mov	r7, r3
	bl	FlashReadRawPage
	adds	r2, r0, #1
	mov	r4, r0
	bne	.L1427
	ldr	r9, .L1446+4
	ldrb	fp, [r9, #8]	@ zero_extendqisi2
	mov	r10, r9
	cmp	fp, #0
	bne	.L1428
.L1430:
	ldrb	r3, [r10, #1732]	@ zero_extendqisi2
	ldr	r9, .L1446+4
	cbz	r3, .L1427
	b	.L1445
.L1428:
	movs	r3, #0
	mov	r0, r5
	strb	r3, [r9, #8]
	mov	r1, r6
	mov	r3, r7
	mov	r2, r8
	bl	FlashReadRawPage
	strb	fp, [r9, #8]
	adds	r3, r0, #1
	beq	.L1430
	mov	r4, r0
	b	.L1427
.L1445:
	ldr	r3, [r9, #76]
	mov	r1, r6
	mov	r0, r5
	mov	r2, r8
	ldr	r10, [r3, #304]
	movs	r3, #1
	str	r3, [sp]
	mov	r3, r7
	bl	FlashDdrTunningRead
	adds	r1, r0, #1
	mov	r4, r0
	beq	.L1431
	ldrb	r3, [r9, #1792]	@ zero_extendqisi2
	cmp	r0, r3, lsr #1
	bls	.L1427
.L1431:
	ubfx	r0, r10, #8, #8
	bl	NandcSetDdrPara
.L1427:
	ldr	r9, .L1446+8
	ldr	ip, [r9, #3996]
	cmp	ip, #0
	beq	.L1432
	adds	r2, r4, #1
	bne	.L1432
	mov	r1, r6
	mov	r2, r8
	mov	r3, r7
	mov	r0, r5
	blx	ip
	mov	r3, r6
	mov	r2, r5
	mov	r4, r0
	ldr	r0, .L1446
	mov	r1, r4
	bl	printk
	adds	r3, r4, #1
	bne	.L1432
	ldr	r3, .L1446+4
	ldrb	r3, [r3, #140]	@ zero_extendqisi2
	cbz	r3, .L1432
	mov	r0, r5
	bl	flash_enter_slc_mode
	ldr	r4, [r9, #3996]
	mov	r0, r5
	mov	r1, r6
	mov	r2, r8
	mov	r3, r7
	blx	r4
	mov	r4, r0
	mov	r0, r5
	bl	flash_exit_slc_mode
.L1432:
	mov	r0, r4
	add	sp, sp, #12
	@ sp needed
	pop	{r4, r5, r6, r7, r8, r9, r10, fp, pc}
.L1447:
	.align	2
.L1446:
	.word	.LC93
	.word	.LANCHOR0
	.word	.LANCHOR2
	.fnend
	.size	FlashReadPage, .-FlashReadPage
	.align	1
	.global	FlashDdrParaScan
	.thumb
	.thumb_func
	.type	FlashDdrParaScan, %function
FlashDdrParaScan:
	.fnstart
	@ args = 0, pretend = 0, frame = 0
	@ frame_needed = 0, uses_anonymous_args = 0
	push	{r0, r1, r4, r5, r6, r7, r8, lr}
	.save {r4, r5, r6, r7, r8, lr}
	.pad #8
	mov	r7, r0
	ldr	r4, .L1458
	mov	r6, r1
	movs	r5, #0
	ldrb	r0, [r4, #1716]	@ zero_extendqisi2
	bl	FlashSetInterfaceMode
	ldrb	r0, [r4, #1716]	@ zero_extendqisi2
	bl	NandcSetMode
	mov	r1, r6
	mov	r2, r5
	mov	r3, r5
	mov	r0, r7
	str	r5, [sp]
	bl	FlashDdrTunningRead
	mov	r1, r6
	mov	r2, r5
	mov	r3, r5
	mov	r8, r0
	mov	r0, r7
	bl	FlashReadRawPage
	adds	r0, r0, #1
	beq	.L1449
	cmp	r8, #-1
	bne	.L1450
.L1449:
	ldrb	r3, [r4, #1716]	@ zero_extendqisi2
	lsls	r3, r3, #31
	bpl	.L1450
	movs	r0, #1
	bl	FlashSetInterfaceMode
	movs	r0, #1
	bl	NandcSetMode
	ldr	r3, .L1458
	movs	r2, #0
	strb	r2, [r3, #1732]
	b	.L1451
.L1450:
	movs	r3, #1
	strb	r3, [r4, #1732]
.L1451:
	movs	r0, #0
	add	sp, sp, #8
	@ sp needed
	pop	{r4, r5, r6, r7, r8, pc}
.L1459:
	.align	2
.L1458:
	.word	.LANCHOR0
	.fnend
	.size	FlashDdrParaScan, .-FlashDdrParaScan
	.align	1
	.global	FlashLoadPhyInfo
	.thumb
	.thumb_func
	.type	FlashLoadPhyInfo, %function
FlashLoadPhyInfo:
	.fnstart
	@ args = 0, pretend = 0, frame = 16
	@ frame_needed = 0, uses_anonymous_args = 0
	push	{r4, r5, r6, r7, r8, r9, r10, fp, lr}
	.save {r4, r5, r6, r7, r8, r9, r10, fp, lr}
	.pad #20
	sub	sp, sp, #20
	ldr	r10, .L1476+24
	movs	r6, #0
	ldr	r7, .L1476
	mov	r9, #4
	ldr	r5, .L1476+4
	mov	r8, #-1
	ldr	r3, [r10]
	mov	r4, r6
	str	r6, [r5, #4004]
	str	r3, [sp, #12]
	ldr	r3, .L1476+8
	ldr	r0, [r3]	@ unaligned
	ldr	r3, [r7, #4]
	str	r0, [sp, #8]	@ unaligned
	mov	r0, r6
	str	r3, [sp]
	mov	r6, r5
	ldr	r3, [r5, #3988]
	str	r3, [r5, #4000]
	bl	flash_enter_slc_mode
	str	r10, [sp, #4]
.L1461:
	add	fp, r4, #1
	mov	r10, #0
.L1463:
	add	r3, sp, #8
	ldrb	r0, [r3, r10]	@ zero_extendqisi2
	bl	FlashBchSel
	movs	r0, #0
	mov	r1, r4
	ldr	r2, [r5, #3988]
	mov	r3, r0
	bl	FlashReadRawPage
	adds	r0, r0, #1
	bne	.L1462
	movs	r0, #0
	mov	r1, fp
	ldr	r2, [r6, #3988]
	mov	r3, r0
	bl	FlashReadRawPage
	adds	r0, r0, #1
	bne	.L1462
	add	r10, r10, #1
	cmp	r10, #4
	beq	.L1464
	b	.L1463
.L1465:
	add	r0, fp, #12
	movw	r1, #2036
	bl	js_hash
	ldr	r3, [fp, #8]
	cmp	r3, r0
	bne	.L1472
	ldr	r8, .L1476+28
	add	r1, fp, #160
	movs	r2, #32
	add	r0, r8, #472
	bl	ftl_memcpy
	ldr	r1, [r6, #4000]
	movs	r2, #32
	ldr	r0, .L1476+12
	adds	r1, r1, #192
	bl	ftl_memcpy
	ldr	r1, [r6, #4000]
	mov	r2, #852
	ldr	r0, .L1476+16
	adds	r1, r1, #224
	bl	ftl_memcpy
	ldrh	r0, [r8, #482]
	bl	FlashBlockAlignInit
	ldr	r8, [r6, #4000]
	str	r4, [r6, #4004]
	mov	r0, r4
	ldr	r1, [r7, #4]
	ldr	r3, [r8, #1076]
	strb	r3, [r7, #1732]
	bl	__aeabi_uidiv
	adds	r0, r0, #1
	cmp	r0, #1
	itee	hi
	strhi	r0, [r6, #4008]
	movls	r3, #2
	strls	r3, [r6, #4008]
	ldrh	r3, [r8, #14]
	mov	r8, #0
	strb	r3, [r5, #4012]
.L1464:
	ldr	r3, [sp]
	subs	r9, r9, #1
	add	r4, r4, r3
	bne	.L1461
	mov	r0, r9
.L1475:
	bl	flash_exit_slc_mode
	mov	r0, r8
	ldr	r3, [sp, #4]
	ldr	r2, [sp, #12]
	ldr	r3, [r3]
	cmp	r2, r3
	beq	.L1471
	bl	__stack_chk_fail
.L1462:
	ldr	fp, [r5, #4000]
	ldr	r2, .L1476+20
	ldr	r3, [fp]
	cmp	r3, r2
	bne	.L1464
	cmp	r8, #0
	bne	.L1465
	mov	r0, r4
	ldr	r1, [r7, #4]
	bl	__aeabi_uidiv
	ldr	r3, .L1476+4
	adds	r0, r0, #1
	str	r0, [r3, #4008]
	mov	r0, r8
	b	.L1475
.L1472:
	mov	r8, #-1
	b	.L1464
.L1471:
	add	sp, sp, #20
	@ sp needed
	pop	{r4, r5, r6, r7, r8, r9, r10, fp, pc}
.L1477:
	.align	2
.L1476:
	.word	.LANCHOR0
	.word	.LANCHOR2
	.word	.LANCHOR3+11
	.word	.LANCHOR0+44
	.word	.LANCHOR0+698
	.word	1312902724
	.word	__stack_chk_guard
	.word	.LANCHOR1
	.fnend
	.size	FlashLoadPhyInfo, .-FlashLoadPhyInfo
	.align	1
	.global	ToshibaReadRetrial
	.thumb
	.thumb_func
	.type	ToshibaReadRetrial, %function
ToshibaReadRetrial:
	.fnstart
	@ args = 0, pretend = 0, frame = 24
	@ frame_needed = 0, uses_anonymous_args = 0
	push	{r4, r5, r6, r7, r8, r9, r10, fp, lr}
	.save {r4, r5, r6, r7, r8, r9, r10, fp, lr}
	.pad #28
	sub	sp, sp, #28
	mov	r9, r0
	mov	fp, r3
	str	r2, [sp, #8]
	str	r1, [sp, #16]
	bl	NandcWaitFlashReady
	ldr	r4, .L1506
	add	r3, r4, r9, lsl #3
	ldrb	r2, [r3, #16]	@ zero_extendqisi2
	ldr	r7, [r3, #12]
	ldrb	r3, [r4, #696]	@ zero_extendqisi2
	add	r6, r2, #8
	subs	r3, r3, #67
	add	r6, r7, r6, lsl #8
	cmp	r3, #1
	lsl	r3, r2, #8
	str	r3, [sp, #12]
	bls	.L1495
	ldrb	r5, [r4, #1732]	@ zero_extendqisi2
	cbz	r5, .L1496
	movs	r0, #0
	str	r2, [sp, #20]
	bl	NandcSetDdrMode
	movs	r3, #1
	ldr	r2, [sp, #20]
	str	r3, [sp, #4]
	b	.L1480
.L1496:
	str	r5, [sp, #4]
.L1480:
	ldr	r3, [sp, #12]
	movs	r1, #92
	adds	r3, r7, r3
	str	r1, [r3, #2056]
	movs	r1, #197
	str	r1, [r3, #2056]
	b	.L1479
.L1495:
	movs	r3, #0
	str	r3, [sp, #4]
.L1479:
	mov	r8, #1
	mov	r10, #-1
	lsls	r3, r2, #8
	str	r3, [sp, #20]
.L1481:
	ldr	r3, .L1506+4
	ldrb	r3, [r3, #4013]	@ zero_extendqisi2
	adds	r3, r3, #1
	cmp	r8, r3
	bcs	.L1505
	ldrb	r3, [r4, #696]	@ zero_extendqisi2
	mov	r0, r6
	uxtb	r1, r8
	subs	r3, r3, #67
	cmp	r3, #1
	bhi	.L1482
	bl	SandiskSetRRPara
	b	.L1483
.L1482:
	bl	ToshibaSetRRPara
.L1483:
	ldrb	r3, [r4, #696]	@ zero_extendqisi2
	cmp	r3, #34
	bne	.L1484
	ldr	r3, .L1506+4
	ldrb	r3, [r3, #4013]	@ zero_extendqisi2
	subs	r3, r3, #3
	cmp	r8, r3
	itttt	eq
	moveq	r2, #179
	ldreq	r3, [sp, #20]
	addeq	r3, r7, r3
	streq	r2, [r3, #2056]
.L1484:
	ldr	r3, [sp, #12]
	movs	r2, #38
	adds	r3, r7, r3
	str	r2, [r3, #2056]
	movs	r2, #93
	str	r2, [r3, #2056]
	ldr	r3, [sp, #4]
	cbz	r3, .L1485
	movs	r0, #4
	bl	NandcSetDdrMode
	mov	r0, r9
	mov	r3, fp
	ldr	r1, [sp, #16]
	ldr	r2, [sp, #8]
	bl	FlashReadRawPage
	mov	r5, r0
	movs	r0, #0
	bl	NandcSetDdrMode
	b	.L1486
.L1485:
	mov	r0, r9
	ldr	r1, [sp, #16]
	ldr	r2, [sp, #8]
	mov	r3, fp
	bl	FlashReadRawPage
	mov	r5, r0
.L1486:
	adds	r2, r5, #1
	beq	.L1487
	ldrb	r2, [r4, #1792]	@ zero_extendqisi2
	cmp	r10, #-1
	it	eq
	moveq	r10, r5
	add	r2, r2, r2, lsl #1
	cmp	r5, r2, asr #2
	bcc	.L1489
	mov	fp, #0
	str	fp, [sp, #8]
.L1487:
	add	r8, r8, #1
	b	.L1481
.L1505:
	mov	r5, r10
.L1489:
	ldrb	r2, [r4, #696]	@ zero_extendqisi2
	mov	r0, r6
	movs	r1, #0
	subs	r2, r2, #67
	cmp	r2, #1
	bhi	.L1491
	bl	SandiskSetRRPara
	b	.L1492
.L1491:
	bl	ToshibaSetRRPara
.L1492:
	ldr	r3, [sp, #12]
	movs	r2, #255
	add	r7, r7, r3
	str	r2, [r7, #2056]
	ldrb	r2, [r4, #1792]	@ zero_extendqisi2
	add	r2, r2, r2, lsl #1
	cmp	r5, r2, asr #2
	bcc	.L1493
	adds	r3, r5, #1
	it	ne
	movne	r5, #256
.L1493:
	mov	r0, r9
	bl	NandcWaitFlashReady
	ldr	r3, [sp, #4]
	cbz	r3, .L1494
	movs	r0, #4
	bl	NandcSetDdrMode
.L1494:
	mov	r0, r5
	add	sp, sp, #28
	@ sp needed
	pop	{r4, r5, r6, r7, r8, r9, r10, fp, pc}
.L1507:
	.align	2
.L1506:
	.word	.LANCHOR0
	.word	.LANCHOR2
	.fnend
	.size	ToshibaReadRetrial, .-ToshibaReadRetrial
	.align	1
	.global	SamsungReadRetrial
	.thumb
	.thumb_func
	.type	SamsungReadRetrial, %function
SamsungReadRetrial:
	.fnstart
	@ args = 0, pretend = 0, frame = 0
	@ frame_needed = 0, uses_anonymous_args = 0
	push	{r3, r4, r5, r6, r7, r8, r9, r10, fp, lr}
	.save {r3, r4, r5, r6, r7, r8, r9, r10, fp, lr}
	mov	r8, r0
	ldr	r5, .L1521
	mov	r9, r2
	mov	r7, r3
	mov	fp, r1
	bl	NandcWaitFlashReady
	add	r2, r5, r8, lsl #3
	mov	r10, #1
	mov	r4, #-1
	ldrb	r3, [r2, #16]	@ zero_extendqisi2
	ldr	r6, [r2, #12]
	adds	r3, r3, #8
	add	r6, r6, r3, lsl #8
.L1509:
	ldr	r3, .L1521+4
	ldrb	r3, [r3, #4013]	@ zero_extendqisi2
	adds	r3, r3, #1
	cmp	r10, r3
	bcs	.L1512
	mov	r0, r6
	uxtb	r1, r10
	bl	SamsungSetRRPara
	mov	r2, r9
	mov	r0, r8
	mov	r1, fp
	mov	r3, r7
	bl	FlashReadRawPage
	adds	r2, r0, #1
	beq	.L1510
	ldrb	r3, [r5, #1792]	@ zero_extendqisi2
	cmp	r4, #-1
	it	eq
	moveq	r4, r0
	add	r3, r3, r3, lsl #1
	cmp	r0, r3, asr #2
	bcc	.L1515
	movs	r7, #0
	mov	r9, r7
.L1510:
	add	r10, r10, #1
	b	.L1509
.L1515:
	mov	r4, r0
.L1512:
	mov	r0, r6
	movs	r1, #0
	bl	SamsungSetRRPara
	ldrb	r3, [r5, #1792]	@ zero_extendqisi2
	add	r3, r3, r3, lsl #1
	cmp	r4, r3, asr #2
	bcc	.L1514
	adds	r3, r4, #1
	it	ne
	movne	r4, #256
.L1514:
	mov	r0, r4
	pop	{r3, r4, r5, r6, r7, r8, r9, r10, fp, pc}
.L1522:
	.align	2
.L1521:
	.word	.LANCHOR0
	.word	.LANCHOR2
	.fnend
	.size	SamsungReadRetrial, .-SamsungReadRetrial
	.align	1
	.global	MicronReadRetrial
	.thumb
	.thumb_func
	.type	MicronReadRetrial, %function
MicronReadRetrial:
	.fnstart
	@ args = 0, pretend = 0, frame = 24
	@ frame_needed = 0, uses_anonymous_args = 0
	push	{r4, r5, r6, r7, r8, r9, r10, fp, lr}
	.save {r4, r5, r6, r7, r8, r9, r10, fp, lr}
	mov	r8, r3
	ldr	r3, .L1547
	.pad #36
	sub	sp, sp, #36
	mov	r6, r0
	mov	fp, r2
	str	r1, [sp, #20]
	ldrb	r5, [r3, #1792]	@ zero_extendqisi2
	ldrb	r3, [r3, #140]	@ zero_extendqisi2
	cbnz	r3, .L1524
	add	r5, r5, r5, lsl #1
	ubfx	r5, r5, #2, #8
	b	.L1525
.L1524:
	ldr	r2, .L1547+4
	smull	r2, r3, r5, r2
	uxtb	r5, r3
.L1525:
	ldr	r3, .L1547
	mov	r10, #0
	add	r3, r3, r6, lsl #3
	str	r3, [sp, #24]
.L1535:
	mov	r0, r6
	mov	r9, #0
	bl	NandcWaitFlashReady
	mov	r4, #-1
	ldr	r3, [sp, #24]
	ldr	r3, [r3, #12]
	str	r3, [sp, #12]
	ldr	r3, [sp, #24]
	ldrb	r3, [r3, #16]	@ zero_extendqisi2
	str	r3, [sp, #16]
	ldr	r2, [sp, #16]
	ldr	r3, [sp, #12]
	add	r7, r3, r2, lsl #8
.L1526:
	ldr	r3, .L1547+8
	ldrb	r3, [r3, #4013]	@ zero_extendqisi2
	cmp	r9, r3
	bcs	.L1529
	movs	r3, #239
	movs	r0, #200
	str	r3, [r7, #2056]
	movs	r3, #137
	str	r3, [r7, #2052]
	bl	NandcDelayns
	mov	ip, #0
	add	r3, r9, #1
	mov	r0, r6
	str	r3, [r7, #2048]
	mov	r2, fp
	str	ip, [r7, #2048]
	str	ip, [r7, #2048]
	str	ip, [r7, #2048]
	str	r3, [sp, #8]
	mov	r3, r8
	ldr	r1, [sp, #20]
	str	ip, [sp, #28]
	bl	FlashReadRawPage
	adds	r3, r0, #1
	beq	.L1527
	cmp	r4, #-1
	it	eq
	moveq	r4, r0
	cmp	r0, r5
	ldr	ip, [sp, #28]
	bcc	.L1537
	mov	r8, ip
	mov	fp, ip
.L1527:
	ldr	r9, [sp, #8]
	b	.L1526
.L1537:
	mov	r4, r0
	mov	r8, ip
	mov	fp, ip
.L1529:
	ldr	r2, [sp, #16]
	movs	r0, #200
	ldr	r3, [sp, #12]
	movs	r7, #0
	add	r3, r3, r2, lsl #8
	movs	r2, #239
	str	r3, [sp, #8]
	str	r2, [r3, #2056]
	movs	r2, #137
	str	r2, [r3, #2052]
	bl	NandcDelayns
	cmp	r4, r5
	ldr	r3, [sp, #8]
	str	r7, [r3, #2048]
	str	r7, [r3, #2048]
	str	r7, [r3, #2048]
	str	r7, [r3, #2048]
	bcc	.L1531
	adds	r1, r4, #1
	ldr	r0, .L1547+12
	it	ne
	movne	r4, #256
	mov	r1, r9
	str	r4, [sp]
	mov	r3, r9
	ldr	r2, [sp, #20]
	bl	printk
	cmp	r10, #0
	bne	.L1533
	ldr	r3, .L1547
	ldrb	r3, [r3, #140]	@ zero_extendqisi2
	cbz	r3, .L1542
	adds	r2, r4, #1
	bne	.L1542
	mov	r0, r6
	movs	r1, #3
	bl	micron_auto_read_calibration_config
	mov	r10, #1
	b	.L1535
.L1533:
	mov	r0, r6
	mov	r1, r7
	bl	micron_auto_read_calibration_config
	adds	r3, r4, #1
	it	ne
	movne	r4, #256
	b	.L1542
.L1531:
	cmp	r10, #0
	beq	.L1542
	mov	r0, r6
	mov	r1, r7
	bl	micron_auto_read_calibration_config
	mov	r4, #256
.L1542:
	mov	r0, r4
	add	sp, sp, #36
	@ sp needed
	pop	{r4, r5, r6, r7, r8, r9, r10, fp, pc}
.L1548:
	.align	2
.L1547:
	.word	.LANCHOR0
	.word	1431655766
	.word	.LANCHOR2
	.word	.LC94
	.fnend
	.size	MicronReadRetrial, .-MicronReadRetrial
	.align	1
	.global	HynixReadRetrial
	.thumb
	.thumb_func
	.type	HynixReadRetrial, %function
HynixReadRetrial:
	.fnstart
	@ args = 0, pretend = 0, frame = 8
	@ frame_needed = 0, uses_anonymous_args = 0
	push	{r0, r1, r2, r4, r5, r6, r7, r8, r9, r10, fp, lr}
	.save {r4, r5, r6, r7, r8, r9, r10, fp, lr}
	.pad #12
	mov	r8, r3
	ldr	r5, .L1566
	mov	r10, r2
	mov	r7, r0
	mov	fp, r1
	adds	r2, r5, r0
	mov	r6, #-1
	ldr	r3, [r5, #692]
	ldrb	r4, [r2, #710]	@ zero_extendqisi2
	ldrb	r9, [r5, #700]	@ zero_extendqisi2
	ldrb	r3, [r3, #19]	@ zero_extendqisi2
	subs	r3, r3, #7
	cmp	r3, #1
	it	ls
	ldrbls	r4, [r2, #718]	@ zero_extendqisi2
	bl	NandcWaitFlashReady
	mov	ip, #0
.L1551:
	cmp	ip, r9
	bcs	.L1555
	adds	r4, r4, #1
	mov	r0, r7
	ldrb	r1, [r5, #699]	@ zero_extendqisi2
	uxtb	r4, r4
	ldr	r2, .L1566+4
	cmp	r4, r9
	it	cs
	movcs	r4, #0
	str	ip, [sp, #4]
	mov	r3, r4
	bl	HynixSetRRPara
	mov	r2, r10
	mov	r0, r7
	mov	r1, fp
	mov	r3, r8
	bl	FlashReadRawPage
	adds	r2, r0, #1
	ldr	ip, [sp, #4]
	beq	.L1553
	ldrb	r3, [r5, #1792]	@ zero_extendqisi2
	cmp	r6, #-1
	it	eq
	moveq	r6, r0
	add	r3, r3, r3, lsl #1
	cmp	r0, r3, asr #2
	bcc	.L1560
	mov	r8, #0
	mov	r10, r8
.L1553:
	add	ip, ip, #1
	b	.L1551
.L1560:
	mov	r6, r0
.L1555:
	ldr	r3, [r5, #692]
	add	r7, r7, r5
	ldrb	r3, [r3, #19]	@ zero_extendqisi2
	subs	r3, r3, #7
	cmp	r3, #1
	ldrb	r3, [r5, #1792]	@ zero_extendqisi2
	ite	ls
	strbls	r4, [r7, #718]
	strbhi	r4, [r7, #710]
	add	r3, r3, r3, lsl #1
	cmp	r6, r3, asr #2
	bcc	.L1559
	adds	r3, r6, #1
	it	ne
	movne	r6, #256
.L1559:
	mov	r0, r6
	add	sp, sp, #12
	@ sp needed
	pop	{r4, r5, r6, r7, r8, r9, r10, fp, pc}
.L1567:
	.align	2
.L1566:
	.word	.LANCHOR0
	.word	.LANCHOR0+702
	.fnend
	.size	HynixReadRetrial, .-HynixReadRetrial
	.align	1
	.global	FlashProgPage
	.thumb
	.thumb_func
	.type	FlashProgPage, %function
FlashProgPage:
	.fnstart
	@ args = 0, pretend = 0, frame = 0
	@ frame_needed = 0, uses_anonymous_args = 0
	push	{r0, r1, r4, r5, r6, r7, r8, lr}
	.save {r4, r5, r6, r7, r8, lr}
	.pad #8
	mov	r8, r3
	ldr	r3, .L1571
	mov	r5, r1
	mov	r7, r2
	mov	r4, r0
	ldrb	r6, [r3, #481]	@ zero_extendqisi2
	cbnz	r0, .L1569
	ldr	r2, .L1571+4
	ldrb	r3, [r2, #1]	@ zero_extendqisi2
	ldr	r1, [r2, #4]
	muls	r1, r3, r1
	cmp	r5, r1
	bcs	.L1569
	ldrb	r3, [r2]	@ zero_extendqisi2
	cbnz	r3, .L1570
	subs	r6, r6, #2
	b	.L1569
.L1570:
	movs	r6, #4
.L1569:
	mov	r0, r4
	bl	NandcWaitFlashReady
	mov	r0, r4
	bl	NandcFlashCs
	mov	r0, r4
	mov	r1, r5
	bl	FlashProgFirstCmd
	uxtb	r2, r6
	mov	r3, r7
	mov	r0, r4
	movs	r1, #1
	str	r8, [sp]
	bl	NandcXferData
	mov	r1, r5
	mov	r0, r4
	bl	FlashProgSecondCmd
	mov	r0, r4
	bl	NandcWaitFlashReady
	mov	r1, r5
	mov	r0, r4
	bl	FlashReadStatus
	mov	r5, r0
	mov	r0, r4
	bl	NandcFlashDeCs
	and	r0, r5, #1
	add	sp, sp, #8
	@ sp needed
	pop	{r4, r5, r6, r7, r8, pc}
.L1572:
	.align	2
.L1571:
	.word	.LANCHOR1
	.word	.LANCHOR0
	.fnend
	.size	FlashProgPage, .-FlashProgPage
	.align	1
	.global	FlashSavePhyInfo
	.thumb
	.thumb_func
	.type	FlashSavePhyInfo, %function
FlashSavePhyInfo:
	.fnstart
	@ args = 0, pretend = 0, frame = 8
	@ frame_needed = 0, uses_anonymous_args = 0
	push	{r0, r1, r2, r4, r5, r6, r7, r8, r9, r10, fp, lr}
	.save {r4, r5, r6, r7, r8, r9, r10, fp, lr}
	.pad #12
	ldr	r4, .L1582
	ldr	r5, .L1582+4
	ldr	r8, .L1582+12
	ldr	r3, [r4, #3988]
	mov	r9, r4
	ldrb	r0, [r4, #4014]	@ zero_extendqisi2
	mov	r10, r5
	str	r3, [r4, #4000]
	bl	FlashBchSel
	movs	r1, #0
	mov	r2, #2048
	ldr	r0, [r4, #3988]
	bl	ftl_memset
	ldr	r3, [r4, #4000]
	addw	r1, r5, #1556
	movs	r2, #32
	str	r8, [r3]
	ldr	r0, [r4, #4000]
	ldrb	r3, [r5, #1717]	@ zero_extendqisi2
	adds	r0, r0, #16
	strh	r3, [r0, #-4]	@ movhi
	ldrb	r3, [r5, #1]	@ zero_extendqisi2
	strh	r3, [r0, #-2]	@ movhi
	ldrb	r3, [r5, #1732]	@ zero_extendqisi2
	str	r3, [r0, #1060]
	bl	ftl_memcpy
	ldr	r0, [r4, #4000]
	add	r1, r5, #1720
	movs	r2, #8
	adds	r0, r0, #80
	bl	ftl_memcpy
	ldr	r0, [r4, #4000]
	add	r1, r5, #656
	movs	r2, #32
	adds	r0, r0, #96
	bl	ftl_memcpy
	ldr	r0, [r4, #4000]
	ldr	r1, .L1582+8
	movs	r2, #32
	adds	r0, r0, #160
	bl	ftl_memcpy
	ldr	r0, [r4, #4000]
	add	r1, r5, #44
	movs	r2, #32
	adds	r0, r0, #192
	bl	ftl_memcpy
	ldr	r0, [r4, #4000]
	mov	r2, #852
	addw	r1, r5, #698
	adds	r0, r0, #224
	bl	ftl_memcpy
	ldr	r6, [r4, #4000]
	movw	r1, #2036
	add	r0, r6, #12
	bl	js_hash
	mov	r3, #1592
	str	r3, [r6, #4]
	ldr	r3, [r4, #4016]
	str	r3, [r4, #4000]
	str	r0, [r6, #8]
	movs	r0, #0
	bl	flash_enter_slc_mode
	movs	r6, #0
	mov	r7, r6
.L1576:
	ldr	r1, [r5, #4]
	movs	r0, #0
	mov	r2, r0
	muls	r1, r7, r1
	bl	FlashEraseBlock
	ldr	r1, [r5, #4]
	movs	r0, #0
	ldr	r2, [r4, #3988]
	muls	r1, r7, r1
	mov	r3, r0
	bl	FlashProgPage
	ldr	r1, [r5, #4]
	movs	r0, #0
	ldr	r2, [r4, #3988]
	muls	r1, r7, r1
	mov	r3, r0
	adds	r1, r1, #1
	bl	FlashProgPage
	ldr	r1, [r5, #4]
	movs	r0, #0
	ldr	r2, [r4, #4016]
	muls	r1, r7, r1
	mov	r3, r0
	bl	FlashReadRawPage
	adds	r2, r7, #1
	adds	r0, r0, #1
	beq	.L1574
	ldr	fp, [r9, #4000]
	ldr	r3, [fp]
	cmp	r3, r8
	bne	.L1574
	add	r0, fp, #12
	movw	r1, #2036
	str	r2, [sp, #4]
	bl	js_hash
	ldr	r3, [fp, #8]
	cmp	r3, r0
	ldr	r2, [sp, #4]
	bne	.L1574
	ldr	r3, [r10, #4]
	cmp	r6, #1
	str	r2, [r9, #4008]
	mul	r3, r3, r7
	str	r3, [r9, #4004]
	beq	.L1577
	movs	r6, #1
.L1574:
	cmp	r2, #4
	mov	r7, r2
	bne	.L1576
	b	.L1575
.L1577:
	movs	r6, #2
.L1575:
	movs	r0, #0
	bl	flash_exit_slc_mode
	clz	r0, r6
	lsrs	r0, r0, #5
	negs	r0, r0
	add	sp, sp, #12
	@ sp needed
	pop	{r4, r5, r6, r7, r8, r9, r10, fp, pc}
.L1583:
	.align	2
.L1582:
	.word	.LANCHOR2
	.word	.LANCHOR0
	.word	.LANCHOR1+472
	.word	1312902724
	.fnend
	.size	FlashSavePhyInfo, .-FlashSavePhyInfo
	.align	1
	.global	FlashReadIdbDataRaw
	.thumb
	.thumb_func
	.type	FlashReadIdbDataRaw, %function
FlashReadIdbDataRaw:
	.fnstart
	@ args = 0, pretend = 0, frame = 16
	@ frame_needed = 0, uses_anonymous_args = 0
	ldr	r3, .L1604
	push	{r4, r5, r6, r7, r8, r9, r10, fp, lr}
	.save {r4, r5, r6, r7, r8, r9, r10, fp, lr}
	.pad #20
	sub	sp, sp, #20
	ldr	r2, [r3]
	mov	r9, r0
	ldr	r4, .L1604+4
	str	r3, [sp, #4]
	str	r2, [sp, #12]
	ldr	r2, .L1604+8
	ldrb	r10, [r4, #1792]	@ zero_extendqisi2
	ldr	r0, [r2]	@ unaligned
	ldr	r2, [r4, #1728]
	str	r0, [sp, #8]	@ unaligned
	cbz	r2, .L1585
	movs	r0, #0
	bl	flash_enter_slc_mode
.L1585:
	mov	r0, r9
	movs	r1, #0
	mov	r2, #2048
	mov	r8, #-1
	bl	ftl_memset
	movs	r5, #2
.L1586:
	ldrb	r3, [r4, #1]	@ zero_extendqisi2
	cmp	r5, r3
	bcs	.L1590
	movs	r7, #0
.L1588:
	add	r3, sp, #8
	ldr	r6, .L1604+12
	ldrb	fp, [r3, r7]	@ zero_extendqisi2
	mov	r0, fp
	bl	FlashBchSel
	ldr	r1, [r4, #4]
	movs	r0, #0
	ldr	r2, [r6, #3988]
	muls	r1, r5, r1
	mov	r3, r0
	bl	FlashReadRawPage
	adds	r0, r0, #1
	bne	.L1587
	adds	r7, r7, #1
	cmp	r7, #4
	bne	.L1588
	b	.L1589
.L1587:
	ldr	r3, [r6, #3988]
	ldr	r2, .L1604+16
	ldr	r3, [r3]
	cmp	r3, r2
	bne	.L1589
	mov	r1, fp
	ldr	r0, .L1604+20
	bl	printk
	mov	r2, #2048
	mov	r0, r9
	ldr	r1, [r6, #3988]
	bl	ftl_memcpy
	ldr	r3, [r6, #3988]
	ldr	r2, .L1604+4
	ldr	r3, [r3, #512]
	strb	r3, [r2, #1]
	ldr	r3, [r6, #4008]
	cmp	r3, r5
	bls	.L1594
	str	r5, [r6, #4008]
	bl	FlashSavePhyInfo
	mov	r8, #0
.L1589:
	adds	r5, r5, #1
	b	.L1586
.L1594:
	mov	r8, #0
.L1590:
	mov	r0, r10
	bl	FlashBchSel
	ldr	r3, [r4, #1728]
	cbz	r3, .L1591
	movs	r0, #0
	bl	flash_exit_slc_mode
.L1591:
	ldr	r3, [sp, #4]
	mov	r0, r8
	ldr	r2, [sp, #12]
	ldr	r3, [r3]
	cmp	r2, r3
	beq	.L1593
	bl	__stack_chk_fail
.L1593:
	add	sp, sp, #20
	@ sp needed
	pop	{r4, r5, r6, r7, r8, r9, r10, fp, pc}
.L1605:
	.align	2
.L1604:
	.word	__stack_chk_guard
	.word	.LANCHOR0
	.word	.LANCHOR3+11
	.word	.LANCHOR2
	.word	-52655045
	.word	.LC95
	.fnend
	.size	FlashReadIdbDataRaw, .-FlashReadIdbDataRaw
	.align	1
	.global	FlashInit
	.thumb
	.thumb_func
	.type	FlashInit, %function
FlashInit:
	.fnstart
	@ args = 0, pretend = 0, frame = 0
	@ frame_needed = 0, uses_anonymous_args = 0
	push	{r4, r5, r6, r7, r8, r9, r10, fp, lr}
	.save {r4, r5, r6, r7, r8, r9, r10, fp, lr}
	mov	r6, r0
	.pad #20
	sub	sp, sp, #20
	mov	r0, #32768
	bl	ftl_malloc
	ldr	r5, .L1725
	ldr	r4, .L1725+4
	movs	r7, #0
	add	r9, r4, #12
	mov	r8, r7
	str	r0, [r5, #3988]
	mov	r0, #32768
	bl	ftl_malloc
	str	r0, [r5, #4016]
	mov	r0, #4096
	bl	ftl_malloc
	str	r0, [r5, #4020]
	mov	r0, #32768
	bl	ftl_malloc
	str	r0, [r5, #4024]
	mov	r0, #4096
	bl	ftl_malloc
	movs	r3, #50
	str	r7, [r5, #4008]
	strb	r3, [r4, #1]
	strb	r3, [r5, #4012]
	movs	r3, #128
	strb	r7, [r4, #1732]
	str	r3, [r4, #4]
	movs	r3, #60
	str	r7, [r5, #3992]
	strb	r7, [r4]
	strb	r7, [r5, #4032]
	strb	r3, [r5, #4014]
	str	r0, [r5, #4028]
	mov	r0, r6
	bl	NandcInit
	addw	r6, r4, #1556
.L1612:
	add	r3, r9, r8, lsl #3
	uxtb	fp, r8
	ldr	r7, [r9, r8, lsl #3]
	ldrb	r10, [r3, #4]	@ zero_extendqisi2
	mov	r0, fp
	bl	FlashReset
	mov	r0, fp
	bl	NandcFlashCs
	movs	r3, #144
	add	r7, r7, r10, lsl #8
	movs	r0, #200
	mov	r10, #0
	str	r3, [r7, #2056]
	str	r10, [r7, #2052]
	bl	NandcDelayns
	ldr	r2, [r7, #2048]
	uxtb	r2, r2
	strb	r2, [r6]
	ldr	r1, [r7, #2048]
	cmp	r2, #44
	strb	r1, [r6, #1]
	ldr	r1, [r7, #2048]
	strb	r1, [r6, #2]
	ldr	r1, [r7, #2048]
	strb	r1, [r6, #3]
	ldr	r1, [r7, #2048]
	strb	r1, [r6, #4]
	ldr	r1, [r7, #2048]
	strb	r1, [r6, #5]
	bne	.L1607
	movs	r2, #239
	movs	r0, #200
	str	r2, [r7, #2056]
	movs	r2, #1
	str	r2, [r7, #2052]
	bl	NandcDelayns
	movs	r2, #4
	str	r2, [r7, #2048]
	str	r10, [r7, #2048]
	str	r10, [r7, #2048]
	str	r10, [r7, #2048]
.L1607:
	mov	r0, fp
	bl	NandcFlashDeCs
	ldrb	r2, [r6]	@ zero_extendqisi2
	subs	r3, r2, #1
	uxtb	r3, r3
	cmp	r3, #253
	bhi	.L1608
	ldrb	r1, [r6, #2]	@ zero_extendqisi2
	ldrb	r3, [r6, #1]	@ zero_extendqisi2
	ldr	r0, .L1725+8
	str	r1, [sp]
	ldrb	r1, [r6, #3]	@ zero_extendqisi2
	str	r1, [sp, #4]
	ldrb	r1, [r6, #4]	@ zero_extendqisi2
	str	r1, [sp, #8]
	ldrb	r1, [r6, #5]	@ zero_extendqisi2
	str	r1, [sp, #12]
	add	r1, r8, #1
	bl	printk
.L1608:
	cmp	r8, #0
	bne	.L1609
	ldrb	r3, [r4, #1556]	@ zero_extendqisi2
	subs	r3, r3, #1
	uxtb	r3, r3
	cmp	r3, #253
	bhi	.L1664
	ldr	r3, .L1725+4
	ldrb	r3, [r3, #1557]	@ zero_extendqisi2
	cmp	r3, #255
	beq	.L1664
.L1609:
	ldrb	r3, [r6]	@ zero_extendqisi2
	add	r8, r8, #1
	adds	r6, r6, #8
	cmp	r3, #181
	itt	eq
	moveq	r3, #44
	strbeq	r3, [r6, #-8]
	cmp	r8, #4
	bne	.L1612
	ldrb	r3, [r4, #1556]	@ zero_extendqisi2
	cmp	r3, #173
	beq	.L1613
	ldr	r3, .L1725+4
	ldr	r0, [r3, #1736]
	bl	NandcSetDdrMode
.L1613:
	ldr	r7, .L1725+4
	mov	r2, #852
	movs	r1, #0
	ldr	r6, .L1725+12
	addw	r0, r7, #698
	bl	ftl_memset
	ldr	r3, .L1725+16
	ldr	r2, [r4, #1744]
	ldrb	r0, [r4, #1557]	@ zero_extendqisi2
	cmp	r2, r6
	str	r3, [r4, #692]
	mov	r3, #0
	strb	r3, [r4, #8]
	itt	eq
	moveq	r3, #1
	streq	r3, [r7, #1728]
	cmp	r0, #161
	beq	.L1615
	cmp	r0, #241
	beq	.L1615
	cmp	r0, #218
	beq	.L1615
	and	r3, r0, #253
	cmp	r3, #209
	beq	.L1615
	cmp	r0, #220
	bne	.L1616
	ldr	r3, .L1725+4
	ldrb	r3, [r3, #1559]	@ zero_extendqisi2
	cmp	r3, #149
	bne	.L1616
.L1615:
	ldrb	lr, [r4, #1556]	@ zero_extendqisi2
	movs	r3, #16
	strb	r3, [r4, #1]
	movs	r7, #1
	strb	r3, [r5, #4014]
	cmp	lr, #152
	ldr	r3, .L1725+20
	strb	r7, [r4]
	ldr	r1, .L1725
	strb	lr, [r3, #3257]
	strb	r0, [r3, #3258]
	bne	.L1618
	ldr	lr, .L1725+4
	ldrsb	lr, [lr, #1560]
	cmp	lr, #0
	blt	.L1619
	movs	r7, #24
	strb	r7, [r1, #4014]
.L1618:
	cmp	r2, r6
	beq	.L1621
	movw	r1, #2049
	cmp	r2, r1
	bne	.L1622
.L1621:
	movs	r2, #16
	strb	r2, [r5, #4014]
.L1622:
	cmp	r0, #218
	bne	.L1623
	mov	r2, #2048
	b	.L1720
.L1623:
	cmp	r0, #220
	bne	.L1625
	mov	r2, #4096
.L1720:
	strh	r2, [r3, #3270]	@ movhi
	strb	r0, [r3, #3258]
	b	.L1624
.L1625:
	cmp	r0, #211
	itttt	eq
	moveq	r2, #4096
	strheq	r2, [r3, #3270]	@ movhi
	moveq	r2, #2
	strbeq	r2, [r3, #3269]
.L1624:
	ldr	r1, .L1725+24
	movs	r2, #32
	ldr	r0, .L1725+28
	bl	ftl_memcpy
	ldr	r0, .L1725+16
	movs	r2, #32
	add	r1, r0, #2784
	bl	ftl_memcpy
.L1616:
	ldrb	r3, [r4]	@ zero_extendqisi2
	ldr	r7, .L1725+4
	cmp	r3, #0
	bne	.L1626
	bl	FlashLoadPhyInfoInRam
	cbnz	r0, .L1628
	ldr	r3, [r7, #692]
	ldrh	r3, [r3, #16]
	lsrs	r3, r3, #8
	and	r0, r3, #7
	lsls	r3, r3, #31
	strb	r0, [r7, #1716]
	bmi	.L1628
	movs	r3, #1
	strb	r3, [r7, #1732]
	bl	FlashSetInterfaceMode
	ldrb	r0, [r7, #1716]	@ zero_extendqisi2
	bl	NandcSetMode
.L1628:
	ldr	r3, [r4, #692]
	ldr	r7, .L1725+4
	ldrb	r3, [r3, #26]	@ zero_extendqisi2
	strb	r3, [r4, #140]
	bl	FlashLoadPhyInfo
	cmp	r0, #0
	beq	.L1626
	ldr	r3, [r7, #1736]
	cbz	r3, .L1631
	movs	r0, #1
	bl	FlashSetInterfaceMode
	movs	r0, #1
	b	.L1721
.L1726:
	.align	2
.L1725:
	.word	.LANCHOR2
	.word	.LANCHOR0
	.word	.LC96
	.word	1446522928
	.word	.LANCHOR1+472
	.word	.LANCHOR1
	.word	.LANCHOR1+3132
	.word	.LANCHOR0+44
.L1631:
	ldrb	r0, [r7, #1716]	@ zero_extendqisi2
	bl	FlashSetInterfaceMode
	ldrb	r0, [r7, #1716]	@ zero_extendqisi2
.L1721:
	bl	NandcSetMode
	bl	FlashLoadPhyInfo
	cmp	r0, #0
	beq	.L1626
	movs	r0, #1
	ldr	r7, .L1727
	bl	FlashSetInterfaceMode
	movs	r0, #1
	bl	NandcSetMode
	ldr	r3, [r4, #692]
	ldr	r0, .L1727+4
	ldrh	r1, [r3, #14]
	bl	printk
	bl	FlashLoadPhyInfoInRam
	adds	r1, r0, #1
	beq	.L1683
	bl	FlashDieInfoInit
	ldr	r3, [r7, #692]
	ldrb	r0, [r3, #19]	@ zero_extendqisi2
	bl	FlashGetReadRetryDefault
	ldr	r3, [r7, #692]
	ldrh	r2, [r5, #1730]
	ldrb	r1, [r3, #9]	@ zero_extendqisi2
	addw	r2, r2, #4095
	cmp	r1, r2, asr #12
	blt	.L1633
	ldrh	r2, [r3, #14]
	adds	r2, r2, #255
	cmp	r1, r2, asr #8
	bge	.L1634
.L1633:
	ldrh	r2, [r3, #14]
	bic	r2, r2, #255
	strh	r2, [r3, #14]	@ movhi
.L1634:
	ldrb	r3, [r4, #1716]	@ zero_extendqisi2
	tst	r3, #6
	beq	.L1635
	bl	FlashSavePhyInfo
	movs	r0, #0
	ldr	r1, [r5, #4004]
	bl	FlashDdrParaScan
.L1635:
	bl	FlashSavePhyInfo
.L1626:
	ldr	r2, [r4, #692]
	ldr	r8, .L1727
	ldr	r7, .L1727+8
	ldrb	r3, [r2, #26]	@ zero_extendqisi2
	ldrh	r0, [r2, #10]
	ldrb	r9, [r2, #18]	@ zero_extendqisi2
	strb	r3, [r4, #140]
	ldrh	r3, [r2, #16]
	ubfx	r1, r3, #7, #1
	strb	r1, [r4, #8]
	ubfx	r1, r3, #3, #1
	strb	r1, [r5, #4033]
	ubfx	r1, r3, #4, #1
	ubfx	r3, r3, #8, #3
	strb	r1, [r4, #1793]
	strb	r3, [r4, #1716]
	movs	r3, #0
	ldrb	r1, [r2, #12]	@ zero_extendqisi2
	str	r3, [r5, #3996]
	bl	__aeabi_idiv
	mov	r1, r0
	mov	r0, r9
	bl	BuildFlashLsbPageTable
	bl	FlashDieInfoInit
	ldr	r3, [r4, #692]
	ldrh	r2, [r3, #16]
	lsls	r2, r2, #25
	bpl	.L1637
	ldrb	r0, [r3, #19]	@ zero_extendqisi2
	ldrb	r3, [r8, #699]	@ zero_extendqisi2
	strb	r0, [r8, #696]
	strb	r3, [r8, #697]
	ldrb	r3, [r8, #700]	@ zero_extendqisi2
	strb	r3, [r7, #4013]
	subs	r3, r0, #1
	cmp	r3, #7
	bhi	.L1638
	ldr	r3, .L1727+12
	str	r3, [r7, #3996]
	subs	r3, r0, #5
	cmp	r3, #1
	bls	.L1639
	cmp	r0, #8
	bne	.L1640
.L1639:
	cmp	r0, #7
	mov	r3, #1
	str	r3, [r4, #1784]
	beq	.L1665
	cmp	r0, #8
	b	.L1724
.L1665:
	ldr	r3, .L1727+16
.L1642:
	subs	r1, r3, #1
	movs	r2, #0
	adds	r3, r3, #31
.L1643:
	ldrsb	r7, [r1, #1]!
	cmp	r7, #0
	it	eq
	addeq	r2, r2, #1
	cmp	r1, r3
	bne	.L1643
	cmp	r2, #27
	bls	.L1637
	bl	FlashGetReadRetryDefault
	bl	FlashSavePhyInfo
	b	.L1637
.L1638:
	sub	r3, r0, #17
	cmp	r3, #2
	bhi	.L1645
	ldr	r3, .L1727+20
	cmp	r0, #19
	str	r3, [r7, #3996]
	ite	ne
	movne	r3, #7
	moveq	r3, #15
	strb	r3, [r7, #4013]
	b	.L1637
.L1645:
	cmp	r0, #33
	beq	.L1647
	sub	r3, r0, #65
	cmp	r3, #1
	bhi	.L1648
.L1647:
	ldr	r3, .L1727+24
	str	r3, [r5, #3996]
	movs	r3, #4
	strb	r3, [r4, #697]
	movs	r3, #7
	strb	r3, [r5, #4013]
	b	.L1637
.L1648:
	sub	r3, r0, #67
	uxtb	r3, r3
	cmp	r3, #1
	bls	.L1649
	sub	r2, r0, #34
	cmp	r2, #1
	bhi	.L1650
.L1649:
	ldr	r2, .L1727+24
	cmp	r0, #35
	str	r2, [r5, #3996]
	beq	.L1651
	cmp	r0, #68
	beq	.L1651
	ldr	r2, .L1727+8
	movs	r1, #7
	strb	r1, [r2, #4013]
	b	.L1652
.L1651:
	movs	r2, #17
	strb	r2, [r5, #4013]
.L1652:
	cmp	r3, #1
	ite	ls
	movls	r3, #4
	movhi	r3, #5
	strb	r3, [r4, #697]
	b	.L1637
.L1650:
	cmp	r0, #49
	itt	eq
	ldreq	r3, .L1727+28
	streq	r3, [r7, #3996]
.L1637:
	ldr	r2, [r4, #1744]
	ldr	r3, .L1727
	cmp	r2, r6
	bne	.L1654
	ldrb	r1, [r3, #140]	@ zero_extendqisi2
	cbz	r1, .L1654
	ldr	r3, [r3, #692]
	movs	r1, #0
	strb	r1, [r3, #18]
.L1654:
	ldrb	r1, [r4, #1556]	@ zero_extendqisi2
	ldr	r3, .L1727
	cmp	r1, #44
	bne	.L1655
	ldrb	r1, [r3, #1732]	@ zero_extendqisi2
	cbz	r1, .L1655
	cmp	r2, r6
	bne	.L1656
	ldrb	r3, [r3, #140]	@ zero_extendqisi2
	cbnz	r3, .L1655
.L1656:
	movs	r0, #1
	movs	r3, #0
	strb	r3, [r4, #1732]
	bl	FlashSetInterfaceMode
	movs	r0, #1
	bl	NandcSetMode
.L1655:
	ldrb	r3, [r4, #1716]	@ zero_extendqisi2
	tst	r3, #6
	beq	.L1657
	ldr	r2, .L1727
	ldrb	r2, [r2, #1732]	@ zero_extendqisi2
	cbnz	r2, .L1658
	lsls	r3, r3, #31
	bmi	.L1657
.L1658:
	movs	r0, #0
	bl	flash_enter_slc_mode
	movs	r0, #0
	ldr	r1, [r5, #4004]
	bl	FlashDdrParaScan
	movs	r0, #0
	bl	flash_exit_slc_mode
.L1657:
	ldr	r3, [r4, #692]
	mov	r8, #16
	ldr	r6, .L1727
	ldrb	r0, [r3, #20]	@ zero_extendqisi2
	bl	FlashBchSel
	ldr	r0, .L1727+32
	bl	FlashReadIdbDataRaw
	ldr	r0, .L1727+36
	strb	r8, [r4, #1]
	bl	FlashTimingCfg
	ldr	r5, [r4, #692]
	ldrb	r3, [r5, #12]	@ zero_extendqisi2
	ldrh	r7, [r5, #14]
	strh	r3, [r4, #120]	@ movhi
	ldrb	r3, [r5, #7]	@ zero_extendqisi2
	str	r3, [r4, #116]
	ldr	r3, [r4, #1556]
	str	r3, [r4, #112]
	ldrb	r3, [r4, #1717]	@ zero_extendqisi2
	strh	r3, [r4, #122]	@ movhi
	ldrb	r3, [r5, #13]	@ zero_extendqisi2
	strh	r7, [r4, #126]	@ movhi
	strh	r3, [r4, #124]	@ movhi
	ldrh	r3, [r5, #10]
	strh	r3, [r4, #128]	@ movhi
	ldrb	r1, [r5, #12]	@ zero_extendqisi2
	ldrh	r0, [r5, #10]
	bl	__aeabi_idiv
	strh	r0, [r4, #130]	@ movhi
	ldrb	r2, [r5, #9]	@ zero_extendqisi2
	strh	r2, [r4, #132]	@ movhi
	ldrb	r1, [r5, #9]	@ zero_extendqisi2
	ldrh	r3, [r5, #10]
	smulbb	r3, r1, r3
	mov	r1, #512
	strh	r1, [r4, #136]	@ movhi
	ldrb	r1, [r4, #1]	@ zero_extendqisi2
	strh	r1, [r4, #138]	@ movhi
	uxth	r3, r3
	ldrb	r1, [r4]	@ zero_extendqisi2
	strh	r3, [r4, #134]	@ movhi
	cmp	r1, #1
	bne	.L1660
	lsls	r3, r3, #1
	lsrs	r1, r7, #1
	lsls	r2, r2, #1
	strh	r3, [r6, #134]	@ movhi
	strb	r8, [r6, #1]
	movs	r3, #8
	strh	r1, [r6, #126]	@ movhi
	strh	r2, [r6, #132]	@ movhi
	strh	r3, [r6, #138]	@ movhi
.L1660:
	ldrb	r0, [r5, #20]	@ zero_extendqisi2
	bl	FlashBchSel
	bl	ftl_flash_suspend
	movs	r0, #0
	b	.L1683
.L1664:
	mvn	r0, #1
	b	.L1683
.L1640:
	cmp	r0, #7
.L1724:
	beq	.L1665
	ldr	r3, .L1727+40
	b	.L1642
.L1619:
	strb	r7, [r1, #4032]
	b	.L1618
.L1683:
	add	sp, sp, #20
	@ sp needed
	pop	{r4, r5, r6, r7, r8, r9, r10, fp, pc}
.L1728:
	.align	2
.L1727:
	.word	.LANCHOR0
	.word	.LC97
	.word	.LANCHOR2
	.word	HynixReadRetrial
	.word	.LANCHOR0+726
	.word	MicronReadRetrial
	.word	ToshibaReadRetrial
	.word	SamsungReadRetrial
	.word	.LANCHOR2+1936
	.word	150000
	.word	.LANCHOR0+718
	.fnend
	.size	FlashInit, .-FlashInit
	.align	1
	.global	FlashPageProgMsbFFData
	.thumb
	.thumb_func
	.type	FlashPageProgMsbFFData, %function
FlashPageProgMsbFFData:
	.fnstart
	@ args = 0, pretend = 0, frame = 0
	@ frame_needed = 0, uses_anonymous_args = 0
	push	{r3, r4, r5, r6, r7, r8, r9, r10, fp, lr}
	.save {r3, r4, r5, r6, r7, r8, r9, r10, fp, lr}
	mov	r4, r2
	ldr	r3, .L1750
	mov	r8, r0
	mov	r9, r1
	ldr	r2, [r3, #692]
	mov	r6, r3
	ldrb	r7, [r2, #19]	@ zero_extendqisi2
	ldrb	r2, [r3, #140]	@ zero_extendqisi2
	cbz	r2, .L1730
	ldr	r3, [r3, #1728]
	cbnz	r3, .L1729
.L1730:
	subs	r3, r7, #5
	cmp	r3, #3
	bls	.L1731
	cmp	r7, #68
	beq	.L1731
	cmp	r7, #35
	beq	.L1731
	cmp	r7, #19
	bne	.L1729
.L1731:
	ldr	r5, .L1750+4
	movw	r10, #65535
	mov	fp, r5
.L1733:
	ldr	r3, [r6, #692]
	ldrh	r3, [r3, #10]
	cmp	r3, r4
	bls	.L1729
	add	r3, r5, r4, lsl #1
	ldrh	r3, [r3, #704]
	cmp	r3, r10
	bne	.L1729
	cmp	r7, #8
	mov	r2, #32768
	ite	eq
	moveq	r1, #0
	movne	r1, #255
	ldr	r0, [r5, #4016]
	bl	ftl_memset
	ldr	r2, [fp, #4016]
	add	r1, r4, r9
	adds	r4, r4, #1
	mov	r0, r8
	mov	r3, r2
	uxth	r4, r4
	bl	FlashProgPage
	b	.L1733
.L1729:
	pop	{r3, r4, r5, r6, r7, r8, r9, r10, fp, pc}
.L1751:
	.align	2
.L1750:
	.word	.LANCHOR0
	.word	.LANCHOR2
	.fnend
	.size	FlashPageProgMsbFFData, .-FlashPageProgMsbFFData
	.align	1
	.global	FlashReadSlc2KPages
	.thumb
	.thumb_func
	.type	FlashReadSlc2KPages, %function
FlashReadSlc2KPages:
	.fnstart
	@ args = 0, pretend = 0, frame = 32
	@ frame_needed = 0, uses_anonymous_args = 0
	ldr	r3, .L1803
	push	{r4, r5, r6, r7, r8, r9, r10, fp, lr}
	.save {r4, r5, r6, r7, r8, r9, r10, fp, lr}
	.pad #44
	sub	sp, sp, #44
	ldr	r9, .L1803+24
	movs	r7, #0
	str	r2, [sp, #16]
	mov	r4, r0
	ldr	r2, [r3]
	mov	r10, r9
	str	r1, [sp, #12]
	str	r3, [sp, #20]
	str	r2, [sp, #36]
	ldr	r2, .L1803+4
	ldrb	r2, [r2, #481]	@ zero_extendqisi2
	str	r2, [sp, #8]
.L1753:
	ldr	r3, [sp, #12]
	cmp	r7, r3
	beq	.L1802
	ldr	r3, [sp, #12]
	add	r2, sp, #32
	mov	r0, r4
	ldr	r1, [sp, #16]
	subs	r3, r3, r7
	uxtb	r3, r3
	str	r3, [sp]
	add	r3, sp, #28
	bl	LogAddr2PhyAddr
	ldrb	r2, [r9, #1717]	@ zero_extendqisi2
	ldr	r3, [sp, #28]
	cmp	r3, r2
	bcc	.L1754
	mov	r3, #-1
	str	r3, [r4]
	b	.L1755
.L1754:
	add	r3, r3, r9
	mov	r8, #0
	ldrb	r6, [r3, #1720]	@ zero_extendqisi2
	mov	r0, r6
	bl	NandcWaitFlashReady
	mov	r0, r6
	bl	NandcFlashCs
.L1756:
	ldr	r1, [sp, #32]
	mov	r0, r6
	bl	FlashReadCmd
	mov	r0, r6
	bl	NandcWaitFlashReady
	ldr	r3, [r4, #12]
	mov	r0, r6
	movs	r1, #0
	str	r3, [sp]
	ldr	r2, [sp, #8]
	ldr	r3, [r4, #8]
	bl	NandcXferData
	ldr	r3, .L1803+8
	ldrb	r3, [r3, #4032]	@ zero_extendqisi2
	mov	r5, r0
	cbnz	r3, .L1757
.L1760:
	adds	r3, r5, #1
	beq	.L1758
	b	.L1759
.L1757:
	mov	r0, r6
	bl	flash_read_ecc
	cmp	r0, #5
	bls	.L1760
	mov	r5, #256
	b	.L1759
.L1758:
	cmp	r8, #10
	beq	.L1780
	add	r8, r8, #1
	b	.L1756
.L1759:
	cmp	r8, #0
	it	ne
	movne	r5, #256
	b	.L1761
.L1780:
	mov	r5, #256
.L1761:
	mov	r8, #0
.L1762:
	ldr	r3, [sp, #32]
	mov	r0, r6
	ldr	r1, [r10, #4]
	add	r1, r1, r3
	bl	FlashReadCmd
	mov	r0, r6
	bl	NandcWaitFlashReady
	ldr	r3, [r4, #8]
	cbz	r3, .L1763
	add	r3, r3, #2048
.L1763:
	ldr	r2, [r4, #12]
	cbz	r2, .L1764
	adds	r2, r2, #8
.L1764:
	str	r2, [sp]
	mov	r0, r6
	ldr	r2, [sp, #8]
	movs	r1, #0
	bl	NandcXferData
	ldr	r3, .L1803+8
	ldrb	r2, [r3, #4032]	@ zero_extendqisi2
	mov	fp, r0
	cbnz	r2, .L1765
.L1768:
	cmp	fp, #-1
	beq	.L1766
	b	.L1767
.L1765:
	mov	r0, r6
	bl	flash_read_ecc
	cmp	r0, #5
	bls	.L1768
	mov	fp, #256
	b	.L1767
.L1766:
	cmp	r8, #10
	beq	.L1784
	add	r8, r8, #1
	b	.L1762
.L1767:
	cmp	r8, #0
	it	ne
	movne	fp, #256
	b	.L1769
.L1784:
	mov	fp, #256
.L1769:
	mov	r0, r6
	bl	NandcFlashDeCs
	ldrb	r3, [r10, #1792]	@ zero_extendqisi2
	cmp	r5, fp
	add	r3, r3, r3, lsl #1
	it	cc
	movcc	r5, fp
	cmp	r5, r3, asr #2
	bls	.L1770
	adds	r0, r5, #1
	it	ne
	movne	r5, #256
	str	r5, [r4]
	b	.L1772
.L1770:
	movs	r3, #0
	str	r3, [r4]
.L1772:
	ldr	r3, [r4, #12]
	cbz	r3, .L1773
	ldr	r2, [r3, #12]
	adds	r2, r2, #1
	bne	.L1773
	ldr	r2, [r3, #8]
	adds	r1, r2, #1
	bne	.L1773
	ldr	r3, [r3]
	adds	r3, r3, #1
	it	ne
	strne	r2, [r4]
.L1773:
	ldr	r3, [r4]
	adds	r2, r3, #1
	bne	.L1755
	ldr	r1, [r4, #4]
	ldr	r0, .L1803+12
	ldrb	r2, [r10, #1792]	@ zero_extendqisi2
	bl	printk
	ldr	r1, [r4, #8]
	cbz	r1, .L1775
	ldr	r0, .L1803+16
	movs	r2, #4
	movs	r3, #8
	bl	rknand_print_hex
.L1775:
	ldr	r1, [r4, #12]
	cbz	r1, .L1755
	movs	r2, #4
	ldr	r0, .L1803+20
	mov	r3, r2
	bl	rknand_print_hex
.L1755:
	adds	r7, r7, #1
	adds	r4, r4, #36
	b	.L1753
.L1802:
	ldr	r3, [sp, #20]
	movs	r0, #0
	ldr	r2, [sp, #36]
	ldr	r3, [r3]
	cmp	r2, r3
	beq	.L1778
	bl	__stack_chk_fail
.L1778:
	add	sp, sp, #44
	@ sp needed
	pop	{r4, r5, r6, r7, r8, r9, r10, fp, pc}
.L1804:
	.align	2
.L1803:
	.word	__stack_chk_guard
	.word	.LANCHOR1
	.word	.LANCHOR2
	.word	.LC98
	.word	.LC99
	.word	.LC100
	.word	.LANCHOR0
	.fnend
	.size	FlashReadSlc2KPages, .-FlashReadSlc2KPages
	.align	1
	.global	FlashReadPages
	.thumb
	.thumb_func
	.type	FlashReadPages, %function
FlashReadPages:
	.fnstart
	@ args = 0, pretend = 0, frame = 48
	@ frame_needed = 0, uses_anonymous_args = 0
	ldr	r3, .L1905
	push	{r4, r5, r6, r7, r8, r9, r10, fp, lr}
	.save {r4, r5, r6, r7, r8, r9, r10, fp, lr}
	.pad #60
	sub	sp, sp, #60
	ldr	r3, [r3]
	mov	r10, r0
	ldr	r5, .L1905+4
	str	r1, [sp, #28]
	str	r3, [sp, #52]
	ldr	r3, .L1905+8
	str	r2, [sp, #16]
	ldrb	r3, [r3, #481]	@ zero_extendqisi2
	str	r3, [sp, #24]
	ldrb	r3, [r5, #8]	@ zero_extendqisi2
	str	r3, [sp, #32]
	ldrb	r3, [r5]	@ zero_extendqisi2
	cbz	r3, .L1849
	bl	FlashReadSlc2KPages
	b	.L1807
.L1849:
	mov	r8, r3
	str	r3, [sp, #12]
.L1806:
	ldr	r3, [sp, #12]
	ldr	r2, [sp, #28]
	cmp	r3, r2
	bcs	.L1902
	ldr	r3, [sp, #12]
	mov	r9, #36
	ldr	r2, [sp, #12]
	ldr	r1, [sp, #16]
	mul	r9, r9, r3
	ldr	r3, [sp, #28]
	subs	r3, r3, r2
	add	r2, sp, #48
	add	r7, r10, r9
	uxtb	r3, r3
	ldr	fp, [r7, #4]
	mov	r0, r7
	str	r3, [sp]
	add	r3, sp, #44
	bl	LogAddr2PhyAddr
	ldrb	r2, [r5, #1717]	@ zero_extendqisi2
	ldr	r3, [sp, #44]
	mov	r6, r0
	cmp	r3, r2
	bcc	.L1808
	mov	r3, #-1
	str	r3, [r10, r9]
	b	.L1809
.L1808:
	add	r3, r3, r5
	ldrb	r4, [r3, #1720]	@ zero_extendqisi2
	ldr	r3, .L1905+12
	mov	r0, r4
	ldrb	r3, [r3, #4033]	@ zero_extendqisi2
	cmp	r3, #0
	it	eq
	moveq	r6, #0
	bl	NandcWaitFlashReady
	ldr	r3, .L1905+4
	ldr	r3, [r3, #692]
	ldrb	r2, [r3, #19]	@ zero_extendqisi2
	subs	r3, r2, #1
	cmp	r3, #7
	bhi	.L1811
	subs	r2, r2, #7
	adds	r1, r5, r4
	cmp	r2, #1
	ldr	r2, .L1905+4
	ldrb	r3, [r1, #710]	@ zero_extendqisi2
	add	r2, r2, r4
	it	ls
	ldrbls	r3, [r1, #718]	@ zero_extendqisi2
	ldrb	r2, [r2, #1552]	@ zero_extendqisi2
	cmp	r2, r3
	beq	.L1811
	mov	r0, r4
	ldrb	r1, [r5, #699]	@ zero_extendqisi2
	ldr	r2, .L1905+16
	bl	HynixSetRRPara
.L1811:
	mov	r0, r4
	and	r3, fp, #-2147483648
	str	r3, [sp, #20]
	bl	NandcFlashCs
	ldr	r3, [sp, #16]
	cmp	r3, #1
	beq	.L1813
	ldr	r3, [sp, #20]
	cbz	r3, .L1814
.L1813:
	ldr	r3, .L1905+4
	ldrb	r3, [r3, #140]	@ zero_extendqisi2
	cbz	r3, .L1814
	mov	r0, r4
	bl	flash_enter_slc_mode
.L1816:
	mov	fp, #0
	b	.L1815
.L1814:
	mov	r0, r4
	bl	flash_exit_slc_mode
	b	.L1816
.L1903:
	cmp	r4, #255
	beq	.L1850
.L1817:
	cbz	r6, .L1819
	ldr	r2, [r5, #4]
	mov	r0, r4
	add	r2, r2, r1
	bl	FlashReadDpCmd
.L1820:
	mov	r0, r4
	bl	NandcWaitFlashReady
	cbz	r6, .L1818
	mov	r0, r4
	ldr	r1, [sp, #48]
	bl	FlashReadDpDataOutCmd
.L1818:
	ldr	r3, [r7, #12]
	mov	r0, r4
	movs	r1, #0
	ldr	r2, [sp, #24]
	str	r3, [sp]
	ldr	r3, [r7, #8]
	bl	NandcXferData
	ldrb	r3, [r5, #8]	@ zero_extendqisi2
	mov	ip, r0
	cbz	r3, .L1852
	cmp	r0, #-1
	bne	.L1852
	movs	r6, #0
	strb	fp, [r5, #8]
.L1815:
	ldr	r1, [sp, #48]
	adds	r0, r1, #1
	bne	.L1817
	b	.L1903
.L1819:
	mov	r0, r4
	bl	FlashReadCmd
	b	.L1820
.L1850:
	movs	r6, #0
	b	.L1818
.L1852:
	mov	fp, ip
	cbz	r6, .L1822
	ldr	r3, .L1905+4
	mov	r0, r4
	str	ip, [sp, #36]
	ldr	r1, [r3, #4]
	ldr	r3, [sp, #48]
	add	r1, r1, r3
	bl	FlashReadDpDataOutCmd
	add	r3, r9, #36
	add	r3, r3, r10
	mov	r0, r4
	movs	r1, #0
	ldr	r2, [r3, #12]
	str	r2, [sp]
	ldr	r2, [sp, #24]
	ldr	r3, [r3, #8]
	bl	NandcXferData
	cmp	r0, #-1
	ldr	ip, [sp, #36]
	it	eq
	moveq	r6, #0
	mov	r8, r0
.L1822:
	mov	r0, r4
	str	ip, [sp, #36]
	bl	NandcFlashDeCs
	ldr	ip, [sp, #36]
	ldrb	r3, [sp, #32]	@ zero_extendqisi2
	cmp	ip, #-1
	strb	r3, [r5, #8]
	bne	.L1829
	ldrb	r3, [r5, #1732]	@ zero_extendqisi2
	cbnz	r3, .L1824
.L1828:
	ldr	r3, .L1905+12
	ldr	r6, [r3, #3996]
	cbnz	r6, .L1825
	b	.L1904
.L1824:
	ldr	r3, [r5, #76]
	mov	r0, r4
	ldr	r1, [sp, #48]
	ldr	r6, [r3, #304]
	movs	r3, #1
	str	r3, [sp]
	ldr	r2, [r7, #8]
	ldr	r3, [r7, #12]
	bl	FlashDdrTunningRead
	cmp	r0, #-1
	mov	fp, r0
	beq	.L1827
	ldrb	r3, [r5, #1792]	@ zero_extendqisi2
	cmp	r0, r3, lsr #1
	bls	.L1854
.L1827:
	ubfx	r0, r6, #8, #8
	bl	NandcSetDdrPara
	cmp	fp, #-1
	beq	.L1828
	b	.L1854
.L1825:
	mov	r0, r4
	ldr	r1, [sp, #48]
	ldr	r2, [r7, #8]
	ldr	r3, [r7, #12]
	blx	r6
	cmp	r0, #-1
	mov	fp, r0
	bne	.L1830
	ldr	r3, [r5, #692]
	ldrb	r3, [r3, #19]	@ zero_extendqisi2
	subs	r3, r3, #1
	cmp	r3, #7
	bhi	.L1831
	mov	r0, r4
	ldrb	r1, [r5, #699]	@ zero_extendqisi2
	ldr	r2, .L1905+16
	movs	r3, #0
	bl	HynixSetRRPara
.L1831:
	ldr	r1, [sp, #48]
	mov	r0, r4
	ldr	r2, [r7, #8]
	ldr	r3, [r7, #12]
	bl	FlashReadRawPage
	ldr	r1, [r7, #4]
	ldrb	r2, [r5, #1792]	@ zero_extendqisi2
	mov	fp, r0
	ldr	r0, .L1905+20
	mov	r3, fp
	bl	printk
	cmp	fp, #-1
	bne	.L1830
	ldrb	r6, [r5, #140]	@ zero_extendqisi2
	cbz	r6, .L1832
	ldr	r3, [sp, #16]
	mov	r0, r4
	cmp	r3, #1
	beq	.L1833
	ldr	r3, [sp, #20]
	cbz	r3, .L1834
.L1833:
	bl	flash_enter_slc_mode
	b	.L1835
.L1834:
	bl	flash_exit_slc_mode
.L1835:
	ldr	r3, .L1905+12
	mov	r0, r4
	ldr	r1, [sp, #48]
	ldr	r2, [r7, #8]
	ldr	r6, [r3, #3996]
	ldr	r3, [r7, #12]
	blx	r6
	movs	r6, #0
	mov	fp, r0
	b	.L1836
.L1904:
	mov	r0, r4
	ldr	r1, [sp, #48]
	ldr	r2, [r7, #8]
	ldr	r3, [r7, #12]
	bl	FlashReadRawPage
	mov	fp, r0
	b	.L1836
.L1854:
	movs	r6, #0
.L1829:
	ldrb	r3, [r5, #1792]	@ zero_extendqisi2
	add	r3, r3, r3, lsl #1
	cmp	fp, r3, asr #2
	bls	.L1838
	ldr	r3, .L1905+12
	ldr	r3, [r3, #3996]
	cbz	r3, .L1856
.L1836:
	cmp	fp, #-1
	beq	.L1832
	b	.L1838
.L1856:
	mov	fp, #256
.L1832:
	str	fp, [r10, r9]
	b	.L1839
.L1906:
	.align	2
.L1905:
	.word	__stack_chk_guard
	.word	.LANCHOR0
	.word	.LANCHOR1
	.word	.LANCHOR2
	.word	.LANCHOR0+702
	.word	.LC101
.L1830:
	movs	r6, #0
.L1838:
	cmp	fp, #256
	beq	.L1832
	movs	r3, #0
	str	r3, [r10, r9]
.L1839:
	ldr	r3, [r10, r9]
	adds	r2, r3, #1
	bne	.L1841
	ldr	r1, [r7, #4]
	ldr	r0, .L1907
	ldrb	r2, [r5, #1792]	@ zero_extendqisi2
	bl	printk
	ldr	r1, [r7, #12]
	cbz	r1, .L1841
	movs	r2, #4
	ldr	r0, .L1907+4
	mov	r3, r2
	bl	rknand_print_hex
.L1841:
	cbz	r6, .L1843
	ldrb	r3, [r5, #1792]	@ zero_extendqisi2
	add	r3, r3, r3, lsl #1
	cmp	r8, r3, asr #2
	bls	.L1844
	ldr	r3, .L1907+8
	ldr	r3, [r3, #3996]
	cmp	r3, #0
	it	eq
	moveq	r8, #256
.L1844:
	add	r9, r9, #36
	cmp	r8, #-1
	str	r8, [r10, r9]
	beq	.L1843
	cmp	r8, #256
	itt	ne
	movne	r3, #0
	strne	r3, [r10, r9]
.L1843:
	ldr	r3, [sp, #12]
	add	r3, r3, r6
	str	r3, [sp, #12]
	ldr	r3, [sp, #16]
	cmp	r3, #1
	beq	.L1845
	ldr	r3, [sp, #20]
	cbz	r3, .L1809
.L1845:
	ldrb	r3, [r5, #140]	@ zero_extendqisi2
	cbz	r3, .L1809
	mov	r0, r4
	bl	flash_exit_slc_mode
.L1809:
	ldr	r3, [sp, #12]
	adds	r3, r3, #1
	str	r3, [sp, #12]
	b	.L1806
.L1902:
	movs	r0, #0
.L1807:
	ldr	r3, .L1907+12
	ldr	r2, [sp, #52]
	ldr	r3, [r3]
	cmp	r2, r3
	beq	.L1848
	bl	__stack_chk_fail
.L1848:
	add	sp, sp, #60
	@ sp needed
	pop	{r4, r5, r6, r7, r8, r9, r10, fp, pc}
.L1908:
	.align	2
.L1907:
	.word	.LC98
	.word	.LC100
	.word	.LANCHOR2
	.word	__stack_chk_guard
	.fnend
	.size	FlashReadPages, .-FlashReadPages
	.align	1
	.global	FlashLoadFactorBbt
	.thumb
	.thumb_func
	.type	FlashLoadFactorBbt, %function
FlashLoadFactorBbt:
	.fnstart
	@ args = 0, pretend = 0, frame = 56
	@ frame_needed = 0, uses_anonymous_args = 0
	push	{r4, r5, r6, r7, r8, r9, r10, fp, lr}
	.save {r4, r5, r6, r7, r8, r9, r10, fp, lr}
	.pad #60
	sub	sp, sp, #60
	ldr	r9, .L1922+12
	movs	r1, #0
	ldr	r7, .L1922
	movs	r5, #0
	ldr	r4, .L1922+4
	mov	fp, #-1
	ldr	r3, [r9]
	mov	r10, r5
	ldrh	r2, [r7, #126]
	addw	r0, r4, #4036
	mov	r8, r7
	str	r3, [sp, #52]
	ldrh	r3, [r7, #124]
	smulbb	r3, r3, r2
	movs	r2, #16
	uxth	r6, r3
	bl	ftl_memset
	ldr	r3, [r4, #4020]
	str	r9, [sp, #4]
	mov	r9, r4
	str	r5, [sp, #24]
	str	r3, [sp, #28]
.L1910:
	ldrb	r3, [r8, #1717]	@ zero_extendqisi2
	uxtb	r7, r5
	cmp	r3, r7
	bls	.L1921
	mul	ip, r6, r7
	subs	r4, r6, #1
	sub	r3, r6, #12
	uxth	r4, r4
.L1911:
	cmp	r4, r3
	ble	.L1913
	add	r2, ip, r4
	movs	r1, #1
	add	r0, sp, #16
	str	r3, [sp, #12]
	lsls	r2, r2, #10
	str	r2, [sp, #20]
	mov	r2, r1
	str	ip, [sp, #8]
	bl	FlashReadPages
	ldr	r2, [sp, #16]
	ldr	ip, [sp, #8]
	adds	r2, r2, #1
	ldr	r3, [sp, #12]
	beq	.L1912
	ldr	r2, [r9, #4020]
	ldrh	r1, [r2]
	movw	r2, #61664
	cmp	r1, r2
	bne	.L1912
	mov	r1, r7
	ldr	r0, .L1922+8
	mov	r2, r4
	add	r10, r10, #1
	bl	printk
	ldr	r3, .L1922+4
	uxth	r10, r10
	add	r7, r3, r7, lsl #1
	strh	r4, [r7, #4036]	@ movhi
	b	.L1913
.L1912:
	subs	r4, r4, #1
	uxth	r4, r4
	b	.L1911
.L1913:
	ldrb	r3, [r8, #1717]	@ zero_extendqisi2
	adds	r5, r5, #1
	cmp	r3, r10
	it	eq
	moveq	fp, #0
	b	.L1910
.L1921:
	ldr	r3, [sp, #4]
	mov	r0, fp
	ldr	r2, [sp, #52]
	ldr	r3, [r3]
	cmp	r2, r3
	beq	.L1917
	bl	__stack_chk_fail
.L1917:
	add	sp, sp, #60
	@ sp needed
	pop	{r4, r5, r6, r7, r8, r9, r10, fp, pc}
.L1923:
	.align	2
.L1922:
	.word	.LANCHOR0
	.word	.LANCHOR2
	.word	.LC102
	.word	__stack_chk_guard
	.fnend
	.size	FlashLoadFactorBbt, .-FlashLoadFactorBbt
	.align	1
	.global	FlashProgSlc2KPages
	.thumb
	.thumb_func
	.type	FlashProgSlc2KPages, %function
FlashProgSlc2KPages:
	.fnstart
	@ args = 0, pretend = 0, frame = 56
	@ frame_needed = 0, uses_anonymous_args = 0
	push	{r4, r5, r6, r7, r8, r9, r10, fp, lr}
	.save {r4, r5, r6, r7, r8, r9, r10, fp, lr}
	.pad #68
	sub	sp, sp, #68
	mov	r9, r2
	ldr	r8, .L1955+28
	str	r3, [sp, #8]
	movs	r7, #0
	ldr	r3, .L1955
	mov	r6, r1
	mov	r4, r0
	mov	fp, r0
	ldr	r2, [r3]
	str	r3, [sp, #12]
	str	r2, [sp, #60]
	ldr	r2, .L1955+4
	ldrb	r10, [r2, #481]	@ zero_extendqisi2
.L1925:
	cmp	r7, r6
	beq	.L1954
	subs	r3, r6, r7
	add	r2, sp, #16
	mov	r0, fp
	mov	r1, r9
	uxtb	r3, r3
	str	r3, [sp]
	add	r3, sp, #20
	bl	LogAddr2PhyAddr
	ldrb	r2, [r8, #1717]	@ zero_extendqisi2
	ldr	r3, [sp, #20]
	cmp	r3, r2
	bcc	.L1926
	mov	r3, #-1
	str	r3, [fp]
	b	.L1927
.L1926:
	add	r3, r3, r8
	ldrb	r5, [r3, #1720]	@ zero_extendqisi2
	mov	r0, r5
	bl	NandcWaitFlashReady
	mov	r0, r5
	bl	NandcFlashCs
	mov	r0, r5
	ldr	r1, [sp, #16]
	bl	FlashProgFirstCmd
	ldr	r3, [fp, #12]
	mov	r2, r10
	movs	r1, #1
	mov	r0, r5
	str	r3, [sp]
	ldr	r3, [fp, #8]
	bl	NandcXferData
	mov	r0, r5
	ldr	r1, [sp, #16]
	bl	FlashProgSecondCmd
	mov	r0, r5
	bl	NandcWaitFlashReady
	mov	r0, r5
	ldr	r1, [sp, #16]
	bl	FlashReadStatus
	ldr	r3, [sp, #16]
	sbfx	r0, r0, #0, #1
	str	r0, [fp]
	mov	r0, r5
	ldr	r1, [r8, #4]
	add	r1, r1, r3
	bl	FlashProgFirstCmd
	ldr	r3, [fp, #8]
	cbz	r3, .L1928
	add	r3, r3, #2048
.L1928:
	ldr	r2, [fp, #12]
	cbz	r2, .L1929
	adds	r2, r2, #8
.L1929:
	str	r2, [sp]
	movs	r1, #1
	mov	r2, r10
	mov	r0, r5
	bl	NandcXferData
	ldr	r1, [r8, #4]
	mov	r0, r5
	ldr	r3, [sp, #16]
	add	r1, r1, r3
	bl	FlashProgSecondCmd
	mov	r0, r5
	bl	NandcWaitFlashReady
	mov	r0, r5
	ldr	r1, [sp, #16]
	bl	FlashReadStatus
	lsls	r2, r0, #31
	mov	r0, r5
	itt	mi
	movmi	r3, #-1
	strmi	r3, [fp]
	bl	NandcFlashDeCs
.L1927:
	adds	r7, r7, #1
	add	fp, fp, #36
	b	.L1925
.L1954:
	ldr	r3, [sp, #8]
	cbnz	r3, .L1943
.L1939:
	ldr	r3, [sp, #12]
	movs	r0, #0
	ldr	r2, [sp, #60]
	ldr	r3, [r3]
	cmp	r2, r3
	beq	.L1940
	bl	__stack_chk_fail
.L1943:
	ldr	r7, .L1955+8
	mov	r8, #0
	mov	r10, r7
.L1932:
	cmp	r8, r6
	beq	.L1939
	ldr	r3, [r4]
	adds	r3, r3, #1
	bne	.L1933
	ldr	r1, [r4, #4]
	ldr	r0, .L1955+12
	bl	printk
	b	.L1934
.L1933:
	rsb	r3, r8, r6
	mov	r1, r9
	add	r2, sp, #16
	mov	r0, r4
	uxtb	r3, r3
	str	r3, [sp]
	add	r3, sp, #20
	bl	LogAddr2PhyAddr
	ldr	r2, [r7, #4024]
	movs	r3, #0
	mov	lr, r4
	str	r3, [r2]
	ldr	r2, [r7, #4028]
	str	r3, [r2]
	ldmia	lr!, {r0, r1, r2, r3}
	add	r5, sp, #24
	stmia	r5!, {r0, r1, r2, r3}
	ldmia	lr!, {r0, r1, r2, r3}
	stmia	r5!, {r0, r1, r2, r3}
	add	r0, sp, #24
	ldr	r3, [lr]
	movs	r1, #1
	mov	r2, r9
	str	r3, [r5]
	ldr	r3, [r7, #4024]
	str	r3, [sp, #32]
	ldr	r3, [r7, #4028]
	str	r3, [sp, #36]
	bl	FlashReadPages
	ldr	r5, [sp, #24]
	adds	r3, r5, #1
	bne	.L1935
	ldr	r0, .L1955+16
	ldr	r1, [r4, #4]
	bl	printk
	str	r5, [r4]
.L1935:
	ldr	r3, [r4, #12]
	cbz	r3, .L1936
	ldr	r2, [r3]
	ldr	r3, [r10, #4028]
	ldr	r3, [r3]
	cmp	r2, r3
	beq	.L1936
	ldr	r0, .L1955+20
	ldr	r1, [r4, #4]
	bl	printk
	mov	r3, #-1
	str	r3, [r4]
.L1936:
	ldr	r3, [r4, #8]
	cbz	r3, .L1934
	ldr	r2, [r3]
	ldr	r3, [r10, #4024]
	ldr	r3, [r3]
	cmp	r2, r3
	beq	.L1934
	ldr	r0, .L1955+24
	ldr	r1, [r4, #4]
	bl	printk
	mov	r3, #-1
	str	r3, [r4]
.L1934:
	add	r8, r8, #1
	adds	r4, r4, #36
	b	.L1932
.L1940:
	add	sp, sp, #68
	@ sp needed
	pop	{r4, r5, r6, r7, r8, r9, r10, fp, pc}
.L1956:
	.align	2
.L1955:
	.word	__stack_chk_guard
	.word	.LANCHOR1
	.word	.LANCHOR2
	.word	.LC103
	.word	.LC104
	.word	.LC105
	.word	.LC106
	.word	.LANCHOR0
	.fnend
	.size	FlashProgSlc2KPages, .-FlashProgSlc2KPages
	.align	1
	.global	FtlLoadFactoryBbt
	.thumb
	.thumb_func
	.type	FtlLoadFactoryBbt, %function
FtlLoadFactoryBbt:
	.fnstart
	@ args = 0, pretend = 0, frame = 0
	@ frame_needed = 0, uses_anonymous_args = 0
	push	{r3, r4, r5, r6, r7, r8, r9, r10, fp, lr}
	.save {r3, r4, r5, r6, r7, r8, r9, r10, fp, lr}
	movs	r6, #0
	ldr	r5, .L1968
	ldr	r7, .L1968+4
	ldr	r3, [r5, #1776]
	subw	r8, r7, #1946
	ldr	r9, [r5, #1800]
	mov	r10, r8
	str	r3, [r5, #4060]
	str	r9, [r5, #4064]
.L1958:
	ldrh	r3, [r8, #1826]
	cmp	r6, r3
	bcs	.L1967
	ldrh	r4, [r8, #1870]
	movw	fp, #61664
	movw	r3, #65535
	strh	r3, [r7, #2]!	@ movhi
	subs	r4, r4, #1
	uxth	r4, r4
.L1959:
	ldrh	r3, [r10, #1870]
	sub	r2, r3, #16
	cmp	r4, r2
	ble	.L1961
	mla	r3, r3, r6, r4
	movs	r1, #1
	ldr	r0, .L1968+8
	mov	r2, r1
	lsls	r3, r3, #10
	str	r3, [r5, #4056]
	bl	FlashReadPages
	ldr	r3, [r5, #4052]
	adds	r3, r3, #1
	beq	.L1960
	ldrh	r3, [r9]
	cmp	r3, fp
	bne	.L1960
	strh	r4, [r7]	@ movhi
	b	.L1961
.L1960:
	subs	r4, r4, #1
	uxth	r4, r4
	b	.L1959
.L1961:
	adds	r6, r6, #1
	b	.L1958
.L1967:
	movs	r0, #0
	pop	{r3, r4, r5, r6, r7, r8, r9, r10, fp, pc}
.L1969:
	.align	2
.L1968:
	.word	.LANCHOR2
	.word	.LANCHOR0+1946
	.word	.LANCHOR2+4052
	.fnend
	.size	FtlLoadFactoryBbt, .-FtlLoadFactoryBbt
	.align	1
	.global	FtlGetLastWrittenPage
	.thumb
	.thumb_func
	.type	FtlGetLastWrittenPage, %function
FtlGetLastWrittenPage:
	.fnstart
	@ args = 0, pretend = 0, frame = 104
	@ frame_needed = 0, uses_anonymous_args = 0
	push	{r4, r5, r6, r7, r8, r9, lr}
	.save {r4, r5, r6, r7, r8, r9, lr}
	.pad #108
	sub	sp, sp, #108
	ldr	r6, .L1982
	cmp	r1, #1
	mov	r9, r1
	lsl	r7, r0, #10
	mov	r1, #1
	mov	r0, sp
	ldr	r3, [r6]
	mov	r2, r9
	mov	r8, #0
	str	r8, [sp, #8]
	str	r3, [sp, #100]
	ldr	r3, .L1982+4
	ite	eq
	ldrheq	r4, [r3, #1874]
	ldrhne	r4, [r3, #1872]
	add	r3, sp, #36
	str	r3, [sp, #12]
	subs	r5, r4, #1
	uxth	r5, r5
	sxth	r3, r5
	orrs	r3, r3, r7
	str	r3, [sp, #4]
	bl	FlashReadPages
	ldr	r3, [sp, #36]
	adds	r3, r3, #1
	bne	.L1973
.L1974:
	sxth	r3, r8
	sxth	r4, r5
	cmp	r3, r4
	bgt	.L1973
	add	r4, r4, r3
	mov	r0, sp
	movs	r1, #1
	mov	r2, r9
	add	r4, r4, r4, lsr #31
	asrs	r4, r4, #1
	sxth	r3, r4
	orrs	r3, r3, r7
	str	r3, [sp, #4]
	bl	FlashReadPages
	ldr	r3, [sp, #36]
	adds	r3, r3, #1
	bne	.L1975
	ldr	r3, [sp, #40]
	adds	r3, r3, #1
	bne	.L1975
	ldr	r3, [sp]
	adds	r3, r3, #1
	beq	.L1975
	subs	r5, r4, #1
	uxth	r5, r5
	b	.L1974
.L1975:
	adds	r3, r4, #1
	uxth	r8, r3
	b	.L1974
.L1973:
	ldr	r2, [sp, #100]
	sxth	r0, r5
	ldr	r3, [r6]
	cmp	r2, r3
	beq	.L1978
	bl	__stack_chk_fail
.L1978:
	add	sp, sp, #108
	@ sp needed
	pop	{r4, r5, r6, r7, r8, r9, pc}
.L1983:
	.align	2
.L1982:
	.word	__stack_chk_guard
	.word	.LANCHOR0
	.fnend
	.size	FtlGetLastWrittenPage, .-FtlGetLastWrittenPage
	.align	1
	.global	FtlLoadBbt
	.thumb
	.thumb_func
	.type	FtlLoadBbt, %function
FtlLoadBbt:
	.fnstart
	@ args = 0, pretend = 0, frame = 0
	@ frame_needed = 0, uses_anonymous_args = 0
	push	{r4, r5, r6, r7, r8, lr}
	.save {r4, r5, r6, r7, r8, lr}
	ldr	r4, .L2013
	ldr	r7, .L2013+4
	ldr	r3, [r4, #1776]
	mov	r8, r4
	ldr	r6, [r4, #1800]
	str	r3, [r4, #4060]
	str	r6, [r4, #4064]
	bl	FtlBbtMemInit
	ldrh	r5, [r7, #1870]
	subs	r5, r5, #1
	uxth	r5, r5
.L1985:
	ldrh	r3, [r7, #1870]
	subs	r3, r3, #48
	cmp	r5, r3
	ble	.L1988
	movs	r1, #1
	ldr	r0, .L2013+8
	lsls	r3, r5, #10
	str	r3, [r4, #4056]
	mov	r2, r1
	bl	FlashReadPages
	ldr	r3, [r4, #4052]
	adds	r3, r3, #1
	bne	.L1986
	movs	r1, #1
	ldr	r3, [r8, #4056]
	ldr	r0, .L2013+8
	mov	r2, r1
	adds	r3, r3, #1
	str	r3, [r8, #4056]
	bl	FlashReadPages
.L1986:
	ldr	r3, [r4, #4052]
	adds	r3, r3, #1
	beq	.L1987
	ldrh	r2, [r6]
	movw	r3, #61649
	cmp	r2, r3
	bne	.L1987
	ldr	r3, [r6, #4]
	strh	r5, [r7, #1936]	@ movhi
	str	r3, [r7, #1944]
	ldrh	r3, [r6, #8]
	strh	r3, [r7, #1940]	@ movhi
	b	.L1988
.L1987:
	subs	r5, r5, #1
	uxth	r5, r5
	b	.L1985
.L1988:
	ldrh	r3, [r7, #1936]
	movw	r2, #65535
	ldr	r5, .L2013+4
	cmp	r3, r2
	beq	.L2002
	ldrh	r3, [r5, #1940]
	cmp	r3, r2
	beq	.L1992
	movs	r1, #1
	ldr	r0, .L2013+8
	lsls	r3, r3, #10
	str	r3, [r4, #4056]
	mov	r2, r1
	bl	FlashReadPages
	ldr	r3, [r4, #4052]
	adds	r3, r3, #1
	beq	.L1992
	ldrh	r2, [r6]
	movw	r3, #61649
	cmp	r2, r3
	bne	.L1992
	ldr	r3, [r6, #4]
	ldr	r2, [r5, #1944]
	cmp	r3, r2
	itttt	hi
	strhi	r3, [r5, #1944]
	ldrhhi	r2, [r5, #1940]
	ldrhhi	r3, [r6, #8]
	strhhi	r2, [r5, #1936]	@ movhi
	it	hi
	strhhi	r3, [r5, #1940]	@ movhi
.L1992:
	ldrh	r0, [r7, #1936]
	movs	r1, #1
	bl	FtlGetLastWrittenPage
	movw	r8, #61649
	uxth	r5, r0
	adds	r0, r0, #1
	strh	r0, [r7, #1938]	@ movhi
.L1994:
	sxth	r3, r5
	cmp	r3, #0
	blt	.L1999
	ldrh	r2, [r7, #1936]
	movs	r1, #1
	ldr	r0, .L2013+8
	orr	r3, r3, r2, lsl #10
	str	r3, [r4, #4056]
	ldr	r3, [r4, #1776]
	mov	r2, r1
	str	r3, [r4, #4060]
	bl	FlashReadPages
	ldr	r3, [r4, #4052]
	adds	r3, r3, #1
	beq	.L1995
	ldrh	r3, [r6]
	cmp	r3, r8
	bne	.L1995
.L1999:
	ldrh	r2, [r6, #10]
	ldrh	r0, [r6, #12]
	ldr	r3, .L2013+4
	strh	r2, [r7, #1942]	@ movhi
	movw	r2, #65535
	cmp	r0, r2
	bne	.L1996
	b	.L1997
.L1995:
	subs	r5, r5, #1
	uxth	r5, r5
	b	.L1994
.L1996:
	ldr	r2, [r3, #1800]
	cmp	r0, r2
	beq	.L1997
	ldrh	r3, [r3, #1814]
	lsrs	r3, r3, #2
	cmp	r2, r3
	bcs	.L1997
	cmp	r0, r3
	bcs	.L1997
	bl	FtlSysBlkNumInit
.L1997:
	ldr	r6, .L2013+12
	movs	r5, #0
.L2000:
	ldrh	r3, [r7, #1826]
	cmp	r5, r3
	bcs	.L2012
	ldrh	r2, [r4, #1864]
	ldr	r1, [r4, #4060]
	ldr	r0, [r6, #4]!
	lsls	r2, r2, #2
	mla	r1, r5, r2, r1
	bl	ftl_memcpy
	adds	r5, r5, #1
	b	.L2000
.L2012:
	movs	r0, #0
	pop	{r4, r5, r6, r7, r8, pc}
.L2002:
	mov	r0, #-1
	pop	{r4, r5, r6, r7, r8, pc}
.L2014:
	.align	2
.L2013:
	.word	.LANCHOR2
	.word	.LANCHOR0
	.word	.LANCHOR2+4052
	.word	.LANCHOR0+1960
	.fnend
	.size	FtlLoadBbt, .-FtlLoadBbt
	.align	1
	.global	FtlScanSysBlk
	.thumb
	.thumb_func
	.type	FtlScanSysBlk, %function
FtlScanSysBlk:
	.fnstart
	@ args = 0, pretend = 0, frame = 32
	@ frame_needed = 0, uses_anonymous_args = 0
	push	{r4, r5, r6, r7, r8, r9, r10, fp, lr}
	.save {r4, r5, r6, r7, r8, r9, r10, fp, lr}
	movs	r6, #0
	ldr	r5, .L2100
	.pad #36
	sub	sp, sp, #36
	ldr	r4, .L2100+4
	mov	r1, r6
	ldr	r2, [r5, #1900]
	ldr	r0, [r4, #1856]
	mov	r9, r4
	strh	r6, [r5, #1918]	@ movhi
	lsls	r2, r2, #2
	strh	r6, [r4, #1912]	@ movhi
	bl	ftl_memset
	ldr	r2, [r5, #1900]
	mov	r1, r6
	ldr	r0, [r4, #1828]
	lsls	r2, r2, #1
	bl	ftl_memset
	ldrh	r2, [r5, #1892]
	mov	r1, r6
	ldr	r0, [r4, #1840]
	lsls	r2, r2, #2
	bl	ftl_memset
	ldrh	r2, [r5, #1892]
	ldr	r0, [r5, #1920]
	mov	r1, r6
	lsls	r2, r2, #1
	bl	ftl_memset
	add	r0, r4, #24
	movs	r1, #255
	movs	r2, #16
	bl	ftl_memset
	ldrh	r3, [r5, #1812]
	str	r5, [sp, #12]
	mov	r5, r4
	str	r3, [sp, #4]
.L2016:
	ldr	r6, .L2100
	ldr	r2, [sp, #4]
	ldrh	r3, [r6, #1814]
	mov	r0, r6
	cmp	r3, r2
	bls	.L2058
	ldr	r1, [r4, #632]
	mov	r10, #36
	ldrh	r8, [r6, #1804]
	movs	r7, #0
	ldr	r2, [r4, #1764]
	str	r1, [sp, #8]
	ldr	r3, [r4, #628]
	ldrh	r1, [r6, #1884]
	str	r7, [sp]
	str	r1, [sp, #16]
	add	r1, r6, #1832
	str	r1, [sp, #20]
.L2059:
	uxth	r1, r7
	cmp	r1, r8
	bcs	.L2095
	str	r3, [sp, #28]
	ldr	r3, [sp, #20]
	ldr	r1, [sp, #4]
	str	r2, [sp, #24]
	ldrb	r0, [r3, r7]	@ zero_extendqisi2
	bl	V2P_block
	mov	fp, r0
	bl	FtlBbmIsBadBlock
	ldr	r2, [sp, #24]
	ldr	r3, [sp, #28]
	cbnz	r0, .L2017
	ldr	r1, [sp]
	ldr	r6, [sp]
	mla	r0, r10, r1, r2
	lsl	r1, fp, #10
	str	r1, [r0, #4]
	ldr	r1, [sp, #16]
	muls	r1, r6, r1
	ldr	r6, [sp, #8]
	it	mi
	addmi	r1, r1, #3
	bic	r1, r1, #3
	str	r3, [r0, #8]
	add	r1, r1, r6
	str	r1, [r0, #12]
	ldr	r1, [sp]
	adds	r1, r1, #1
	uxth	r1, r1
	str	r1, [sp]
.L2017:
	adds	r7, r7, #1
	b	.L2059
.L2095:
	ldr	r3, [sp]
	cmp	r3, #0
	beq	.L2021
	mov	r1, r3
	ldr	r0, [r4, #1764]
	movs	r2, #1
	ldr	r8, .L2100
	bl	FlashReadPages
	movs	r3, #0
	str	r3, [sp, #8]
.L2022:
	ldrh	r3, [sp, #8]
	ldr	r2, [sp]
	cmp	r3, r2
	bcs	.L2021
	ldr	r3, [sp, #8]
	mov	r10, #36
	mul	r10, r10, r3
	ldr	r3, [r4, #1764]
	add	r2, r3, r10
	ldr	r3, [r3, r10]
	ldr	r6, [r2, #4]
	adds	r3, r3, #1
	ldr	r7, [r2, #12]
	ubfx	r6, r6, #10, #16
	bne	.L2024
	mov	fp, #16
	movw	r3, #65535
.L2023:
	ldr	r0, [r4, #1764]
	movs	r1, #1
	str	r3, [sp, #16]
	add	r0, r0, r10
	ldr	r2, [r0, #4]
	adds	r2, r2, #1
	str	r2, [r0, #4]
	mov	r2, r1
	bl	FlashReadPages
	ldrh	r2, [r7]
	ldr	r3, [sp, #16]
	cmp	r2, r3
	bne	.L2025
	ldr	r3, [r9, #1764]
	mov	r2, #-1
	str	r2, [r3, r10]
	b	.L2024
.L2025:
	ldr	r2, [r5, #1764]
	ldr	r2, [r2, r10]
	adds	r2, r2, #1
	bne	.L2024
	add	fp, fp, #-1
	uxth	fp, fp
	cmp	fp, #0
	bne	.L2023
.L2024:
	ldr	r3, [r5, #1764]
	ldr	r3, [r3, r10]
	adds	r3, r3, #1
	beq	.L2027
	ldr	r2, [r5, #-8]
	ldr	r3, [r7, #4]
	adds	r1, r2, #1
	beq	.L2028
	cmp	r2, r3
	bhi	.L2029
.L2028:
	adds	r2, r3, #1
	itt	ne
	addne	r2, r3, #1
	strne	r2, [r9, #-8]
.L2029:
	ldrh	r2, [r7]
	movw	r1, #61604
	cmp	r2, r1
	beq	.L2031
	bhi	.L2032
	movw	r3, #61574
	cmp	r2, r3
	bne	.L2030
	ldr	r3, [sp, #12]
	ldr	r2, [sp, #12]
	ldrh	r10, [r3, #1892]
	ldrh	r0, [r2, #1918]
	ldr	r2, [r9, #1840]
	add	lr, r10, #-1
	uxth	r3, lr
	rsb	lr, r0, lr
	str	r2, [sp, #16]
	b	.L2045
.L2032:
	movw	r3, #61634
	cmp	r2, r3
	beq	.L2034
	movw	r3, #65535
	cmp	r2, r3
	bne	.L2030
	mov	r0, r6
	b	.L2094
.L2034:
	ldr	r3, [sp, #12]
	ldrh	r0, [r4, #1912]
	ldr	r2, [r4, #1856]
	ldr	r1, [r3, #1900]
	str	r2, [sp, #16]
	uxth	lr, r1
	add	r3, lr, #-1
	rsb	lr, r0, lr
	add	lr, lr, #-1
	uxth	r3, r3
	sxth	lr, lr
.L2036:
	sxth	ip, r3
	cmp	ip, lr
	ble	.L2096
	ldr	r2, [r7, #4]
	lsl	fp, ip, #2
	mov	r10, r2
	ldr	r2, [sp, #16]
	ldr	r2, [r2, ip, lsl #2]
	cmp	r10, r2
	bls	.L2037
	ldr	r2, [sp, #16]
	ldr	r2, [r2]
	cbnz	r2, .L2038
	cmp	r0, r1
	itt	ne
	addne	r0, r0, #1
	strhne	r0, [r9, #1912]	@ movhi
.L2038:
	movs	r1, #0
	uxth	lr, r3
.L2039:
	uxth	r2, r1
	cmp	r2, lr
	bcs	.L2097
	ldr	r0, [r5, #1856]
	sxth	r2, r2
	adds	r1, r1, #1
	add	r10, r0, r2, lsl #2
	ldr	r10, [r10, #4]
	str	r10, [r0, r2, lsl #2]
	ldr	r0, [r5, #1828]
	add	r10, r0, r2, lsl #1
	ldrh	r10, [r10, #2]
	strh	r10, [r0, r2, lsl #1]	@ movhi
	b	.L2039
.L2097:
	ldr	r1, [r7, #4]
	ldr	r2, [r4, #1856]
	str	r1, [r2, fp]
	sxth	r1, r3
	ldr	r2, [r4, #1828]
	cmp	r1, #0
	strh	r6, [r2, ip, lsl #1]	@ movhi
	bge	.L2041
	b	.L2030
.L2037:
	subs	r3, r3, #1
	uxth	r3, r3
	b	.L2036
.L2096:
	cmp	ip, #0
	bge	.L2072
	b	.L2030
.L2041:
	ldrh	r0, [r5, #1912]
	ldr	r2, [r8, #1900]
	subs	r2, r2, r0
	subs	r2, r2, #1
	sxth	r2, r2
	cmp	r1, r2
	bgt	.L2030
.L2072:
	ldr	r2, [r4, #1856]
	sxth	r3, r3
	ldr	r1, [r7, #4]
	adds	r0, r0, #1
	strh	r0, [r4, #1912]	@ movhi
	str	r1, [r2, r3, lsl #2]
	ldr	r2, [r4, #1828]
	b	.L2092
.L2051:
	ldr	r1, [sp, #16]
	lsl	fp, ip, #2
	ldr	r2, [r7, #4]
	ldr	r1, [r1, ip, lsl #2]
	cmp	r2, r1
	bhi	.L2098
	subs	r3, r3, #1
	uxth	r3, r3
.L2045:
	sxth	ip, r3
	cmp	ip, lr
	bgt	.L2051
	b	.L2050
.L2101:
	.align	2
.L2100:
	.word	.LANCHOR0
	.word	.LANCHOR2
.L2098:
	ldr	r2, [sp, #16]
	ldr	r2, [r2]
	cbnz	r2, .L2047
	cmp	r0, r10
	itt	ne
	addne	r0, r0, #1
	strhne	r0, [r8, #1918]	@ movhi
.L2047:
	movs	r1, #0
	uxth	lr, r3
.L2048:
	uxth	r2, r1
	cmp	r2, lr
	bcs	.L2099
	ldr	r0, [r4, #1840]
	sxth	r2, r2
	adds	r1, r1, #1
	add	r10, r0, r2, lsl #2
	ldr	r10, [r10, #4]
	str	r10, [r0, r2, lsl #2]
	ldr	r0, [r8, #1920]
	add	r10, r0, r2, lsl #1
	ldrh	r10, [r10, #2]
	strh	r10, [r0, r2, lsl #1]	@ movhi
	b	.L2048
.L2099:
	ldr	r2, [r5, #1840]
	ldr	r1, [r7, #4]
	str	r1, [r2, fp]
	ldr	r2, .L2102
	ldr	r2, [r2, #1920]
	strh	r6, [r2, ip, lsl #1]	@ movhi
.L2050:
	sxth	r3, r3
	cmp	r3, #0
	blt	.L2030
	ldrh	r2, [r8, #1892]
	ldrh	r1, [r8, #1918]
	subs	r2, r2, #1
	subs	r2, r2, r1
	sxth	r2, r2
	cmp	r3, r2
	bgt	.L2030
	adds	r1, r1, #1
	ldr	r2, [r9, #1840]
	strh	r1, [r8, #1918]	@ movhi
	ldr	r1, [r7, #4]
	str	r1, [r2, r3, lsl #2]
	ldr	r2, [r8, #1920]
.L2092:
	strh	r6, [r2, r3, lsl #1]	@ movhi
	b	.L2030
.L2031:
	ldrh	r1, [r9, #24]
	movw	r2, #65535
	cmp	r1, r2
	bne	.L2052
	strh	r6, [r5, #24]	@ movhi
	b	.L2093
.L2052:
	ldrh	r0, [r5, #28]
	cmp	r0, r2
	beq	.L2053
	movs	r1, #1
	bl	FtlFreeSysBlkQueueIn
.L2053:
	ldr	r2, [r9, #32]
	ldr	r3, [r7, #4]
	cmp	r2, r3
	bcs	.L2054
	ldrh	r3, [r5, #24]
	strh	r6, [r5, #24]	@ movhi
	strh	r3, [r5, #28]	@ movhi
	ldr	r3, [r7, #4]
.L2093:
	str	r3, [r5, #32]
	b	.L2030
.L2054:
	strh	r6, [r5, #28]	@ movhi
	b	.L2030
.L2027:
	ldrb	r1, [r8, #140]	@ zero_extendqisi2
	mov	r0, r6
	cbz	r1, .L2055
.L2094:
	movs	r1, #0
.L2055:
	bl	FtlFreeSysBlkQueueIn
.L2030:
	ldr	r3, [sp, #8]
	adds	r3, r3, #1
	str	r3, [sp, #8]
	b	.L2022
.L2021:
	ldr	r6, [sp, #4]
	adds	r6, r6, #1
	uxth	r3, r6
	str	r3, [sp, #4]
	b	.L2016
.L2058:
	ldr	r3, .L2102+4
	ldr	r5, [r3, #1828]
	ldrh	r2, [r5]
	cbz	r2, .L2060
.L2063:
	ldr	r5, [r0, #1920]
	ldr	r3, .L2102
	ldrh	r2, [r5]
	cbz	r2, .L2061
	b	.L2084
.L2060:
	ldrh	r3, [r3, #1912]
	cmp	r3, #0
	beq	.L2063
	ldr	r6, [r6, #1900]
.L2064:
	uxth	r3, r2
	sxth	r1, r3
	cmp	r1, r6
	bcs	.L2063
	ldrh	r7, [r5, r1, lsl #1]
	adds	r2, r2, #1
	cmp	r7, #0
	beq	.L2064
	mov	lr, #0
.L2065:
	ldr	r5, [r0, #1900]
	sxth	r2, r3
	cmp	r2, r5
	bcs	.L2063
	ldr	r5, [r4, #1828]
	subs	r6, r2, r1
	adds	r3, r3, #1
	ldrh	r7, [r5, r2, lsl #1]
	uxth	r3, r3
	strh	r7, [r5, r6, lsl #1]	@ movhi
	ldr	r5, [r4, #1856]
	ldr	r7, [r5, r2, lsl #2]
	str	r7, [r5, r6, lsl #2]
	ldr	r5, [r4, #1828]
	strh	lr, [r5, r2, lsl #1]	@ movhi
	b	.L2065
.L2061:
	ldrh	r1, [r3, #1918]
	cbz	r1, .L2084
	ldrh	r6, [r3, #1892]
.L2068:
	uxth	r3, r2
	sxth	r1, r3
	cmp	r1, r6
	bge	.L2084
	ldrh	r7, [r5, r1, lsl #1]
	adds	r2, r2, #1
	cmp	r7, #0
	beq	.L2068
	ldr	r5, .L2102
	mov	ip, #0
.L2069:
	ldrh	r6, [r0, #1892]
	sxth	r2, r3
	cmp	r2, r6
	bge	.L2084
	ldr	r6, [r5, #1920]
	rsb	lr, r1, r2
	adds	r3, r3, #1
	ldrh	r7, [r6, r2, lsl #1]
	uxth	r3, r3
	strh	r7, [r6, lr, lsl #1]	@ movhi
	ldr	r6, [r4, #1840]
	ldr	r7, [r6, r2, lsl #2]
	str	r7, [r6, lr, lsl #2]
	ldr	r6, [r5, #1920]
	strh	ip, [r6, r2, lsl #1]	@ movhi
	b	.L2069
.L2084:
	movs	r0, #0
	add	sp, sp, #36
	@ sp needed
	pop	{r4, r5, r6, r7, r8, r9, r10, fp, pc}
.L2103:
	.align	2
.L2102:
	.word	.LANCHOR0
	.word	.LANCHOR2
	.fnend
	.size	FtlScanSysBlk, .-FtlScanSysBlk
	.align	1
	.global	FtlLoadSysInfo
	.thumb
	.thumb_func
	.type	FtlLoadSysInfo, %function
FtlLoadSysInfo:
	.fnstart
	@ args = 0, pretend = 0, frame = 8
	@ frame_needed = 0, uses_anonymous_args = 0
	push	{r0, r1, r2, r4, r5, r6, r7, r8, r9, r10, fp, lr}
	.save {r4, r5, r6, r7, r8, r9, r10, fp, lr}
	.pad #12
	movs	r1, #0
	ldr	r4, .L2132
	ldr	r7, .L2132+4
	ldr	r3, [r4, #1776]
	mov	r5, r4
	ldrh	r2, [r7, #1812]
	ldr	r0, [r4, #-220]
	str	r3, [r4, #4060]
	ldr	r3, [r4, #1800]
	lsls	r2, r2, #1
	str	r3, [r4, #4064]
	bl	ftl_memset
	ldrh	r0, [r4, #24]
	movw	r3, #65535
	cmp	r0, r3
	bne	.L2105
.L2116:
	mov	r0, #-1
	b	.L2106
.L2105:
	movs	r1, #1
	ldr	r10, .L2132+12
	bl	FtlGetLastWrittenPage
	ldrh	r8, [r5, #24]
	mov	r6, r5
	uxth	r4, r0
	adds	r0, r0, #1
	strh	r0, [r5, #26]	@ movhi
.L2107:
	sxth	r3, r4
	cmp	r3, #0
	blt	.L2115
	sxth	r9, r8
	movs	r1, #1
	ldr	r0, .L2132+8
	orr	r3, r3, r9, lsl #10
	str	r3, [r5, #4056]
	ldr	r3, [r5, #1776]
	mov	r2, r1
	ldr	fp, .L2132+4
	str	r3, [r5, #4060]
	bl	FlashReadPages
	ldrb	r3, [r7]	@ zero_extendqisi2
	cbz	r3, .L2108
	ldr	r3, [r6, #4064]
	ldr	r3, [r3, #12]
	cbz	r3, .L2108
	ldr	r0, [r6, #4060]
	ldrh	r1, [fp, #1882]
	str	r3, [sp, #4]
	bl	js_hash
	ldr	r3, [sp, #4]
	cmp	r3, r0
	beq	.L2108
	cbnz	r4, .L2109
	ldrh	r3, [r6, #28]
	cmp	r9, r3
	beq	.L2109
	uxth	r8, r3
	ldrh	r4, [fp, #1874]
	b	.L2111
.L2109:
	mov	r3, #-1
	str	r3, [r5, #4052]
.L2108:
	ldr	r3, [r5, #4052]
	adds	r3, r3, #1
	beq	.L2111
	ldr	r3, [r6, #1776]
	ldr	r3, [r3]
	cmp	r3, r10
	bne	.L2111
	ldr	r3, [r6, #1800]
	ldrh	r2, [r3]
	movw	r3, #61604
	cmp	r2, r3
	bne	.L2111
.L2115:
	ldr	r4, .L2132+4
	movs	r2, #48
	ldr	r1, [r5, #4060]
	addw	r0, r4, #4068
	ldr	r6, .L2132
	bl	ftl_memcpy
	ldrh	r2, [r7, #1812]
	ldr	r1, [r5, #4060]
	ldr	r0, [r5, #-220]
	adds	r1, r1, #48
	lsls	r2, r2, #1
	bl	ftl_memcpy
	ldrh	r2, [r7, #1812]
	ldr	r3, [r5, #4060]
	add	r1, r2, #24
	ldr	r0, [r5, #-44]
	ubfx	r1, r1, #1, #30
	lsrs	r2, r2, #3
	adds	r2, r2, #4
	add	r1, r3, r1, lsl #2
	bl	ftl_memcpy
	ldrh	r3, [r7, #1916]
	cbz	r3, .L2113
	ldrh	r2, [r4, #1812]
	ldr	r1, [r6, #4060]
	ldr	r0, [r6, #1852]
	lsrs	r3, r2, #3
	add	r3, r3, r2, lsl #1
	ldrh	r2, [r4, #1908]
	adds	r3, r3, #52
	ubfx	r3, r3, #2, #14
	lsls	r2, r2, #2
	add	r1, r1, r3, lsl #2
	bl	ftl_memcpy
	b	.L2113
.L2111:
	subs	r4, r4, #1
	uxth	r4, r4
	b	.L2107
.L2113:
	ldr	r2, [r7, #4068]
	ldr	r3, .L2132+12
	ldr	r6, .L2132+4
	cmp	r2, r3
	bne	.L2116
	ldrb	r1, [r6, #4078]	@ zero_extendqisi2
	ldrh	r2, [r6, #1826]
	ldrh	r3, [r6, #4076]
	cmp	r1, r2
	ldr	r4, .L2132
	strh	r3, [r5, #30]	@ movhi
	bne	.L2116
	ldrh	r2, [r6, #1872]
	ldrh	r1, [r6, #1878]
	ldrh	r0, [r6, #1942]
	muls	r2, r3, r2
	str	r3, [r4, #4088]
	str	r2, [r6, #1932]
	muls	r2, r1, r2
	ldrh	r1, [r6, #1804]
	str	r2, [r6, #1912]
	ldr	r2, [r6, #1816]
	subs	r0, r2, r0
	subs	r0, r0, r3
	bl	__aeabi_uidiv
	ldrh	r3, [r6, #4084]
	ldrh	r1, [r6, #4082]
	lsrs	r2, r3, #6
	strh	r2, [r4, #-198]	@ movhi
	ldrh	r2, [r6, #4086]
	and	r3, r3, #63
	strb	r3, [r4, #-194]
	ldrb	r3, [r6, #4079]	@ zero_extendqisi2
	strh	r2, [r4, #-152]	@ movhi
	ldrh	r2, [r6, #4088]
	strb	r3, [r4, #-192]
	movw	r3, #65535
	strh	r1, [r4, #-200]	@ movhi
	strh	r3, [r4, #40]	@ movhi
	movs	r3, #0
	strh	r3, [r4, #42]	@ movhi
	strb	r3, [r4, #46]
	strb	r3, [r4, #48]
	str	r3, [r4, #-20]
	strh	r0, [r4, #20]	@ movhi
	lsrs	r0, r2, #6
	and	r2, r2, #63
	strb	r2, [r4, #-146]
	ldrb	r2, [r6, #4080]	@ zero_extendqisi2
	strh	r0, [r4, #-150]	@ movhi
	strb	r2, [r4, #-144]
	ldrh	r2, [r6, #4090]
	strh	r2, [r4, #-104]	@ movhi
	ldrh	r2, [r6, #4092]
	lsrs	r0, r2, #6
	and	r2, r2, #63
	strb	r2, [r4, #-98]
	ldrb	r2, [r6, #4081]	@ zero_extendqisi2
	strh	r0, [r4, #-102]	@ movhi
	strb	r2, [r4, #-96]
	movw	r2, #4100
	str	r3, [r4, #-32]
	ldr	r2, [r6, r2]
	str	r3, [r4, #-40]
	str	r3, [r4, #-24]
	stmia	r4, {r2, r3}
	str	r3, [r4, #12]
	str	r3, [r4, #-28]
	movw	r3, #4108
	ldr	r3, [r6, r3]
	ldr	r2, [r4, #-8]
	cmp	r3, r2
	it	hi
	strhi	r3, [r4, #-8]
	movw	r3, #4104
	ldr	r2, [r5, #-4]
	ldr	r3, [r7, r3]
	cmp	r3, r2
	itt	hi
	ldrhi	r2, .L2132
	strhi	r3, [r2, #-4]
	movw	r3, #65535
	cmp	r1, r3
	beq	.L2119
	ldr	r0, .L2132+16
	bl	make_superblock
.L2119:
	ldrh	r2, [r5, #-152]
	movw	r3, #65535
	cmp	r2, r3
	beq	.L2120
	ldr	r0, .L2132+20
	bl	make_superblock
.L2120:
	ldrh	r2, [r5, #-104]
	movw	r3, #65535
	cmp	r2, r3
	beq	.L2121
	ldr	r0, .L2132+24
	bl	make_superblock
.L2121:
	ldrh	r2, [r5, #40]
	movw	r3, #65535
	cmp	r2, r3
	beq	.L2122
	ldr	r0, .L2132+28
	bl	make_superblock
.L2122:
	movs	r0, #0
.L2106:
	add	sp, sp, #12
	@ sp needed
	pop	{r4, r5, r6, r7, r8, r9, r10, fp, pc}
.L2133:
	.align	2
.L2132:
	.word	.LANCHOR2
	.word	.LANCHOR0
	.word	.LANCHOR2+4052
	.word	1179929683
	.word	.LANCHOR2-200
	.word	.LANCHOR2-152
	.word	.LANCHOR2-104
	.word	.LANCHOR2+40
	.fnend
	.size	FtlLoadSysInfo, .-FtlLoadSysInfo
	.align	1
	.global	FtlDumpBlockInfo
	.thumb
	.thumb_func
	.type	FtlDumpBlockInfo, %function
FtlDumpBlockInfo:
	.fnstart
	@ args = 0, pretend = 0, frame = 80
	@ frame_needed = 0, uses_anonymous_args = 0
	ldr	r3, .L2151
	ubfx	r0, r0, #10, #16
	push	{r4, r5, r6, r7, r8, r9, r10, fp, lr}
	.save {r4, r5, r6, r7, r8, r9, r10, fp, lr}
	.pad #108
	sub	sp, sp, #108
	ldr	r3, [r3]
	mov	r8, r1
	ldr	r4, .L2151+4
	ldr	r7, .L2151+8
	str	r3, [sp, #100]
	bl	P2V_block_in_plane
	ldr	r1, .L2151+12
	ldrh	r9, [r4, #1872]
	mov	r6, r0
	ldr	r0, .L2151+16
	bl	printk
	ldr	r3, [r7, #-220]
	mov	r1, r6
	ldr	r0, .L2151+20
	ldrh	r2, [r3, r6, lsl #1]
	bl	printk
	add	r0, sp, #104
	strh	r6, [r0, #-52]!	@ movhi
	bl	make_superblock
	ldrb	r5, [r4, #140]	@ zero_extendqisi2
	str	r7, [sp, #44]
	cbz	r5, .L2135
	cmp	r8, #0
	bne	.L2147
	mov	r0, r6
	bl	ftl_get_blk_mode
	cmp	r0, #1
	mov	r5, r0
	bne	.L2135
	ldrh	r9, [r4, #1874]
	b	.L2135
.L2147:
	movs	r5, #0
.L2135:
	ldr	r0, .L2151+24
	mov	r1, r5
	mov	r2, r9
	ldrh	r3, [r4, #1872]
	bl	printk
	ldr	r10, .L2151+4
	movs	r6, #0
.L2136:
	ldr	r3, .L2151+8
	movs	r2, #0
	ldrh	fp, [r10, #1804]
	add	lr, sp, #66
	ldrh	r0, [r10, #1884]
	mov	r8, #36
	ldr	r3, [r3, #1764]
	mov	r4, r2
	movw	ip, #65535
	str	r3, [sp, #28]
	ldr	r3, .L2151+8
	ldr	r3, [r3, #628]
	str	r3, [sp, #32]
	ldrh	r3, [r10, #1882]
	str	r3, [sp, #36]
	ldr	r3, .L2151+8
	ldr	r3, [r3, #632]
	str	r3, [sp, #40]
.L2137:
	uxth	r3, r2
	cmp	r3, fp
	bcs	.L2149
	ldrh	r3, [lr, #2]!
	cmp	r3, ip
	beq	.L2138
	ldr	r1, [sp, #28]
	orr	r3, r6, r3, lsl #10
	ldr	r7, [sp, #32]
	mla	r1, r8, r4, r1
	str	r3, [r1, #4]
	ldr	r3, [sp, #36]
	muls	r3, r4, r3
	it	mi
	addmi	r3, r3, #3
	bic	r3, r3, #3
	add	r3, r3, r7
	str	r3, [r1, #8]
	mov	r3, r0
	muls	r3, r4, r3
	add	r4, r4, #1
	it	mi
	addmi	r3, r3, #3
	ldr	r7, [sp, #40]
	bic	r3, r3, #3
	uxth	r4, r4
	add	r3, r3, r7
	str	r3, [r1, #12]
.L2138:
	adds	r2, r2, #1
	b	.L2137
.L2149:
	ldr	r3, .L2151+8
	mov	r1, r4
	mov	r2, r5
	mov	r8, #0
	mov	fp, #36
	ldr	r0, [r3, #1764]
	bl	FlashReadPages
.L2142:
	uxth	r3, r8
	cmp	r3, r4
	bcs	.L2150
	ldr	r3, [sp, #44]
	mul	r2, fp, r8
	ldrh	r1, [sp, #52]
	ldr	ip, [r3, #1764]
	add	r8, r8, #1
	add	lr, ip, r2
	ldr	r3, [lr, #12]
	ldr	r0, [lr, #8]
	ldr	r7, [r3]
	str	r7, [sp]
	ldr	r7, [r3, #4]
	str	r7, [sp, #4]
	ldr	r7, [r3, #8]
	str	r7, [sp, #8]
	ldr	r3, [r3, #12]
	str	r3, [sp, #12]
	ldr	r3, [r0]
	str	r3, [sp, #16]
	ldr	r3, [r0, #4]
	ldr	r0, .L2151+28
	str	r3, [sp, #20]
	ldr	r2, [ip, r2]
	ldr	r3, [lr, #4]
	bl	printk
	b	.L2142
.L2150:
	adds	r6, r6, #1
	uxth	r6, r6
	cmp	r6, r9
	bne	.L2136
.L2144:
	ldr	r3, .L2151
	movs	r0, #0
	ldr	r2, [sp, #100]
	ldr	r3, [r3]
	cmp	r2, r3
	beq	.L2145
	bl	__stack_chk_fail
.L2145:
	add	sp, sp, #108
	@ sp needed
	pop	{r4, r5, r6, r7, r8, r9, r10, fp, pc}
.L2152:
	.align	2
.L2151:
	.word	__stack_chk_guard
	.word	.LANCHOR0
	.word	.LANCHOR2
	.word	.LANCHOR3+16
	.word	.LC107
	.word	.LC108
	.word	.LC109
	.word	.LC110
	.fnend
	.size	FtlDumpBlockInfo, .-FtlDumpBlockInfo
	.align	1
	.global	FtlScanAllBlock
	.thumb
	.thumb_func
	.type	FtlScanAllBlock, %function
FtlScanAllBlock:
	.fnstart
	@ args = 0, pretend = 0, frame = 72
	@ frame_needed = 0, uses_anonymous_args = 0
	push	{r4, r5, r6, r7, r8, r9, r10, fp, lr}
	.save {r4, r5, r6, r7, r8, r9, r10, fp, lr}
	.pad #100
	sub	sp, sp, #100
	ldr	r5, .L2170
	mov	r8, #0
	ldr	r0, .L2170+4
	ldr	r1, .L2170+8
	ldr	r3, [r5]
	str	r3, [sp, #92]
	bl	printk
	str	r5, [sp, #36]
	ldr	r5, .L2170+12
	mov	r7, r5
.L2154:
	ldr	r3, .L2170+16
	uxth	r4, r8
	ldrh	r3, [r3, #1814]
	cmp	r3, r4
	bls	.L2166
	add	r9, sp, #96
	mov	r0, r4
	mov	fp, #36
	movw	r10, #65535
	strh	r4, [r9, #-52]!	@ movhi
	bl	ftl_get_blk_mode
	ldr	r2, [r5, #-220]
	mov	r1, r4
	ldrh	r2, [r2, r4, lsl #1]
	mov	r3, r0
	ldr	r0, .L2170+20
	bl	printk
	mov	r0, r9
	bl	make_superblock
	ldr	r3, .L2170+16
	movs	r2, #0
	ldr	r9, [r5, #632]
	ldrh	lr, [r3, #1804]
	mov	r4, r2
	ldr	r3, [r5, #1764]
	str	r3, [sp, #24]
	add	ip, sp, #58
	ldr	r3, [r5, #628]
	str	r3, [sp, #28]
	ldr	r3, .L2170+16
	ldrh	r0, [r3, #1882]
	ldrh	r3, [r3, #1884]
	str	r3, [sp, #32]
.L2155:
	uxth	r3, r2
	cmp	r3, lr
	bcs	.L2167
	ldrh	r3, [ip, #2]!
	cmp	r3, r10
	beq	.L2156
	ldr	r1, [sp, #24]
	lsls	r3, r3, #10
	ldr	r6, [sp, #28]
	mla	r1, fp, r4, r1
	str	r3, [r1, #4]
	mov	r3, r0
	muls	r3, r4, r3
	it	mi
	addmi	r3, r3, #3
	bic	r3, r3, #3
	add	r3, r3, r6
	str	r3, [r1, #8]
	ldr	r3, [sp, #32]
	muls	r3, r4, r3
	add	r4, r4, #1
	it	mi
	addmi	r3, r3, #3
	bic	r3, r3, #3
	uxth	r4, r4
	add	r3, r3, r9
	str	r3, [r1, #12]
.L2156:
	adds	r2, r2, #1
	b	.L2155
.L2167:
	ldr	r0, [r7, #1764]
	mov	r1, r4
	movs	r2, #0
	mov	r9, #0
	bl	FlashReadPages
	mov	r10, #36
.L2160:
	uxth	r3, r9
	cmp	r3, r4
	bcs	.L2168
	mul	r2, r10, r9
	ldr	ip, [r7, #1764]
	ldrh	r1, [sp, #44]
	add	r9, r9, #1
	add	lr, ip, r2
	ldr	r3, [lr, #12]
	ldr	r0, [lr, #8]
	ldr	r6, [r3]
	str	r6, [sp]
	ldr	r6, [r3, #4]
	str	r6, [sp, #4]
	ldr	r6, [r3, #8]
	str	r6, [sp, #8]
	ldr	r3, [r3, #12]
	str	r3, [sp, #12]
	ldr	r3, [r0]
	str	r3, [sp, #16]
	ldr	r3, [r0, #4]
	ldr	r0, .L2170+24
	str	r3, [sp, #20]
	ldr	r2, [ip, r2]
	ldr	r3, [lr, #4]
	bl	printk
	b	.L2160
.L2168:
	ldr	r0, [r7, #1764]
	mov	r1, r4
	movs	r2, #1
	mov	r9, #0
	bl	FlashReadPages
	mov	r10, #36
.L2162:
	uxth	r3, r9
	cmp	r3, r4
	bcs	.L2169
	mul	r2, r10, r9
	ldr	ip, [r7, #1764]
	ldrh	r1, [sp, #44]
	add	r9, r9, #1
	add	lr, ip, r2
	ldr	r3, [lr, #12]
	ldr	r0, [lr, #8]
	ldr	r6, [r3]
	str	r6, [sp]
	ldr	r6, [r3, #4]
	str	r6, [sp, #4]
	ldr	r6, [r3, #8]
	str	r6, [sp, #8]
	ldr	r3, [r3, #12]
	str	r3, [sp, #12]
	ldr	r3, [r0]
	str	r3, [sp, #16]
	ldr	r3, [r0, #4]
	ldr	r0, .L2170+28
	str	r3, [sp, #20]
	ldr	r2, [ip, r2]
	ldr	r3, [lr, #4]
	bl	printk
	b	.L2162
.L2169:
	add	r8, r8, #1
	b	.L2154
.L2166:
	ldr	r3, [sp, #36]
	movs	r0, #0
	ldr	r2, [sp, #92]
	ldr	r3, [r3]
	cmp	r2, r3
	beq	.L2165
	bl	__stack_chk_fail
.L2165:
	add	sp, sp, #100
	@ sp needed
	pop	{r4, r5, r6, r7, r8, r9, r10, fp, pc}
.L2171:
	.align	2
.L2170:
	.word	__stack_chk_guard
	.word	.LC107
	.word	.LANCHOR3+36
	.word	.LANCHOR2
	.word	.LANCHOR0
	.word	.LC111
	.word	.LC112
	.word	.LC113
	.fnend
	.size	FtlScanAllBlock, .-FtlScanAllBlock
	.align	1
	.global	ftl_scan_all_ppa
	.thumb
	.thumb_func
	.type	ftl_scan_all_ppa, %function
ftl_scan_all_ppa:
	.fnstart
	@ args = 0, pretend = 0, frame = 0
	@ frame_needed = 0, uses_anonymous_args = 0
	push	{r4, r5, r6, r7, r8, lr}
	.save {r4, r5, r6, r7, r8, lr}
	.pad #24
	sub	sp, sp, #24
	ldr	r6, .L2178
	movs	r7, #0
	ldr	r0, .L2178+4
	ldr	r4, .L2178+8
	ldrh	r1, [r6, #1870]
	ldrh	r2, [r6, #1872]
	bl	printk
.L2173:
	ldrh	r3, [r6, #1870]
	cmp	r7, r3
	bcs	.L2175
	lsl	r8, r7, #10
	movs	r5, #0
.L2176:
	ldrh	r3, [r6, #1872]
	cmp	r5, r3
	bcs	.L2177
	add	r3, r5, r8
	str	r3, [r4, #4056]
	ldr	r3, [r4, #1776]
	movs	r2, #0
	movs	r1, #1
	ldr	r0, .L2178+12
	str	r2, [r4, #4052]
	adds	r5, r5, #1
	str	r3, [r4, #4060]
	ldr	r3, [r4, #1800]
	str	r3, [r4, #4064]
	bl	FlashReadPages
	ldr	r3, [r4, #4064]
	ldr	r2, [r4, #4060]
	ldr	r0, .L2178+16
	ldr	r1, [r3, #4]
	str	r1, [sp]
	ldr	r1, [r3, #8]
	str	r1, [sp, #4]
	ldr	r1, [r3, #12]
	str	r1, [sp, #8]
	ldr	r1, [r2]
	str	r1, [sp, #12]
	ldr	r2, [r2, #4]
	ldr	r1, [r4, #4056]
	str	r2, [sp, #16]
	ldr	r2, [r4, #4052]
	ldr	r3, [r3]
	bl	printk
	b	.L2176
.L2177:
	adds	r7, r7, #1
	b	.L2173
.L2175:
	ldr	r0, .L2178+20
	ldr	r1, .L2178+24
	add	sp, sp, #24
	@ sp needed
	pop	{r4, r5, r6, r7, r8, lr}
	b	printk
.L2179:
	.align	2
.L2178:
	.word	.LANCHOR0
	.word	.LC114
	.word	.LANCHOR2
	.word	.LANCHOR2+4052
	.word	.LC115
	.word	.LC116
	.word	.LANCHOR3+52
	.fnend
	.size	ftl_scan_all_ppa, .-ftl_scan_all_ppa
	.align	1
	.global	FlashProgPages
	.thumb
	.thumb_func
	.type	FlashProgPages, %function
FlashProgPages:
	.fnstart
	@ args = 0, pretend = 0, frame = 64
	@ frame_needed = 0, uses_anonymous_args = 0
	push	{r4, r5, r6, r7, r8, r9, r10, fp, lr}
	.save {r4, r5, r6, r7, r8, r9, r10, fp, lr}
	.pad #76
	sub	sp, sp, #76
	ldr	r5, .L2236
	mov	r4, r0
	str	r1, [sp, #8]
	mov	r9, r2
	str	r3, [sp, #20]
	ldr	r5, [r5]
	str	r5, [sp, #68]
	ldr	r5, .L2236+4
	ldr	r6, [r5, #692]
	ldrb	r7, [r5]	@ zero_extendqisi2
	ldrb	r6, [r6, #19]	@ zero_extendqisi2
	str	r6, [sp, #16]
	ldr	r6, .L2236+8
	ldrb	r6, [r6, #481]	@ zero_extendqisi2
	str	r6, [sp, #12]
	cbz	r7, .L2181
	bl	FlashProgSlc2KPages
	b	.L2182
.L2195:
	movs	r3, #36
	add	r2, sp, #24
	mov	r1, r9
	mul	r8, r3, r7
	ldr	r3, [sp, #8]
	subs	r3, r3, r7
	add	fp, r4, r8
	uxtb	r3, r3
	str	r3, [sp]
	mov	r0, fp
	add	r3, sp, #28
	bl	LogAddr2PhyAddr
	ldrb	r2, [r5, #1717]	@ zero_extendqisi2
	ldr	r3, [sp, #28]
	mov	r10, r0
	cmp	r3, r2
	bcc	.L2183
	mov	r3, #-1
	str	r3, [r4, r8]
.L2184:
	adds	r7, r7, #1
.L2181:
	ldr	r3, [sp, #8]
	ldr	r6, .L2236+4
	cmp	r7, r3
	bcc	.L2195
	b	.L2234
.L2183:
	add	r3, r5, r3, lsl #4
	ldrb	r1, [r5, #1793]	@ zero_extendqisi2
	ldr	r3, [r3, #1596]
	cmp	r1, #0
	it	eq
	moveq	r10, #0
	cbz	r3, .L2186
	cmp	r2, #1
	bne	.L2187
	ldr	r0, [r5, #76]
	bl	NandcIqrWaitFlashReady
.L2187:
	ldrb	r0, [sp, #28]	@ zero_extendqisi2
	bl	FlashWaitCmdDone
.L2186:
	ldr	r3, [sp, #28]
	movs	r0, #0
	add	r2, r5, r3, lsl #4
	addw	r1, r2, #1596
	str	r0, [r2, #1600]
	ldr	r0, [sp, #24]
	str	fp, [r2, #1596]
	str	r0, [r2, #1592]
	cmp	r10, #0
	beq	.L2188
	add	r2, r8, #36
	add	r2, r2, r4
	str	r2, [r1, #4]
.L2188:
	adds	r2, r5, r3
	add	r3, r5, r3, lsl #4
	ldrb	r6, [r2, #1720]	@ zero_extendqisi2
	strb	r6, [r3, #1588]
	mov	r0, r6
	ldrb	r3, [r5, #1717]	@ zero_extendqisi2
	cmp	r3, #1
	bne	.L2189
	bl	NandcWaitFlashReady
	b	.L2190
.L2189:
	bl	NandcFlashCs
	mov	r0, r6
	ldr	r3, [sp, #28]
	ldr	r1, [sp, #24]
	add	r3, r5, r3, lsl #2
	ldr	r2, [r3, #656]
	adds	r2, r2, #0
	it	ne
	movne	r2, #1
	bl	FlashWaitReadyEN
	mov	r0, r6
	bl	NandcFlashDeCs
.L2190:
	ldr	r3, [sp, #16]
	subs	r3, r3, #1
	cmp	r3, #7
	bhi	.L2191
	adds	r3, r5, r6
	ldrb	r3, [r3, #1552]	@ zero_extendqisi2
	cbz	r3, .L2191
	mov	r0, r6
	ldrb	r1, [r5, #699]	@ zero_extendqisi2
	ldr	r2, .L2236+12
	movs	r3, #0
	bl	HynixSetRRPara
.L2191:
	mov	r0, r6
	bl	NandcFlashCs
	cmp	r9, #1
	mov	r0, r6
	bne	.L2192
	ldrb	r3, [r5, #140]	@ zero_extendqisi2
	cbz	r3, .L2192
	bl	flash_enter_slc_mode
	b	.L2193
.L2192:
	bl	flash_exit_slc_mode
.L2193:
	mov	r0, r6
	ldr	r1, [sp, #24]
	bl	FlashProgFirstCmd
	ldr	r3, [fp, #12]
	mov	r0, r6
	movs	r1, #1
	str	r3, [sp]
	ldr	r2, [sp, #12]
	ldr	r3, [fp, #8]
	bl	NandcXferData
	cmp	r10, #0
	beq	.L2194
	mov	r0, r6
	ldr	r1, [sp, #24]
	bl	FlashProgDpFirstCmd
	mov	r0, r6
	add	r8, r8, #36
	add	r8, r8, r4
	ldr	r3, [sp, #28]
	ldr	r1, [sp, #24]
	add	r3, r5, r3, lsl #2
	ldr	r2, [r3, #656]
	adds	r2, r2, #0
	it	ne
	movne	r2, #1
	bl	FlashWaitReadyEN
	ldr	r1, [r5, #4]
	mov	r0, r6
	ldr	r3, [sp, #24]
	add	r1, r1, r3
	bl	FlashProgDpSecondCmd
	ldr	r3, [r8, #12]
	mov	r0, r6
	movs	r1, #1
	str	r3, [sp]
	ldr	r2, [sp, #12]
	ldr	r3, [r8, #8]
	bl	NandcXferData
.L2194:
	mov	r0, r6
	ldr	r1, [sp, #24]
	bl	FlashProgSecondCmd
	mov	r0, r6
	bl	NandcFlashDeCs
	add	r7, r7, r10
	b	.L2184
.L2234:
	ldr	r0, [r6, #76]
	movs	r5, #0
	bl	NandcIqrWaitFlashReady
	addw	r8, r6, #1588
	mov	r7, r6
.L2196:
	ldrb	r3, [r6, #1717]	@ zero_extendqisi2
	cmp	r5, r3
	bcs	.L2235
	uxtb	r0, r5
	bl	FlashWaitCmdDone
	cmp	r9, #1
	bne	.L2197
	ldrb	r3, [r7, #140]	@ zero_extendqisi2
	cbz	r3, .L2197
	lsls	r3, r5, #4
	ldrb	r0, [r8, r3]	@ zero_extendqisi2
	bl	flash_exit_slc_mode
.L2197:
	adds	r5, r5, #1
	b	.L2196
.L2235:
	ldr	r3, [sp, #20]
	cbnz	r3, .L2199
.L2207:
	movs	r0, #0
	b	.L2182
.L2199:
	ldr	r7, .L2236+16
	mov	r8, #0
	mov	r10, r7
.L2200:
	ldr	r3, [sp, #8]
	cmp	r8, r3
	beq	.L2207
	ldr	r3, [r4]
	adds	r3, r3, #1
	bne	.L2201
	ldr	r1, [r4, #4]
	ldr	r0, .L2236+20
	bl	printk
	b	.L2202
.L2201:
	ldr	r3, [sp, #8]
	mov	r1, r9
	add	r2, sp, #24
	mov	r0, r4
	rsb	r3, r8, r3
	mov	r6, r4
	uxtb	r3, r3
	str	r3, [sp]
	add	r3, sp, #28
	bl	LogAddr2PhyAddr
	ldr	r2, [r7, #4024]
	movs	r3, #0
	str	r3, [r2]
	ldr	r2, [r7, #4028]
	str	r3, [r2]
	ldmia	r6!, {r0, r1, r2, r3}
	add	r5, sp, #32
	stmia	r5!, {r0, r1, r2, r3}
	ldmia	r6!, {r0, r1, r2, r3}
	stmia	r5!, {r0, r1, r2, r3}
	add	r0, sp, #32
	ldr	r3, [r6]
	movs	r1, #1
	mov	r2, r9
	str	r3, [r5]
	ldr	r3, [r7, #4024]
	str	r3, [sp, #40]
	ldr	r3, [r7, #4028]
	str	r3, [sp, #44]
	bl	FlashReadPages
	ldr	r5, [sp, #32]
	adds	r3, r5, #1
	bne	.L2203
	ldr	r0, .L2236+24
	ldr	r1, [r4, #4]
	bl	printk
	str	r5, [r4]
.L2203:
	ldr	r3, [r4, #12]
	cbz	r3, .L2204
	ldr	r2, [r3]
	ldr	r3, [r10, #4028]
	ldr	r3, [r3]
	cmp	r2, r3
	beq	.L2204
	ldr	r0, .L2236+28
	ldr	r1, [r4, #4]
	bl	printk
	mov	r3, #-1
	str	r3, [r4]
.L2204:
	ldr	r3, [r4, #8]
	cbz	r3, .L2202
	ldr	r2, [r3]
	ldr	r3, [r10, #4024]
	ldr	r3, [r3]
	cmp	r2, r3
	beq	.L2202
	ldr	r0, .L2236+32
	ldr	r1, [r4, #4]
	bl	printk
	mov	r3, #-1
	str	r3, [r4]
.L2202:
	add	r8, r8, #1
	adds	r4, r4, #36
	b	.L2200
.L2182:
	ldr	r3, .L2236
	ldr	r2, [sp, #68]
	ldr	r3, [r3]
	cmp	r2, r3
	beq	.L2208
	bl	__stack_chk_fail
.L2208:
	add	sp, sp, #76
	@ sp needed
	pop	{r4, r5, r6, r7, r8, r9, r10, fp, pc}
.L2237:
	.align	2
.L2236:
	.word	__stack_chk_guard
	.word	.LANCHOR0
	.word	.LANCHOR1
	.word	.LANCHOR0+702
	.word	.LANCHOR2
	.word	.LC103
	.word	.LC104
	.word	.LC105
	.word	.LC106
	.fnend
	.size	FlashProgPages, .-FlashProgPages
	.align	1
	.global	FlashTestBlk
	.thumb
	.thumb_func
	.type	FlashTestBlk, %function
FlashTestBlk:
	.fnstart
	@ args = 0, pretend = 0, frame = 104
	@ frame_needed = 0, uses_anonymous_args = 0
	ldr	r3, .L2242
	push	{r4, r5, r6, lr}
	.save {r4, r5, r6, lr}
	.pad #104
	sub	sp, sp, #104
	ldr	r2, [r3]
	mov	r4, r0
	ldr	r5, .L2242+4
	mov	r6, r3
	str	r2, [sp, #100]
	ldr	r2, [r5, #4008]
	cmp	r0, r2
	bcc	.L2241
	ldr	r3, [r5, #4016]
	add	r0, sp, #36
	movs	r1, #165
	movs	r2, #32
	str	r0, [sp, #12]
	lsls	r4, r4, #10
	str	r3, [sp, #8]
	bl	ftl_memset
	ldr	r0, [r5, #4016]
	movs	r1, #90
	movs	r2, #8
	bl	ftl_memset
	movs	r1, #1
	mov	r2, r1
	mov	r0, sp
	str	r4, [sp, #4]
	bl	FlashEraseBlocks
	movs	r1, #1
	mov	r2, r1
	mov	r3, r1
	mov	r0, sp
	bl	FlashProgPages
	movs	r1, #0
	movs	r2, #1
	ldr	r4, [sp]
	mov	r0, sp
	adds	r4, r4, #0
	it	ne
	movne	r4, #1
	negs	r4, r4
	bl	FlashEraseBlocks
	b	.L2239
.L2241:
	movs	r4, #0
.L2239:
	ldr	r2, [sp, #100]
	mov	r0, r4
	ldr	r3, [r6]
	cmp	r2, r3
	beq	.L2240
	bl	__stack_chk_fail
.L2240:
	add	sp, sp, #104
	@ sp needed
	pop	{r4, r5, r6, pc}
.L2243:
	.align	2
.L2242:
	.word	__stack_chk_guard
	.word	.LANCHOR2
	.fnend
	.size	FlashTestBlk, .-FlashTestBlk
	.align	1
	.global	FlashMakeFactorBbt
	.thumb
	.thumb_func
	.type	FlashMakeFactorBbt, %function
FlashMakeFactorBbt:
	.fnstart
	@ args = 0, pretend = 0, frame = 88
	@ frame_needed = 0, uses_anonymous_args = 0
	ldr	r3, .L2303
	movs	r1, #1
	push	{r4, r5, r6, r7, r8, r9, r10, fp, lr}
	.save {r4, r5, r6, r7, r8, r9, r10, fp, lr}
	.pad #92
	sub	sp, sp, #92
	ldr	r3, [r3]
	ldr	r5, .L2303+4
	ldr	r4, .L2303+8
	str	r3, [sp, #84]
	ldr	r3, [r5, #4020]
	ldrh	r8, [r4, #124]
	ldr	r0, .L2303+12
	str	r3, [sp, #20]
	ldrh	r3, [r4, #126]
	smulbb	r8, r8, r3
	ldr	r3, [r4, #692]
	ldrb	r3, [r3, #24]	@ zero_extendqisi2
	uxth	r8, r8
	str	r3, [sp, #24]
	ldrh	r3, [r4, #4]
	str	r3, [sp, #16]
	ldrb	r3, [r4]	@ zero_extendqisi2
	ldr	r4, .L2303+8
	cmp	r3, #1
	itttt	eq
	ldreq	r3, [sp, #16]
	lsleq	r3, r3, #1
	uxtheq	r3, r3
	streq	r3, [sp, #16]
	bl	printk
	ldr	r0, [r5, #4020]
	movs	r1, #0
	mov	r2, #4096
	bl	ftl_memset
	ldr	r5, .L2303+4
	lsr	r3, r8, #4
	str	r3, [sp, #28]
	movs	r3, #0
	str	r3, [sp, #8]
.L2246:
	ldrb	r7, [sp, #8]	@ zero_extendqisi2
	ldrb	r3, [r4, #1717]	@ zero_extendqisi2
	cmp	r3, r7
	bls	.L2299
	add	r3, r5, r7, lsl #1
	ldrh	r6, [r3, #4036]
	cmp	r6, #0
	bne	.L2277
	ldrh	r2, [r4, #132]
	mov	r1, r6
	ldr	r0, [r5, #3988]
	mov	r9, r6
	lsls	r2, r2, #9
	bl	ftl_memset
	adds	r3, r4, r7
	ldrb	r10, [r3, #1720]	@ zero_extendqisi2
	lsls	r3, r7, #2
	add	fp, r4, r3
	str	r6, [sp, #4]
	str	r3, [sp, #32]
.L2248:
	ldrh	r3, [sp, #4]
	cmp	r3, r8
	str	r3, [sp, #12]
	bcs	.L2258
	movs	r3, #255
	strb	r3, [sp, #46]
	strb	r3, [sp, #47]
	ldr	r3, [sp, #24]
	lsls	r1, r3, #31
	bpl	.L2250
	ldr	r3, [fp, #656]
	add	r2, sp, #46
	mov	r0, r10
	add	r3, r3, r6
	str	r3, [sp, #36]
	mov	r1, r3
	bl	FlashReadSpare
	ldrb	r2, [r4]	@ zero_extendqisi2
	cmp	r2, #1
	ldr	r3, [sp, #36]
	bne	.L2250
	ldr	r1, [r4, #4]
	add	r2, sp, #47
	mov	r0, r10
	add	r1, r1, r3
	bl	FlashReadSpare
	ldrb	r3, [sp, #46]	@ zero_extendqisi2
	ldrb	r2, [sp, #47]	@ zero_extendqisi2
	ands	r3, r3, r2
	strb	r3, [sp, #46]
.L2250:
	ldr	r3, [sp, #24]
	lsls	r2, r3, #30
	bpl	.L2252
	ldr	r3, [r4, #692]
	mov	r0, r10
	add	r2, sp, #47
	ldrh	r1, [r3, #10]
	ldr	r3, [fp, #656]
	subs	r1, r1, #1
	add	r1, r1, r3
	add	r1, r1, r6
	bl	FlashReadSpare
.L2252:
	ldr	r3, [r4, #692]
	ldrb	r2, [r3, #7]	@ zero_extendqisi2
	ldrb	r3, [sp, #46]	@ zero_extendqisi2
	cmp	r2, #1
	beq	.L2253
	cmp	r2, #8
	bne	.L2254
.L2253:
	cbz	r3, .L2276
	ldrb	r0, [sp, #47]	@ zero_extendqisi2
	clz	r0, r0
	lsrs	r0, r0, #5
	b	.L2255
.L2254:
	cmp	r3, #255
	bne	.L2276
	ldrb	r0, [sp, #47]	@ zero_extendqisi2
	subs	r0, r0, #255
	it	ne
	movne	r0, #1
	b	.L2255
.L2276:
	movs	r0, #1
.L2255:
	ldr	r3, [sp, #24]
	lsls	r3, r3, #29
	bpl	.L2256
	ldr	r3, .L2303+8
	mov	r0, r10
	ldr	r2, [sp, #32]
	add	r3, r3, r2
	ldr	r1, [r3, #656]
	add	r1, r1, r6
	bl	SandiskProgTestBadBlock
.L2256:
	cbz	r0, .L2257
	mov	r1, r7
	ldr	r2, [sp, #4]
	ldr	r0, .L2303+16
	add	r9, r9, #1
	bl	printk
	ldr	r2, [r5, #3988]
	uxth	r9, r9
	ldr	r3, [sp, #12]
	and	r0, r3, #31
	lsrs	r1, r3, #5
	movs	r3, #1
	lsls	r3, r3, r0
	ldr	r0, [r2, r1, lsl #2]
	orrs	r3, r3, r0
	str	r3, [r2, r1, lsl #2]
	ldr	r2, [sp, #28]
	ldrb	r3, [r4, #1717]	@ zero_extendqisi2
	muls	r3, r2, r3
	cmp	r9, r3
	bgt	.L2258
.L2257:
	ldr	r3, [sp, #4]
	adds	r3, r3, #1
	str	r3, [sp, #4]
	ldr	r3, [sp, #16]
	add	r6, r6, r3
	b	.L2248
.L2258:
	mov	r2, r9
	ldr	r0, .L2303+20
	mov	r1, r7
	bl	printk
	ldrb	r3, [r4, #1717]	@ zero_extendqisi2
	ldr	r2, [sp, #28]
	muls	r3, r2, r3
	cmp	r9, r3
	blt	.L2260
	ldrh	r2, [r4, #132]
	movs	r1, #0
	ldr	r0, [r5, #3988]
	lsls	r2, r2, #9
	bl	ftl_memset
.L2260:
	cmp	r7, #0
	bne	.L2262
	ldrh	r10, [r5, #4008]
	mov	r9, #1
	mov	r6, r7
.L2263:
	ldr	r3, .L2303+8
	ldrb	r3, [r3, #1]	@ zero_extendqisi2
	cmp	r3, r10
	bls	.L2300
	mov	r0, r10
	bl	FlashTestBlk
	cbz	r0, .L2264
	mov	r1, r10
	ldr	r0, .L2303+24
	bl	printk
	ldr	r2, [r5, #3988]
	lsr	r0, r10, #5
	adds	r6, r6, #1
	and	r3, r10, #31
	ldr	r1, [r2, r0, lsl #2]
	uxth	r6, r6
	lsl	r3, r9, r3
	orrs	r3, r3, r1
	str	r3, [r2, r0, lsl #2]
.L2264:
	add	r10, r10, #1
	uxth	r10, r10
	b	.L2263
.L2300:
	add	fp, r8, #-1
	sub	r9, r8, #50
	mov	r10, #1
	uxth	fp, fp
.L2266:
	cmp	fp, r9
	ble	.L2301
	mov	r0, fp
	bl	FlashTestBlk
	cbz	r0, .L2267
	mov	r1, fp
	ldr	r0, .L2303+24
	bl	printk
	ldr	r2, [r5, #3988]
	lsr	r0, fp, #5
	and	r3, fp, #31
	lsl	r3, r10, r3
	ldr	r1, [r2, r0, lsl #2]
	orrs	r3, r3, r1
	str	r3, [r2, r0, lsl #2]
.L2267:
	add	fp, fp, #-1
	uxth	fp, fp
	b	.L2266
.L2301:
	ldr	r3, .L2303+8
	ldr	r2, [r5, #4008]
	ldrb	r3, [r3, #1]	@ zero_extendqisi2
	subs	r3, r3, r2
	cmp	r6, r3
	bcc	.L2262
	ldrh	r2, [r4, #132]
	movs	r1, #0
	ldr	r0, [r5, #3988]
	lsls	r2, r2, #9
	bl	ftl_memset
.L2262:
	ldrb	r6, [sp, #8]	@ zero_extendqisi2
	add	r10, r8, #-1
	add	r9, r5, r7, lsl #1
	uxth	r10, r10
	mul	r6, r8, r6
.L2270:
	mov	r1, r7
	ldr	r0, .L2303+28
	mov	r2, r10
	bl	printk
	ldr	r1, [r5, #3988]
.L2271:
	lsr	r3, r10, #5
	and	r2, r10, #31
	ldr	r3, [r1, r3, lsl #2]
	lsrs	r3, r3, r2
	ands	r3, r3, #1
	beq	.L2302
	add	r10, r10, #-1
	uxth	r10, r10
	b	.L2271
.L2302:
	ldr	r1, [sp, #20]
	movw	r2, #61664
	strh	r10, [r9, #4036]	@ movhi
	add	r0, sp, #48
	strh	r2, [r1]	@ movhi
	strh	r10, [r1, #2]	@ movhi
	strh	r3, [r1, #8]	@ movhi
	movs	r1, #1
	ldr	r3, [r5, #3988]
	mov	r2, r1
	str	r3, [sp, #56]
	ldr	r3, [r5, #4020]
	str	r3, [sp, #60]
	add	r3, r10, r6
	lsls	r3, r3, #10
	str	r3, [sp, #52]
	bl	FlashEraseBlocks
	movs	r1, #1
	mov	r3, r1
	mov	r2, r1
	add	r0, sp, #48
	bl	FlashProgPages
	ldr	r3, [sp, #48]
	cbz	r3, .L2277
	add	r10, r10, #-1
	uxth	r10, r10
	b	.L2270
.L2277:
	ldr	r3, [sp, #8]
	adds	r3, r3, #1
	str	r3, [sp, #8]
	b	.L2246
.L2304:
	.align	2
.L2303:
	.word	__stack_chk_guard
	.word	.LANCHOR2
	.word	.LANCHOR0
	.word	.LC117
	.word	.LC118
	.word	.LC119
	.word	.LC120
	.word	.LC121
.L2299:
	ldr	r3, .L2305
	ldr	r2, [sp, #84]
	ldr	r3, [r3]
	cmp	r2, r3
	beq	.L2274
	bl	__stack_chk_fail
.L2274:
	add	sp, sp, #92
	@ sp needed
	pop	{r4, r5, r6, r7, r8, r9, r10, fp, pc}
.L2306:
	.align	2
.L2305:
	.word	__stack_chk_guard
	.fnend
	.size	FlashMakeFactorBbt, .-FlashMakeFactorBbt
	.align	1
	.global	FtlLowFormatEraseBlock
	.thumb
	.thumb_func
	.type	FtlLowFormatEraseBlock, %function
FtlLowFormatEraseBlock:
	.fnstart
	@ args = 0, pretend = 0, frame = 24
	@ frame_needed = 0, uses_anonymous_args = 0
	ldr	r3, .L2359
