// SPDX-License-Identifier: GPL-2.0
/*
 * Copyright (c) 2020 Rockchip Electronics Co. Ltd.
 *
 * Author: Zorro Liu <zorro.liu@rock-chips.com>
 */

	.arch armv8-a
	.file	"rkf_waveform.c"
	.text
.Ltext0:
	.cfi_sections	.debug_frame
	.align	2
	.p2align 3,,7
	.type	get_wf_buf, %function
get_wf_buf:
.LFB1553:
	.file 1 "drivers/gpu/drm/rockchip/ebc-dev/epdlut/rkf_waveform.c"
	.loc 1 190 0
	.cfi_startproc
.LVL0:
	.loc 1 191 0
	adrp	x2, .LANCHOR0
	.loc 1 198 0
	cmp	w1, 3
	.loc 1 191 0
	ldr	x6, [x2, #:lo12:.LANCHOR0]
.LVL1:
	.loc 1 198 0
	beq	.L3
	ble	.L21
	cmp	w1, 5
	beq	.L8
	blt	.L9
	.loc 1 224 0
	add	x2, x6, 532
.LVL2:
	.loc 1 225 0
	add	x7, x6, 2132
.LVL3:
	.loc 1 198 0
	cmp	w1, 6
	bne	.L15
	.p2align 2
.L11:
.LBB151:
.LBB152:
.LBB153:
	.loc 1 173 0
	cmp	w0, 0
.LBE153:
.LBB154:
	.loc 1 174 0
	mov	w3, 49
.LBE154:
.LBB155:
	.loc 1 173 0
	csel	w0, w0, wzr, ge
.LVL4:
.LBE155:
.LBB156:
	.loc 1 174 0
	mov	x1, 0
.LVL5:
	cmp	w0, w3
.LBE156:
	.loc 1 170 0
	mov	w5, 0
.LVL6:
.LBB157:
	.loc 1 174 0
	csel	w0, w0, w3, le
	b	.L14
	.p2align 3
.L12:
	add	x1, x1, 1
.LBE157:
	.loc 1 176 0
	cmp	x1, 50
	beq	.L22
.L14:
	.loc 1 177 0
	ldrb	w3, [x2, x1]
	.loc 1 182 0
	add	x4, x2, x1
	.loc 1 177 0
	cmp	w0, w3
	bgt	.L12
	.loc 1 182 0
	ldrb	w3, [x4, 1]
	mov	w5, w1
	cbnz	w3, .L12
.LBE152:
.LBE151:
	.loc 1 233 0
	ldr	w0, [x7, x1, lsl 2]
	add	x0, x6, x0
	.loc 1 235 0
	ret
.LVL7:
	.p2align 3
.L21:
	.loc 1 198 0
	cmp	w1, 1
	beq	.L5
	bgt	.L6
	.loc 1 200 0
	add	x2, x6, 148
.LVL8:
	.loc 1 201 0
	add	x7, x6, 596
.LVL9:
	.loc 1 198 0
	cbz	w1, .L11
.L15:
	.loc 1 228 0
	mov	x0, 0
.LVL10:
	.loc 1 236 0
	ret
.LVL11:
.L6:
	.loc 1 208 0
	add	x2, x6, 212
.LVL12:
	.loc 1 209 0
	add	x7, x6, 852
.LVL13:
	.loc 1 210 0
	b	.L11
.LVL14:
.L9:
	.loc 1 216 0
	add	x2, x6, 340
.LVL15:
	.loc 1 217 0
	add	x7, x6, 1364
.LVL16:
	.loc 1 218 0
	b	.L11
.LVL17:
	.p2align 3
.L22:
	sxtw	x1, w5
	.loc 1 233 0
	ldr	w0, [x7, x1, lsl 2]
	add	x0, x6, x0
	.loc 1 235 0
	ret
.LVL18:
.L8:
	.loc 1 220 0
	add	x2, x6, 404
.LVL19:
	.loc 1 221 0
	add	x7, x6, 1620
.LVL20:
	.loc 1 222 0
	b	.L11
.LVL21:
.L5:
	.loc 1 204 0
	add	x2, x6, 468
.LVL22:
	.loc 1 205 0
	add	x7, x6, 1876
.LVL23:
	.loc 1 206 0
	b	.L11
.LVL24:
.L3:
	.loc 1 212 0
	add	x2, x6, 276
.LVL25:
	.loc 1 213 0
	add	x7, x6, 1108
.LVL26:
	.loc 1 214 0
	b	.L11
	.cfi_endproc
.LFE1553:
	.size	get_wf_buf, .-get_wf_buf
	.align	2
	.p2align 3,,7
	.type	decode_wf_data, %function
decode_wf_data:
.LFB1555:
	.loc 1 245 0
	.cfi_startproc
.LVL27:
	stp	x29, x30, [sp, -48]!
	.cfi_def_cfa_offset 48
	.cfi_offset 29, -48
	.cfi_offset 30, -40
	add	x29, sp, 0
	.cfi_def_cfa_register 29
	stp	x19, x20, [sp, 16]
	.cfi_offset 19, -32
	.cfi_offset 20, -24
	.loc 1 248 0
	uxtw	x20, w1
.LBB158:
.LBB159:
.LBB160:
	.file 2 "./include/linux/slab.h"
	.loc 2 553 0
	mov	w1, 32960
.LVL28:
.LBE160:
.LBE159:
.LBE158:
	.loc 1 245 0
	str	x21, [sp, 32]
	.cfi_offset 21, -16
.LBB165:
.LBB163:
.LBB161:
	.loc 2 553 0
	movk	w1, 0x60, lsl 16
.LBE161:
.LBE163:
.LBE165:
	.loc 1 245 0
	mov	x21, x0
.LBB166:
.LBB164:
.LBB162:
	.loc 2 553 0
	mov	x0, x20
.LVL29:
	bl	__kmalloc
.LVL30:
	mov	x19, x0
.LBE162:
.LBE164:
.LBE166:
	.loc 1 249 0
	cbz	x0, .L24
	.loc 1 252 0
	mov	x2, x20
	add	x1, x21, 4
	bl	memcpy
.LVL31:
.L24:
	.loc 1 255 0
	mov	x0, x19
	ldr	x21, [sp, 32]
.LVL32:
	ldp	x19, x20, [sp, 16]
	ldp	x29, x30, [sp], 48
	.cfi_restore 30
	.cfi_restore 29
	.cfi_restore 21
	.cfi_restore 19
	.cfi_restore 20
	.cfi_def_cfa 31, 0
	ret
	.cfi_endproc
.LFE1555:
	.size	decode_wf_data, .-decode_wf_data
	.align	2
	.p2align 3,,7
	.type	parse_wf_gray16.isra.3, %function
parse_wf_gray16.isra.3:
.LFB1567:
	.loc 1 345 0
	.cfi_startproc
.LVL33:
	stp	x29, x30, [sp, -32]!
	.cfi_def_cfa_offset 32
	.cfi_offset 29, -32
	.cfi_offset 30, -24
	mov	x8, x0
	.loc 1 352 0
	mov	w0, w2
	.loc 1 345 0
	add	x29, sp, 0
	.cfi_def_cfa_register 29
	str	x19, [sp, 16]
	.cfi_offset 19, -16
	.loc 1 345 0
	mov	x19, x1
	.loc 1 352 0
	mov	w1, w3
	bl	get_wf_buf
.LVL34:
	.loc 1 353 0
	ldrb	w1, [x0]
.LVL35:
	.loc 1 355 0
	str	w1, [x8]
	.loc 1 359 0
	lsl	w1, w1, 6
.LVL36:
	bl	decode_wf_data
.LVL37:
	str	x0, [x19]
	.loc 1 363 0
	cmp	x0, 0
	mov	w0, -22
	.loc 1 364 0
	csel	w0, w0, wzr, eq
	ldr	x19, [sp, 16]
	ldp	x29, x30, [sp], 32
	.cfi_restore 30
	.cfi_restore 29
	.cfi_restore 19
	.cfi_def_cfa 31, 0
	ret
	.cfi_endproc
.LFE1567:
	.size	parse_wf_gray16.isra.3, .-parse_wf_gray16.isra.3
	.align	2
	.p2align 3,,7
	.global	rkf_wf_input
	.type	rkf_wf_input, %function
rkf_wf_input:
.LFB1550:
	.loc 1 128 0
	.cfi_startproc
.LVL38:
	stp	x29, x30, [sp, -64]!
	.cfi_def_cfa_offset 64
	.cfi_offset 29, -64
	.cfi_offset 30, -56
	add	x29, sp, 0
	.cfi_def_cfa_register 29
	stp	x23, x24, [sp, 48]
	.cfi_offset 23, -16
	.cfi_offset 24, -8
	.loc 1 132 0
	adrp	x23, .LANCHOR0
	.loc 1 128 0
	stp	x19, x20, [sp, 16]
	.cfi_offset 19, -48
	.cfi_offset 20, -40
	.loc 1 133 0
	mov	w19, -16
	.loc 1 132 0
	ldr	x1, [x23, #:lo12:.LANCHOR0]
	.loc 1 128 0
	stp	x21, x22, [sp, 32]
	.cfi_offset 21, -32
	.cfi_offset 22, -24
	.loc 1 132 0
	cbnz	x1, .L33
	mov	x21, x0
.LBB175:
.LBB176:
	.loc 1 93 0
	adrp	x1, .LC0
	mov	x2, 12
	add	x1, x1, :lo12:.LC0
	add	x0, x0, 4
.LVL39:
	bl	strncmp
.LVL40:
	mov	w19, w0
	cbnz	w0, .L53
.LBE176:
.LBE175:
.LBB178:
.LBB179:
	.loc 1 106 0
	ldr	w22, [x21]
	cmp	w22, 262144
	bgt	.L43
	add	x20, x23, :lo12:.LANCHOR0
	.loc 1 109 0
	ldr	w24, [x21, w22, sxtw]
.LBB180:
.LBB181:
	.loc 1 83 0
	add	x20, x20, 8
	mov	x2, 1024
	mov	w1, 0
	mov	x0, x20
	bl	memset
.LVL41:
.LBB182:
.LBB183:
	.loc 1 69 0
	mov	w5, 3511
	.loc 1 74 0
	mov	x7, x20
.LBE183:
.LBE182:
	.loc 1 83 0
	mov	x6, 0
.LBB186:
.LBB184:
	.loc 1 69 0
	movk	w5, 0x4c1, lsl 16
.LVL42:
	.p2align 2
.L39:
	lsl	w1, w6, 22
.LBE184:
.LBE186:
	.loc 1 83 0
	mov	w2, 8
.LBB187:
.LBB185:
	.loc 1 66 0
	mov	w0, 0
	.p2align 2
.L38:
	.loc 1 68 0
	eor	w4, w1, w0
	.loc 1 69 0
	eor	w3, w5, w0, lsl 1
	cmp	w4, 0
	lsl	w0, w0, 1
.LVL43:
	csel	w0, w0, w3, ge
.LVL44:
	.loc 1 72 0
	lsl	w1, w1, 1
	.loc 1 67 0
	subs	w2, w2, #1
	bne	.L38
	.loc 1 74 0
	str	w0, [x6, x7]
	add	x6, x6, 4
	.loc 1 64 0
	cmp	x6, 1024
	bne	.L39
.LBE185:
.LBE187:
	.loc 1 85 0
	cbz	w22, .L40
	.loc 1 86 0
	add	x3, x23, :lo12:.LANCHOR0
	.loc 1 85 0
	mov	x1, 0
.LVL45:
	.loc 1 86 0
	add	x3, x3, 8
	.p2align 2
.L41:
	ldrb	w0, [x21, x1]
.LVL46:
	add	x1, x1, 1
	.loc 1 85 0
	cmp	w22, w1
	.loc 1 86 0
	eor	w0, w0, w2, lsr 24
	ldr	w0, [x3, x0, lsl 2]
	eor	w2, w0, w2, lsl 8
	.loc 1 85 0
	bhi	.L41
.LVL47:
.L40:
.LBE181:
.LBE180:
	.loc 1 112 0
	cmp	w24, w2
	bne	.L54
.LBE179:
.LBE178:
	.loc 1 147 0
	adrp	x0, .LC5
.LVL48:
	add	x1, x21, 20
.LVL49:
	add	x0, x0, :lo12:.LC5
	bl	printk
.LVL50:
	.loc 1 149 0
	str	x21, [x23, #:lo12:.LANCHOR0]
.L33:
	.loc 1 152 0
	mov	w0, w19
	ldp	x19, x20, [sp, 16]
	ldp	x21, x22, [sp, 32]
.LVL51:
	ldp	x23, x24, [sp, 48]
.LVL52:
	ldp	x29, x30, [sp], 64
	.cfi_remember_state
	.cfi_restore 30
	.cfi_restore 29
	.cfi_restore 23
	.cfi_restore 24
	.cfi_restore 21
	.cfi_restore 22
	.cfi_restore 19
	.cfi_restore 20
	.cfi_def_cfa 31, 0
	ret
.LVL53:
.L54:
	.cfi_restore_state
.LBB189:
.LBB188:
	.loc 1 113 0
	adrp	x0, .LC3
.LVL54:
	mov	w1, w24
.LVL55:
	add	x0, x0, :lo12:.LC3
	bl	printk
.LVL56:
.L43:
.LBE188:
.LBE189:
	.loc 1 144 0
	mov	w19, -1
	.loc 1 143 0
	adrp	x0, .LC4
	add	x0, x0, :lo12:.LC4
	bl	printk
.LVL57:
	.loc 1 152 0
	mov	w0, w19
	ldp	x19, x20, [sp, 16]
	ldp	x21, x22, [sp, 32]
.LVL58:
	ldp	x23, x24, [sp, 48]
.LVL59:
	ldp	x29, x30, [sp], 64
	.cfi_remember_state
	.cfi_restore 20
	.cfi_restore 19
	.cfi_restore 22
	.cfi_restore 21
	.cfi_restore 24
	.cfi_restore 23
	.cfi_restore 29
	.cfi_restore 30
	.cfi_def_cfa 31, 0
	ret
.LVL60:
.L53:
	.cfi_restore_state
.LBB190:
.LBB177:
	.loc 1 96 0
	adrp	x0, .LC1
	add	x0, x0, :lo12:.LC1
	bl	printk
.LVL61:
.LBE177:
.LBE190:
	.loc 1 138 0
	mov	w19, -1
	.loc 1 137 0
	adrp	x0, .LC2
	add	x0, x0, :lo12:.LC2
	bl	printk
.LVL62:
	.loc 1 138 0
	b	.L33
	.cfi_endproc
.LFE1550:
	.size	rkf_wf_input, .-rkf_wf_input
	.align	2
	.p2align 3,,7
	.global	rkf_wf_get_version
	.type	rkf_wf_get_version, %function
rkf_wf_get_version:
.LFB1551:
	.loc 1 161 0
	.cfi_startproc
	.loc 1 162 0
	adrp	x0, .LANCHOR0
	ldr	x1, [x0, #:lo12:.LANCHOR0]
	.loc 1 165 0
	add	x0, x1, 84
	cmp	x1, 0
	.loc 1 166 0
	csel	x0, x0, xzr, ne
	ret
	.cfi_endproc
.LFE1551:
	.size	rkf_wf_get_version, .-rkf_wf_get_version
	.align	2
	.p2align 3,,7
	.global	rkf_wf_get_lut
	.type	rkf_wf_get_lut, %function
rkf_wf_get_lut:
.LFB1563:
	.loc 1 459 0
	.cfi_startproc
.LVL63:
	.loc 1 464 0
	adrp	x3, .LANCHOR0
	ldr	x3, [x3, #:lo12:.LANCHOR0]
	cbz	x3, .L85
	.loc 1 467 0
	cbz	x0, .L86
	.loc 1 459 0
	stp	x29, x30, [sp, -48]!
	.cfi_def_cfa_offset 48
	.cfi_offset 29, -48
	.cfi_offset 30, -40
	add	x29, sp, 0
	.cfi_def_cfa_register 29
	stp	x21, x22, [sp, 32]
	.cfi_offset 21, -16
	.cfi_offset 22, -8
	.loc 1 471 0
	adrp	x21, .LANCHOR1
	.loc 1 459 0
	stp	x19, x20, [sp, 16]
	.cfi_offset 19, -32
	.cfi_offset 20, -24
	.loc 1 471 0
	add	x4, x21, :lo12:.LANCHOR1
	ldr	w3, [x21, #:lo12:.LANCHOR1]
	cmp	w3, w2
	beq	.L129
.L60:
	mov	w20, w1
	.loc 1 474 0
	add	x1, x21, :lo12:.LANCHOR1
.LVL64:
	mov	x19, x0
	.loc 1 478 0
	ldr	x0, [x0, 8]
.LVL65:
	.loc 1 474 0
	str	w2, [x21, #:lo12:.LANCHOR1]
	.loc 1 475 0
	str	w20, [x1, 4]
	.loc 1 478 0
	cbz	x0, .L61
	.loc 1 479 0
	bl	kfree
.LVL66:
	.loc 1 480 0
	str	xzr, [x19, 8]
.LVL67:
.L61:
	.loc 1 483 0
	cmp	w20, 2
	beq	.L66
	.loc 1 486 0
	cmp	w20, 11
	beq	.L63
	.loc 1 490 0
	cmp	w20, 6
	beq	.L64
	bhi	.L65
	cmp	w20, 3
	beq	.L66
	bls	.L130
	cmp	w20, 4
	beq	.L69
	cmp	w20, 5
	bne	.L125
	.loc 1 534 0
	ldr	w20, [x21, #:lo12:.LANCHOR1]
.LVL68:
.LBB229:
.LBB230:
	.loc 1 395 0
	mov	w1, 2
	mov	w0, w20
	bl	get_wf_buf
.LVL69:
	.loc 1 396 0
	ldrb	w1, [x0]
	.loc 1 398 0
	str	w1, [x19]
	.loc 1 402 0
	lsl	w1, w1, 6
	bl	decode_wf_data
.LVL70:
	str	x0, [x19, 8]
	.loc 1 403 0
	cbz	x0, .L125
	.loc 1 408 0
	mov	w1, 1
	mov	w0, w20
	bl	get_wf_buf
.LVL71:
.LBB231:
.LBB232:
	.loc 1 240 0
	ldrb	w20, [x0]
.LBE232:
.LBE231:
	.loc 1 411 0
	ldr	w1, [x19]
	orr	w1, w1, w20, lsl 8
	str	w1, [x19]
	.loc 1 416 0
	lsl	w1, w20, 6
	bl	decode_wf_data
.LVL72:
	.loc 1 417 0
	cbz	x0, .L125
.LBB233:
.LBB234:
	.loc 1 300 0
	mov	x5, x0
.LVL73:
	mov	w6, 0
.LVL74:
	ldr	x4, [x19, 8]
.LVL75:
	cbz	w20, .L127
.L105:
	mov	x1, 0
	.p2align 2
.L82:
	.loc 1 302 0
	ldr	w2, [x5, x1]
	.loc 1 304 0
	ldr	w3, [x4, x1]
	.loc 1 303 0
	and	w2, w2, -1073741821
	.loc 1 305 0
	and	w3, w3, 1073741820
	.loc 1 307 0
	orr	w2, w2, w3
	str	w2, [x4, x1]
	add	x1, x1, 4
	.loc 1 301 0
	cmp	x1, 64
	bne	.L82
	.loc 1 300 0
	add	w6, w6, 1
	add	x5, x5, 64
	add	x4, x4, 64
	cmp	w20, w6
	bne	.L105
.L127:
.LBE234:
.LBE233:
.LBE230:
.LBE229:
.LBB235:
.LBB236:
	.loc 1 341 0
	bl	kfree
.LVL76:
.L124:
.LBE236:
.LBE235:
	.loc 1 549 0
	mov	w0, 0
.LVL77:
.L131:
	.loc 1 550 0
	ldp	x19, x20, [sp, 16]
.LVL78:
	ldp	x21, x22, [sp, 32]
.LVL79:
	ldp	x29, x30, [sp], 48
	.cfi_remember_state
	.cfi_restore 20
	.cfi_restore 19
	.cfi_restore 22
	.cfi_restore 21
	.cfi_restore 29
	.cfi_restore 30
	.cfi_def_cfa 31, 0
	ret
.LVL80:
.L66:
	.cfi_restore_state
	.loc 1 522 0
	ldr	w2, [x21, #:lo12:.LANCHOR1]
.LVL81:
	mov	w3, 2
.L126:
	.loc 1 504 0
	add	x1, x19, 8
	mov	x0, x19
	bl	parse_wf_gray16.isra.3
.LVL82:
	.loc 1 505 0
	cmp	w0, 0
	csetm	w0, ne
.LVL83:
.L58:
	.loc 1 550 0
	ldp	x19, x20, [sp, 16]
.LVL84:
	ldp	x21, x22, [sp, 32]
.LVL85:
	ldp	x29, x30, [sp], 48
	.cfi_remember_state
	.cfi_restore 30
	.cfi_restore 29
	.cfi_restore 21
	.cfi_restore 22
	.cfi_restore 19
	.cfi_restore 20
	.cfi_def_cfa 31, 0
	ret
.LVL86:
.L129:
	.cfi_restore_state
	.loc 1 471 0 discriminator 1
	ldr	w3, [x4, 4]
	cmp	w3, w1
	bne	.L60
	.loc 1 549 0
	mov	w0, 0
.LVL87:
	b	.L131
.LVL88:
.L63:
	.loc 1 510 0
	ldr	w2, [x21, #:lo12:.LANCHOR1]
.LVL89:
	mov	w3, 4
	b	.L126
.LVL90:
.L65:
	.loc 1 490 0
	cmp	w20, 8
	beq	.L71
	bcc	.L66
	cmp	w20, 9
	beq	.L63
	cmp	w20, 10
	bne	.L125
	.loc 1 516 0
	ldr	w2, [x21, #:lo12:.LANCHOR1]
.LVL91:
	mov	w3, 5
	b	.L126
.LVL92:
.L69:
.LBB244:
.LBB245:
	.loc 1 373 0
	ldr	w0, [x21, #:lo12:.LANCHOR1]
	mov	w1, 1
	bl	get_wf_buf
.LVL93:
	.loc 1 374 0
	ldrb	w20, [x0]
.LVL94:
	.loc 1 378 0
	lsl	w1, w20, 6
	bl	decode_wf_data
.LVL95:
	str	x0, [x19, 8]
	.loc 1 379 0
	cbz	x0, .L125
	.loc 1 382 0
	str	w20, [x19]
.LBE245:
.LBE244:
	.loc 1 549 0
	mov	w0, 0
	.loc 1 550 0
	ldp	x19, x20, [sp, 16]
.LVL96:
	ldp	x21, x22, [sp, 32]
	ldp	x29, x30, [sp], 48
	.cfi_remember_state
	.cfi_restore 20
	.cfi_restore 19
	.cfi_restore 22
	.cfi_restore 21
	.cfi_restore 29
	.cfi_restore 30
	.cfi_def_cfa 31, 0
	ret
.LVL97:
.L71:
	.cfi_restore_state
	.loc 1 504 0
	ldr	w2, [x21, #:lo12:.LANCHOR1]
.LVL98:
	mov	w3, 3
	b	.L126
.LVL99:
.L64:
.LBB246:
.LBB247:
	.loc 1 434 0
	ldr	w0, [x21, #:lo12:.LANCHOR1]
	mov	w1, w20
	bl	get_wf_buf
.LVL100:
	.loc 1 435 0
	ldrb	w1, [x0]
.LVL101:
	.loc 1 437 0
	str	w1, [x19]
	.loc 1 441 0
	lsl	w1, w1, 6
.LVL102:
	bl	decode_wf_data
.LVL103:
	str	x0, [x19, 8]
	.loc 1 442 0
	cmp	x0, 0
	csetm	w0, eq
.LBE247:
.LBE246:
	.loc 1 550 0
	ldp	x19, x20, [sp, 16]
.LVL104:
	ldp	x21, x22, [sp, 32]
	ldp	x29, x30, [sp], 48
	.cfi_remember_state
	.cfi_restore 20
	.cfi_restore 19
	.cfi_restore 22
	.cfi_restore 21
	.cfi_restore 29
	.cfi_restore 30
	.cfi_def_cfa 31, 0
	ret
.LVL105:
.L130:
	.cfi_restore_state
	.loc 1 490 0
	cmp	w20, 1
	bne	.L125
.LBB248:
.LBB243:
	.loc 1 322 0
	ldr	w0, [x21, #:lo12:.LANCHOR1]
	mov	w1, 0
	bl	get_wf_buf
.LVL106:
	.loc 1 323 0
	ldrb	w22, [x0]
.LVL107:
	.loc 1 326 0
	add	w20, w22, 15
.LVL108:
	lsr	w20, w20, 4
	.loc 1 327 0
	lsl	w1, w20, 2
	bl	decode_wf_data
.LVL109:
	mov	x21, x0
	.loc 1 328 0
	cbz	x0, .L125
	.loc 1 332 0
	str	w22, [x19]
.LBB237:
.LBB238:
.LBB239:
.LBB240:
.LBB241:
	.loc 2 553 0
	mov	w1, 32960
	movk	w1, 0x60, lsl 16
	ubfiz	x0, x20, 10, 5
	bl	__kmalloc
.LVL110:
.LBE241:
.LBE240:
.LBE239:
	.loc 1 269 0
	cbz	x0, .L74
	.loc 1 272 0
	cbz	w20, .L75
	mov	x8, 0
.LVL111:
.L79:
	.loc 1 273 0
	ldr	w7, [x21, x8, lsl 2]
.LVL112:
	lsl	w1, w8, 8
	mov	w6, 0
.LVL113:
	.p2align 2
.L78:
.LBB242:
	.loc 1 275 0
	asr	w5, w7, w6
.LVL114:
	and	w5, w5, 3
.LVL115:
	.loc 1 276 0
	mov	w3, w5
	.loc 1 275 0
	mov	w2, 0
	.p2align 2
.L76:
	.loc 1 279 0
	lsl	w4, w5, w2
	add	w2, w2, 2
	orr	w3, w3, w4
	.loc 1 278 0
	cmp	w2, 32
	bne	.L76
	add	w2, w1, 16
	.p2align 2
.L77:
	.loc 1 282 0
	str	w3, [x0, w1, sxtw 2]
	.loc 1 281 0
	add	w1, w1, 1
	cmp	w1, w2
	bne	.L77
	add	w6, w6, 2
.LBE242:
	.loc 1 274 0
	cmp	w6, 32
	bne	.L78
	add	x8, x8, 1
	.loc 1 272 0
	cmp	w20, w8
	bgt	.L79
.L75:
.LBE238:
.LBE237:
	.loc 1 335 0
	str	x0, [x19, 8]
	.loc 1 341 0
	mov	x0, x21
	bl	kfree
.LVL116:
	b	.L124
.L74:
	.loc 1 335 0
	str	xzr, [x19, 8]
	.loc 1 337 0
	mov	x0, x21
	bl	kfree
.LVL117:
.L125:
.LBE243:
.LBE248:
	.loc 1 494 0
	mov	w0, -1
	b	.L58
.LVL118:
.L86:
	.cfi_def_cfa 31, 0
	.cfi_restore 19
	.cfi_restore 20
	.cfi_restore 21
	.cfi_restore 22
	.cfi_restore 29
	.cfi_restore 30
	.loc 1 468 0
	mov	w0, -22
.LVL119:
	ret
.LVL120:
.L85:
	.loc 1 465 0
	mov	w0, -19
.LVL121:
	ret
	.cfi_endproc
.LFE1563:
	.size	rkf_wf_get_lut, .-rkf_wf_get_lut
	.data
	.align	2
	.set	.LANCHOR1,. + 0
	.type	sftemp.16952, %object
	.size	sftemp.16952, 4
sftemp.16952:
	.word	-1
	.type	stype.16951, %object
	.size	stype.16951, 4
stype.16951:
	.word	12
	.bss
	.align	3
	.set	.LANCHOR0,. + 0
	.type	global_waveform, %object
	.size	global_waveform, 8
global_waveform:
	.zero	8
	.type	crc32_table, %object
	.size	crc32_table, 1024
crc32_table:
	.zero	1024
	.section	.rodata.str1.8,"aMS",@progbits,1
	.align	3
.LC0:
	.string	"rkf waveform"
	.zero	3
.LC1:
	.string	"rkf: check format failed\n"
	.zero	6
.LC2:
	.string	"rkf: failed to check RKF file format\n"
	.zero	2
.LC3:
	.string	"[EINK]: waveform crc err readcrc = %x crccheck = %x\n"
	.zero	3
.LC4:
	.string	"rkf: failed to check crc RKF waveform\n"
	.zero	1
.LC5:
	.string	"rkf file version: %s\n"
	.text
.Letext0:
	.file 3 "./include/uapi/asm-generic/int-ll64.h"
	.file 4 "./include/asm-generic/int-ll64.h"
	.file 5 "./include/uapi/asm-generic/posix_types.h"
	.file 6 "./include/uapi/linux/types.h"
	.file 7 "./include/linux/types.h"
	.file 8 "./include/linux/ioport.h"
	.file 9 "./arch/arm64/include/asm/insn.h"
	.file 10 "./include/linux/init.h"
	.file 11 "./arch/arm64/include/asm/alternative.h"
	.file 12 "./include/asm-generic/atomic-long.h"
	.file 13 "./arch/arm64/include/asm/cache.h"
	.file 14 "./include/linux/printk.h"
	.file 15 "./include/linux/kernel.h"
	.file 16 "./include/linux/notifier.h"
	.file 17 "./include/asm-generic/qspinlock_types.h"
	.file 18 "./include/linux/lockdep.h"
	.file 19 "./include/linux/spinlock_types.h"
	.file 20 "./arch/arm64/include/asm/hwcap.h"
	.file 21 "./include/linux/jump_label.h"
	.file 22 "./arch/arm64/include/asm/jump_label.h"
	.file 23 "./arch/arm64/include/asm/cpufeature.h"
	.file 24 "./arch/arm64/include/uapi/asm/ptrace.h"
	.file 25 "./include/asm-generic/sections.h"
	.file 26 "./arch/arm64/include/asm/sections.h"
	.file 27 "./arch/arm64/include/asm/virt.h"
	.file 28 "./arch/arm64/include/asm/memory.h"
	.file 29 "./arch/arm64/include/asm/processor.h"
	.file 30 "./arch/arm64/include/asm/fpsimd.h"
	.file 31 "./include/linux/osq_lock.h"
	.file 32 "./include/linux/debug_locks.h"
	.file 33 "./include/linux/mutex.h"
	.file 34 "./include/linux/sched.h"
	.file 35 "./include/uapi/linux/time.h"
	.file 36 "./include/linux/restart_block.h"
	.file 37 "./include/linux/compat_time.h"
	.file 38 "./arch/arm64/include/asm/stack_pointer.h"
	.file 39 "./arch/arm64/include/asm/thread_info.h"
	.file 40 "./include/linux/cpumask.h"
	.file 41 "./include/linux/rcupdate.h"
	.file 42 "./include/linux/radix-tree.h"
	.file 43 "./include/linux/sched/debug.h"
	.file 44 "./include/linux/wait.h"
	.file 45 "./include/linux/seqlock.h"
	.file 46 "./include/linux/nodemask.h"
	.file 47 "./include/linux/mmzone.h"
	.file 48 "./include/uapi/linux/personality.h"
	.file 49 "./include/linux/rwsem.h"
	.file 50 "./include/linux/time.h"
	.file 51 "./include/linux/llist.h"
	.file 52 "./include/linux/smp.h"
	.file 53 "./include/asm-generic/percpu.h"
	.file 54 "./arch/arm64/include/asm/smp.h"
	.file 55 "./include/clocksource/arm_arch_timer.h"
	.file 56 "./arch/arm64/include/asm/arch_timer.h"
	.file 57 "./include/linux/timex.h"
	.file 58 "./include/linux/jiffies.h"
	.file 59 "./include/linux/ktime.h"
	.file 60 "./include/linux/timekeeping.h"
	.file 61 "./include/linux/timer.h"
	.file 62 "./include/linux/workqueue.h"
	.file 63 "./include/linux/completion.h"
	.file 64 "./include/linux/percpu.h"
	.file 65 "./arch/arm64/include/asm/topology.h"
	.file 66 "./include/linux/arch_topology.h"
	.file 67 "./include/linux/gfp.h"
	.file 68 "./include/linux/idr.h"
	.file 69 "./include/linux/rbtree.h"
	.file 70 "./include/linux/highuid.h"
	.file 71 "./include/linux/uidgid.h"
	.file 72 "./include/linux/kernfs.h"
	.file 73 "./include/linux/kobject_ns.h"
	.file 74 "./include/linux/pid.h"
	.file 75 "./include/linux/refcount.h"
	.file 76 "./include/linux/plist.h"
	.file 77 "./include/linux/timerqueue.h"
	.file 78 "./include/linux/hrtimer.h"
	.file 79 "./include/linux/seccomp.h"
	.file 80 "./include/uapi/asm-generic/signal.h"
	.file 81 "./include/uapi/asm-generic/siginfo.h"
	.file 82 "./include/linux/signal_types.h"
	.file 83 "./include/linux/mm_types_task.h"
	.file 84 "./include/linux/task_io_accounting.h"
	.file 85 "./include/uapi/linux/rseq.h"
	.file 86 "./include/linux/sysfs.h"
	.file 87 "./include/linux/kobject.h"
	.file 88 "./include/linux/kref.h"
	.file 89 "./include/linux/klist.h"
	.file 90 "./include/linux/pm.h"
	.file 91 "./include/linux/device.h"
	.file 92 "./include/linux/pm_wakeup.h"
	.file 93 "./include/linux/ratelimit.h"
	.file 94 "./arch/arm64/include/asm/device.h"
	.file 95 "drivers/gpu/drm/rockchip/ebc-dev/epdlut/epd_lut.h"
	.file 96 "./include/asm-generic/getorder.h"
	.file 97 "./include/linux/log2.h"
	.file 98 "./include/asm-generic/bitops/fls64.h"
	.file 99 "./include/asm-generic/bitops/builtin-__fls.h"
	.file 100 "./arch/arm64/include/asm/string.h"
	.section	.note.GNU-stack,"",@progbits
