{'import_export': 'EXP', 'is_defined': True, 'name': '_ZNKSt12bad_any_cast4whatEv', 'storage_mapping_class': 'DS', 'type': 'FUNC'}
{'import_export': 'EXP', 'is_defined': True, 'name': '_ZNKSt12experimental15fundamentals_v112bad_any_cast4whatEv', 'storage_mapping_class': 'DS', 'type': 'FUNC'}
{'import_export': 'EXP', 'is_defined': True, 'name': '_ZNKSt16nested_exception14rethrow_nestedEv', 'storage_mapping_class': 'DS', 'type': 'FUNC'}
{'import_export': 'EXP', 'is_defined': True, 'name': '_ZNKSt18bad_variant_access4whatEv', 'storage_mapping_class': 'DS', 'type': 'FUNC'}
{'import_export': 'EXP', 'is_defined': True, 'name': '_ZNKSt19bad_optional_access4whatEv', 'storage_mapping_class': 'DS', 'type': 'FUNC'}
{'import_export': 'EXP', 'is_defined': True, 'name': '_ZNKSt3__110__time_put8__do_putEPcRS1_PK2tmcc', 'storage_mapping_class': 'DS', 'type': 'FUNC'}
{'import_export': 'EXP', 'is_defined': True, 'name': '_ZNKSt3__110__time_put8__do_putEPwRS1_PK2tmcc', 'storage_mapping_class': 'DS', 'type': 'FUNC'}
{'import_export': 'EXP', 'is_defined': True, 'name': '_ZNKSt3__110error_code7messageEv', 'storage_mapping_class': 'DS', 'type': 'FUNC'}
{'import_export': 'EXP', 'is_defined': True, 'name': '_ZNKSt3__112bad_weak_ptr4whatEv', 'storage_mapping_class': 'DS', 'type': 'FUNC'}
{'import_export': 'EXP', 'is_defined': True, 'name': '_ZNKSt3__112ctype_bynameIcE10do_tolowerEPcPKc', 'storage_mapping_class': 'DS', 'type': 'FUNC'}
{'import_export': 'EXP', 'is_defined': True, 'name': '_ZNKSt3__112ctype_bynameIcE10do_tolowerEc', 'storage_mapping_class': 'DS', 'type': 'FUNC'}
{'import_export': 'EXP', 'is_defined': True, 'name': '_ZNKSt3__112ctype_bynameIcE10do_toupperEPcPKc', 'storage_mapping_class': 'DS', 'type': 'FUNC'}
{'import_export': 'EXP', 'is_defined': True, 'name': '_ZNKSt3__112ctype_bynameIcE10do_toupperEc', 'storage_mapping_class': 'DS', 'type': 'FUNC'}
{'import_export': 'EXP', 'is_defined': True, 'name': '_ZNKSt3__112ctype_bynameIwE10do_scan_isEjPKwS3_', 'storage_mapping_class': 'DS', 'type': 'FUNC'}
{'import_export': 'EXP', 'is_defined': True, 'name': '_ZNKSt3__112ctype_bynameIwE10do_tolowerEPwPKw', 'storage_mapping_class': 'DS', 'type': 'FUNC'}
{'import_export': 'EXP', 'is_defined': True, 'name': '_ZNKSt3__112ctype_bynameIwE10do_tolowerEw', 'storage_mapping_class': 'DS', 'type': 'FUNC'}
{'import_export': 'EXP', 'is_defined': True, 'name': '_ZNKSt3__112ctype_bynameIwE10do_toupperEPwPKw', 'storage_mapping_class': 'DS', 'type': 'FUNC'}
{'import_export': 'EXP', 'is_defined': True, 'name': '_ZNKSt3__112ctype_bynameIwE10do_toupperEw', 'storage_mapping_class': 'DS', 'type': 'FUNC'}
{'import_export': 'EXP', 'is_defined': True, 'name': '_ZNKSt3__112ctype_bynameIwE11do_scan_notEjPKwS3_', 'storage_mapping_class': 'DS', 'type': 'FUNC'}
{'import_export': 'EXP', 'is_defined': True, 'name': '_ZNKSt3__112ctype_bynameIwE5do_isEPKwS3_Pj', 'storage_mapping_class': 'DS', 'type': 'FUNC'}
{'import_export': 'EXP', 'is_defined': True, 'name': '_ZNKSt3__112ctype_bynameIwE5do_isEjw', 'storage_mapping_class': 'DS', 'type': 'FUNC'}
{'import_export': 'EXP', 'is_defined': True, 'name': '_ZNKSt3__112ctype_bynameIwE8do_widenEPKcS3_Pw', 'storage_mapping_class': 'DS', 'type': 'FUNC'}
{'import_export': 'EXP', 'is_defined': True, 'name': '_ZNKSt3__112ctype_bynameIwE8do_widenEc', 'storage_mapping_class': 'DS', 'type': 'FUNC'}
{'import_export': 'EXP', 'is_defined': True, 'name': '_ZNKSt3__112ctype_bynameIwE9do_narrowEPKwS3_cPc', 'storage_mapping_class': 'DS', 'type': 'FUNC'}
{'import_export': 'EXP', 'is_defined': True, 'name': '_ZNKSt3__112ctype_bynameIwE9do_narrowEwc', 'storage_mapping_class': 'DS', 'type': 'FUNC'}
{'import_export': 'EXP', 'is_defined': True, 'name': '_ZNKSt3__112strstreambuf6pcountEv', 'storage_mapping_class': 'DS', 'type': 'FUNC'}
{'import_export': 'EXP', 'is_defined': True, 'name': '_ZNKSt3__113random_device7entropyEv', 'storage_mapping_class': 'DS', 'type': 'FUNC'}
{'import_export': 'EXP', 'is_defined': True, 'name': '_ZNKSt3__114__codecvt_utf8IDiE10do_unshiftERPcS2_S2_S3_', 'storage_mapping_class': 'DS', 'type': 'FUNC'}
{'import_export': 'EXP', 'is_defined': True, 'name': '_ZNKSt3__114__codecvt_utf8IDiE11do_encodingEv', 'storage_mapping_class': 'DS', 'type': 'FUNC'}
{'import_export': 'EXP', 'is_defined': True, 'name': '_ZNKSt3__114__codecvt_utf8IDiE13do_max_lengthEv', 'storage_mapping_class': 'DS', 'type': 'FUNC'}
{'import_export': 'EXP', 'is_defined': True, 'name': '_ZNKSt3__114__codecvt_utf8IDiE16do_always_noconvEv', 'storage_mapping_class': 'DS', 'type': 'FUNC'}
{'import_export': 'EXP', 'is_defined': True, 'name': '_ZNKSt3__114__codecvt_utf8IDiE5do_inERPcPKcS5_RS5_PDiS7_RS7_', 'storage_mapping_class': 'DS', 'type': 'FUNC'}
{'import_export': 'EXP', 'is_defined': True, 'name': '_ZNKSt3__114__codecvt_utf8IDiE6do_outERPcPKDiS5_RS5_S2_S2_S3_', 'storage_mapping_class': 'DS', 'type': 'FUNC'}
{'import_export': 'EXP', 'is_defined': True, 'name': '_ZNKSt3__114__codecvt_utf8IDiE9do_lengthERPcPKcS5_m', 'storage_mapping_class': 'DS', 'type': 'FUNC'}
{'import_export': 'EXP', 'is_defined': True, 'name': '_ZNKSt3__114__codecvt_utf8IDsE10do_unshiftERPcS2_S2_S3_', 'storage_mapping_class': 'DS', 'type': 'FUNC'}
{'import_export': 'EXP', 'is_defined': True, 'name': '_ZNKSt3__114__codecvt_utf8IDsE11do_encodingEv', 'storage_mapping_class': 'DS', 'type': 'FUNC'}
{'import_export': 'EXP', 'is_defined': True, 'name': '_ZNKSt3__114__codecvt_utf8IDsE13do_max_lengthEv', 'storage_mapping_class': 'DS', 'type': 'FUNC'}
{'import_export': 'EXP', 'is_defined': True, 'name': '_ZNKSt3__114__codecvt_utf8IDsE16do_always_noconvEv', 'storage_mapping_class': 'DS', 'type': 'FUNC'}
{'import_export': 'EXP', 'is_defined': True, 'name': '_ZNKSt3__114__codecvt_utf8IDsE5do_inERPcPKcS5_RS5_PDsS7_RS7_', 'storage_mapping_class': 'DS', 'type': 'FUNC'}
{'import_export': 'EXP', 'is_defined': True, 'name': '_ZNKSt3__114__codecvt_utf8IDsE6do_outERPcPKDsS5_RS5_S2_S2_S3_', 'storage_mapping_class': 'DS', 'type': 'FUNC'}
{'import_export': 'EXP', 'is_defined': True, 'name': '_ZNKSt3__114__codecvt_utf8IDsE9do_lengthERPcPKcS5_m', 'storage_mapping_class': 'DS', 'type': 'FUNC'}
{'import_export': 'EXP', 'is_defined': True, 'name': '_ZNKSt3__114__codecvt_utf8IwE10do_unshiftERPcS2_S2_S3_', 'storage_mapping_class': 'DS', 'type': 'FUNC'}
{'import_export': 'EXP', 'is_defined': True, 'name': '_ZNKSt3__114__codecvt_utf8IwE11do_encodingEv', 'storage_mapping_class': 'DS', 'type': 'FUNC'}
{'import_export': 'EXP', 'is_defined': True, 'name': '_ZNKSt3__114__codecvt_utf8IwE13do_max_lengthEv', 'storage_mapping_class': 'DS', 'type': 'FUNC'}
{'import_export': 'EXP', 'is_defined': True, 'name': '_ZNKSt3__114__codecvt_utf8IwE16do_always_noconvEv', 'storage_mapping_class': 'DS', 'type': 'FUNC'}
{'import_export': 'EXP', 'is_defined': True, 'name': '_ZNKSt3__114__codecvt_utf8IwE5do_inERPcPKcS5_RS5_PwS7_RS7_', 'storage_mapping_class': 'DS', 'type': 'FUNC'}
{'import_export': 'EXP', 'is_defined': True, 'name': '_ZNKSt3__114__codecvt_utf8IwE6do_outERPcPKwS5_RS5_S2_S2_S3_', 'storage_mapping_class': 'DS', 'type': 'FUNC'}
{'import_export': 'EXP', 'is_defined': True, 'name': '_ZNKSt3__114__codecvt_utf8IwE9do_lengthERPcPKcS5_m', 'storage_mapping_class': 'DS', 'type': 'FUNC'}
{'import_export': 'EXP', 'is_defined': True, 'name': '_ZNKSt3__114collate_bynameIcE10do_compareEPKcS3_S3_S3_', 'storage_mapping_class': 'DS', 'type': 'FUNC'}
{'import_export': 'EXP', 'is_defined': True, 'name': '_ZNKSt3__114collate_bynameIcE12do_transformEPKcS3_', 'storage_mapping_class': 'DS', 'type': 'FUNC'}
{'import_export': 'EXP', 'is_defined': True, 'name': '_ZNKSt3__114collate_bynameIwE10do_compareEPKwS3_S3_S3_', 'storage_mapping_class': 'DS', 'type': 'FUNC'}
{'import_export': 'EXP', 'is_defined': True, 'name': '_ZNKSt3__114collate_bynameIwE12do_transformEPKwS3_', 'storage_mapping_class': 'DS', 'type': 'FUNC'}
{'import_export': 'EXP', 'is_defined': True, 'name': '_ZNKSt3__114error_category10equivalentERKNS_10error_codeEi', 'storage_mapping_class': 'DS', 'type': 'FUNC'}
{'import_export': 'EXP', 'is_defined': True, 'name': '_ZNKSt3__114error_category10equivalentEiRKNS_15error_conditionE', 'storage_mapping_class': 'DS', 'type': 'FUNC'}
{'import_export': 'EXP', 'is_defined': True, 'name': '_ZNKSt3__114error_category23default_error_conditionEi', 'storage_mapping_class': 'DS', 'type': 'FUNC'}
{'import_export': 'EXP', 'is_defined': True, 'name': '_ZNKSt3__115__codecvt_utf16IDiLb0EE10do_unshiftERPcS2_S2_S3_', 'storage_mapping_class': 'DS', 'type': 'FUNC'}
{'import_export': 'EXP', 'is_defined': True, 'name': '_ZNKSt3__115__codecvt_utf16IDiLb0EE11do_encodingEv', 'storage_mapping_class': 'DS', 'type': 'FUNC'}
{'import_export': 'EXP', 'is_defined': True, 'name': '_ZNKSt3__115__codecvt_utf16IDiLb0EE13do_max_lengthEv', 'storage_mapping_class': 'DS', 'type': 'FUNC'}
{'import_export': 'EXP', 'is_defined': True, 'name': '_ZNKSt3__115__codecvt_utf16IDiLb0EE16do_always_noconvEv', 'storage_mapping_class': 'DS', 'type': 'FUNC'}
{'import_export': 'EXP', 'is_defined': True, 'name': '_ZNKSt3__115__codecvt_utf16IDiLb0EE5do_inERPcPKcS5_RS5_PDiS7_RS7_', 'storage_mapping_class': 'DS', 'type': 'FUNC'}
{'import_export': 'EXP', 'is_defined': True, 'name': '_ZNKSt3__115__codecvt_utf16IDiLb0EE6do_outERPcPKDiS5_RS5_S2_S2_S3_', 'storage_mapping_class': 'DS', 'type': 'FUNC'}
{'import_export': 'EXP', 'is_defined': True, 'name': '_ZNKSt3__115__codecvt_utf16IDiLb0EE9do_lengthERPcPKcS5_m', 'storage_mapping_class': 'DS', 'type': 'FUNC'}
{'import_export': 'EXP', 'is_defined': True, 'name': '_ZNKSt3__115__codecvt_utf16IDiLb1EE10do_unshiftERPcS2_S2_S3_', 'storage_mapping_class': 'DS', 'type': 'FUNC'}
{'import_export': 'EXP', 'is_defined': True, 'name': '_ZNKSt3__115__codecvt_utf16IDiLb1EE11do_encodingEv', 'storage_mapping_class': 'DS', 'type': 'FUNC'}
{'import_export': 'EXP', 'is_defined': True, 'name': '_ZNKSt3__115__codecvt_utf16IDiLb1EE13do_max_lengthEv', 'storage_mapping_class': 'DS', 'type': 'FUNC'}
{'import_export': 'EXP', 'is_defined': True, 'name': '_ZNKSt3__115__codecvt_utf16IDiLb1EE16do_always_noconvEv', 'storage_mapping_class': 'DS', 'type': 'FUNC'}
{'import_export': 'EXP', 'is_defined': True, 'name': '_ZNKSt3__115__codecvt_utf16IDiLb1EE5do_inERPcPKcS5_RS5_PDiS7_RS7_', 'storage_mapping_class': 'DS', 'type': 'FUNC'}
{'import_export': 'EXP', 'is_defined': True, 'name': '_ZNKSt3__115__codecvt_utf16IDiLb1EE6do_outERPcPKDiS5_RS5_S2_S2_S3_', 'storage_mapping_class': 'DS', 'type': 'FUNC'}
{'import_export': 'EXP', 'is_defined': True, 'name': '_ZNKSt3__115__codecvt_utf16IDiLb1EE9do_lengthERPcPKcS5_m', 'storage_mapping_class': 'DS', 'type': 'FUNC'}
{'import_export': 'EXP', 'is_defined': True, 'name': '_ZNKSt3__115__codecvt_utf16IDsLb0EE10do_unshiftERPcS2_S2_S3_', 'storage_mapping_class': 'DS', 'type': 'FUNC'}
{'import_export': 'EXP', 'is_defined': True, 'name': '_ZNKSt3__115__codecvt_utf16IDsLb0EE11do_encodingEv', 'storage_mapping_class': 'DS', 'type': 'FUNC'}
{'import_export': 'EXP', 'is_defined': True, 'name': '_ZNKSt3__115__codecvt_utf16IDsLb0EE13do_max_lengthEv', 'storage_mapping_class': 'DS', 'type': 'FUNC'}
{'import_export': 'EXP', 'is_defined': True, 'name': '_ZNKSt3__115__codecvt_utf16IDsLb0EE16do_always_noconvEv', 'storage_mapping_class': 'DS', 'type': 'FUNC'}
{'import_export': 'EXP', 'is_defined': True, 'name': '_ZNKSt3__115__codecvt_utf16IDsLb0EE5do_inERPcPKcS5_RS5_PDsS7_RS7_', 'storage_mapping_class': 'DS', 'type': 'FUNC'}
{'import_export': 'EXP', 'is_defined': True, 'name': '_ZNKSt3__115__codecvt_utf16IDsLb0EE6do_outERPcPKDsS5_RS5_S2_S2_S3_', 'storage_mapping_class': 'DS', 'type': 'FUNC'}
{'import_export': 'EXP', 'is_defined': True, 'name': '_ZNKSt3__115__codecvt_utf16IDsLb0EE9do_lengthERPcPKcS5_m', 'storage_mapping_class': 'DS', 'type': 'FUNC'}
{'import_export': 'EXP', 'is_defined': True, 'name': '_ZNKSt3__115__codecvt_utf16IDsLb1EE10do_unshiftERPcS2_S2_S3_', 'storage_mapping_class': 'DS', 'type': 'FUNC'}
{'import_export': 'EXP', 'is_defined': True, 'name': '_ZNKSt3__115__codecvt_utf16IDsLb1EE11do_encodingEv', 'storage_mapping_class': 'DS', 'type': 'FUNC'}
{'import_export': 'EXP', 'is_defined': True, 'name': '_ZNKSt3__115__codecvt_utf16IDsLb1EE13do_max_lengthEv', 'storage_mapping_class': 'DS', 'type': 'FUNC'}
{'import_export': 'EXP', 'is_defined': True, 'name': '_ZNKSt3__115__codecvt_utf16IDsLb1EE16do_always_noconvEv', 'storage_mapping_class': 'DS', 'type': 'FUNC'}
{'import_export': 'EXP', 'is_defined': True, 'name': '_ZNKSt3__115__codecvt_utf16IDsLb1EE5do_inERPcPKcS5_RS5_PDsS7_RS7_', 'storage_mapping_class': 'DS', 'type': 'FUNC'}
{'import_export': 'EXP', 'is_defined': True, 'name': '_ZNKSt3__115__codecvt_utf16IDsLb1EE6do_outERPcPKDsS5_RS5_S2_S2_S3_', 'storage_mapping_class': 'DS', 'type': 'FUNC'}
{'import_export': 'EXP', 'is_defined': True, 'name': '_ZNKSt3__115__codecvt_utf16IDsLb1EE9do_lengthERPcPKcS5_m', 'storage_mapping_class': 'DS', 'type': 'FUNC'}
{'import_export': 'EXP', 'is_defined': True, 'name': '_ZNKSt3__115__codecvt_utf16IwLb0EE10do_unshiftERPcS2_S2_S3_', 'storage_mapping_class': 'DS', 'type': 'FUNC'}
{'import_export': 'EXP', 'is_defined': True, 'name': '_ZNKSt3__115__codecvt_utf16IwLb0EE11do_encodingEv', 'storage_mapping_class': 'DS', 'type': 'FUNC'}
{'import_export': 'EXP', 'is_defined': True, 'name': '_ZNKSt3__115__codecvt_utf16IwLb0EE13do_max_lengthEv', 'storage_mapping_class': 'DS', 'type': 'FUNC'}
{'import_export': 'EXP', 'is_defined': True, 'name': '_ZNKSt3__115__codecvt_utf16IwLb0EE16do_always_noconvEv', 'storage_mapping_class': 'DS', 'type': 'FUNC'}
{'import_export': 'EXP', 'is_defined': True, 'name': '_ZNKSt3__115__codecvt_utf16IwLb0EE5do_inERPcPKcS5_RS5_PwS7_RS7_', 'storage_mapping_class': 'DS', 'type': 'FUNC'}
{'import_export': 'EXP', 'is_defined': True, 'name': '_ZNKSt3__115__codecvt_utf16IwLb0EE6do_outERPcPKwS5_RS5_S2_S2_S3_', 'storage_mapping_class': 'DS', 'type': 'FUNC'}
{'import_export': 'EXP', 'is_defined': True, 'name': '_ZNKSt3__115__codecvt_utf16IwLb0EE9do_lengthERPcPKcS5_m', 'storage_mapping_class': 'DS', 'type': 'FUNC'}
{'import_export': 'EXP', 'is_defined': True, 'name': '_ZNKSt3__115__codecvt_utf16IwLb1EE10do_unshiftERPcS2_S2_S3_', 'storage_mapping_class': 'DS', 'type': 'FUNC'}
{'import_export': 'EXP', 'is_defined': True, 'name': '_ZNKSt3__115__codecvt_utf16IwLb1EE11do_encodingEv', 'storage_mapping_class': 'DS', 'type': 'FUNC'}
{'import_export': 'EXP', 'is_defined': True, 'name': '_ZNKSt3__115__codecvt_utf16IwLb1EE13do_max_lengthEv', 'storage_mapping_class': 'DS', 'type': 'FUNC'}
{'import_export': 'EXP', 'is_defined': True, 'name': '_ZNKSt3__115__codecvt_utf16IwLb1EE16do_always_noconvEv', 'storage_mapping_class': 'DS', 'type': 'FUNC'}
{'import_export': 'EXP', 'is_defined': True, 'name': '_ZNKSt3__115__codecvt_utf16IwLb1EE5do_inERPcPKcS5_RS5_PwS7_RS7_', 'storage_mapping_class': 'DS', 'type': 'FUNC'}
{'import_export': 'EXP', 'is_defined': True, 'name': '_ZNKSt3__115__codecvt_utf16IwLb1EE6do_outERPcPKwS5_RS5_S2_S2_S3_', 'storage_mapping_class': 'DS', 'type': 'FUNC'}
{'import_export': 'EXP', 'is_defined': True, 'name': '_ZNKSt3__115__codecvt_utf16IwLb1EE9do_lengthERPcPKcS5_m', 'storage_mapping_class': 'DS', 'type': 'FUNC'}
{'import_export': 'EXP', 'is_defined': True, 'name': '_ZNKSt3__115error_condition7messageEv', 'storage_mapping_class': 'DS', 'type': 'FUNC'}
{'import_export': 'EXP', 'is_defined': True, 'name': '_ZNKSt3__118__time_get_storageIcE15__do_date_orderEv', 'storage_mapping_class': 'DS', 'type': 'FUNC'}
{'import_export': 'EXP', 'is_defined': True, 'name': '_ZNKSt3__118__time_get_storageIwE15__do_date_orderEv', 'storage_mapping_class': 'DS', 'type': 'FUNC'}
{'import_export': 'EXP', 'is_defined': True, 'name': '_ZNKSt3__119__shared_weak_count13__get_deleterERKSt9type_info', 'storage_mapping_class': 'DS', 'type': 'FUNC'}
{'import_export': 'EXP', 'is_defined': True, 'name': '_ZNKSt3__119bad_expected_accessIvE4whatEv', 'storage_mapping_class': 'DS', 'type': 'FUNC'}
{'import_export': 'EXP', 'is_defined': True, 'name': '_ZNKSt3__120__codecvt_utf8_utf16IDiE10do_unshiftERPcS2_S2_S3_', 'storage_mapping_class': 'DS', 'type': 'FUNC'}
{'import_export': 'EXP', 'is_defined': True, 'name': '_ZNKSt3__120__codecvt_utf8_utf16IDiE11do_encodingEv', 'storage_mapping_class': 'DS', 'type': 'FUNC'}
{'import_export': 'EXP', 'is_defined': True, 'name': '_ZNKSt3__120__codecvt_utf8_utf16IDiE13do_max_lengthEv', 'storage_mapping_class': 'DS', 'type': 'FUNC'}
{'import_export': 'EXP', 'is_defined': True, 'name': '_ZNKSt3__120__codecvt_utf8_utf16IDiE16do_always_noconvEv', 'storage_mapping_class': 'DS', 'type': 'FUNC'}
{'import_export': 'EXP', 'is_defined': True, 'name': '_ZNKSt3__120__codecvt_utf8_utf16IDiE5do_inERPcPKcS5_RS5_PDiS7_RS7_', 'storage_mapping_class': 'DS', 'type': 'FUNC'}
{'import_export': 'EXP', 'is_defined': True, 'name': '_ZNKSt3__120__codecvt_utf8_utf16IDiE6do_outERPcPKDiS5_RS5_S2_S2_S3_', 'storage_mapping_class': 'DS', 'type': 'FUNC'}
{'import_export': 'EXP', 'is_defined': True, 'name': '_ZNKSt3__120__codecvt_utf8_utf16IDiE9do_lengthERPcPKcS5_m', 'storage_mapping_class': 'DS', 'type': 'FUNC'}
{'import_export': 'EXP', 'is_defined': True, 'name': '_ZNKSt3__120__codecvt_utf8_utf16IDsE10do_unshiftERPcS2_S2_S3_', 'storage_mapping_class': 'DS', 'type': 'FUNC'}
{'import_export': 'EXP', 'is_defined': True, 'name': '_ZNKSt3__120__codecvt_utf8_utf16IDsE11do_encodingEv', 'storage_mapping_class': 'DS', 'type': 'FUNC'}
{'import_export': 'EXP', 'is_defined': True, 'name': '_ZNKSt3__120__codecvt_utf8_utf16IDsE13do_max_lengthEv', 'storage_mapping_class': 'DS', 'type': 'FUNC'}
{'import_export': 'EXP', 'is_defined': True, 'name': '_ZNKSt3__120__codecvt_utf8_utf16IDsE16do_always_noconvEv', 'storage_mapping_class': 'DS', 'type': 'FUNC'}
{'import_export': 'EXP', 'is_defined': True, 'name': '_ZNKSt3__120__codecvt_utf8_utf16IDsE5do_inERPcPKcS5_RS5_PDsS7_RS7_', 'storage_mapping_class': 'DS', 'type': 'FUNC'}
{'import_export': 'EXP', 'is_defined': True, 'name': '_ZNKSt3__120__codecvt_utf8_utf16IDsE6do_outERPcPKDsS5_RS5_S2_S2_S3_', 'storage_mapping_class': 'DS', 'type': 'FUNC'}
{'import_export': 'EXP', 'is_defined': True, 'name': '_ZNKSt3__120__codecvt_utf8_utf16IDsE9do_lengthERPcPKcS5_m', 'storage_mapping_class': 'DS', 'type': 'FUNC'}
{'import_export': 'EXP', 'is_defined': True, 'name': '_ZNKSt3__120__codecvt_utf8_utf16IwE10do_unshiftERPcS2_S2_S3_', 'storage_mapping_class': 'DS', 'type': 'FUNC'}
{'import_export': 'EXP', 'is_defined': True, 'name': '_ZNKSt3__120__codecvt_utf8_utf16IwE11do_encodingEv', 'storage_mapping_class': 'DS', 'type': 'FUNC'}
{'import_export': 'EXP', 'is_defined': True, 'name': '_ZNKSt3__120__codecvt_utf8_utf16IwE13do_max_lengthEv', 'storage_mapping_class': 'DS', 'type': 'FUNC'}
{'import_export': 'EXP', 'is_defined': True, 'name': '_ZNKSt3__120__codecvt_utf8_utf16IwE16do_always_noconvEv', 'storage_mapping_class': 'DS', 'type': 'FUNC'}
{'import_export': 'EXP', 'is_defined': True, 'name': '_ZNKSt3__120__codecvt_utf8_utf16IwE5do_inERPcPKcS5_RS5_PwS7_RS7_', 'storage_mapping_class': 'DS', 'type': 'FUNC'}
{'import_export': 'EXP', 'is_defined': True, 'name': '_ZNKSt3__120__codecvt_utf8_utf16IwE6do_outERPcPKwS5_RS5_S2_S2_S3_', 'storage_mapping_class': 'DS', 'type': 'FUNC'}
{'import_export': 'EXP', 'is_defined': True, 'name': '_ZNKSt3__120__codecvt_utf8_utf16IwE9do_lengthERPcPKcS5_m', 'storage_mapping_class': 'DS', 'type': 'FUNC'}
{'import_export': 'EXP', 'is_defined': True, 'name': '_ZNKSt3__120__time_get_c_storageIcE3__XEv', 'storage_mapping_class': 'DS', 'type': 'FUNC'}
{'import_export': 'EXP', 'is_defined': True, 'name': '_ZNKSt3__120__time_get_c_storageIcE3__cEv', 'storage_mapping_class': 'DS', 'type': 'FUNC'}
{'import_export': 'EXP', 'is_defined': True, 'name': '_ZNKSt3__120__time_get_c_storageIcE3__rEv', 'storage_mapping_class': 'DS', 'type': 'FUNC'}
{'import_export': 'EXP', 'is_defined': True, 'name': '_ZNKSt3__120__time_get_c_storageIcE3__xEv', 'storage_mapping_class': 'DS', 'type': 'FUNC'}
{'import_export': 'EXP', 'is_defined': True, 'name': '_ZNKSt3__120__time_get_c_storageIcE7__am_pmEv', 'storage_mapping_class': 'DS', 'type': 'FUNC'}
{'import_export': 'EXP', 'is_defined': True, 'name': '_ZNKSt3__120__time_get_c_storageIcE7__weeksEv', 'storage_mapping_class': 'DS', 'type': 'FUNC'}
{'import_export': 'EXP', 'is_defined': True, 'name': '_ZNKSt3__120__time_get_c_storageIcE8__monthsEv', 'storage_mapping_class': 'DS', 'type': 'FUNC'}
{'import_export': 'EXP', 'is_defined': True, 'name': '_ZNKSt3__120__time_get_c_storageIwE3__XEv', 'storage_mapping_class': 'DS', 'type': 'FUNC'}
{'import_export': 'EXP', 'is_defined': True, 'name': '_ZNKSt3__120__time_get_c_storageIwE3__cEv', 'storage_mapping_class': 'DS', 'type': 'FUNC'}
{'import_export': 'EXP', 'is_defined': True, 'name': '_ZNKSt3__120__time_get_c_storageIwE3__rEv', 'storage_mapping_class': 'DS', 'type': 'FUNC'}
{'import_export': 'EXP', 'is_defined': True, 'name': '_ZNKSt3__120__time_get_c_storageIwE3__xEv', 'storage_mapping_class': 'DS', 'type': 'FUNC'}
{'import_export': 'EXP', 'is_defined': True, 'name': '_ZNKSt3__120__time_get_c_storageIwE7__am_pmEv', 'storage_mapping_class': 'DS', 'type': 'FUNC'}
{'import_export': 'EXP', 'is_defined': True, 'name': '_ZNKSt3__120__time_get_c_storageIwE7__weeksEv', 'storage_mapping_class': 'DS', 'type': 'FUNC'}
{'import_export': 'EXP', 'is_defined': True, 'name': '_ZNKSt3__120__time_get_c_storageIwE8__monthsEv', 'storage_mapping_class': 'DS', 'type': 'FUNC'}
{'import_export': 'EXP', 'is_defined': True, 'name': '_ZNKSt3__120__vector_base_commonILb1EE20__throw_length_errorEv', 'storage_mapping_class': 'DS', 'type': 'FUNC'}
{'import_export': 'EXP', 'is_defined': True, 'name': '_ZNKSt3__120__vector_base_commonILb1EE20__throw_out_of_rangeEv', 'storage_mapping_class': 'DS', 'type': 'FUNC'}
{'import_export': 'EXP', 'is_defined': True, 'name': '_ZNKSt3__121__basic_string_commonILb1EE20__throw_length_errorEv', 'storage_mapping_class': 'DS', 'type': 'FUNC'}
{'import_export': 'EXP', 'is_defined': True, 'name': '_ZNKSt3__121__basic_string_commonILb1EE20__throw_out_of_rangeEv', 'storage_mapping_class': 'DS', 'type': 'FUNC'}
{'import_export': 'EXP', 'is_defined': True, 'name': '_ZNKSt3__123__match_any_but_newlineIcE6__execERNS_7__stateIcEE', 'storage_mapping_class': 'DS', 'type': 'FUNC'}
{'import_export': 'EXP', 'is_defined': True, 'name': '_ZNKSt3__123__match_any_but_newlineIwE6__execERNS_7__stateIwEE', 'storage_mapping_class': 'DS', 'type': 'FUNC'}
{'import_export': 'EXP', 'is_defined': True, 'name': '_ZNKSt3__13pmr26synchronized_pool_resource11do_is_equalERKNS0_15memory_resourceE', 'storage_mapping_class': 'DS', 'type': 'FUNC'}
{'import_export': 'EXP', 'is_defined': True, 'name': '_ZNKSt3__13pmr28unsynchronized_pool_resource12__pool_indexEmm', 'storage_mapping_class': 'DS', 'type': 'FUNC'}
{'import_export': 'EXP', 'is_defined': True, 'name': '_ZNKSt3__13pmr28unsynchronized_pool_resource17__pool_block_sizeEi', 'storage_mapping_class': 'DS', 'type': 'FUNC'}
{'import_export': 'EXP', 'is_defined': True, 'name': '_ZNKSt3__13pmr28unsynchronized_pool_resource22__log2_pool_block_sizeEi', 'storage_mapping_class': 'DS', 'type': 'FUNC'}
{'import_export': 'EXP', 'is_defined': True, 'name': '_ZNKSt3__13pmr28unsynchronized_pool_resource7optionsEv', 'storage_mapping_class': 'DS', 'type': 'FUNC'}
{'import_export': 'EXP', 'is_defined': True, 'name': '_ZNKSt3__14__fs10filesystem18directory_iterator13__dereferenceEv', 'storage_mapping_class': 'DS', 'type': 'FUNC'}
{'import_export': 'EXP', 'is_defined': True, 'name': '_ZNKSt3__14__fs10filesystem28recursive_directory_iterator13__dereferenceEv', 'storage_mapping_class': 'DS', 'type': 'FUNC'}
{'import_export': 'EXP', 'is_defined': True, 'name': '_ZNKSt3__14__fs10filesystem28recursive_directory_iterator5depthEv', 'storage_mapping_class': 'DS', 'type': 'FUNC'}
{'import_export': 'EXP', 'is_defined': True, 'name': '_ZNKSt3__14__fs10filesystem28recursive_directory_iterator7optionsEv', 'storage_mapping_class': 'DS', 'type': 'FUNC'}
{'import_export': 'EXP', 'is_defined': True, 'name': '_ZNKSt3__14__fs10filesystem4path10__filenameEv', 'storage_mapping_class': 'DS', 'type': 'FUNC'}
{'import_export': 'EXP', 'is_defined': True, 'name': '_ZNKSt3__14__fs10filesystem4path11__extensionEv', 'storage_mapping_class': 'DS', 'type': 'FUNC'}
{'import_export': 'EXP', 'is_defined': True, 'name': '_ZNKSt3__14__fs10filesystem4path11__root_nameEv', 'storage_mapping_class': 'DS', 'type': 'FUNC'}
{'import_export': 'EXP', 'is_defined': True, 'name': '_ZNKSt3__14__fs10filesystem4path13__parent_pathEv', 'storage_mapping_class': 'DS', 'type': 'FUNC'}
{'import_export': 'EXP', 'is_defined': True, 'name': '_ZNKSt3__14__fs10filesystem4path15__relative_pathEv', 'storage_mapping_class': 'DS', 'type': 'FUNC'}
{'import_export': 'EXP', 'is_defined': True, 'name': '_ZNKSt3__14__fs10filesystem4path15__root_path_rawEv', 'storage_mapping_class': 'DS', 'type': 'FUNC'}
{'import_export': 'EXP', 'is_defined': True, 'name': '_ZNKSt3__14__fs10filesystem4path16__root_directoryEv', 'storage_mapping_class': 'DS', 'type': 'FUNC'}
{'import_export': 'EXP', 'is_defined': True, 'name': '_ZNKSt3__14__fs10filesystem4path16lexically_normalEv', 'storage_mapping_class': 'DS', 'type': 'FUNC'}
{'import_export': 'EXP', 'is_defined': True, 'name': '_ZNKSt3__14__fs10filesystem4path18lexically_relativeERKS2_', 'storage_mapping_class': 'DS', 'type': 'FUNC'}
{'import_export': 'EXP', 'is_defined': True, 'name': '_ZNKSt3__14__fs10filesystem4path3endEv', 'storage_mapping_class': 'DS', 'type': 'FUNC'}
{'import_export': 'EXP', 'is_defined': True, 'name': '_ZNKSt3__14__fs10filesystem4path5beginEv', 'storage_mapping_class': 'DS', 'type': 'FUNC'}
{'import_export': 'EXP', 'is_defined': True, 'name': '_ZNKSt3__14__fs10filesystem4path6__stemEv', 'storage_mapping_class': 'DS', 'type': 'FUNC'}
{'import_export': 'EXP', 'is_defined': True, 'name': '_ZNKSt3__14__fs10filesystem4path9__compareENS_17basic_string_viewIcNS_11char_traitsIcEEEE', 'storage_mapping_class': 'DS', 'type': 'FUNC'}
{'import_export': 'EXP', 'is_defined': True, 'name': '_ZNKSt3__15ctypeIcE10do_tolowerEPcPKc', 'storage_mapping_class': 'DS', 'type': 'FUNC'}
{'import_export': 'EXP', 'is_defined': True, 'name': '_ZNKSt3__15ctypeIcE10do_tolowerEc', 'storage_mapping_class': 'DS', 'type': 'FUNC'}
{'import_export': 'EXP', 'is_defined': True, 'name': '_ZNKSt3__15ctypeIcE10do_toupperEPcPKc', 'storage_mapping_class': 'DS', 'type': 'FUNC'}
{'import_export': 'EXP', 'is_defined': True, 'name': '_ZNKSt3__15ctypeIcE10do_toupperEc', 'storage_mapping_class': 'DS', 'type': 'FUNC'}
{'import_export': 'EXP', 'is_defined': True, 'name': '_ZNKSt3__15ctypeIcE8do_widenEPKcS3_Pc', 'storage_mapping_class': 'DS', 'type': 'FUNC'}
{'import_export': 'EXP', 'is_defined': True, 'name': '_ZNKSt3__15ctypeIcE8do_widenEc', 'storage_mapping_class': 'DS', 'type': 'FUNC'}
{'import_export': 'EXP', 'is_defined': True, 'name': '_ZNKSt3__15ctypeIcE9do_narrowEPKcS3_cPc', 'storage_mapping_class': 'DS', 'type': 'FUNC'}
{'import_export': 'EXP', 'is_defined': True, 'name': '_ZNKSt3__15ctypeIcE9do_narrowEcc', 'storage_mapping_class': 'DS', 'type': 'FUNC'}
{'import_export': 'EXP', 'is_defined': True, 'name': '_ZNKSt3__15ctypeIwE10do_scan_isEjPKwS3_', 'storage_mapping_class': 'DS', 'type': 'FUNC'}
{'import_export': 'EXP', 'is_defined': True, 'name': '_ZNKSt3__15ctypeIwE10do_tolowerEPwPKw', 'storage_mapping_class': 'DS', 'type': 'FUNC'}
{'import_export': 'EXP', 'is_defined': True, 'name': '_ZNKSt3__15ctypeIwE10do_tolowerEw', 'storage_mapping_class': 'DS', 'type': 'FUNC'}
{'import_export': 'EXP', 'is_defined': True, 'name': '_ZNKSt3__15ctypeIwE10do_toupperEPwPKw', 'storage_mapping_class': 'DS', 'type': 'FUNC'}
{'import_export': 'EXP', 'is_defined': True, 'name': '_ZNKSt3__15ctypeIwE10do_toupperEw', 'storage_mapping_class': 'DS', 'type': 'FUNC'}
{'import_export': 'EXP', 'is_defined': True, 'name': '_ZNKSt3__15ctypeIwE11do_scan_notEjPKwS3_', 'storage_mapping_class': 'DS', 'type': 'FUNC'}
{'import_export': 'EXP', 'is_defined': True, 'name': '_ZNKSt3__15ctypeIwE5do_isEPKwS3_Pj', 'storage_mapping_class': 'DS', 'type': 'FUNC'}
{'import_export': 'EXP', 'is_defined': True, 'name': '_ZNKSt3__15ctypeIwE5do_isEjw', 'storage_mapping_class': 'DS', 'type': 'FUNC'}
{'import_export': 'EXP', 'is_defined': True, 'name': '_ZNKSt3__15ctypeIwE8do_widenEPKcS3_Pw', 'storage_mapping_class': 'DS', 'type': 'FUNC'}
{'import_export': 'EXP', 'is_defined': True, 'name': '_ZNKSt3__15ctypeIwE8do_widenEc', 'storage_mapping_class': 'DS', 'type': 'FUNC'}
{'import_export': 'EXP', 'is_defined': True, 'name': '_ZNKSt3__15ctypeIwE9do_narrowEPKwS3_cPc', 'storage_mapping_class': 'DS', 'type': 'FUNC'}
{'import_export': 'EXP', 'is_defined': True, 'name': '_ZNKSt3__15ctypeIwE9do_narrowEwc', 'storage_mapping_class': 'DS', 'type': 'FUNC'}
{'import_export': 'EXP', 'is_defined': True, 'name': '_ZNKSt3__16locale4nameEv', 'storage_mapping_class': 'DS', 'type': 'FUNC'}
{'import_export': 'EXP', 'is_defined': True, 'name': '_ZNKSt3__16locale9has_facetERNS0_2idE', 'storage_mapping_class': 'DS', 'type': 'FUNC'}
{'import_export': 'EXP', 'is_defined': True, 'name': '_ZNKSt3__16locale9use_facetERNS0_2idE', 'storage_mapping_class': 'DS', 'type': 'FUNC'}
{'import_export': 'EXP', 'is_defined': True, 'name': '_ZNKSt3__16localeeqERKS0_', 'storage_mapping_class': 'DS', 'type': 'FUNC'}
{'import_export': 'EXP', 'is_defined': True, 'name': '_ZNKSt3__17codecvtIDiDuPcE10do_unshiftERS1_PDuS4_RS4_', 'storage_mapping_class': 'DS', 'type': 'FUNC'}
{'import_export': 'EXP', 'is_defined': True, 'name': '_ZNKSt3__17codecvtIDiDuPcE11do_encodingEv', 'storage_mapping_class': 'DS', 'type': 'FUNC'}
{'import_export': 'EXP', 'is_defined': True, 'name': '_ZNKSt3__17codecvtIDiDuPcE13do_max_lengthEv', 'storage_mapping_class': 'DS', 'type': 'FUNC'}
{'import_export': 'EXP', 'is_defined': True, 'name': '_ZNKSt3__17codecvtIDiDuPcE16do_always_noconvEv', 'storage_mapping_class': 'DS', 'type': 'FUNC'}
{'import_export': 'EXP', 'is_defined': True, 'name': '_ZNKSt3__17codecvtIDiDuPcE5do_inERS1_PKDuS5_RS5_PDiS7_RS7_', 'storage_mapping_class': 'DS', 'type': 'FUNC'}
{'import_export': 'EXP', 'is_defined': True, 'name': '_ZNKSt3__17codecvtIDiDuPcE6do_outERS1_PKDiS5_RS5_PDuS7_RS7_', 'storage_mapping_class': 'DS', 'type': 'FUNC'}
{'import_export': 'EXP', 'is_defined': True, 'name': '_ZNKSt3__17codecvtIDiDuPcE9do_lengthERS1_PKDuS5_m', 'storage_mapping_class': 'DS', 'type': 'FUNC'}
{'import_export': 'EXP', 'is_defined': True, 'name': '_ZNKSt3__17codecvtIDicPcE10do_unshiftERS1_S1_S1_S3_', 'storage_mapping_class': 'DS', 'type': 'FUNC'}
{'import_export': 'EXP', 'is_defined': True, 'name': '_ZNKSt3__17codecvtIDicPcE11do_encodingEv', 'storage_mapping_class': 'DS', 'type': 'FUNC'}
{'import_export': 'EXP', 'is_defined': True, 'name': '_ZNKSt3__17codecvtIDicPcE13do_max_lengthEv', 'storage_mapping_class': 'DS', 'type': 'FUNC'}
{'import_export': 'EXP', 'is_defined': True, 'name': '_ZNKSt3__17codecvtIDicPcE16do_always_noconvEv', 'storage_mapping_class': 'DS', 'type': 'FUNC'}
{'import_export': 'EXP', 'is_defined': True, 'name': '_ZNKSt3__17codecvtIDicPcE5do_inERS1_PKcS5_RS5_PDiS7_RS7_', 'storage_mapping_class': 'DS', 'type': 'FUNC'}
{'import_export': 'EXP', 'is_defined': True, 'name': '_ZNKSt3__17codecvtIDicPcE6do_outERS1_PKDiS5_RS5_S1_S1_S3_', 'storage_mapping_class': 'DS', 'type': 'FUNC'}
{'import_export': 'EXP', 'is_defined': True, 'name': '_ZNKSt3__17codecvtIDicPcE9do_lengthERS1_PKcS5_m', 'storage_mapping_class': 'DS', 'type': 'FUNC'}
{'import_export': 'EXP', 'is_defined': True, 'name': '_ZNKSt3__17codecvtIDsDuPcE10do_unshiftERS1_PDuS4_RS4_', 'storage_mapping_class': 'DS', 'type': 'FUNC'}
{'import_export': 'EXP', 'is_defined': True, 'name': '_ZNKSt3__17codecvtIDsDuPcE11do_encodingEv', 'storage_mapping_class': 'DS', 'type': 'FUNC'}
{'import_export': 'EXP', 'is_defined': True, 'name': '_ZNKSt3__17codecvtIDsDuPcE13do_max_lengthEv', 'storage_mapping_class': 'DS', 'type': 'FUNC'}
{'import_export': 'EXP', 'is_defined': True, 'name': '_ZNKSt3__17codecvtIDsDuPcE16do_always_noconvEv', 'storage_mapping_class': 'DS', 'type': 'FUNC'}
{'import_export': 'EXP', 'is_defined': True, 'name': '_ZNKSt3__17codecvtIDsDuPcE5do_inERS1_PKDuS5_RS5_PDsS7_RS7_', 'storage_mapping_class': 'DS', 'type': 'FUNC'}
{'import_export': 'EXP', 'is_defined': True, 'name': '_ZNKSt3__17codecvtIDsDuPcE6do_outERS1_PKDsS5_RS5_PDuS7_RS7_', 'storage_mapping_class': 'DS', 'type': 'FUNC'}
{'import_export': 'EXP', 'is_defined': True, 'name': '_ZNKSt3__17codecvtIDsDuPcE9do_lengthERS1_PKDuS5_m', 'storage_mapping_class': 'DS', 'type': 'FUNC'}
{'import_export': 'EXP', 'is_defined': True, 'name': '_ZNKSt3__17codecvtIDscPcE10do_unshiftERS1_S1_S1_S3_', 'storage_mapping_class': 'DS', 'type': 'FUNC'}
{'import_export': 'EXP', 'is_defined': True, 'name': '_ZNKSt3__17codecvtIDscPcE11do_encodingEv', 'storage_mapping_class': 'DS', 'type': 'FUNC'}
{'import_export': 'EXP', 'is_defined': True, 'name': '_ZNKSt3__17codecvtIDscPcE13do_max_lengthEv', 'storage_mapping_class': 'DS', 'type': 'FUNC'}
{'import_export': 'EXP', 'is_defined': True, 'name': '_ZNKSt3__17codecvtIDscPcE16do_always_noconvEv', 'storage_mapping_class': 'DS', 'type': 'FUNC'}
{'import_export': 'EXP', 'is_defined': True, 'name': '_ZNKSt3__17codecvtIDscPcE5do_inERS1_PKcS5_RS5_PDsS7_RS7_', 'storage_mapping_class': 'DS', 'type': 'FUNC'}
{'import_export': 'EXP', 'is_defined': True, 'name': '_ZNKSt3__17codecvtIDscPcE6do_outERS1_PKDsS5_RS5_S1_S1_S3_', 'storage_mapping_class': 'DS', 'type': 'FUNC'}
{'import_export': 'EXP', 'is_defined': True, 'name': '_ZNKSt3__17codecvtIDscPcE9do_lengthERS1_PKcS5_m', 'storage_mapping_class': 'DS', 'type': 'FUNC'}
{'import_export': 'EXP', 'is_defined': True, 'name': '_ZNKSt3__17codecvtIccPcE10do_unshiftERS1_S1_S1_S3_', 'storage_mapping_class': 'DS', 'type': 'FUNC'}
{'import_export': 'EXP', 'is_defined': True, 'name': '_ZNKSt3__17codecvtIccPcE11do_encodingEv', 'storage_mapping_class': 'DS', 'type': 'FUNC'}
{'import_export': 'EXP', 'is_defined': True, 'name': '_ZNKSt3__17codecvtIccPcE13do_max_lengthEv', 'storage_mapping_class': 'DS', 'type': 'FUNC'}
{'import_export': 'EXP', 'is_defined': True, 'name': '_ZNKSt3__17codecvtIccPcE16do_always_noconvEv', 'storage_mapping_class': 'DS', 'type': 'FUNC'}
{'import_export': 'EXP', 'is_defined': True, 'name': '_ZNKSt3__17codecvtIccPcE5do_inERS1_PKcS5_RS5_S1_S1_S3_', 'storage_mapping_class': 'DS', 'type': 'FUNC'}
{'import_export': 'EXP', 'is_defined': True, 'name': '_ZNKSt3__17codecvtIccPcE6do_outERS1_PKcS5_RS5_S1_S1_S3_', 'storage_mapping_class': 'DS', 'type': 'FUNC'}
{'import_export': 'EXP', 'is_defined': True, 'name': '_ZNKSt3__17codecvtIccPcE9do_lengthERS1_PKcS5_m', 'storage_mapping_class': 'DS', 'type': 'FUNC'}
{'import_export': 'EXP', 'is_defined': True, 'name': '_ZNKSt3__17codecvtIwcPcE10do_unshiftERS1_S1_S1_S3_', 'storage_mapping_class': 'DS', 'type': 'FUNC'}
{'import_export': 'EXP', 'is_defined': True, 'name': '_ZNKSt3__17codecvtIwcPcE11do_encodingEv', 'storage_mapping_class': 'DS', 'type': 'FUNC'}
{'import_export': 'EXP', 'is_defined': True, 'name': '_ZNKSt3__17codecvtIwcPcE13do_max_lengthEv', 'storage_mapping_class': 'DS', 'type': 'FUNC'}
{'import_export': 'EXP', 'is_defined': True, 'name': '_ZNKSt3__17codecvtIwcPcE16do_always_noconvEv', 'storage_mapping_class': 'DS', 'type': 'FUNC'}
{'import_export': 'EXP', 'is_defined': True, 'name': '_ZNKSt3__17codecvtIwcPcE5do_inERS1_PKcS5_RS5_PwS7_RS7_', 'storage_mapping_class': 'DS', 'type': 'FUNC'}
{'import_export': 'EXP', 'is_defined': True, 'name': '_ZNKSt3__17codecvtIwcPcE6do_outERS1_PKwS5_RS5_S1_S1_S3_', 'storage_mapping_class': 'DS', 'type': 'FUNC'}
{'import_export': 'EXP', 'is_defined': True, 'name': '_ZNKSt3__17codecvtIwcPcE9do_lengthERS1_PKcS5_m', 'storage_mapping_class': 'DS', 'type': 'FUNC'}
{'import_export': 'EXP', 'is_defined': True, 'name': '_ZNKSt3__18ios_base6getlocEv', 'storage_mapping_class': 'DS', 'type': 'FUNC'}
{'import_export': 'EXP', 'is_defined': True, 'name': '_ZNKSt3__18numpunctIcE11do_groupingEv', 'storage_mapping_class': 'DS', 'type': 'FUNC'}
{'import_export': 'EXP', 'is_defined': True, 'name': '_ZNKSt3__18numpunctIcE11do_truenameEv', 'storage_mapping_class': 'DS', 'type': 'FUNC'}
{'import_export': 'EXP', 'is_defined': True, 'name': '_ZNKSt3__18numpunctIcE12do_falsenameEv', 'storage_mapping_class': 'DS', 'type': 'FUNC'}
{'import_export': 'EXP', 'is_defined': True, 'name': '_ZNKSt3__18numpunctIcE16do_decimal_pointEv', 'storage_mapping_class': 'DS', 'type': 'FUNC'}
{'import_export': 'EXP', 'is_defined': True, 'name': '_ZNKSt3__18numpunctIcE16do_thousands_sepEv', 'storage_mapping_class': 'DS', 'type': 'FUNC'}
{'import_export': 'EXP', 'is_defined': True, 'name': '_ZNKSt3__18numpunctIwE11do_groupingEv', 'storage_mapping_class': 'DS', 'type': 'FUNC'}
{'import_export': 'EXP', 'is_defined': True, 'name': '_ZNKSt3__18numpunctIwE11do_truenameEv', 'storage_mapping_class': 'DS', 'type': 'FUNC'}
{'import_export': 'EXP', 'is_defined': True, 'name': '_ZNKSt3__18numpunctIwE12do_falsenameEv', 'storage_mapping_class': 'DS', 'type': 'FUNC'}
{'import_export': 'EXP', 'is_defined': True, 'name': '_ZNKSt3__18numpunctIwE16do_decimal_pointEv', 'storage_mapping_class': 'DS', 'type': 'FUNC'}
{'import_export': 'EXP', 'is_defined': True, 'name': '_ZNKSt3__18numpunctIwE16do_thousands_sepEv', 'storage_mapping_class': 'DS', 'type': 'FUNC'}
{'import_export': 'EXP', 'is_defined': True, 'name': '_ZNSt11logic_errorC1EPKc', 'storage_mapping_class': 'DS', 'type': 'FUNC'}
{'import_export': 'EXP', 'is_defined': True, 'name': '_ZNSt11logic_errorC1ERKNSt3__112basic_stringIcNS0_11char_traitsIcEENS0_9allocatorIcEEEE', 'storage_mapping_class': 'DS', 'type': 'FUNC'}
{'import_export': 'EXP', 'is_defined': True, 'name': '_ZNSt11logic_errorC1ERKS_', 'storage_mapping_class': 'DS', 'type': 'FUNC'}
{'import_export': 'EXP', 'is_defined': True, 'name': '_ZNSt11logic_errorC2EPKc', 'storage_mapping_class': 'DS', 'type': 'FUNC'}
{'import_export': 'EXP', 'is_defined': True, 'name': '_ZNSt11logic_errorC2ERKNSt3__112basic_stringIcNS0_11char_traitsIcEENS0_9allocatorIcEEEE', 'storage_mapping_class': 'DS', 'type': 'FUNC'}
{'import_export': 'EXP', 'is_defined': True, 'name': '_ZNSt11logic_errorC2ERKS_', 'storage_mapping_class': 'DS', 'type': 'FUNC'}
{'import_export': 'EXP', 'is_defined': True, 'name': '_ZNSt11logic_erroraSERKS_', 'storage_mapping_class': 'DS', 'type': 'FUNC'}
{'import_export': 'EXP', 'is_defined': True, 'name': '_ZNSt12experimental19bad_optional_accessD0Ev', 'storage_mapping_class': 'DS', 'type': 'FUNC'}
{'import_export': 'EXP', 'is_defined': True, 'name': '_ZNSt12experimental19bad_optional_accessD1Ev', 'storage_mapping_class': 'DS', 'type': 'FUNC'}
{'import_export': 'EXP', 'is_defined': True, 'name': '_ZNSt12experimental19bad_optional_accessD2Ev', 'storage_mapping_class': 'DS', 'type': 'FUNC'}
{'import_export': 'EXP', 'is_defined': True, 'name': '_ZNSt13exception_ptr31__from_native_exception_pointerEPv', 'storage_mapping_class': 'DS', 'type': 'FUNC'}
{'import_export': 'EXP', 'is_defined': True, 'name': '_ZNSt13exception_ptrC1ERKS_', 'storage_mapping_class': 'DS', 'type': 'FUNC'}
{'import_export': 'EXP', 'is_defined': True, 'name': '_ZNSt13exception_ptrC2ERKS_', 'storage_mapping_class': 'DS', 'type': 'FUNC'}
{'import_export': 'EXP', 'is_defined': True, 'name': '_ZNSt13exception_ptrD1Ev', 'storage_mapping_class': 'DS', 'type': 'FUNC'}
{'import_export': 'EXP', 'is_defined': True, 'name': '_ZNSt13exception_ptrD2Ev', 'storage_mapping_class': 'DS', 'type': 'FUNC'}
{'import_export': 'EXP', 'is_defined': True, 'name': '_ZNSt13exception_ptraSERKS_', 'storage_mapping_class': 'DS', 'type': 'FUNC'}
{'import_export': 'EXP', 'is_defined': True, 'name': '_ZNSt13runtime_errorC1EPKc', 'storage_mapping_class': 'DS', 'type': 'FUNC'}
{'import_export': 'EXP', 'is_defined': True, 'name': '_ZNSt13runtime_errorC1ERKNSt3__112basic_stringIcNS0_11char_traitsIcEENS0_9allocatorIcEEEE', 'storage_mapping_class': 'DS', 'type': 'FUNC'}
{'import_export': 'EXP', 'is_defined': True, 'name': '_ZNSt13runtime_errorC1ERKS_', 'storage_mapping_class': 'DS', 'type': 'FUNC'}
{'import_export': 'EXP', 'is_defined': True, 'name': '_ZNSt13runtime_errorC2EPKc', 'storage_mapping_class': 'DS', 'type': 'FUNC'}
{'import_export': 'EXP', 'is_defined': True, 'name': '_ZNSt13runtime_errorC2ERKNSt3__112basic_stringIcNS0_11char_traitsIcEENS0_9allocatorIcEEEE', 'storage_mapping_class': 'DS', 'type': 'FUNC'}
{'import_export': 'EXP', 'is_defined': True, 'name': '_ZNSt13runtime_errorC2ERKS_', 'storage_mapping_class': 'DS', 'type': 'FUNC'}
{'import_export': 'EXP', 'is_defined': True, 'name': '_ZNSt13runtime_erroraSERKS_', 'storage_mapping_class': 'DS', 'type': 'FUNC'}
{'import_export': 'EXP', 'is_defined': True, 'name': '_ZNSt16nested_exceptionC1Ev', 'storage_mapping_class': 'DS', 'type': 'FUNC'}
{'import_export': 'EXP', 'is_defined': True, 'name': '_ZNSt16nested_exceptionC2Ev', 'storage_mapping_class': 'DS', 'type': 'FUNC'}
{'import_export': 'EXP', 'is_defined': True, 'name': '_ZNSt16nested_exceptionD0Ev', 'storage_mapping_class': 'DS', 'type': 'FUNC'}
{'import_export': 'EXP', 'is_defined': True, 'name': '_ZNSt16nested_exceptionD1Ev', 'storage_mapping_class': 'DS', 'type': 'FUNC'}
{'import_export': 'EXP', 'is_defined': True, 'name': '_ZNSt16nested_exceptionD2Ev', 'storage_mapping_class': 'DS', 'type': 'FUNC'}
{'import_export': 'EXP', 'is_defined': True, 'name': '_ZNSt19bad_optional_accessD0Ev', 'storage_mapping_class': 'DS', 'type': 'FUNC'}
{'import_export': 'EXP', 'is_defined': True, 'name': '_ZNSt19bad_optional_accessD1Ev', 'storage_mapping_class': 'DS', 'type': 'FUNC'}
{'import_export': 'EXP', 'is_defined': True, 'name': '_ZNSt19bad_optional_accessD2Ev', 'storage_mapping_class': 'DS', 'type': 'FUNC'}
{'import_export': 'EXP', 'is_defined': True, 'name': '_ZNSt3__110__time_getC1EPKc', 'storage_mapping_class': 'DS', 'type': 'FUNC'}
{'import_export': 'EXP', 'is_defined': True, 'name': '_ZNSt3__110__time_getC1ERKNS_12basic_stringIcNS_11char_traitsIcEENS_9allocatorIcEEEE', 'storage_mapping_class': 'DS', 'type': 'FUNC'}
{'import_export': 'EXP', 'is_defined': True, 'name': '_ZNSt3__110__time_getC2EPKc', 'storage_mapping_class': 'DS', 'type': 'FUNC'}
{'import_export': 'EXP', 'is_defined': True, 'name': '_ZNSt3__110__time_getC2ERKNS_12basic_stringIcNS_11char_traitsIcEENS_9allocatorIcEEEE', 'storage_mapping_class': 'DS', 'type': 'FUNC'}
{'import_export': 'EXP', 'is_defined': True, 'name': '_ZNSt3__110__time_getD1Ev', 'storage_mapping_class': 'DS', 'type': 'FUNC'}
{'import_export': 'EXP', 'is_defined': True, 'name': '_ZNSt3__110__time_getD2Ev', 'storage_mapping_class': 'DS', 'type': 'FUNC'}
{'import_export': 'EXP', 'is_defined': True, 'name': '_ZNSt3__110__time_putC1EPKc', 'storage_mapping_class': 'DS', 'type': 'FUNC'}
{'import_export': 'EXP', 'is_defined': True, 'name': '_ZNSt3__110__time_putC1ERKNS_12basic_stringIcNS_11char_traitsIcEENS_9allocatorIcEEEE', 'storage_mapping_class': 'DS', 'type': 'FUNC'}
{'import_export': 'EXP', 'is_defined': True, 'name': '_ZNSt3__110__time_putC2EPKc', 'storage_mapping_class': 'DS', 'type': 'FUNC'}
{'import_export': 'EXP', 'is_defined': True, 'name': '_ZNSt3__110__time_putC2ERKNS_12basic_stringIcNS_11char_traitsIcEENS_9allocatorIcEEEE', 'storage_mapping_class': 'DS', 'type': 'FUNC'}
{'import_export': 'EXP', 'is_defined': True, 'name': '_ZNSt3__110__time_putD1Ev', 'storage_mapping_class': 'DS', 'type': 'FUNC'}
{'import_export': 'EXP', 'is_defined': True, 'name': '_ZNSt3__110__time_putD2Ev', 'storage_mapping_class': 'DS', 'type': 'FUNC'}
{'import_export': 'EXP', 'is_defined': True, 'name': '_ZNSt3__110ctype_base5alnumE', 'storage_mapping_class': 'RO', 'type': 'OBJECT'}
{'import_export': 'EXP', 'is_defined': True, 'name': '_ZNSt3__110ctype_base5alphaE', 'storage_mapping_class': 'RO', 'type': 'OBJECT'}
{'import_export': 'EXP', 'is_defined': True, 'name': '_ZNSt3__110ctype_base5blankE', 'storage_mapping_class': 'RO', 'type': 'OBJECT'}
{'import_export': 'EXP', 'is_defined': True, 'name': '_ZNSt3__110ctype_base5cntrlE', 'storage_mapping_class': 'RO', 'type': 'OBJECT'}
{'import_export': 'EXP', 'is_defined': True, 'name': '_ZNSt3__110ctype_base5digitE', 'storage_mapping_class': 'RO', 'type': 'OBJECT'}
{'import_export': 'EXP', 'is_defined': True, 'name': '_ZNSt3__110ctype_base5graphE', 'storage_mapping_class': 'RO', 'type': 'OBJECT'}
{'import_export': 'EXP', 'is_defined': True, 'name': '_ZNSt3__110ctype_base5lowerE', 'storage_mapping_class': 'RO', 'type': 'OBJECT'}
{'import_export': 'EXP', 'is_defined': True, 'name': '_ZNSt3__110ctype_base5printE', 'storage_mapping_class': 'RO', 'type': 'OBJECT'}
{'import_export': 'EXP', 'is_defined': True, 'name': '_ZNSt3__110ctype_base5punctE', 'storage_mapping_class': 'RO', 'type': 'OBJECT'}
{'import_export': 'EXP', 'is_defined': True, 'name': '_ZNSt3__110ctype_base5spaceE', 'storage_mapping_class': 'RO', 'type': 'OBJECT'}
{'import_export': 'EXP', 'is_defined': True, 'name': '_ZNSt3__110ctype_base5upperE', 'storage_mapping_class': 'RO', 'type': 'OBJECT'}
{'import_export': 'EXP', 'is_defined': True, 'name': '_ZNSt3__110ctype_base6xdigitE', 'storage_mapping_class': 'RO', 'type': 'OBJECT'}
{'import_export': 'EXP', 'is_defined': True, 'name': '_ZNSt3__110istrstreamD0Ev', 'storage_mapping_class': 'DS', 'type': 'FUNC'}
{'import_export': 'EXP', 'is_defined': True, 'name': '_ZNSt3__110istrstreamD1Ev', 'storage_mapping_class': 'DS', 'type': 'FUNC'}
{'import_export': 'EXP', 'is_defined': True, 'name': '_ZNSt3__110istrstreamD2Ev', 'storage_mapping_class': 'DS', 'type': 'FUNC'}
{'import_export': 'EXP', 'is_defined': True, 'name': '_ZNSt3__110ostrstreamD0Ev', 'storage_mapping_class': 'DS', 'type': 'FUNC'}
{'import_export': 'EXP', 'is_defined': True, 'name': '_ZNSt3__110ostrstreamD1Ev', 'storage_mapping_class': 'DS', 'type': 'FUNC'}
{'import_export': 'EXP', 'is_defined': True, 'name': '_ZNSt3__110ostrstreamD2Ev', 'storage_mapping_class': 'DS', 'type': 'FUNC'}
{'import_export': 'EXP', 'is_defined': True, 'name': '_ZNSt3__110to_wstringEd', 'storage_mapping_class': 'DS', 'type': 'FUNC'}
{'import_export': 'EXP', 'is_defined': True, 'name': '_ZNSt3__110to_wstringEe', 'storage_mapping_class': 'DS', 'type': 'FUNC'}
{'import_export': 'EXP', 'is_defined': True, 'name': '_ZNSt3__110to_wstringEf', 'storage_mapping_class': 'DS', 'type': 'FUNC'}
{'import_export': 'EXP', 'is_defined': True, 'name': '_ZNSt3__110to_wstringEi', 'storage_mapping_class': 'DS', 'type': 'FUNC'}
{'import_export': 'EXP', 'is_defined': True, 'name': '_ZNSt3__110to_wstringEj', 'storage_mapping_class': 'DS', 'type': 'FUNC'}
{'import_export': 'EXP', 'is_defined': True, 'name': '_ZNSt3__110to_wstringEl', 'storage_mapping_class': 'DS', 'type': 'FUNC'}
{'import_export': 'EXP', 'is_defined': True, 'name': '_ZNSt3__110to_wstringEm', 'storage_mapping_class': 'DS', 'type': 'FUNC'}
{'import_export': 'EXP', 'is_defined': True, 'name': '_ZNSt3__110to_wstringEx', 'storage_mapping_class': 'DS', 'type': 'FUNC'}
{'import_export': 'EXP', 'is_defined': True, 'name': '_ZNSt3__110to_wstringEy', 'storage_mapping_class': 'DS', 'type': 'FUNC'}
{'import_export': 'EXP', 'is_defined': True, 'name': '_ZNSt3__111__call_onceERVmPvPFvS2_E', 'storage_mapping_class': 'DS', 'type': 'FUNC'}
{'import_export': 'EXP', 'is_defined': True, 'name': '_ZNSt3__111regex_errorC1ENS_15regex_constants10error_typeE', 'storage_mapping_class': 'DS', 'type': 'FUNC'}
{'import_export': 'EXP', 'is_defined': True, 'name': '_ZNSt3__111regex_errorC2ENS_15regex_constants10error_typeE', 'storage_mapping_class': 'DS', 'type': 'FUNC'}
{'import_export': 'EXP', 'is_defined': True, 'name': '_ZNSt3__111regex_errorD0Ev', 'storage_mapping_class': 'DS', 'type': 'FUNC'}
{'import_export': 'EXP', 'is_defined': True, 'name': '_ZNSt3__111regex_errorD1Ev', 'storage_mapping_class': 'DS', 'type': 'FUNC'}
{'import_export': 'EXP', 'is_defined': True, 'name': '_ZNSt3__111regex_errorD2Ev', 'storage_mapping_class': 'DS', 'type': 'FUNC'}
{'import_export': 'EXP', 'is_defined': True, 'name': '_ZNSt3__111this_thread9sleep_forERKNS_6chrono8durationIxNS_5ratioILx1ELx1000000000EEEEE', 'storage_mapping_class': 'DS', 'type': 'FUNC'}
{'import_export': 'EXP', 'is_defined': True, 'name': '_ZNSt3__111timed_mutex4lockEv', 'storage_mapping_class': 'DS', 'type': 'FUNC'}
{'import_export': 'EXP', 'is_defined': True, 'name': '_ZNSt3__111timed_mutex6unlockEv', 'storage_mapping_class': 'DS', 'type': 'FUNC'}
{'import_export': 'EXP', 'is_defined': True, 'name': '_ZNSt3__111timed_mutex8try_lockEv', 'storage_mapping_class': 'DS', 'type': 'FUNC'}
{'import_export': 'EXP', 'is_defined': True, 'name': '_ZNSt3__111timed_mutexC1Ev', 'storage_mapping_class': 'DS', 'type': 'FUNC'}
{'import_export': 'EXP', 'is_defined': True, 'name': '_ZNSt3__111timed_mutexC2Ev', 'storage_mapping_class': 'DS', 'type': 'FUNC'}
{'import_export': 'EXP', 'is_defined': True, 'name': '_ZNSt3__111timed_mutexD1Ev', 'storage_mapping_class': 'DS', 'type': 'FUNC'}
{'import_export': 'EXP', 'is_defined': True, 'name': '_ZNSt3__111timed_mutexD2Ev', 'storage_mapping_class': 'DS', 'type': 'FUNC'}
{'import_export': 'EXP', 'is_defined': True, 'name': '_ZNSt3__112__do_nothingEPv', 'storage_mapping_class': 'DS', 'type': 'FUNC'}
{'import_export': 'EXP', 'is_defined': True, 'name': '_ZNSt3__112__get_sp_mutEPKv', 'storage_mapping_class': 'DS', 'type': 'FUNC'}
{'import_export': 'EXP', 'is_defined': True, 'name': '_ZNSt3__112__next_primeEm', 'storage_mapping_class': 'DS', 'type': 'FUNC'}
{'import_export': 'EXP', 'is_defined': True, 'name': '_ZNSt3__112__rs_default4__c_E', 'storage_mapping_class': 'RW', 'type': 'OBJECT'}
{'import_export': 'EXP', 'is_defined': True, 'name': '_ZNSt3__112__rs_defaultC1ERKS0_', 'storage_mapping_class': 'DS', 'type': 'FUNC'}
{'import_export': 'EXP', 'is_defined': True, 'name': '_ZNSt3__112__rs_defaultC1Ev', 'storage_mapping_class': 'DS', 'type': 'FUNC'}
{'import_export': 'EXP', 'is_defined': True, 'name': '_ZNSt3__112__rs_defaultC2ERKS0_', 'storage_mapping_class': 'DS', 'type': 'FUNC'}
{'import_export': 'EXP', 'is_defined': True, 'name': '_ZNSt3__112__rs_defaultC2Ev', 'storage_mapping_class': 'DS', 'type': 'FUNC'}
{'import_export': 'EXP', 'is_defined': True, 'name': '_ZNSt3__112__rs_defaultD1Ev', 'storage_mapping_class': 'DS', 'type': 'FUNC'}
{'import_export': 'EXP', 'is_defined': True, 'name': '_ZNSt3__112__rs_defaultD2Ev', 'storage_mapping_class': 'DS', 'type': 'FUNC'}
{'import_export': 'EXP', 'is_defined': True, 'name': '_ZNSt3__112__rs_defaultclEv', 'storage_mapping_class': 'DS', 'type': 'FUNC'}
{'import_export': 'EXP', 'is_defined': True, 'name': '_ZNSt3__112bad_weak_ptrD0Ev', 'storage_mapping_class': 'DS', 'type': 'FUNC'}
{'import_export': 'EXP', 'is_defined': True, 'name': '_ZNSt3__112bad_weak_ptrD1Ev', 'storage_mapping_class': 'DS', 'type': 'FUNC'}
{'import_export': 'EXP', 'is_defined': True, 'name': '_ZNSt3__112bad_weak_ptrD2Ev', 'storage_mapping_class': 'DS', 'type': 'FUNC'}
{'import_export': 'EXP', 'is_defined': True, 'name': '_ZNSt3__112ctype_bynameIcEC1EPKcm', 'storage_mapping_class': 'DS', 'type': 'FUNC'}
{'import_export': 'EXP', 'is_defined': True, 'name': '_ZNSt3__112ctype_bynameIcEC1ERKNS_12basic_stringIcNS_11char_traitsIcEENS_9allocatorIcEEEEm', 'storage_mapping_class': 'DS', 'type': 'FUNC'}
{'import_export': 'EXP', 'is_defined': True, 'name': '_ZNSt3__112ctype_bynameIcEC2EPKcm', 'storage_mapping_class': 'DS', 'type': 'FUNC'}
{'import_export': 'EXP', 'is_defined': True, 'name': '_ZNSt3__112ctype_bynameIcEC2ERKNS_12basic_stringIcNS_11char_traitsIcEENS_9allocatorIcEEEEm', 'storage_mapping_class': 'DS', 'type': 'FUNC'}
{'import_export': 'EXP', 'is_defined': True, 'name': '_ZNSt3__112ctype_bynameIcED0Ev', 'storage_mapping_class': 'DS', 'type': 'FUNC'}
{'import_export': 'EXP', 'is_defined': True, 'name': '_ZNSt3__112ctype_bynameIcED1Ev', 'storage_mapping_class': 'DS', 'type': 'FUNC'}
{'import_export': 'EXP', 'is_defined': True, 'name': '_ZNSt3__112ctype_bynameIcED2Ev', 'storage_mapping_class': 'DS', 'type': 'FUNC'}
{'import_export': 'EXP', 'is_defined': True, 'name': '_ZNSt3__112ctype_bynameIwEC1EPKcm', 'storage_mapping_class': 'DS', 'type': 'FUNC'}
{'import_export': 'EXP', 'is_defined': True, 'name': '_ZNSt3__112ctype_bynameIwEC1ERKNS_12basic_stringIcNS_11char_traitsIcEENS_9allocatorIcEEEEm', 'storage_mapping_class': 'DS', 'type': 'FUNC'}
{'import_export': 'EXP', 'is_defined': True, 'name': '_ZNSt3__112ctype_bynameIwEC2EPKcm', 'storage_mapping_class': 'DS', 'type': 'FUNC'}
{'import_export': 'EXP', 'is_defined': True, 'name': '_ZNSt3__112ctype_bynameIwEC2ERKNS_12basic_stringIcNS_11char_traitsIcEENS_9allocatorIcEEEEm', 'storage_mapping_class': 'DS', 'type': 'FUNC'}
{'import_export': 'EXP', 'is_defined': True, 'name': '_ZNSt3__112ctype_bynameIwED0Ev', 'storage_mapping_class': 'DS', 'type': 'FUNC'}
{'import_export': 'EXP', 'is_defined': True, 'name': '_ZNSt3__112ctype_bynameIwED1Ev', 'storage_mapping_class': 'DS', 'type': 'FUNC'}
{'import_export': 'EXP', 'is_defined': True, 'name': '_ZNSt3__112ctype_bynameIwED2Ev', 'storage_mapping_class': 'DS', 'type': 'FUNC'}
{'import_export': 'EXP', 'is_defined': True, 'name': '_ZNSt3__112future_errorC1ENS_10error_codeE', 'storage_mapping_class': 'DS', 'type': 'FUNC'}
{'import_export': 'EXP', 'is_defined': True, 'name': '_ZNSt3__112future_errorC2ENS_10error_codeE', 'storage_mapping_class': 'DS', 'type': 'FUNC'}
{'import_export': 'EXP', 'is_defined': True, 'name': '_ZNSt3__112future_errorD0Ev', 'storage_mapping_class': 'DS', 'type': 'FUNC'}
{'import_export': 'EXP', 'is_defined': True, 'name': '_ZNSt3__112future_errorD1Ev', 'storage_mapping_class': 'DS', 'type': 'FUNC'}
{'import_export': 'EXP', 'is_defined': True, 'name': '_ZNSt3__112future_errorD2Ev', 'storage_mapping_class': 'DS', 'type': 'FUNC'}
{'import_export': 'EXP', 'is_defined': True, 'name': '_ZNSt3__112placeholders2_1E', 'storage_mapping_class': 'RO', 'type': 'OBJECT'}
{'import_export': 'EXP', 'is_defined': True, 'name': '_ZNSt3__112placeholders2_2E', 'storage_mapping_class': 'RO', 'type': 'OBJECT'}
{'import_export': 'EXP', 'is_defined': True, 'name': '_ZNSt3__112placeholders2_3E', 'storage_mapping_class': 'RO', 'type': 'OBJECT'}
{'import_export': 'EXP', 'is_defined': True, 'name': '_ZNSt3__112placeholders2_4E', 'storage_mapping_class': 'RO', 'type': 'OBJECT'}
{'import_export': 'EXP', 'is_defined': True, 'name': '_ZNSt3__112placeholders2_5E', 'storage_mapping_class': 'RO', 'type': 'OBJECT'}
{'import_export': 'EXP', 'is_defined': True, 'name': '_ZNSt3__112placeholders2_6E', 'storage_mapping_class': 'RO', 'type': 'OBJECT'}
{'import_export': 'EXP', 'is_defined': True, 'name': '_ZNSt3__112placeholders2_7E', 'storage_mapping_class': 'RO', 'type': 'OBJECT'}
{'import_export': 'EXP', 'is_defined': True, 'name': '_ZNSt3__112placeholders2_8E', 'storage_mapping_class': 'RO', 'type': 'OBJECT'}
{'import_export': 'EXP', 'is_defined': True, 'name': '_ZNSt3__112placeholders2_9E', 'storage_mapping_class': 'RO', 'type': 'OBJECT'}
{'import_export': 'EXP', 'is_defined': True, 'name': '_ZNSt3__112placeholders3_10E', 'storage_mapping_class': 'RO', 'type': 'OBJECT'}
{'import_export': 'EXP', 'is_defined': True, 'name': '_ZNSt3__112strstreambuf3strEv', 'storage_mapping_class': 'DS', 'type': 'FUNC'}
{'import_export': 'EXP', 'is_defined': True, 'name': '_ZNSt3__112strstreambuf4swapERS0_', 'storage_mapping_class': 'DS', 'type': 'FUNC'}
{'import_export': 'EXP', 'is_defined': True, 'name': '_ZNSt3__112strstreambuf6__initEPclS1_', 'storage_mapping_class': 'DS', 'type': 'FUNC'}
{'import_export': 'EXP', 'is_defined': True, 'name': '_ZNSt3__112strstreambuf6freezeEb', 'storage_mapping_class': 'DS', 'type': 'FUNC'}
{'import_export': 'EXP', 'is_defined': True, 'name': '_ZNSt3__112strstreambuf7seekoffExNS_8ios_base7seekdirEj', 'storage_mapping_class': 'DS', 'type': 'FUNC'}
{'import_export': 'EXP', 'is_defined': True, 'name': '_ZNSt3__112strstreambuf7seekposENS_4fposIPcEEj', 'storage_mapping_class': 'DS', 'type': 'FUNC'}
{'import_export': 'EXP', 'is_defined': True, 'name': '_ZNSt3__112strstreambuf8overflowEi', 'storage_mapping_class': 'DS', 'type': 'FUNC'}
{'import_export': 'EXP', 'is_defined': True, 'name': '_ZNSt3__112strstreambuf9pbackfailEi', 'storage_mapping_class': 'DS', 'type': 'FUNC'}
{'import_export': 'EXP', 'is_defined': True, 'name': '_ZNSt3__112strstreambuf9underflowEv', 'storage_mapping_class': 'DS', 'type': 'FUNC'}
{'import_export': 'EXP', 'is_defined': True, 'name': '_ZNSt3__112strstreambufC1EPFPvmEPFvS1_E', 'storage_mapping_class': 'DS', 'type': 'FUNC'}
{'import_export': 'EXP', 'is_defined': True, 'name': '_ZNSt3__112strstreambufC1EPKal', 'storage_mapping_class': 'DS', 'type': 'FUNC'}
{'import_export': 'EXP', 'is_defined': True, 'name': '_ZNSt3__112strstreambufC1EPKcl', 'storage_mapping_class': 'DS', 'type': 'FUNC'}
{'import_export': 'EXP', 'is_defined': True, 'name': '_ZNSt3__112strstreambufC1EPKhl', 'storage_mapping_class': 'DS', 'type': 'FUNC'}
{'import_export': 'EXP', 'is_defined': True, 'name': '_ZNSt3__112strstreambufC1EPalS1_', 'storage_mapping_class': 'DS', 'type': 'FUNC'}
{'import_export': 'EXP', 'is_defined': True, 'name': '_ZNSt3__112strstreambufC1EPclS1_', 'storage_mapping_class': 'DS', 'type': 'FUNC'}
{'import_export': 'EXP', 'is_defined': True, 'name': '_ZNSt3__112strstreambufC1EPhlS1_', 'storage_mapping_class': 'DS', 'type': 'FUNC'}
{'import_export': 'EXP', 'is_defined': True, 'name': '_ZNSt3__112strstreambufC1El', 'storage_mapping_class': 'DS', 'type': 'FUNC'}
{'import_export': 'EXP', 'is_defined': True, 'name': '_ZNSt3__112strstreambufC2EPFPvmEPFvS1_E', 'storage_mapping_class': 'DS', 'type': 'FUNC'}
{'import_export': 'EXP', 'is_defined': True, 'name': '_ZNSt3__112strstreambufC2EPKal', 'storage_mapping_class': 'DS', 'type': 'FUNC'}
{'import_export': 'EXP', 'is_defined': True, 'name': '_ZNSt3__112strstreambufC2EPKcl', 'storage_mapping_class': 'DS', 'type': 'FUNC'}
{'import_export': 'EXP', 'is_defined': True, 'name': '_ZNSt3__112strstreambufC2EPKhl', 'storage_mapping_class': 'DS', 'type': 'FUNC'}
{'import_export': 'EXP', 'is_defined': True, 'name': '_ZNSt3__112strstreambufC2EPalS1_', 'storage_mapping_class': 'DS', 'type': 'FUNC'}
{'import_export': 'EXP', 'is_defined': True, 'name': '_ZNSt3__112strstreambufC2EPclS1_', 'storage_mapping_class': 'DS', 'type': 'FUNC'}
{'import_export': 'EXP', 'is_defined': True, 'name': '_ZNSt3__112strstreambufC2EPhlS1_', 'storage_mapping_class': 'DS', 'type': 'FUNC'}
{'import_export': 'EXP', 'is_defined': True, 'name': '_ZNSt3__112strstreambufC2El', 'storage_mapping_class': 'DS', 'type': 'FUNC'}
{'import_export': 'EXP', 'is_defined': True, 'name': '_ZNSt3__112strstreambufD0Ev', 'storage_mapping_class': 'DS', 'type': 'FUNC'}
{'import_export': 'EXP', 'is_defined': True, 'name': '_ZNSt3__112strstreambufD1Ev', 'storage_mapping_class': 'DS', 'type': 'FUNC'}
{'import_export': 'EXP', 'is_defined': True, 'name': '_ZNSt3__112strstreambufD2Ev', 'storage_mapping_class': 'DS', 'type': 'FUNC'}
{'import_export': 'EXP', 'is_defined': True, 'name': '_ZNSt3__112system_errorC1ENS_10error_codeE', 'storage_mapping_class': 'DS', 'type': 'FUNC'}
{'import_export': 'EXP', 'is_defined': True, 'name': '_ZNSt3__112system_errorC1ENS_10error_codeEPKc', 'storage_mapping_class': 'DS', 'type': 'FUNC'}
{'import_export': 'EXP', 'is_defined': True, 'name': '_ZNSt3__112system_errorC1ENS_10error_codeERKNS_12basic_stringIcNS_11char_traitsIcEENS_9allocatorIcEEEE', 'storage_mapping_class': 'DS', 'type': 'FUNC'}
{'import_export': 'EXP', 'is_defined': True, 'name': '_ZNSt3__112system_errorC1EiRKNS_14error_categoryE', 'storage_mapping_class': 'DS', 'type': 'FUNC'}
{'import_export': 'EXP', 'is_defined': True, 'name': '_ZNSt3__112system_errorC1EiRKNS_14error_categoryEPKc', 'storage_mapping_class': 'DS', 'type': 'FUNC'}
{'import_export': 'EXP', 'is_defined': True, 'name': '_ZNSt3__112system_errorC1EiRKNS_14error_categoryERKNS_12basic_stringIcNS_11char_traitsIcEENS_9allocatorIcEEEE', 'storage_mapping_class': 'DS', 'type': 'FUNC'}
{'import_export': 'EXP', 'is_defined': True, 'name': '_ZNSt3__112system_errorC2ENS_10error_codeE', 'storage_mapping_class': 'DS', 'type': 'FUNC'}
{'import_export': 'EXP', 'is_defined': True, 'name': '_ZNSt3__112system_errorC2ENS_10error_codeEPKc', 'storage_mapping_class': 'DS', 'type': 'FUNC'}
{'import_export': 'EXP', 'is_defined': True, 'name': '_ZNSt3__112system_errorC2ENS_10error_codeERKNS_12basic_stringIcNS_11char_traitsIcEENS_9allocatorIcEEEE', 'storage_mapping_class': 'DS', 'type': 'FUNC'}
{'import_export': 'EXP', 'is_defined': True, 'name': '_ZNSt3__112system_errorC2EiRKNS_14error_categoryE', 'storage_mapping_class': 'DS', 'type': 'FUNC'}
{'import_export': 'EXP', 'is_defined': True, 'name': '_ZNSt3__112system_errorC2EiRKNS_14error_categoryEPKc', 'storage_mapping_class': 'DS', 'type': 'FUNC'}
{'import_export': 'EXP', 'is_defined': True, 'name': '_ZNSt3__112system_errorC2EiRKNS_14error_categoryERKNS_12basic_stringIcNS_11char_traitsIcEENS_9allocatorIcEEEE', 'storage_mapping_class': 'DS', 'type': 'FUNC'}
{'import_export': 'EXP', 'is_defined': True, 'name': '_ZNSt3__112system_errorD0Ev', 'storage_mapping_class': 'DS', 'type': 'FUNC'}
{'import_export': 'EXP', 'is_defined': True, 'name': '_ZNSt3__112system_errorD1Ev', 'storage_mapping_class': 'DS', 'type': 'FUNC'}
{'import_export': 'EXP', 'is_defined': True, 'name': '_ZNSt3__112system_errorD2Ev', 'storage_mapping_class': 'DS', 'type': 'FUNC'}
{'import_export': 'EXP', 'is_defined': True, 'name': '_ZNSt3__113random_deviceC1ERKNS_12basic_stringIcNS_11char_traitsIcEENS_9allocatorIcEEEE', 'storage_mapping_class': 'DS', 'type': 'FUNC'}
{'import_export': 'EXP', 'is_defined': True, 'name': '_ZNSt3__113random_deviceC2ERKNS_12basic_stringIcNS_11char_traitsIcEENS_9allocatorIcEEEE', 'storage_mapping_class': 'DS', 'type': 'FUNC'}
{'import_export': 'EXP', 'is_defined': True, 'name': '_ZNSt3__113random_deviceD1Ev', 'storage_mapping_class': 'DS', 'type': 'FUNC'}
{'import_export': 'EXP', 'is_defined': True, 'name': '_ZNSt3__113random_deviceD2Ev', 'storage_mapping_class': 'DS', 'type': 'FUNC'}
{'import_export': 'EXP', 'is_defined': True, 'name': '_ZNSt3__113random_deviceclEv', 'storage_mapping_class': 'DS', 'type': 'FUNC'}
{'import_export': 'EXP', 'is_defined': True, 'name': '_ZNSt3__113shared_futureIvED1Ev', 'storage_mapping_class': 'DS', 'type': 'FUNC'}
{'import_export': 'EXP', 'is_defined': True, 'name': '_ZNSt3__113shared_futureIvED2Ev', 'storage_mapping_class': 'DS', 'type': 'FUNC'}
{'import_export': 'EXP', 'is_defined': True, 'name': '_ZNSt3__113shared_futureIvEaSERKS1_', 'storage_mapping_class': 'DS', 'type': 'FUNC'}
{'import_export': 'EXP', 'is_defined': True, 'name': '_ZNSt3__114__num_get_base10__get_baseERNS_8ios_baseE', 'storage_mapping_class': 'DS', 'type': 'FUNC'}
{'import_export': 'EXP', 'is_defined': True, 'name': '_ZNSt3__114__num_get_base5__srcE', 'storage_mapping_class': 'RO', 'type': 'OBJECT'}
{'import_export': 'EXP', 'is_defined': True, 'name': '_ZNSt3__114__num_put_base12__format_intEPcPKcbj', 'storage_mapping_class': 'DS', 'type': 'FUNC'}
{'import_export': 'EXP', 'is_defined': True, 'name': '_ZNSt3__114__num_put_base14__format_floatEPcPKcj', 'storage_mapping_class': 'DS', 'type': 'FUNC'}
{'import_export': 'EXP', 'is_defined': True, 'name': '_ZNSt3__114__num_put_base18__identify_paddingEPcS1_RKNS_8ios_baseE', 'storage_mapping_class': 'DS', 'type': 'FUNC'}
{'import_export': 'EXP', 'is_defined': True, 'name': '_ZNSt3__114__shared_countD0Ev', 'storage_mapping_class': 'DS', 'type': 'FUNC'}
{'import_export': 'EXP', 'is_defined': True, 'name': '_ZNSt3__114__shared_countD1Ev', 'storage_mapping_class': 'DS', 'type': 'FUNC'}
{'import_export': 'EXP', 'is_defined': True, 'name': '_ZNSt3__114__shared_countD2Ev', 'storage_mapping_class': 'DS', 'type': 'FUNC'}
{'import_export': 'EXP', 'is_defined': True, 'name': '_ZNSt3__114collate_bynameIcEC1EPKcm', 'storage_mapping_class': 'DS', 'type': 'FUNC'}
{'import_export': 'EXP', 'is_defined': True, 'name': '_ZNSt3__114collate_bynameIcEC1ERKNS_12basic_stringIcNS_11char_traitsIcEENS_9allocatorIcEEEEm', 'storage_mapping_class': 'DS', 'type': 'FUNC'}
{'import_export': 'EXP', 'is_defined': True, 'name': '_ZNSt3__114collate_bynameIcEC2EPKcm', 'storage_mapping_class': 'DS', 'type': 'FUNC'}
{'import_export': 'EXP', 'is_defined': True, 'name': '_ZNSt3__114collate_bynameIcEC2ERKNS_12basic_stringIcNS_11char_traitsIcEENS_9allocatorIcEEEEm', 'storage_mapping_class': 'DS', 'type': 'FUNC'}
{'import_export': 'EXP', 'is_defined': True, 'name': '_ZNSt3__114collate_bynameIcED0Ev', 'storage_mapping_class': 'DS', 'type': 'FUNC'}
{'import_export': 'EXP', 'is_defined': True, 'name': '_ZNSt3__114collate_bynameIcED1Ev', 'storage_mapping_class': 'DS', 'type': 'FUNC'}
{'import_export': 'EXP', 'is_defined': True, 'name': '_ZNSt3__114collate_bynameIcED2Ev', 'storage_mapping_class': 'DS', 'type': 'FUNC'}
{'import_export': 'EXP', 'is_defined': True, 'name': '_ZNSt3__114collate_bynameIwEC1EPKcm', 'storage_mapping_class': 'DS', 'type': 'FUNC'}
{'import_export': 'EXP', 'is_defined': True, 'name': '_ZNSt3__114collate_bynameIwEC1ERKNS_12basic_stringIcNS_11char_traitsIcEENS_9allocatorIcEEEEm', 'storage_mapping_class': 'DS', 'type': 'FUNC'}
{'import_export': 'EXP', 'is_defined': True, 'name': '_ZNSt3__114collate_bynameIwEC2EPKcm', 'storage_mapping_class': 'DS', 'type': 'FUNC'}
{'import_export': 'EXP', 'is_defined': True, 'name': '_ZNSt3__114collate_bynameIwEC2ERKNS_12basic_stringIcNS_11char_traitsIcEENS_9allocatorIcEEEEm', 'storage_mapping_class': 'DS', 'type': 'FUNC'}
{'import_export': 'EXP', 'is_defined': True, 'name': '_ZNSt3__114collate_bynameIwED0Ev', 'storage_mapping_class': 'DS', 'type': 'FUNC'}
{'import_export': 'EXP', 'is_defined': True, 'name': '_ZNSt3__114collate_bynameIwED1Ev', 'storage_mapping_class': 'DS', 'type': 'FUNC'}
{'import_export': 'EXP', 'is_defined': True, 'name': '_ZNSt3__114collate_bynameIwED2Ev', 'storage_mapping_class': 'DS', 'type': 'FUNC'}
{'import_export': 'EXP', 'is_defined': True, 'name': '_ZNSt3__114error_categoryD0Ev', 'storage_mapping_class': 'DS', 'type': 'FUNC'}
{'import_export': 'EXP', 'is_defined': True, 'name': '_ZNSt3__114error_categoryD1Ev', 'storage_mapping_class': 'DS', 'type': 'FUNC'}
{'import_export': 'EXP', 'is_defined': True, 'name': '_ZNSt3__114error_categoryD2Ev', 'storage_mapping_class': 'DS', 'type': 'FUNC'}
{'import_export': 'EXP', 'is_defined': True, 'name': '_ZNSt3__115__get_classnameEPKcb', 'storage_mapping_class': 'DS', 'type': 'FUNC'}
{'import_export': 'EXP', 'is_defined': True, 'name': '_ZNSt3__115__thread_struct25notify_all_at_thread_exitEPNS_18condition_variableEPNS_5mutexE', 'storage_mapping_class': 'DS', 'type': 'FUNC'}
{'import_export': 'EXP', 'is_defined': True, 'name': '_ZNSt3__115__thread_struct27__make_ready_at_thread_exitEPNS_17__assoc_sub_stateE', 'storage_mapping_class': 'DS', 'type': 'FUNC'}
{'import_export': 'EXP', 'is_defined': True, 'name': '_ZNSt3__115__thread_structC1Ev', 'storage_mapping_class': 'DS', 'type': 'FUNC'}
{'import_export': 'EXP', 'is_defined': True, 'name': '_ZNSt3__115__thread_structC2Ev', 'storage_mapping_class': 'DS', 'type': 'FUNC'}
{'import_export': 'EXP', 'is_defined': True, 'name': '_ZNSt3__115__thread_structD1Ev', 'storage_mapping_class': 'DS', 'type': 'FUNC'}
{'import_export': 'EXP', 'is_defined': True, 'name': '_ZNSt3__115__thread_structD2Ev', 'storage_mapping_class': 'DS', 'type': 'FUNC'}
{'import_export': 'EXP', 'is_defined': True, 'name': '_ZNSt3__115future_categoryEv', 'storage_mapping_class': 'DS', 'type': 'FUNC'}
{'import_export': 'EXP', 'is_defined': True, 'name': '_ZNSt3__115numpunct_bynameIcE6__initEPKc', 'storage_mapping_class': 'DS', 'type': 'FUNC'}
{'import_export': 'EXP', 'is_defined': True, 'name': '_ZNSt3__115numpunct_bynameIcEC1EPKcm', 'storage_mapping_class': 'DS', 'type': 'FUNC'}
{'import_export': 'EXP', 'is_defined': True, 'name': '_ZNSt3__115numpunct_bynameIcEC1ERKNS_12basic_stringIcNS_11char_traitsIcEENS_9allocatorIcEEEEm', 'storage_mapping_class': 'DS', 'type': 'FUNC'}
{'import_export': 'EXP', 'is_defined': True, 'name': '_ZNSt3__115numpunct_bynameIcEC2EPKcm', 'storage_mapping_class': 'DS', 'type': 'FUNC'}
{'import_export': 'EXP', 'is_defined': True, 'name': '_ZNSt3__115numpunct_bynameIcEC2ERKNS_12basic_stringIcNS_11char_traitsIcEENS_9allocatorIcEEEEm', 'storage_mapping_class': 'DS', 'type': 'FUNC'}
{'import_export': 'EXP', 'is_defined': True, 'name': '_ZNSt3__115numpunct_bynameIcED0Ev', 'storage_mapping_class': 'DS', 'type': 'FUNC'}
{'import_export': 'EXP', 'is_defined': True, 'name': '_ZNSt3__115numpunct_bynameIcED1Ev', 'storage_mapping_class': 'DS', 'type': 'FUNC'}
{'import_export': 'EXP', 'is_defined': True, 'name': '_ZNSt3__115numpunct_bynameIcED2Ev', 'storage_mapping_class': 'DS', 'type': 'FUNC'}
{'import_export': 'EXP', 'is_defined': True, 'name': '_ZNSt3__115numpunct_bynameIwE6__initEPKc', 'storage_mapping_class': 'DS', 'type': 'FUNC'}
{'import_export': 'EXP', 'is_defined': True, 'name': '_ZNSt3__115numpunct_bynameIwEC1EPKcm', 'storage_mapping_class': 'DS', 'type': 'FUNC'}
{'import_export': 'EXP', 'is_defined': True, 'name': '_ZNSt3__115numpunct_bynameIwEC1ERKNS_12basic_stringIcNS_11char_traitsIcEENS_9allocatorIcEEEEm', 'storage_mapping_class': 'DS', 'type': 'FUNC'}
{'import_export': 'EXP', 'is_defined': True, 'name': '_ZNSt3__115numpunct_bynameIwEC2EPKcm', 'storage_mapping_class': 'DS', 'type': 'FUNC'}
{'import_export': 'EXP', 'is_defined': True, 'name': '_ZNSt3__115numpunct_bynameIwEC2ERKNS_12basic_stringIcNS_11char_traitsIcEENS_9allocatorIcEEEEm', 'storage_mapping_class': 'DS', 'type': 'FUNC'}
{'import_export': 'EXP', 'is_defined': True, 'name': '_ZNSt3__115numpunct_bynameIwED0Ev', 'storage_mapping_class': 'DS', 'type': 'FUNC'}
{'import_export': 'EXP', 'is_defined': True, 'name': '_ZNSt3__115numpunct_bynameIwED1Ev', 'storage_mapping_class': 'DS', 'type': 'FUNC'}
{'import_export': 'EXP', 'is_defined': True, 'name': '_ZNSt3__115numpunct_bynameIwED2Ev', 'storage_mapping_class': 'DS', 'type': 'FUNC'}
{'import_export': 'EXP', 'is_defined': True, 'name': '_ZNSt3__115recursive_mutex4lockEv', 'storage_mapping_class': 'DS', 'type': 'FUNC'}
{'import_export': 'EXP', 'is_defined': True, 'name': '_ZNSt3__115recursive_mutex6unlockEv', 'storage_mapping_class': 'DS', 'type': 'FUNC'}
{'import_export': 'EXP', 'is_defined': True, 'name': '_ZNSt3__115recursive_mutex8try_lockEv', 'storage_mapping_class': 'DS', 'type': 'FUNC'}
{'import_export': 'EXP', 'is_defined': True, 'name': '_ZNSt3__115recursive_mutexC1Ev', 'storage_mapping_class': 'DS', 'type': 'FUNC'}
{'import_export': 'EXP', 'is_defined': True, 'name': '_ZNSt3__115recursive_mutexC2Ev', 'storage_mapping_class': 'DS', 'type': 'FUNC'}
{'import_export': 'EXP', 'is_defined': True, 'name': '_ZNSt3__115recursive_mutexD1Ev', 'storage_mapping_class': 'DS', 'type': 'FUNC'}
{'import_export': 'EXP', 'is_defined': True, 'name': '_ZNSt3__115recursive_mutexD2Ev', 'storage_mapping_class': 'DS', 'type': 'FUNC'}
{'import_export': 'EXP', 'is_defined': True, 'name': '_ZNSt3__115system_categoryEv', 'storage_mapping_class': 'DS', 'type': 'FUNC'}
{'import_export': 'EXP', 'is_defined': True, 'name': '_ZNSt3__116__check_groupingERKNS_12basic_stringIcNS_11char_traitsIcEENS_9allocatorIcEEEEPjS8_Rj', 'storage_mapping_class': 'DS', 'type': 'FUNC'}
{'import_export': 'EXP', 'is_defined': True, 'name': '_ZNSt3__116__narrow_to_utf8ILm16EED0Ev', 'storage_mapping_class': 'DS', 'type': 'FUNC'}
{'import_export': 'EXP', 'is_defined': True, 'name': '_ZNSt3__116__narrow_to_utf8ILm16EED1Ev', 'storage_mapping_class': 'DS', 'type': 'FUNC'}
{'import_export': 'EXP', 'is_defined': True, 'name': '_ZNSt3__116__narrow_to_utf8ILm16EED2Ev', 'storage_mapping_class': 'DS', 'type': 'FUNC'}
{'import_export': 'EXP', 'is_defined': True, 'name': '_ZNSt3__116__narrow_to_utf8ILm32EED0Ev', 'storage_mapping_class': 'DS', 'type': 'FUNC'}
{'import_export': 'EXP', 'is_defined': True, 'name': '_ZNSt3__116__narrow_to_utf8ILm32EED1Ev', 'storage_mapping_class': 'DS', 'type': 'FUNC'}
{'import_export': 'EXP', 'is_defined': True, 'name': '_ZNSt3__116__narrow_to_utf8ILm32EED2Ev', 'storage_mapping_class': 'DS', 'type': 'FUNC'}
{'import_export': 'EXP', 'is_defined': True, 'name': '_ZNSt3__116generic_categoryEv', 'storage_mapping_class': 'DS', 'type': 'FUNC'}
{'import_export': 'EXP', 'is_defined': True, 'name': '_ZNSt3__117__assoc_sub_state10__sub_waitERNS_11unique_lockINS_5mutexEEE', 'storage_mapping_class': 'DS', 'type': 'FUNC'}
{'import_export': 'EXP', 'is_defined': True, 'name': '_ZNSt3__117__assoc_sub_state12__make_readyEv', 'storage_mapping_class': 'DS', 'type': 'FUNC'}
{'import_export': 'EXP', 'is_defined': True, 'name': '_ZNSt3__117__assoc_sub_state13set_exceptionESt13exception_ptr', 'storage_mapping_class': 'DS', 'type': 'FUNC'}
{'import_export': 'EXP', 'is_defined': True, 'name': '_ZNSt3__117__assoc_sub_state16__on_zero_sharedEv', 'storage_mapping_class': 'DS', 'type': 'FUNC'}
{'import_export': 'EXP', 'is_defined': True, 'name': '_ZNSt3__117__assoc_sub_state24set_value_at_thread_exitEv', 'storage_mapping_class': 'DS', 'type': 'FUNC'}
{'import_export': 'EXP', 'is_defined': True, 'name': '_ZNSt3__117__assoc_sub_state28set_exception_at_thread_exitESt13exception_ptr', 'storage_mapping_class': 'DS', 'type': 'FUNC'}
{'import_export': 'EXP', 'is_defined': True, 'name': '_ZNSt3__117__assoc_sub_state4copyEv', 'storage_mapping_class': 'DS', 'type': 'FUNC'}
{'import_export': 'EXP', 'is_defined': True, 'name': '_ZNSt3__117__assoc_sub_state4waitEv', 'storage_mapping_class': 'DS', 'type': 'FUNC'}
{'import_export': 'EXP', 'is_defined': True, 'name': '_ZNSt3__117__assoc_sub_state9__executeEv', 'storage_mapping_class': 'DS', 'type': 'FUNC'}
{'import_export': 'EXP', 'is_defined': True, 'name': '_ZNSt3__117__assoc_sub_state9set_valueEv', 'storage_mapping_class': 'DS', 'type': 'FUNC'}
{'import_export': 'EXP', 'is_defined': True, 'name': '_ZNSt3__117__widen_from_utf8ILm16EED0Ev', 'storage_mapping_class': 'DS', 'type': 'FUNC'}
{'import_export': 'EXP', 'is_defined': True, 'name': '_ZNSt3__117__widen_from_utf8ILm16EED1Ev', 'storage_mapping_class': 'DS', 'type': 'FUNC'}
{'import_export': 'EXP', 'is_defined': True, 'name': '_ZNSt3__117__widen_from_utf8ILm16EED2Ev', 'storage_mapping_class': 'DS', 'type': 'FUNC'}
{'import_export': 'EXP', 'is_defined': True, 'name': '_ZNSt3__117__widen_from_utf8ILm32EED0Ev', 'storage_mapping_class': 'DS', 'type': 'FUNC'}
{'import_export': 'EXP', 'is_defined': True, 'name': '_ZNSt3__117__widen_from_utf8ILm32EED1Ev', 'storage_mapping_class': 'DS', 'type': 'FUNC'}
{'import_export': 'EXP', 'is_defined': True, 'name': '_ZNSt3__117__widen_from_utf8ILm32EED2Ev', 'storage_mapping_class': 'DS', 'type': 'FUNC'}
{'import_export': 'EXP', 'is_defined': True, 'name': '_ZNSt3__117bad_function_callD0Ev', 'storage_mapping_class': 'DS', 'type': 'FUNC'}
{'import_export': 'EXP', 'is_defined': True, 'name': '_ZNSt3__117bad_function_callD1Ev', 'storage_mapping_class': 'DS', 'type': 'FUNC'}
{'import_export': 'EXP', 'is_defined': True, 'name': '_ZNSt3__117bad_function_callD2Ev', 'storage_mapping_class': 'DS', 'type': 'FUNC'}
{'import_export': 'EXP', 'is_defined': True, 'name': '_ZNSt3__117declare_reachableEPv', 'storage_mapping_class': 'DS', 'type': 'FUNC'}
{'import_export': 'EXP', 'is_defined': True, 'name': '_ZNSt3__117iostream_categoryEv', 'storage_mapping_class': 'DS', 'type': 'FUNC'}
{'import_export': 'EXP', 'is_defined': True, 'name': '_ZNSt3__117moneypunct_bynameIcLb0EE4initEPKc', 'storage_mapping_class': 'DS', 'type': 'FUNC'}
{'import_export': 'EXP', 'is_defined': True, 'name': '_ZNSt3__117moneypunct_bynameIcLb1EE4initEPKc', 'storage_mapping_class': 'DS', 'type': 'FUNC'}
{'import_export': 'EXP', 'is_defined': True, 'name': '_ZNSt3__117moneypunct_bynameIwLb0EE4initEPKc', 'storage_mapping_class': 'DS', 'type': 'FUNC'}
{'import_export': 'EXP', 'is_defined': True, 'name': '_ZNSt3__117moneypunct_bynameIwLb1EE4initEPKc', 'storage_mapping_class': 'DS', 'type': 'FUNC'}
{'import_export': 'EXP', 'is_defined': True, 'name': '_ZNSt3__118__get_ostream_fileERNS_13basic_ostreamIcNS_11char_traitsIcEEEE', 'storage_mapping_class': 'DS', 'type': 'FUNC'}
{'import_export': 'EXP', 'is_defined': True, 'name': '_ZNSt3__118__time_get_storageIcE4initERKNS_5ctypeIcEE', 'storage_mapping_class': 'DS', 'type': 'FUNC'}
{'import_export': 'EXP', 'is_defined': True, 'name': '_ZNSt3__118__time_get_storageIcE9__analyzeEcRKNS_5ctypeIcEE', 'storage_mapping_class': 'DS', 'type': 'FUNC'}
{'import_export': 'EXP', 'is_defined': True, 'name': '_ZNSt3__118__time_get_storageIcEC1EPKc', 'storage_mapping_class': 'DS', 'type': 'FUNC'}
{'import_export': 'EXP', 'is_defined': True, 'name': '_ZNSt3__118__time_get_storageIcEC1ERKNS_12basic_stringIcNS_11char_traitsIcEENS_9allocatorIcEEEE', 'storage_mapping_class': 'DS', 'type': 'FUNC'}
{'import_export': 'EXP', 'is_defined': True, 'name': '_ZNSt3__118__time_get_storageIcEC2EPKc', 'storage_mapping_class': 'DS', 'type': 'FUNC'}
{'import_export': 'EXP', 'is_defined': True, 'name': '_ZNSt3__118__time_get_storageIcEC2ERKNS_12basic_stringIcNS_11char_traitsIcEENS_9allocatorIcEEEE', 'storage_mapping_class': 'DS', 'type': 'FUNC'}
{'import_export': 'EXP', 'is_defined': True, 'name': '_ZNSt3__118__time_get_storageIwE4initERKNS_5ctypeIwEE', 'storage_mapping_class': 'DS', 'type': 'FUNC'}
{'import_export': 'EXP', 'is_defined': True, 'name': '_ZNSt3__118__time_get_storageIwE9__analyzeEcRKNS_5ctypeIwEE', 'storage_mapping_class': 'DS', 'type': 'FUNC'}
{'import_export': 'EXP', 'is_defined': True, 'name': '_ZNSt3__118__time_get_storageIwEC1EPKc', 'storage_mapping_class': 'DS', 'type': 'FUNC'}
{'import_export': 'EXP', 'is_defined': True, 'name': '_ZNSt3__118__time_get_storageIwEC1ERKNS_12basic_stringIcNS_11char_traitsIcEENS_9allocatorIcEEEE', 'storage_mapping_class': 'DS', 'type': 'FUNC'}
{'import_export': 'EXP', 'is_defined': True, 'name': '_ZNSt3__118__time_get_storageIwEC2EPKc', 'storage_mapping_class': 'DS', 'type': 'FUNC'}
{'import_export': 'EXP', 'is_defined': True, 'name': '_ZNSt3__118__time_get_storageIwEC2ERKNS_12basic_stringIcNS_11char_traitsIcEENS_9allocatorIcEEEE', 'storage_mapping_class': 'DS', 'type': 'FUNC'}
{'import_export': 'EXP', 'is_defined': True, 'name': '_ZNSt3__118condition_variable10notify_allEv', 'storage_mapping_class': 'DS', 'type': 'FUNC'}
{'import_export': 'EXP', 'is_defined': True, 'name': '_ZNSt3__118condition_variable10notify_oneEv', 'storage_mapping_class': 'DS', 'type': 'FUNC'}
{'import_export': 'EXP', 'is_defined': True, 'name': '_ZNSt3__118condition_variable15__do_timed_waitERNS_11unique_lockINS_5mutexEEENS_6chrono10time_pointINS5_12system_clockENS5_8durationIxNS_5ratioILx1ELx1000000000EEEEEEE', 'storage_mapping_class': 'DS', 'type': 'FUNC'}
{'import_export': 'EXP', 'is_defined': True, 'name': '_ZNSt3__118condition_variable4waitERNS_11unique_lockINS_5mutexEEE', 'storage_mapping_class': 'DS', 'type': 'FUNC'}
{'import_export': 'EXP', 'is_defined': True, 'name': '_ZNSt3__118condition_variableD1Ev', 'storage_mapping_class': 'DS', 'type': 'FUNC'}
{'import_export': 'EXP', 'is_defined': True, 'name': '_ZNSt3__118condition_variableD2Ev', 'storage_mapping_class': 'DS', 'type': 'FUNC'}
{'import_export': 'EXP', 'is_defined': True, 'name': '_ZNSt3__118shared_timed_mutex11lock_sharedEv', 'storage_mapping_class': 'DS', 'type': 'FUNC'}
{'import_export': 'EXP', 'is_defined': True, 'name': '_ZNSt3__118shared_timed_mutex13unlock_sharedEv', 'storage_mapping_class': 'DS', 'type': 'FUNC'}
{'import_export': 'EXP', 'is_defined': True, 'name': '_ZNSt3__118shared_timed_mutex15try_lock_sharedEv', 'storage_mapping_class': 'DS', 'type': 'FUNC'}
{'import_export': 'EXP', 'is_defined': True, 'name': '_ZNSt3__118shared_timed_mutex4lockEv', 'storage_mapping_class': 'DS', 'type': 'FUNC'}
{'import_export': 'EXP', 'is_defined': True, 'name': '_ZNSt3__118shared_timed_mutex6unlockEv', 'storage_mapping_class': 'DS', 'type': 'FUNC'}
{'import_export': 'EXP', 'is_defined': True, 'name': '_ZNSt3__118shared_timed_mutex8try_lockEv', 'storage_mapping_class': 'DS', 'type': 'FUNC'}
{'import_export': 'EXP', 'is_defined': True, 'name': '_ZNSt3__118shared_timed_mutexC1Ev', 'storage_mapping_class': 'DS', 'type': 'FUNC'}
{'import_export': 'EXP', 'is_defined': True, 'name': '_ZNSt3__118shared_timed_mutexC2Ev', 'storage_mapping_class': 'DS', 'type': 'FUNC'}
{'import_export': 'EXP', 'is_defined': True, 'name': '_ZNSt3__119__is_posix_terminalEP4FILE', 'storage_mapping_class': 'DS', 'type': 'FUNC'}
{'import_export': 'EXP', 'is_defined': True, 'name': '_ZNSt3__119__shared_mutex_base11lock_sharedEv', 'storage_mapping_class': 'DS', 'type': 'FUNC'}
{'import_export': 'EXP', 'is_defined': True, 'name': '_ZNSt3__119__shared_mutex_base13unlock_sharedEv', 'storage_mapping_class': 'DS', 'type': 'FUNC'}
{'import_export': 'EXP', 'is_defined': True, 'name': '_ZNSt3__119__shared_mutex_base15try_lock_sharedEv', 'storage_mapping_class': 'DS', 'type': 'FUNC'}
{'import_export': 'EXP', 'is_defined': True, 'name': '_ZNSt3__119__shared_mutex_base4lockEv', 'storage_mapping_class': 'DS', 'type': 'FUNC'}
{'import_export': 'EXP', 'is_defined': True, 'name': '_ZNSt3__119__shared_mutex_base6unlockEv', 'storage_mapping_class': 'DS', 'type': 'FUNC'}
{'import_export': 'EXP', 'is_defined': True, 'name': '_ZNSt3__119__shared_mutex_base8try_lockEv', 'storage_mapping_class': 'DS', 'type': 'FUNC'}
{'import_export': 'EXP', 'is_defined': True, 'name': '_ZNSt3__119__shared_mutex_baseC1Ev', 'storage_mapping_class': 'DS', 'type': 'FUNC'}
{'import_export': 'EXP', 'is_defined': True, 'name': '_ZNSt3__119__shared_mutex_baseC2Ev', 'storage_mapping_class': 'DS', 'type': 'FUNC'}
{'import_export': 'EXP', 'is_defined': True, 'name': '_ZNSt3__119__shared_weak_count14__release_weakEv', 'storage_mapping_class': 'DS', 'type': 'FUNC'}
{'import_export': 'EXP', 'is_defined': True, 'name': '_ZNSt3__119__shared_weak_count4lockEv', 'storage_mapping_class': 'DS', 'type': 'FUNC'}
{'import_export': 'EXP', 'is_defined': True, 'name': '_ZNSt3__119__shared_weak_countD0Ev', 'storage_mapping_class': 'DS', 'type': 'FUNC'}
{'import_export': 'EXP', 'is_defined': True, 'name': '_ZNSt3__119__shared_weak_countD1Ev', 'storage_mapping_class': 'DS', 'type': 'FUNC'}
{'import_export': 'EXP', 'is_defined': True, 'name': '_ZNSt3__119__shared_weak_countD2Ev', 'storage_mapping_class': 'DS', 'type': 'FUNC'}
{'import_export': 'EXP', 'is_defined': True, 'name': '_ZNSt3__119__thread_local_dataEv', 'storage_mapping_class': 'DS', 'type': 'FUNC'}
{'import_export': 'EXP', 'is_defined': True, 'name': '_ZNSt3__119declare_no_pointersEPcm', 'storage_mapping_class': 'DS', 'type': 'FUNC'}
{'import_export': 'EXP', 'is_defined': True, 'name': '_ZNSt3__120__get_collation_nameEPKc', 'storage_mapping_class': 'DS', 'type': 'FUNC'}
{'import_export': 'EXP', 'is_defined': True, 'name': '_ZNSt3__120__libcpp_atomic_waitEPVKNS_17__cxx_atomic_implIiNS_22__cxx_atomic_base_implIiEEEEi', 'storage_mapping_class': 'DS', 'type': 'FUNC'}
{'import_export': 'EXP', 'is_defined': True, 'name': '_ZNSt3__120__libcpp_atomic_waitEPVKvi', 'storage_mapping_class': 'DS', 'type': 'FUNC'}
{'import_export': 'EXP', 'is_defined': True, 'name': '_ZNSt3__120__throw_system_errorEiPKc', 'storage_mapping_class': 'DS', 'type': 'FUNC'}
{'import_export': 'EXP', 'is_defined': True, 'name': '_ZNSt3__121__throw_runtime_errorEPKc', 'storage_mapping_class': 'DS', 'type': 'FUNC'}
{'import_export': 'EXP', 'is_defined': True, 'name': '_ZNSt3__121__undeclare_reachableEPv', 'storage_mapping_class': 'DS', 'type': 'FUNC'}
{'import_export': 'EXP', 'is_defined': True, 'name': '_ZNSt3__121recursive_timed_mutex4lockEv', 'storage_mapping_class': 'DS', 'type': 'FUNC'}
{'import_export': 'EXP', 'is_defined': True, 'name': '_ZNSt3__121recursive_timed_mutex6unlockEv', 'storage_mapping_class': 'DS', 'type': 'FUNC'}
{'import_export': 'EXP', 'is_defined': True, 'name': '_ZNSt3__121recursive_timed_mutex8try_lockEv', 'storage_mapping_class': 'DS', 'type': 'FUNC'}
{'import_export': 'EXP', 'is_defined': True, 'name': '_ZNSt3__121recursive_timed_mutexC1Ev', 'storage_mapping_class': 'DS', 'type': 'FUNC'}
{'import_export': 'EXP', 'is_defined': True, 'name': '_ZNSt3__121recursive_timed_mutexC2Ev', 'storage_mapping_class': 'DS', 'type': 'FUNC'}
{'import_export': 'EXP', 'is_defined': True, 'name': '_ZNSt3__121recursive_timed_mutexD1Ev', 'storage_mapping_class': 'DS', 'type': 'FUNC'}
{'import_export': 'EXP', 'is_defined': True, 'name': '_ZNSt3__121recursive_timed_mutexD2Ev', 'storage_mapping_class': 'DS', 'type': 'FUNC'}
{'import_export': 'EXP', 'is_defined': True, 'name': '_ZNSt3__121undeclare_no_pointersEPcm', 'storage_mapping_class': 'DS', 'type': 'FUNC'}
{'import_export': 'EXP', 'is_defined': True, 'name': '_ZNSt3__123__cxx_atomic_notify_allEPVKNS_17__cxx_atomic_implIiNS_22__cxx_atomic_base_implIiEEEE', 'storage_mapping_class': 'DS', 'type': 'FUNC'}
{'import_export': 'EXP', 'is_defined': True, 'name': '_ZNSt3__123__cxx_atomic_notify_allEPVKv', 'storage_mapping_class': 'DS', 'type': 'FUNC'}
{'import_export': 'EXP', 'is_defined': True, 'name': '_ZNSt3__123__cxx_atomic_notify_oneEPVKNS_17__cxx_atomic_implIiNS_22__cxx_atomic_base_implIiEEEE', 'storage_mapping_class': 'DS', 'type': 'FUNC'}
{'import_export': 'EXP', 'is_defined': True, 'name': '_ZNSt3__123__cxx_atomic_notify_oneEPVKv', 'storage_mapping_class': 'DS', 'type': 'FUNC'}
{'import_export': 'EXP', 'is_defined': True, 'name': '_ZNSt3__123__libcpp_atomic_monitorEPVKNS_17__cxx_atomic_implIiNS_22__cxx_atomic_base_implIiEEEE', 'storage_mapping_class': 'DS', 'type': 'FUNC'}
{'import_export': 'EXP', 'is_defined': True, 'name': '_ZNSt3__123__libcpp_atomic_monitorEPVKv', 'storage_mapping_class': 'DS', 'type': 'FUNC'}
{'import_export': 'EXP', 'is_defined': True, 'name': '_ZNSt3__125notify_all_at_thread_exitERNS_18condition_variableENS_11unique_lockINS_5mutexEEE', 'storage_mapping_class': 'DS', 'type': 'FUNC'}
{'import_export': 'EXP', 'is_defined': True, 'name': '_ZNSt3__131__arrive_barrier_algorithm_baseEPNS_24__barrier_algorithm_baseEh', 'storage_mapping_class': 'DS', 'type': 'FUNC'}
{'import_export': 'EXP', 'is_defined': True, 'name': '_ZNSt3__132__destroy_barrier_algorithm_baseEPNS_24__barrier_algorithm_baseE', 'storage_mapping_class': 'DS', 'type': 'FUNC'}
{'import_export': 'EXP', 'is_defined': True, 'name': '_ZNSt3__134__construct_barrier_algorithm_baseERl', 'storage_mapping_class': 'DS', 'type': 'FUNC'}
{'import_export': 'EXP', 'is_defined': True, 'name': '_ZNSt3__13cinE', 'storage_mapping_class': 'RW', 'type': 'OBJECT'}
{'import_export': 'EXP', 'is_defined': True, 'name': '_ZNSt3__13pmr15memory_resourceD0Ev', 'storage_mapping_class': 'DS', 'type': 'FUNC'}
{'import_export': 'EXP', 'is_defined': True, 'name': '_ZNSt3__13pmr15memory_resourceD1Ev', 'storage_mapping_class': 'DS', 'type': 'FUNC'}
{'import_export': 'EXP', 'is_defined': True, 'name': '_ZNSt3__13pmr15memory_resourceD2Ev', 'storage_mapping_class': 'DS', 'type': 'FUNC'}
{'import_export': 'EXP', 'is_defined': True, 'name': '_ZNSt3__13pmr19new_delete_resourceEv', 'storage_mapping_class': 'DS', 'type': 'FUNC'}
{'import_export': 'EXP', 'is_defined': True, 'name': '_ZNSt3__13pmr20get_default_resourceEv', 'storage_mapping_class': 'DS', 'type': 'FUNC'}
{'import_export': 'EXP', 'is_defined': True, 'name': '_ZNSt3__13pmr20null_memory_resourceEv', 'storage_mapping_class': 'DS', 'type': 'FUNC'}
{'import_export': 'EXP', 'is_defined': True, 'name': '_ZNSt3__13pmr20set_default_resourceEPNS0_15memory_resourceE', 'storage_mapping_class': 'DS', 'type': 'FUNC'}
{'import_export': 'EXP', 'is_defined': True, 'name': '_ZNSt3__13pmr25monotonic_buffer_resource11do_allocateEmm', 'storage_mapping_class': 'DS', 'type': 'FUNC'}
{'import_export': 'EXP', 'is_defined': True, 'name': '_ZNSt3__13pmr25monotonic_buffer_resource14__chunk_footer25__try_allocate_from_chunkEmm', 'storage_mapping_class': 'DS', 'type': 'FUNC'}
{'import_export': 'EXP', 'is_defined': True, 'name': '_ZNSt3__13pmr25monotonic_buffer_resource20__initial_descriptor25__try_allocate_from_chunkEmm', 'storage_mapping_class': 'DS', 'type': 'FUNC'}
{'import_export': 'EXP', 'is_defined': True, 'name': '_ZNSt3__13pmr28unsynchronized_pool_resource11do_allocateEmm', 'storage_mapping_class': 'DS', 'type': 'FUNC'}
{'import_export': 'EXP', 'is_defined': True, 'name': '_ZNSt3__13pmr28unsynchronized_pool_resource12__adhoc_pool13__do_allocateEPNS0_15memory_resourceEmm', 'storage_mapping_class': 'DS', 'type': 'FUNC'}
{'import_export': 'EXP', 'is_defined': True, 'name': '_ZNSt3__13pmr28unsynchronized_pool_resource12__adhoc_pool13__release_ptrEPNS0_15memory_resourceE', 'storage_mapping_class': 'DS', 'type': 'FUNC'}
{'import_export': 'EXP', 'is_defined': True, 'name': '_ZNSt3__13pmr28unsynchronized_pool_resource12__adhoc_pool15__do_deallocateEPNS0_15memory_resourceEPvmm', 'storage_mapping_class': 'DS', 'type': 'FUNC'}
{'import_export': 'EXP', 'is_defined': True, 'name': '_ZNSt3__13pmr28unsynchronized_pool_resource13do_deallocateEPvmm', 'storage_mapping_class': 'DS', 'type': 'FUNC'}
{'import_export': 'EXP', 'is_defined': True, 'name': '_ZNSt3__13pmr28unsynchronized_pool_resource7releaseEv', 'storage_mapping_class': 'DS', 'type': 'FUNC'}
{'import_export': 'EXP', 'is_defined': True, 'name': '_ZNSt3__13pmr28unsynchronized_pool_resourceC1ERKNS0_12pool_optionsEPNS0_15memory_resourceE', 'storage_mapping_class': 'DS', 'type': 'FUNC'}
{'import_export': 'EXP', 'is_defined': True, 'name': '_ZNSt3__13pmr28unsynchronized_pool_resourceC2ERKNS0_12pool_optionsEPNS0_15memory_resourceE', 'storage_mapping_class': 'DS', 'type': 'FUNC'}
{'import_export': 'EXP', 'is_defined': True, 'name': '_ZNSt3__14__fs10filesystem10__absoluteERKNS1_4pathEPNS_10error_codeE', 'storage_mapping_class': 'DS', 'type': 'FUNC'}
{'import_export': 'EXP', 'is_defined': True, 'name': '_ZNSt3__14__fs10filesystem10hash_valueERKNS1_4pathE', 'storage_mapping_class': 'DS', 'type': 'FUNC'}
{'import_export': 'EXP', 'is_defined': True, 'name': '_ZNSt3__14__fs10filesystem11__canonicalERKNS1_4pathEPNS_10error_codeE', 'storage_mapping_class': 'DS', 'type': 'FUNC'}
{'import_export': 'EXP', 'is_defined': True, 'name': '_ZNSt3__14__fs10filesystem11__copy_fileERKNS1_4pathES4_NS1_12copy_optionsEPNS_10error_codeE', 'storage_mapping_class': 'DS', 'type': 'FUNC'}
{'import_export': 'EXP', 'is_defined': True, 'name': '_ZNSt3__14__fs10filesystem11__file_sizeERKNS1_4pathEPNS_10error_codeE', 'storage_mapping_class': 'DS', 'type': 'FUNC'}
{'import_export': 'EXP', 'is_defined': True, 'name': '_ZNSt3__14__fs10filesystem12__equivalentERKNS1_4pathES4_PNS_10error_codeE', 'storage_mapping_class': 'DS', 'type': 'FUNC'}
{'import_export': 'EXP', 'is_defined': True, 'name': '_ZNSt3__14__fs10filesystem12__remove_allERKNS1_4pathEPNS_10error_codeE', 'storage_mapping_class': 'DS', 'type': 'FUNC'}
{'import_export': 'EXP', 'is_defined': True, 'name': '_ZNSt3__14__fs10filesystem13__fs_is_emptyERKNS1_4pathEPNS_10error_codeE', 'storage_mapping_class': 'DS', 'type': 'FUNC'}
{'import_export': 'EXP', 'is_defined': True, 'name': '_ZNSt3__14__fs10filesystem13__permissionsERKNS1_4pathENS1_5permsENS1_12perm_optionsEPNS_10error_codeE', 'storage_mapping_class': 'DS', 'type': 'FUNC'}
{'import_export': 'EXP', 'is_defined': True, 'name': '_ZNSt3__14__fs10filesystem13__resize_fileERKNS1_4pathEyPNS_10error_codeE', 'storage_mapping_class': 'DS', 'type': 'FUNC'}
{'import_export': 'EXP', 'is_defined': True, 'name': '_ZNSt3__14__fs10filesystem14__copy_symlinkERKNS1_4pathES4_PNS_10error_codeE', 'storage_mapping_class': 'DS', 'type': 'FUNC'}
{'import_export': 'EXP', 'is_defined': True, 'name': '_ZNSt3__14__fs10filesystem14__current_pathEPNS_10error_codeE', 'storage_mapping_class': 'DS', 'type': 'FUNC'}
{'import_export': 'EXP', 'is_defined': True, 'name': '_ZNSt3__14__fs10filesystem14__current_pathERKNS1_4pathEPNS_10error_codeE', 'storage_mapping_class': 'DS', 'type': 'FUNC'}
{'import_export': 'EXP', 'is_defined': True, 'name': '_ZNSt3__14__fs10filesystem14__read_symlinkERKNS1_4pathEPNS_10error_codeE', 'storage_mapping_class': 'DS', 'type': 'FUNC'}
{'import_export': 'EXP', 'is_defined': True, 'name': '_ZNSt3__14__fs10filesystem15directory_entry12__do_refreshEv', 'storage_mapping_class': 'DS', 'type': 'FUNC'}
{'import_export': 'EXP', 'is_defined': True, 'name': '_ZNSt3__14__fs10filesystem16_FilesystemClock3nowEv', 'storage_mapping_class': 'DS', 'type': 'FUNC'}
{'import_export': 'EXP', 'is_defined': True, 'name': '_ZNSt3__14__fs10filesystem16__create_symlinkERKNS1_4pathES4_PNS_10error_codeE', 'storage_mapping_class': 'DS', 'type': 'FUNC'}
{'import_export': 'EXP', 'is_defined': True, 'name': '_ZNSt3__14__fs10filesystem16__symlink_statusERKNS1_4pathEPNS_10error_codeE', 'storage_mapping_class': 'DS', 'type': 'FUNC'}
{'import_export': 'EXP', 'is_defined': True, 'name': '_ZNSt3__14__fs10filesystem16filesystem_error13__create_whatEi', 'storage_mapping_class': 'DS', 'type': 'FUNC'}
{'import_export': 'EXP', 'is_defined': True, 'name': '_ZNSt3__14__fs10filesystem16filesystem_errorD0Ev', 'storage_mapping_class': 'DS', 'type': 'FUNC'}
{'import_export': 'EXP', 'is_defined': True, 'name': '_ZNSt3__14__fs10filesystem16filesystem_errorD1Ev', 'storage_mapping_class': 'DS', 'type': 'FUNC'}
{'import_export': 'EXP', 'is_defined': True, 'name': '_ZNSt3__14__fs10filesystem16filesystem_errorD2Ev', 'storage_mapping_class': 'DS', 'type': 'FUNC'}
{'import_export': 'EXP', 'is_defined': True, 'name': '_ZNSt3__14__fs10filesystem17__hard_link_countERKNS1_4pathEPNS_10error_codeE', 'storage_mapping_class': 'DS', 'type': 'FUNC'}
{'import_export': 'EXP', 'is_defined': True, 'name': '_ZNSt3__14__fs10filesystem17__last_write_timeERKNS1_4pathENS_6chrono10time_pointINS1_16_FilesystemClockENS5_8durationIxNS_5ratioILx1ELx1000000000EEEEEEEPNS_10error_codeE', 'storage_mapping_class': 'DS', 'type': 'FUNC'}
{'import_export': 'EXP', 'is_defined': True, 'name': '_ZNSt3__14__fs10filesystem17__last_write_timeERKNS1_4pathEPNS_10error_codeE', 'storage_mapping_class': 'DS', 'type': 'FUNC'}
{'import_export': 'EXP', 'is_defined': True, 'name': '_ZNSt3__14__fs10filesystem18__create_directoryERKNS1_4pathEPNS_10error_codeE', 'storage_mapping_class': 'DS', 'type': 'FUNC'}
{'import_export': 'EXP', 'is_defined': True, 'name': '_ZNSt3__14__fs10filesystem18__create_directoryERKNS1_4pathES4_PNS_10error_codeE', 'storage_mapping_class': 'DS', 'type': 'FUNC'}
{'import_export': 'EXP', 'is_defined': True, 'name': '_ZNSt3__14__fs10filesystem18__create_hard_linkERKNS1_4pathES4_PNS_10error_codeE', 'storage_mapping_class': 'DS', 'type': 'FUNC'}
{'import_export': 'EXP', 'is_defined': True, 'name': '_ZNSt3__14__fs10filesystem18__weakly_canonicalERKNS1_4pathEPNS_10error_codeE', 'storage_mapping_class': 'DS', 'type': 'FUNC'}
{'import_export': 'EXP', 'is_defined': True, 'name': '_ZNSt3__14__fs10filesystem18directory_iterator11__incrementEPNS_10error_codeE', 'storage_mapping_class': 'DS', 'type': 'FUNC'}
{'import_export': 'EXP', 'is_defined': True, 'name': '_ZNSt3__14__fs10filesystem18directory_iteratorC1ERKNS1_4pathEPNS_10error_codeENS1_17directory_optionsE', 'storage_mapping_class': 'DS', 'type': 'FUNC'}
{'import_export': 'EXP', 'is_defined': True, 'name': '_ZNSt3__14__fs10filesystem18directory_iteratorC2ERKNS1_4pathEPNS_10error_codeENS1_17directory_optionsE', 'storage_mapping_class': 'DS', 'type': 'FUNC'}
{'import_export': 'EXP', 'is_defined': True, 'name': '_ZNSt3__14__fs10filesystem20__create_directoriesERKNS1_4pathEPNS_10error_codeE', 'storage_mapping_class': 'DS', 'type': 'FUNC'}
{'import_export': 'EXP', 'is_defined': True, 'name': '_ZNSt3__14__fs10filesystem21__temp_directory_pathEPNS_10error_codeE', 'storage_mapping_class': 'DS', 'type': 'FUNC'}
{'import_export': 'EXP', 'is_defined': True, 'name': '_ZNSt3__14__fs10filesystem26__create_directory_symlinkERKNS1_4pathES4_PNS_10error_codeE', 'storage_mapping_class': 'DS', 'type': 'FUNC'}
{'import_export': 'EXP', 'is_defined': True, 'name': '_ZNSt3__14__fs10filesystem28recursive_directory_iterator11__incrementEPNS_10error_codeE', 'storage_mapping_class': 'DS', 'type': 'FUNC'}
{'import_export': 'EXP', 'is_defined': True, 'name': '_ZNSt3__14__fs10filesystem28recursive_directory_iterator15__try_recursionEPNS_10error_codeE', 'storage_mapping_class': 'DS', 'type': 'FUNC'}
{'import_export': 'EXP', 'is_defined': True, 'name': '_ZNSt3__14__fs10filesystem28recursive_directory_iterator5__popEPNS_10error_codeE', 'storage_mapping_class': 'DS', 'type': 'FUNC'}
{'import_export': 'EXP', 'is_defined': True, 'name': '_ZNSt3__14__fs10filesystem28recursive_directory_iterator9__advanceEPNS_10error_codeE', 'storage_mapping_class': 'DS', 'type': 'FUNC'}
{'import_export': 'EXP', 'is_defined': True, 'name': '_ZNSt3__14__fs10filesystem28recursive_directory_iteratorC1ERKNS1_4pathENS1_17directory_optionsEPNS_10error_codeE', 'storage_mapping_class': 'DS', 'type': 'FUNC'}
{'import_export': 'EXP', 'is_defined': True, 'name': '_ZNSt3__14__fs10filesystem28recursive_directory_iteratorC2ERKNS1_4pathENS1_17directory_optionsEPNS_10error_codeE', 'storage_mapping_class': 'DS', 'type': 'FUNC'}
{'import_export': 'EXP', 'is_defined': True, 'name': '_ZNSt3__14__fs10filesystem4path17replace_extensionERKS2_', 'storage_mapping_class': 'DS', 'type': 'FUNC'}
{'import_export': 'EXP', 'is_defined': True, 'name': '_ZNSt3__14__fs10filesystem4path8iterator11__decrementEv', 'storage_mapping_class': 'DS', 'type': 'FUNC'}
{'import_export': 'EXP', 'is_defined': True, 'name': '_ZNSt3__14__fs10filesystem4path8iterator11__incrementEv', 'storage_mapping_class': 'DS', 'type': 'FUNC'}
{'import_export': 'EXP', 'is_defined': True, 'name': '_ZNSt3__14__fs10filesystem6__copyERKNS1_4pathES4_NS1_12copy_optionsEPNS_10error_codeE', 'storage_mapping_class': 'DS', 'type': 'FUNC'}
{'import_export': 'EXP', 'is_defined': True, 'name': '_ZNSt3__14__fs10filesystem7__spaceERKNS1_4pathEPNS_10error_codeE', 'storage_mapping_class': 'DS', 'type': 'FUNC'}
{'import_export': 'EXP', 'is_defined': True, 'name': '_ZNSt3__14__fs10filesystem8__removeERKNS1_4pathEPNS_10error_codeE', 'storage_mapping_class': 'DS', 'type': 'FUNC'}
{'import_export': 'EXP', 'is_defined': True, 'name': '_ZNSt3__14__fs10filesystem8__renameERKNS1_4pathES4_PNS_10error_codeE', 'storage_mapping_class': 'DS', 'type': 'FUNC'}
{'import_export': 'EXP', 'is_defined': True, 'name': '_ZNSt3__14__fs10filesystem8__statusERKNS1_4pathEPNS_10error_codeE', 'storage_mapping_class': 'DS', 'type': 'FUNC'}
{'import_export': 'EXP', 'is_defined': True, 'name': '_ZNSt3__14cerrE', 'storage_mapping_class': 'RW', 'type': 'OBJECT'}
{'import_export': 'EXP', 'is_defined': True, 'name': '_ZNSt3__14clogE', 'storage_mapping_class': 'RW', 'type': 'OBJECT'}
{'import_export': 'EXP', 'is_defined': True, 'name': '_ZNSt3__14coutE', 'storage_mapping_class': 'RW', 'type': 'OBJECT'}
{'import_export': 'EXP', 'is_defined': True, 'name': '_ZNSt3__14stodERKNS_12basic_stringIcNS_11char_traitsIcEENS_9allocatorIcEEEEPm', 'storage_mapping_class': 'DS', 'type': 'FUNC'}
{'import_export': 'EXP', 'is_defined': True, 'name': '_ZNSt3__14stodERKNS_12basic_stringIwNS_11char_traitsIwEENS_9allocatorIwEEEEPm', 'storage_mapping_class': 'DS', 'type': 'FUNC'}
{'import_export': 'EXP', 'is_defined': True, 'name': '_ZNSt3__14stofERKNS_12basic_stringIcNS_11char_traitsIcEENS_9allocatorIcEEEEPm', 'storage_mapping_class': 'DS', 'type': 'FUNC'}
{'import_export': 'EXP', 'is_defined': True, 'name': '_ZNSt3__14stofERKNS_12basic_stringIwNS_11char_traitsIwEENS_9allocatorIwEEEEPm', 'storage_mapping_class': 'DS', 'type': 'FUNC'}
{'import_export': 'EXP', 'is_defined': True, 'name': '_ZNSt3__14stoiERKNS_12basic_stringIcNS_11char_traitsIcEENS_9allocatorIcEEEEPmi', 'storage_mapping_class': 'DS', 'type': 'FUNC'}
{'import_export': 'EXP', 'is_defined': True, 'name': '_ZNSt3__14stoiERKNS_12basic_stringIwNS_11char_traitsIwEENS_9allocatorIwEEEEPmi', 'storage_mapping_class': 'DS', 'type': 'FUNC'}
{'import_export': 'EXP', 'is_defined': True, 'name': '_ZNSt3__14stolERKNS_12basic_stringIcNS_11char_traitsIcEENS_9allocatorIcEEEEPmi', 'storage_mapping_class': 'DS', 'type': 'FUNC'}
{'import_export': 'EXP', 'is_defined': True, 'name': '_ZNSt3__14stolERKNS_12basic_stringIwNS_11char_traitsIwEENS_9allocatorIwEEEEPmi', 'storage_mapping_class': 'DS', 'type': 'FUNC'}
{'import_export': 'EXP', 'is_defined': True, 'name': '_ZNSt3__14wcinE', 'storage_mapping_class': 'RW', 'type': 'OBJECT'}
{'import_export': 'EXP', 'is_defined': True, 'name': '_ZNSt3__15alignEmmRPvRm', 'storage_mapping_class': 'DS', 'type': 'FUNC'}
{'import_export': 'EXP', 'is_defined': True, 'name': '_ZNSt3__15ctypeIcE10table_sizeE', 'storage_mapping_class': 'RO', 'type': 'OBJECT'}
{'import_export': 'EXP', 'is_defined': True, 'name': '_ZNSt3__15ctypeIcE13classic_tableEv', 'storage_mapping_class': 'DS', 'type': 'FUNC'}
{'import_export': 'EXP', 'is_defined': True, 'name': '_ZNSt3__15ctypeIcE2idE', 'storage_mapping_class': 'RW', 'type': 'OBJECT'}
{'import_export': 'EXP', 'is_defined': True, 'name': '_ZNSt3__15ctypeIcEC1EPKjbm', 'storage_mapping_class': 'DS', 'type': 'FUNC'}
{'import_export': 'EXP', 'is_defined': True, 'name': '_ZNSt3__15ctypeIcEC2EPKjbm', 'storage_mapping_class': 'DS', 'type': 'FUNC'}
{'import_export': 'EXP', 'is_defined': True, 'name': '_ZNSt3__15ctypeIcED0Ev', 'storage_mapping_class': 'DS', 'type': 'FUNC'}
{'import_export': 'EXP', 'is_defined': True, 'name': '_ZNSt3__15ctypeIcED1Ev', 'storage_mapping_class': 'DS', 'type': 'FUNC'}
{'import_export': 'EXP', 'is_defined': True, 'name': '_ZNSt3__15ctypeIcED2Ev', 'storage_mapping_class': 'DS', 'type': 'FUNC'}
{'import_export': 'EXP', 'is_defined': True, 'name': '_ZNSt3__15ctypeIwE2idE', 'storage_mapping_class': 'RW', 'type': 'OBJECT'}
{'import_export': 'EXP', 'is_defined': True, 'name': '_ZNSt3__15ctypeIwED0Ev', 'storage_mapping_class': 'DS', 'type': 'FUNC'}
{'import_export': 'EXP', 'is_defined': True, 'name': '_ZNSt3__15ctypeIwED1Ev', 'storage_mapping_class': 'DS', 'type': 'FUNC'}
{'import_export': 'EXP', 'is_defined': True, 'name': '_ZNSt3__15ctypeIwED2Ev', 'storage_mapping_class': 'DS', 'type': 'FUNC'}
{'import_export': 'EXP', 'is_defined': True, 'name': '_ZNSt3__15mutex4lockEv', 'storage_mapping_class': 'DS', 'type': 'FUNC'}
{'import_export': 'EXP', 'is_defined': True, 'name': '_ZNSt3__15mutex6unlockEv', 'storage_mapping_class': 'DS', 'type': 'FUNC'}
{'import_export': 'EXP', 'is_defined': True, 'name': '_ZNSt3__15mutex8try_lockEv', 'storage_mapping_class': 'DS', 'type': 'FUNC'}
{'import_export': 'EXP', 'is_defined': True, 'name': '_ZNSt3__15mutexD1Ev', 'storage_mapping_class': 'DS', 'type': 'FUNC'}
{'import_export': 'EXP', 'is_defined': True, 'name': '_ZNSt3__15mutexD2Ev', 'storage_mapping_class': 'DS', 'type': 'FUNC'}
{'import_export': 'EXP', 'is_defined': True, 'name': '_ZNSt3__15stoldERKNS_12basic_stringIcNS_11char_traitsIcEENS_9allocatorIcEEEEPm', 'storage_mapping_class': 'DS', 'type': 'FUNC'}
{'import_export': 'EXP', 'is_defined': True, 'name': '_ZNSt3__15stoldERKNS_12basic_stringIwNS_11char_traitsIwEENS_9allocatorIwEEEEPm', 'storage_mapping_class': 'DS', 'type': 'FUNC'}
{'import_export': 'EXP', 'is_defined': True, 'name': '_ZNSt3__15stollERKNS_12basic_stringIcNS_11char_traitsIcEENS_9allocatorIcEEEEPmi', 'storage_mapping_class': 'DS', 'type': 'FUNC'}
{'import_export': 'EXP', 'is_defined': True, 'name': '_ZNSt3__15stollERKNS_12basic_stringIwNS_11char_traitsIwEENS_9allocatorIwEEEEPmi', 'storage_mapping_class': 'DS', 'type': 'FUNC'}
{'import_export': 'EXP', 'is_defined': True, 'name': '_ZNSt3__15stoulERKNS_12basic_stringIcNS_11char_traitsIcEENS_9allocatorIcEEEEPmi', 'storage_mapping_class': 'DS', 'type': 'FUNC'}
{'import_export': 'EXP', 'is_defined': True, 'name': '_ZNSt3__15stoulERKNS_12basic_stringIwNS_11char_traitsIwEENS_9allocatorIwEEEEPmi', 'storage_mapping_class': 'DS', 'type': 'FUNC'}
{'import_export': 'EXP', 'is_defined': True, 'name': '_ZNSt3__15wcerrE', 'storage_mapping_class': 'RW', 'type': 'OBJECT'}
{'import_export': 'EXP', 'is_defined': True, 'name': '_ZNSt3__15wclogE', 'storage_mapping_class': 'RW', 'type': 'OBJECT'}
{'import_export': 'EXP', 'is_defined': True, 'name': '_ZNSt3__15wcoutE', 'storage_mapping_class': 'RW', 'type': 'OBJECT'}
{'import_export': 'EXP', 'is_defined': True, 'name': '_ZNSt3__16__clocEv', 'storage_mapping_class': 'DS', 'type': 'FUNC'}
{'import_export': 'EXP', 'is_defined': True, 'name': '_ZNSt3__16__itoa8__u32toaEjPc', 'storage_mapping_class': 'DS', 'type': 'FUNC'}
{'import_export': 'EXP', 'is_defined': True, 'name': '_ZNSt3__16__itoa8__u64toaEyPc', 'storage_mapping_class': 'DS', 'type': 'FUNC'}
{'import_export': 'EXP', 'is_defined': True, 'name': '_ZNSt3__16chrono12steady_clock3nowEv', 'storage_mapping_class': 'DS', 'type': 'FUNC'}
{'import_export': 'EXP', 'is_defined': True, 'name': '_ZNSt3__16chrono12system_clock11from_time_tEi', 'storage_mapping_class': 'DS', 'type': 'FUNC'}
{'import_export': 'EXP', 'is_defined': True, 'name': '_ZNSt3__16chrono12system_clock3nowEv', 'storage_mapping_class': 'DS', 'type': 'FUNC'}
{'import_export': 'EXP', 'is_defined': True, 'name': '_ZNSt3__16chrono12system_clock9to_time_tERKNS0_10time_pointIS1_NS0_8durationIxNS_5ratioILx1ELx1000000EEEEEEE', 'storage_mapping_class': 'DS', 'type': 'FUNC'}
{'import_export': 'EXP', 'is_defined': True, 'name': '_ZNSt3__16futureIvE3getEv', 'storage_mapping_class': 'DS', 'type': 'FUNC'}
{'import_export': 'EXP', 'is_defined': True, 'name': '_ZNSt3__16futureIvEC1EPNS_17__assoc_sub_stateE', 'storage_mapping_class': 'DS', 'type': 'FUNC'}
{'import_export': 'EXP', 'is_defined': True, 'name': '_ZNSt3__16futureIvEC2EPNS_17__assoc_sub_stateE', 'storage_mapping_class': 'DS', 'type': 'FUNC'}
{'import_export': 'EXP', 'is_defined': True, 'name': '_ZNSt3__16futureIvED1Ev', 'storage_mapping_class': 'DS', 'type': 'FUNC'}
{'import_export': 'EXP', 'is_defined': True, 'name': '_ZNSt3__16futureIvED2Ev', 'storage_mapping_class': 'DS', 'type': 'FUNC'}
{'import_export': 'EXP', 'is_defined': True, 'name': '_ZNSt3__16gslice6__initEm', 'storage_mapping_class': 'DS', 'type': 'FUNC'}
{'import_export': 'EXP', 'is_defined': True, 'name': '_ZNSt3__16locale14__install_ctorERKS0_PNS0_5facetEl', 'storage_mapping_class': 'DS', 'type': 'FUNC'}
{'import_export': 'EXP', 'is_defined': True, 'name': '_ZNSt3__16locale2id5__getEv', 'storage_mapping_class': 'DS', 'type': 'FUNC'}
{'import_export': 'EXP', 'is_defined': True, 'name': '_ZNSt3__16locale2id9__next_idE', 'storage_mapping_class': 'RW', 'type': 'OBJECT'}
{'import_export': 'EXP', 'is_defined': True, 'name': '_ZNSt3__16locale3allE', 'storage_mapping_class': 'RO', 'type': 'OBJECT'}
{'import_export': 'EXP', 'is_defined': True, 'name': '_ZNSt3__16locale4noneE', 'storage_mapping_class': 'RO', 'type': 'OBJECT'}
{'import_export': 'EXP', 'is_defined': True, 'name': '_ZNSt3__16locale4timeE', 'storage_mapping_class': 'RO', 'type': 'OBJECT'}
{'import_export': 'EXP', 'is_defined': True, 'name': '_ZNSt3__16locale5ctypeE', 'storage_mapping_class': 'RO', 'type': 'OBJECT'}
{'import_export': 'EXP', 'is_defined': True, 'name': '_ZNSt3__16locale5facet16__on_zero_sharedEv', 'storage_mapping_class': 'DS', 'type': 'FUNC'}
{'import_export': 'EXP', 'is_defined': True, 'name': '_ZNSt3__16locale5facetD0Ev', 'storage_mapping_class': 'DS', 'type': 'FUNC'}
{'import_export': 'EXP', 'is_defined': True, 'name': '_ZNSt3__16locale5facetD1Ev', 'storage_mapping_class': 'DS', 'type': 'FUNC'}
{'import_export': 'EXP', 'is_defined': True, 'name': '_ZNSt3__16locale5facetD2Ev', 'storage_mapping_class': 'DS', 'type': 'FUNC'}
{'import_export': 'EXP', 'is_defined': True, 'name': '_ZNSt3__16locale6globalERKS0_', 'storage_mapping_class': 'DS', 'type': 'FUNC'}
{'import_export': 'EXP', 'is_defined': True, 'name': '_ZNSt3__16locale7classicEv', 'storage_mapping_class': 'DS', 'type': 'FUNC'}
{'import_export': 'EXP', 'is_defined': True, 'name': '_ZNSt3__16locale7collateE', 'storage_mapping_class': 'RO', 'type': 'OBJECT'}
{'import_export': 'EXP', 'is_defined': True, 'name': '_ZNSt3__16locale7numericE', 'storage_mapping_class': 'RO', 'type': 'OBJECT'}
{'import_export': 'EXP', 'is_defined': True, 'name': '_ZNSt3__16locale8__globalEv', 'storage_mapping_class': 'DS', 'type': 'FUNC'}
{'import_export': 'EXP', 'is_defined': True, 'name': '_ZNSt3__16locale8messagesE', 'storage_mapping_class': 'RO', 'type': 'OBJECT'}
{'import_export': 'EXP', 'is_defined': True, 'name': '_ZNSt3__16locale8monetaryE', 'storage_mapping_class': 'RO', 'type': 'OBJECT'}
{'import_export': 'EXP', 'is_defined': True, 'name': '_ZNSt3__16localeC1EPKc', 'storage_mapping_class': 'DS', 'type': 'FUNC'}
{'import_export': 'EXP', 'is_defined': True, 'name': '_ZNSt3__16localeC1ERKNS_12basic_stringIcNS_11char_traitsIcEENS_9allocatorIcEEEE', 'storage_mapping_class': 'DS', 'type': 'FUNC'}
{'import_export': 'EXP', 'is_defined': True, 'name': '_ZNSt3__16localeC1ERKS0_', 'storage_mapping_class': 'DS', 'type': 'FUNC'}
{'import_export': 'EXP', 'is_defined': True, 'name': '_ZNSt3__16localeC1ERKS0_PKci', 'storage_mapping_class': 'DS', 'type': 'FUNC'}
{'import_export': 'EXP', 'is_defined': True, 'name': '_ZNSt3__16localeC1ERKS0_RKNS_12basic_stringIcNS_11char_traitsIcEENS_9allocatorIcEEEEi', 'storage_mapping_class': 'DS', 'type': 'FUNC'}
{'import_export': 'EXP', 'is_defined': True, 'name': '_ZNSt3__16localeC1ERKS0_S2_i', 'storage_mapping_class': 'DS', 'type': 'FUNC'}
{'import_export': 'EXP', 'is_defined': True, 'name': '_ZNSt3__16localeC1Ev', 'storage_mapping_class': 'DS', 'type': 'FUNC'}
{'import_export': 'EXP', 'is_defined': True, 'name': '_ZNSt3__16localeC2EPKc', 'storage_mapping_class': 'DS', 'type': 'FUNC'}
{'import_export': 'EXP', 'is_defined': True, 'name': '_ZNSt3__16localeC2ERKNS_12basic_stringIcNS_11char_traitsIcEENS_9allocatorIcEEEE', 'storage_mapping_class': 'DS', 'type': 'FUNC'}
{'import_export': 'EXP', 'is_defined': True, 'name': '_ZNSt3__16localeC2ERKS0_', 'storage_mapping_class': 'DS', 'type': 'FUNC'}
{'import_export': 'EXP', 'is_defined': True, 'name': '_ZNSt3__16localeC2ERKS0_PKci', 'storage_mapping_class': 'DS', 'type': 'FUNC'}
{'import_export': 'EXP', 'is_defined': True, 'name': '_ZNSt3__16localeC2ERKS0_RKNS_12basic_stringIcNS_11char_traitsIcEENS_9allocatorIcEEEEi', 'storage_mapping_class': 'DS', 'type': 'FUNC'}
{'import_export': 'EXP', 'is_defined': True, 'name': '_ZNSt3__16localeC2ERKS0_S2_i', 'storage_mapping_class': 'DS', 'type': 'FUNC'}
{'import_export': 'EXP', 'is_defined': True, 'name': '_ZNSt3__16localeC2Ev', 'storage_mapping_class': 'DS', 'type': 'FUNC'}
{'import_export': 'EXP', 'is_defined': True, 'name': '_ZNSt3__16localeD1Ev', 'storage_mapping_class': 'DS', 'type': 'FUNC'}
{'import_export': 'EXP', 'is_defined': True, 'name': '_ZNSt3__16localeD2Ev', 'storage_mapping_class': 'DS', 'type': 'FUNC'}
{'import_export': 'EXP', 'is_defined': True, 'name': '_ZNSt3__16localeaSERKS0_', 'storage_mapping_class': 'DS', 'type': 'FUNC'}
{'import_export': 'EXP', 'is_defined': True, 'name': '_ZNSt3__16stoullERKNS_12basic_stringIcNS_11char_traitsIcEENS_9allocatorIcEEEEPmi', 'storage_mapping_class': 'DS', 'type': 'FUNC'}
{'import_export': 'EXP', 'is_defined': True, 'name': '_ZNSt3__16stoullERKNS_12basic_stringIwNS_11char_traitsIwEENS_9allocatorIwEEEEPmi', 'storage_mapping_class': 'DS', 'type': 'FUNC'}
{'import_export': 'EXP', 'is_defined': True, 'name': '_ZNSt3__16thread20hardware_concurrencyEv', 'storage_mapping_class': 'DS', 'type': 'FUNC'}
{'import_export': 'EXP', 'is_defined': True, 'name': '_ZNSt3__16thread4joinEv', 'storage_mapping_class': 'DS', 'type': 'FUNC'}
{'import_export': 'EXP', 'is_defined': True, 'name': '_ZNSt3__16thread6detachEv', 'storage_mapping_class': 'DS', 'type': 'FUNC'}
{'import_export': 'EXP', 'is_defined': True, 'name': '_ZNSt3__16threadD1Ev', 'storage_mapping_class': 'DS', 'type': 'FUNC'}
{'import_export': 'EXP', 'is_defined': True, 'name': '_ZNSt3__16threadD2Ev', 'storage_mapping_class': 'DS', 'type': 'FUNC'}
{'import_export': 'EXP', 'is_defined': True, 'name': '_ZNSt3__17codecvtIDiDuPcE2idE', 'storage_mapping_class': 'RW', 'type': 'OBJECT'}
{'import_export': 'EXP', 'is_defined': True, 'name': '_ZNSt3__17codecvtIDiDuPcED0Ev', 'storage_mapping_class': 'DS', 'type': 'FUNC'}
{'import_export': 'EXP', 'is_defined': True, 'name': '_ZNSt3__17codecvtIDiDuPcED1Ev', 'storage_mapping_class': 'DS', 'type': 'FUNC'}
{'import_export': 'EXP', 'is_defined': True, 'name': '_ZNSt3__17codecvtIDiDuPcED2Ev', 'storage_mapping_class': 'DS', 'type': 'FUNC'}
{'import_export': 'EXP', 'is_defined': True, 'name': '_ZNSt3__17codecvtIDicPcE2idE', 'storage_mapping_class': 'RW', 'type': 'OBJECT'}
{'import_export': 'EXP', 'is_defined': True, 'name': '_ZNSt3__17codecvtIDicPcED0Ev', 'storage_mapping_class': 'DS', 'type': 'FUNC'}
{'import_export': 'EXP', 'is_defined': True, 'name': '_ZNSt3__17codecvtIDicPcED1Ev', 'storage_mapping_class': 'DS', 'type': 'FUNC'}
{'import_export': 'EXP', 'is_defined': True, 'name': '_ZNSt3__17codecvtIDicPcED2Ev', 'storage_mapping_class': 'DS', 'type': 'FUNC'}
{'import_export': 'EXP', 'is_defined': True, 'name': '_ZNSt3__17codecvtIDsDuPcE2idE', 'storage_mapping_class': 'RW', 'type': 'OBJECT'}
{'import_export': 'EXP', 'is_defined': True, 'name': '_ZNSt3__17codecvtIDsDuPcED0Ev', 'storage_mapping_class': 'DS', 'type': 'FUNC'}
{'import_export': 'EXP', 'is_defined': True, 'name': '_ZNSt3__17codecvtIDsDuPcED1Ev', 'storage_mapping_class': 'DS', 'type': 'FUNC'}
{'import_export': 'EXP', 'is_defined': True, 'name': '_ZNSt3__17codecvtIDsDuPcED2Ev', 'storage_mapping_class': 'DS', 'type': 'FUNC'}
{'import_export': 'EXP', 'is_defined': True, 'name': '_ZNSt3__17codecvtIDscPcE2idE', 'storage_mapping_class': 'RW', 'type': 'OBJECT'}
{'import_export': 'EXP', 'is_defined': True, 'name': '_ZNSt3__17codecvtIDscPcED0Ev', 'storage_mapping_class': 'DS', 'type': 'FUNC'}
{'import_export': 'EXP', 'is_defined': True, 'name': '_ZNSt3__17codecvtIDscPcED1Ev', 'storage_mapping_class': 'DS', 'type': 'FUNC'}
{'import_export': 'EXP', 'is_defined': True, 'name': '_ZNSt3__17codecvtIDscPcED2Ev', 'storage_mapping_class': 'DS', 'type': 'FUNC'}
{'import_export': 'EXP', 'is_defined': True, 'name': '_ZNSt3__17codecvtIccPcE2idE', 'storage_mapping_class': 'RW', 'type': 'OBJECT'}
{'import_export': 'EXP', 'is_defined': True, 'name': '_ZNSt3__17codecvtIccPcED0Ev', 'storage_mapping_class': 'DS', 'type': 'FUNC'}
{'import_export': 'EXP', 'is_defined': True, 'name': '_ZNSt3__17codecvtIccPcED1Ev', 'storage_mapping_class': 'DS', 'type': 'FUNC'}
{'import_export': 'EXP', 'is_defined': True, 'name': '_ZNSt3__17codecvtIccPcED2Ev', 'storage_mapping_class': 'DS', 'type': 'FUNC'}
{'import_export': 'EXP', 'is_defined': True, 'name': '_ZNSt3__17codecvtIwcPcE2idE', 'storage_mapping_class': 'RW', 'type': 'OBJECT'}
{'import_export': 'EXP', 'is_defined': True, 'name': '_ZNSt3__17codecvtIwcPcEC1EPKcm', 'storage_mapping_class': 'DS', 'type': 'FUNC'}
{'import_export': 'EXP', 'is_defined': True, 'name': '_ZNSt3__17codecvtIwcPcEC1Em', 'storage_mapping_class': 'DS', 'type': 'FUNC'}
{'import_export': 'EXP', 'is_defined': True, 'name': '_ZNSt3__17codecvtIwcPcEC2EPKcm', 'storage_mapping_class': 'DS', 'type': 'FUNC'}
{'import_export': 'EXP', 'is_defined': True, 'name': '_ZNSt3__17codecvtIwcPcEC2Em', 'storage_mapping_class': 'DS', 'type': 'FUNC'}
{'import_export': 'EXP', 'is_defined': True, 'name': '_ZNSt3__17codecvtIwcPcED0Ev', 'storage_mapping_class': 'DS', 'type': 'FUNC'}
{'import_export': 'EXP', 'is_defined': True, 'name': '_ZNSt3__17codecvtIwcPcED1Ev', 'storage_mapping_class': 'DS', 'type': 'FUNC'}
{'import_export': 'EXP', 'is_defined': True, 'name': '_ZNSt3__17codecvtIwcPcED2Ev', 'storage_mapping_class': 'DS', 'type': 'FUNC'}
{'import_export': 'EXP', 'is_defined': True, 'name': '_ZNSt3__17promiseIvE10get_futureEv', 'storage_mapping_class': 'DS', 'type': 'FUNC'}
{'import_export': 'EXP', 'is_defined': True, 'name': '_ZNSt3__17promiseIvE13set_exceptionESt13exception_ptr', 'storage_mapping_class': 'DS', 'type': 'FUNC'}
{'import_export': 'EXP', 'is_defined': True, 'name': '_ZNSt3__17promiseIvE24set_value_at_thread_exitEv', 'storage_mapping_class': 'DS', 'type': 'FUNC'}
{'import_export': 'EXP', 'is_defined': True, 'name': '_ZNSt3__17promiseIvE28set_exception_at_thread_exitESt13exception_ptr', 'storage_mapping_class': 'DS', 'type': 'FUNC'}
{'import_export': 'EXP', 'is_defined': True, 'name': '_ZNSt3__17promiseIvE9set_valueEv', 'storage_mapping_class': 'DS', 'type': 'FUNC'}
{'import_export': 'EXP', 'is_defined': True, 'name': '_ZNSt3__17promiseIvEC1Ev', 'storage_mapping_class': 'DS', 'type': 'FUNC'}
{'import_export': 'EXP', 'is_defined': True, 'name': '_ZNSt3__17promiseIvEC2Ev', 'storage_mapping_class': 'DS', 'type': 'FUNC'}
{'import_export': 'EXP', 'is_defined': True, 'name': '_ZNSt3__17promiseIvED1Ev', 'storage_mapping_class': 'DS', 'type': 'FUNC'}
{'import_export': 'EXP', 'is_defined': True, 'name': '_ZNSt3__17promiseIvED2Ev', 'storage_mapping_class': 'DS', 'type': 'FUNC'}
{'import_export': 'EXP', 'is_defined': True, 'name': '_ZNSt3__18__rs_getEv', 'storage_mapping_class': 'DS', 'type': 'FUNC'}
{'import_export': 'EXP', 'is_defined': True, 'name': '_ZNSt3__18__sp_mut4lockEv', 'storage_mapping_class': 'DS', 'type': 'FUNC'}
{'import_export': 'EXP', 'is_defined': True, 'name': '_ZNSt3__18__sp_mut6unlockEv', 'storage_mapping_class': 'DS', 'type': 'FUNC'}
{'import_export': 'EXP', 'is_defined': True, 'name': '_ZNSt3__18ios_base10floatfieldE', 'storage_mapping_class': 'RO', 'type': 'OBJECT'}
{'import_export': 'EXP', 'is_defined': True, 'name': '_ZNSt3__18ios_base10scientificE', 'storage_mapping_class': 'RO', 'type': 'OBJECT'}
{'import_export': 'EXP', 'is_defined': True, 'name': '_ZNSt3__18ios_base11adjustfieldE', 'storage_mapping_class': 'RO', 'type': 'OBJECT'}
{'import_export': 'EXP', 'is_defined': True, 'name': '_ZNSt3__18ios_base15sync_with_stdioEb', 'storage_mapping_class': 'DS', 'type': 'FUNC'}
{'import_export': 'EXP', 'is_defined': True, 'name': '_ZNSt3__18ios_base16__call_callbacksENS0_5eventE', 'storage_mapping_class': 'DS', 'type': 'FUNC'}
{'import_export': 'EXP', 'is_defined': True, 'name': '_ZNSt3__18ios_base17register_callbackEPFvNS0_5eventERS0_iEi', 'storage_mapping_class': 'DS', 'type': 'FUNC'}
{'import_export': 'EXP', 'is_defined': True, 'name': '_ZNSt3__18ios_base2inE', 'storage_mapping_class': 'RO', 'type': 'OBJECT'}
{'import_export': 'EXP', 'is_defined': True, 'name': '_ZNSt3__18ios_base33__set_badbit_and_consider_rethrowEv', 'storage_mapping_class': 'DS', 'type': 'FUNC'}
{'import_export': 'EXP', 'is_defined': True, 'name': '_ZNSt3__18ios_base34__set_failbit_and_consider_rethrowEv', 'storage_mapping_class': 'DS', 'type': 'FUNC'}
{'import_export': 'EXP', 'is_defined': True, 'name': '_ZNSt3__18ios_base3appE', 'storage_mapping_class': 'RO', 'type': 'OBJECT'}
{'import_export': 'EXP', 'is_defined': True, 'name': '_ZNSt3__18ios_base3ateE', 'storage_mapping_class': 'RO', 'type': 'OBJECT'}
{'import_export': 'EXP', 'is_defined': True, 'name': '_ZNSt3__18ios_base3decE', 'storage_mapping_class': 'RO', 'type': 'OBJECT'}
{'import_export': 'EXP', 'is_defined': True, 'name': '_ZNSt3__18ios_base3hexE', 'storage_mapping_class': 'RO', 'type': 'OBJECT'}
{'import_export': 'EXP', 'is_defined': True, 'name': '_ZNSt3__18ios_base3octE', 'storage_mapping_class': 'RO', 'type': 'OBJECT'}
{'import_export': 'EXP', 'is_defined': True, 'name': '_ZNSt3__18ios_base3outE', 'storage_mapping_class': 'RO', 'type': 'OBJECT'}
{'import_export': 'EXP', 'is_defined': True, 'name': '_ZNSt3__18ios_base4InitC1Ev', 'storage_mapping_class': 'DS', 'type': 'FUNC'}
{'import_export': 'EXP', 'is_defined': True, 'name': '_ZNSt3__18ios_base4InitC2Ev', 'storage_mapping_class': 'DS', 'type': 'FUNC'}
{'import_export': 'EXP', 'is_defined': True, 'name': '_ZNSt3__18ios_base4InitD1Ev', 'storage_mapping_class': 'DS', 'type': 'FUNC'}
{'import_export': 'EXP', 'is_defined': True, 'name': '_ZNSt3__18ios_base4InitD2Ev', 'storage_mapping_class': 'DS', 'type': 'FUNC'}
{'import_export': 'EXP', 'is_defined': True, 'name': '_ZNSt3__18ios_base4initEPv', 'storage_mapping_class': 'DS', 'type': 'FUNC'}
{'import_export': 'EXP', 'is_defined': True, 'name': '_ZNSt3__18ios_base4leftE', 'storage_mapping_class': 'RO', 'type': 'OBJECT'}
{'import_export': 'EXP', 'is_defined': True, 'name': '_ZNSt3__18ios_base4moveERS0_', 'storage_mapping_class': 'DS', 'type': 'FUNC'}
{'import_export': 'EXP', 'is_defined': True, 'name': '_ZNSt3__18ios_base4swapERS0_', 'storage_mapping_class': 'DS', 'type': 'FUNC'}
{'import_export': 'EXP', 'is_defined': True, 'name': '_ZNSt3__18ios_base5clearEj', 'storage_mapping_class': 'DS', 'type': 'FUNC'}
{'import_export': 'EXP', 'is_defined': True, 'name': '_ZNSt3__18ios_base5fixedE', 'storage_mapping_class': 'RO', 'type': 'OBJECT'}
{'import_export': 'EXP', 'is_defined': True, 'name': '_ZNSt3__18ios_base5imbueERKNS_6localeE', 'storage_mapping_class': 'DS', 'type': 'FUNC'}
{'import_export': 'EXP', 'is_defined': True, 'name': '_ZNSt3__18ios_base5iwordEi', 'storage_mapping_class': 'DS', 'type': 'FUNC'}
{'import_export': 'EXP', 'is_defined': True, 'name': '_ZNSt3__18ios_base5pwordEi', 'storage_mapping_class': 'DS', 'type': 'FUNC'}
{'import_export': 'EXP', 'is_defined': True, 'name': '_ZNSt3__18ios_base5rightE', 'storage_mapping_class': 'RO', 'type': 'OBJECT'}
{'import_export': 'EXP', 'is_defined': True, 'name': '_ZNSt3__18ios_base5truncE', 'storage_mapping_class': 'RO', 'type': 'OBJECT'}
{'import_export': 'EXP', 'is_defined': True, 'name': '_ZNSt3__18ios_base6badbitE', 'storage_mapping_class': 'RO', 'type': 'OBJECT'}
{'import_export': 'EXP', 'is_defined': True, 'name': '_ZNSt3__18ios_base6binaryE', 'storage_mapping_class': 'RO', 'type': 'OBJECT'}
{'import_export': 'EXP', 'is_defined': True, 'name': '_ZNSt3__18ios_base6eofbitE', 'storage_mapping_class': 'RO', 'type': 'OBJECT'}
{'import_export': 'EXP', 'is_defined': True, 'name': '_ZNSt3__18ios_base6skipwsE', 'storage_mapping_class': 'RO', 'type': 'OBJECT'}
{'import_export': 'EXP', 'is_defined': True, 'name': '_ZNSt3__18ios_base6xallocEv', 'storage_mapping_class': 'DS', 'type': 'FUNC'}
{'import_export': 'EXP', 'is_defined': True, 'name': '_ZNSt3__18ios_base7copyfmtERKS0_', 'storage_mapping_class': 'DS', 'type': 'FUNC'}
{'import_export': 'EXP', 'is_defined': True, 'name': '_ZNSt3__18ios_base7failbitE', 'storage_mapping_class': 'RO', 'type': 'OBJECT'}
{'import_export': 'EXP', 'is_defined': True, 'name': '_ZNSt3__18ios_base7failureC1EPKcRKNS_10error_codeE', 'storage_mapping_class': 'DS', 'type': 'FUNC'}
{'import_export': 'EXP', 'is_defined': True, 'name': '_ZNSt3__18ios_base7failureC1ERKNS_12basic_stringIcNS_11char_traitsIcEENS_9allocatorIcEEEERKNS_10error_codeE', 'storage_mapping_class': 'DS', 'type': 'FUNC'}
{'import_export': 'EXP', 'is_defined': True, 'name': '_ZNSt3__18ios_base7failureC2EPKcRKNS_10error_codeE', 'storage_mapping_class': 'DS', 'type': 'FUNC'}
{'import_export': 'EXP', 'is_defined': True, 'name': '_ZNSt3__18ios_base7failureC2ERKNS_12basic_stringIcNS_11char_traitsIcEENS_9allocatorIcEEEERKNS_10error_codeE', 'storage_mapping_class': 'DS', 'type': 'FUNC'}
{'import_export': 'EXP', 'is_defined': True, 'name': '_ZNSt3__18ios_base7failureD0Ev', 'storage_mapping_class': 'DS', 'type': 'FUNC'}
{'import_export': 'EXP', 'is_defined': True, 'name': '_ZNSt3__18ios_base7failureD1Ev', 'storage_mapping_class': 'DS', 'type': 'FUNC'}
{'import_export': 'EXP', 'is_defined': True, 'name': '_ZNSt3__18ios_base7failureD2Ev', 'storage_mapping_class': 'DS', 'type': 'FUNC'}
{'import_export': 'EXP', 'is_defined': True, 'name': '_ZNSt3__18ios_base7goodbitE', 'storage_mapping_class': 'RO', 'type': 'OBJECT'}
{'import_export': 'EXP', 'is_defined': True, 'name': '_ZNSt3__18ios_base7showposE', 'storage_mapping_class': 'RO', 'type': 'OBJECT'}
{'import_export': 'EXP', 'is_defined': True, 'name': '_ZNSt3__18ios_base7unitbufE', 'storage_mapping_class': 'RO', 'type': 'OBJECT'}
{'import_export': 'EXP', 'is_defined': True, 'name': '_ZNSt3__18ios_base8internalE', 'storage_mapping_class': 'RO', 'type': 'OBJECT'}
{'import_export': 'EXP', 'is_defined': True, 'name': '_ZNSt3__18ios_base8showbaseE', 'storage_mapping_class': 'RO', 'type': 'OBJECT'}
{'import_export': 'EXP', 'is_defined': True, 'name': '_ZNSt3__18ios_base9__xindex_E', 'storage_mapping_class': 'RW', 'type': 'OBJECT'}
{'import_export': 'EXP', 'is_defined': True, 'name': '_ZNSt3__18ios_base9basefieldE', 'storage_mapping_class': 'RO', 'type': 'OBJECT'}
{'import_export': 'EXP', 'is_defined': True, 'name': '_ZNSt3__18ios_base9boolalphaE', 'storage_mapping_class': 'RO', 'type': 'OBJECT'}
{'import_export': 'EXP', 'is_defined': True, 'name': '_ZNSt3__18ios_base9showpointE', 'storage_mapping_class': 'RO', 'type': 'OBJECT'}
{'import_export': 'EXP', 'is_defined': True, 'name': '_ZNSt3__18ios_base9uppercaseE', 'storage_mapping_class': 'RO', 'type': 'OBJECT'}
{'import_export': 'EXP', 'is_defined': True, 'name': '_ZNSt3__18ios_baseD0Ev', 'storage_mapping_class': 'DS', 'type': 'FUNC'}
{'import_export': 'EXP', 'is_defined': True, 'name': '_ZNSt3__18ios_baseD1Ev', 'storage_mapping_class': 'DS', 'type': 'FUNC'}
{'import_export': 'EXP', 'is_defined': True, 'name': '_ZNSt3__18ios_baseD2Ev', 'storage_mapping_class': 'DS', 'type': 'FUNC'}
{'import_export': 'EXP', 'is_defined': True, 'name': '_ZNSt3__18numpunctIcE2idE', 'storage_mapping_class': 'RW', 'type': 'OBJECT'}
{'import_export': 'EXP', 'is_defined': True, 'name': '_ZNSt3__18numpunctIcEC1Em', 'storage_mapping_class': 'DS', 'type': 'FUNC'}
{'import_export': 'EXP', 'is_defined': True, 'name': '_ZNSt3__18numpunctIcEC2Em', 'storage_mapping_class': 'DS', 'type': 'FUNC'}
{'import_export': 'EXP', 'is_defined': True, 'name': '_ZNSt3__18numpunctIcED0Ev', 'storage_mapping_class': 'DS', 'type': 'FUNC'}
{'import_export': 'EXP', 'is_defined': True, 'name': '_ZNSt3__18numpunctIcED1Ev', 'storage_mapping_class': 'DS', 'type': 'FUNC'}
{'import_export': 'EXP', 'is_defined': True, 'name': '_ZNSt3__18numpunctIcED2Ev', 'storage_mapping_class': 'DS', 'type': 'FUNC'}
{'import_export': 'EXP', 'is_defined': True, 'name': '_ZNSt3__18numpunctIwE2idE', 'storage_mapping_class': 'RW', 'type': 'OBJECT'}
{'import_export': 'EXP', 'is_defined': True, 'name': '_ZNSt3__18numpunctIwEC1Em', 'storage_mapping_class': 'DS', 'type': 'FUNC'}
{'import_export': 'EXP', 'is_defined': True, 'name': '_ZNSt3__18numpunctIwEC2Em', 'storage_mapping_class': 'DS', 'type': 'FUNC'}
{'import_export': 'EXP', 'is_defined': True, 'name': '_ZNSt3__18numpunctIwED0Ev', 'storage_mapping_class': 'DS', 'type': 'FUNC'}
{'import_export': 'EXP', 'is_defined': True, 'name': '_ZNSt3__18numpunctIwED1Ev', 'storage_mapping_class': 'DS', 'type': 'FUNC'}
{'import_export': 'EXP', 'is_defined': True, 'name': '_ZNSt3__18numpunctIwED2Ev', 'storage_mapping_class': 'DS', 'type': 'FUNC'}
{'import_export': 'EXP', 'is_defined': True, 'name': '_ZNSt3__18to_charsEPcS0_d', 'storage_mapping_class': 'DS', 'type': 'FUNC'}
{'import_export': 'EXP', 'is_defined': True, 'name': '_ZNSt3__18to_charsEPcS0_dNS_12chars_formatE', 'storage_mapping_class': 'DS', 'type': 'FUNC'}
{'import_export': 'EXP', 'is_defined': True, 'name': '_ZNSt3__18to_charsEPcS0_dNS_12chars_formatEi', 'storage_mapping_class': 'DS', 'type': 'FUNC'}
{'import_export': 'EXP', 'is_defined': True, 'name': '_ZNSt3__18to_charsEPcS0_e', 'storage_mapping_class': 'DS', 'type': 'FUNC'}
{'import_export': 'EXP', 'is_defined': True, 'name': '_ZNSt3__18to_charsEPcS0_eNS_12chars_formatE', 'storage_mapping_class': 'DS', 'type': 'FUNC'}
{'import_export': 'EXP', 'is_defined': True, 'name': '_ZNSt3__18to_charsEPcS0_eNS_12chars_formatEi', 'storage_mapping_class': 'DS', 'type': 'FUNC'}
{'import_export': 'EXP', 'is_defined': True, 'name': '_ZNSt3__18to_charsEPcS0_f', 'storage_mapping_class': 'DS', 'type': 'FUNC'}
{'import_export': 'EXP', 'is_defined': True, 'name': '_ZNSt3__18to_charsEPcS0_fNS_12chars_formatE', 'storage_mapping_class': 'DS', 'type': 'FUNC'}
{'import_export': 'EXP', 'is_defined': True, 'name': '_ZNSt3__18to_charsEPcS0_fNS_12chars_formatEi', 'storage_mapping_class': 'DS', 'type': 'FUNC'}
{'import_export': 'EXP', 'is_defined': True, 'name': '_ZNSt3__19strstreamD0Ev', 'storage_mapping_class': 'DS', 'type': 'FUNC'}
{'import_export': 'EXP', 'is_defined': True, 'name': '_ZNSt3__19strstreamD1Ev', 'storage_mapping_class': 'DS', 'type': 'FUNC'}
{'import_export': 'EXP', 'is_defined': True, 'name': '_ZNSt3__19strstreamD2Ev', 'storage_mapping_class': 'DS', 'type': 'FUNC'}
{'import_export': 'EXP', 'is_defined': True, 'name': '_ZNSt3__19to_stringEd', 'storage_mapping_class': 'DS', 'type': 'FUNC'}
{'import_export': 'EXP', 'is_defined': True, 'name': '_ZNSt3__19to_stringEe', 'storage_mapping_class': 'DS', 'type': 'FUNC'}
{'import_export': 'EXP', 'is_defined': True, 'name': '_ZNSt3__19to_stringEf', 'storage_mapping_class': 'DS', 'type': 'FUNC'}
{'import_export': 'EXP', 'is_defined': True, 'name': '_ZNSt3__19to_stringEi', 'storage_mapping_class': 'DS', 'type': 'FUNC'}
{'import_export': 'EXP', 'is_defined': True, 'name': '_ZNSt3__19to_stringEj', 'storage_mapping_class': 'DS', 'type': 'FUNC'}
{'import_export': 'EXP', 'is_defined': True, 'name': '_ZNSt3__19to_stringEl', 'storage_mapping_class': 'DS', 'type': 'FUNC'}
{'import_export': 'EXP', 'is_defined': True, 'name': '_ZNSt3__19to_stringEm', 'storage_mapping_class': 'DS', 'type': 'FUNC'}
{'import_export': 'EXP', 'is_defined': True, 'name': '_ZNSt3__19to_stringEx', 'storage_mapping_class': 'DS', 'type': 'FUNC'}
{'import_export': 'EXP', 'is_defined': True, 'name': '_ZNSt3__19to_stringEy', 'storage_mapping_class': 'DS', 'type': 'FUNC'}
{'import_export': 'EXP', 'is_defined': True, 'name': '_ZSt17__throw_bad_allocv', 'storage_mapping_class': 'DS', 'type': 'FUNC'}
{'import_export': 'EXP', 'is_defined': True, 'name': '_ZSt17current_exceptionv', 'storage_mapping_class': 'DS', 'type': 'FUNC'}
{'import_export': 'EXP', 'is_defined': True, 'name': '_ZSt17rethrow_exceptionSt13exception_ptr', 'storage_mapping_class': 'DS', 'type': 'FUNC'}
{'import_export': 'EXP', 'is_defined': True, 'name': '_ZSt18uncaught_exceptionv', 'storage_mapping_class': 'DS', 'type': 'FUNC'}
{'import_export': 'EXP', 'is_defined': True, 'name': '_ZSt19uncaught_exceptionsv', 'storage_mapping_class': 'DS', 'type': 'FUNC'}
{'import_export': 'EXP', 'is_defined': True, 'name': '_ZSt7nothrow', 'storage_mapping_class': 'RO', 'type': 'OBJECT'}
{'import_export': 'EXP', 'is_defined': True, 'name': '_ZTCNSt3__110istrstreamE0_NS_13basic_istreamIcNS_11char_traitsIcEEEE', 'storage_mapping_class': 'RW', 'type': 'OBJECT'}
{'import_export': 'EXP', 'is_defined': True, 'name': '_ZTCNSt3__110ostrstreamE0_NS_13basic_ostreamIcNS_11char_traitsIcEEEE', 'storage_mapping_class': 'RW', 'type': 'OBJECT'}
{'import_export': 'EXP', 'is_defined': True, 'name': '_ZTCNSt3__19strstreamE0_NS_13basic_istreamIcNS_11char_traitsIcEEEE', 'storage_mapping_class': 'RW', 'type': 'OBJECT'}
{'import_export': 'EXP', 'is_defined': True, 'name': '_ZTCNSt3__19strstreamE0_NS_14basic_iostreamIcNS_11char_traitsIcEEEE', 'storage_mapping_class': 'RW', 'type': 'OBJECT'}
{'import_export': 'EXP', 'is_defined': True, 'name': '_ZTCNSt3__19strstreamE8_NS_13basic_ostreamIcNS_11char_traitsIcEEEE', 'storage_mapping_class': 'RW', 'type': 'OBJECT'}
{'import_export': 'EXP', 'is_defined': True, 'name': '_ZTINSt12experimental15fundamentals_v112bad_any_castE', 'storage_mapping_class': 'RW', 'type': 'OBJECT'}
{'import_export': 'EXP', 'is_defined': True, 'name': '_ZTINSt12experimental19bad_optional_accessE', 'storage_mapping_class': 'RW', 'type': 'OBJECT'}
{'import_export': 'EXP', 'is_defined': True, 'name': '_ZTINSt3__110istrstreamE', 'storage_mapping_class': 'RW', 'type': 'OBJECT'}
{'import_export': 'EXP', 'is_defined': True, 'name': '_ZTINSt3__110ostrstreamE', 'storage_mapping_class': 'RW', 'type': 'OBJECT'}
{'import_export': 'EXP', 'is_defined': True, 'name': '_ZTINSt3__111regex_errorE', 'storage_mapping_class': 'RW', 'type': 'OBJECT'}
{'import_export': 'EXP', 'is_defined': True, 'name': '_ZTINSt3__112bad_weak_ptrE', 'storage_mapping_class': 'RW', 'type': 'OBJECT'}
{'import_export': 'EXP', 'is_defined': True, 'name': '_ZTINSt3__112ctype_bynameIcEE', 'storage_mapping_class': 'RW', 'type': 'OBJECT'}
{'import_export': 'EXP', 'is_defined': True, 'name': '_ZTINSt3__112ctype_bynameIwEE', 'storage_mapping_class': 'RW', 'type': 'OBJECT'}
{'import_export': 'EXP', 'is_defined': True, 'name': '_ZTINSt3__112future_errorE', 'storage_mapping_class': 'RW', 'type': 'OBJECT'}
{'import_export': 'EXP', 'is_defined': True, 'name': '_ZTINSt3__112strstreambufE', 'storage_mapping_class': 'RW', 'type': 'OBJECT'}
{'import_export': 'EXP', 'is_defined': True, 'name': '_ZTINSt3__112system_errorE', 'storage_mapping_class': 'RW', 'type': 'OBJECT'}
{'import_export': 'EXP', 'is_defined': True, 'name': '_ZTINSt3__114__codecvt_utf8IDiEE', 'storage_mapping_class': 'RW', 'type': 'OBJECT'}
{'import_export': 'EXP', 'is_defined': True, 'name': '_ZTINSt3__114__codecvt_utf8IDsEE', 'storage_mapping_class': 'RW', 'type': 'OBJECT'}
{'import_export': 'EXP', 'is_defined': True, 'name': '_ZTINSt3__114__codecvt_utf8IwEE', 'storage_mapping_class': 'RW', 'type': 'OBJECT'}
{'import_export': 'EXP', 'is_defined': True, 'name': '_ZTINSt3__114__shared_countE', 'storage_mapping_class': 'RW', 'type': 'OBJECT'}
{'import_export': 'EXP', 'is_defined': True, 'name': '_ZTINSt3__114collate_bynameIcEE', 'storage_mapping_class': 'RW', 'type': 'OBJECT'}
{'import_export': 'EXP', 'is_defined': True, 'name': '_ZTINSt3__114collate_bynameIwEE', 'storage_mapping_class': 'RW', 'type': 'OBJECT'}
{'import_export': 'EXP', 'is_defined': True, 'name': '_ZTINSt3__114error_categoryE', 'storage_mapping_class': 'RW', 'type': 'OBJECT'}
{'import_export': 'EXP', 'is_defined': True, 'name': '_ZTINSt3__115__codecvt_utf16IDiLb0EEE', 'storage_mapping_class': 'RW', 'type': 'OBJECT'}
{'import_export': 'EXP', 'is_defined': True, 'name': '_ZTINSt3__115__codecvt_utf16IDiLb1EEE', 'storage_mapping_class': 'RW', 'type': 'OBJECT'}
{'import_export': 'EXP', 'is_defined': True, 'name': '_ZTINSt3__115__codecvt_utf16IDsLb0EEE', 'storage_mapping_class': 'RW', 'type': 'OBJECT'}
{'import_export': 'EXP', 'is_defined': True, 'name': '_ZTINSt3__115__codecvt_utf16IDsLb1EEE', 'storage_mapping_class': 'RW', 'type': 'OBJECT'}
{'import_export': 'EXP', 'is_defined': True, 'name': '_ZTINSt3__115__codecvt_utf16IwLb0EEE', 'storage_mapping_class': 'RW', 'type': 'OBJECT'}
{'import_export': 'EXP', 'is_defined': True, 'name': '_ZTINSt3__115__codecvt_utf16IwLb1EEE', 'storage_mapping_class': 'RW', 'type': 'OBJECT'}
{'import_export': 'EXP', 'is_defined': True, 'name': '_ZTINSt3__115numpunct_bynameIcEE', 'storage_mapping_class': 'RW', 'type': 'OBJECT'}
{'import_export': 'EXP', 'is_defined': True, 'name': '_ZTINSt3__115numpunct_bynameIwEE', 'storage_mapping_class': 'RW', 'type': 'OBJECT'}
{'import_export': 'EXP', 'is_defined': True, 'name': '_ZTINSt3__116__narrow_to_utf8ILm16EEE', 'storage_mapping_class': 'RW', 'type': 'OBJECT'}
{'import_export': 'EXP', 'is_defined': True, 'name': '_ZTINSt3__116__narrow_to_utf8ILm32EEE', 'storage_mapping_class': 'RW', 'type': 'OBJECT'}
{'import_export': 'EXP', 'is_defined': True, 'name': '_ZTINSt3__117__assoc_sub_stateE', 'storage_mapping_class': 'RW', 'type': 'OBJECT'}
{'import_export': 'EXP', 'is_defined': True, 'name': '_ZTINSt3__117__widen_from_utf8ILm16EEE', 'storage_mapping_class': 'RW', 'type': 'OBJECT'}
{'import_export': 'EXP', 'is_defined': True, 'name': '_ZTINSt3__117__widen_from_utf8ILm32EEE', 'storage_mapping_class': 'RW', 'type': 'OBJECT'}
{'import_export': 'EXP', 'is_defined': True, 'name': '_ZTINSt3__117bad_function_callE', 'storage_mapping_class': 'RW', 'type': 'OBJECT'}
{'import_export': 'EXP', 'is_defined': True, 'name': '_ZTINSt3__119__shared_weak_countE', 'storage_mapping_class': 'RW', 'type': 'OBJECT'}
{'import_export': 'EXP', 'is_defined': True, 'name': '_ZTINSt3__119bad_expected_accessIvEE', 'storage_mapping_class': 'RW', 'type': 'OBJECT'}
{'import_export': 'EXP', 'is_defined': True, 'name': '_ZTINSt3__120__codecvt_utf8_utf16IDiEE', 'storage_mapping_class': 'RW', 'type': 'OBJECT'}
{'import_export': 'EXP', 'is_defined': True, 'name': '_ZTINSt3__120__codecvt_utf8_utf16IDsEE', 'storage_mapping_class': 'RW', 'type': 'OBJECT'}
{'import_export': 'EXP', 'is_defined': True, 'name': '_ZTINSt3__120__codecvt_utf8_utf16IwEE', 'storage_mapping_class': 'RW', 'type': 'OBJECT'}
{'import_export': 'EXP', 'is_defined': True, 'name': '_ZTINSt3__13pmr15memory_resourceE', 'storage_mapping_class': 'RW', 'type': 'OBJECT'}
{'import_export': 'EXP', 'is_defined': True, 'name': '_ZTINSt3__13pmr25monotonic_buffer_resourceE', 'storage_mapping_class': 'RW', 'type': 'OBJECT'}
{'import_export': 'EXP', 'is_defined': True, 'name': '_ZTINSt3__13pmr26synchronized_pool_resourceE', 'storage_mapping_class': 'RW', 'type': 'OBJECT'}
{'import_export': 'EXP', 'is_defined': True, 'name': '_ZTINSt3__13pmr28unsynchronized_pool_resourceE', 'storage_mapping_class': 'RW', 'type': 'OBJECT'}
{'import_export': 'EXP', 'is_defined': True, 'name': '_ZTINSt3__14__fs10filesystem16filesystem_errorE', 'storage_mapping_class': 'RW', 'type': 'OBJECT'}
{'import_export': 'EXP', 'is_defined': True, 'name': '_ZTINSt3__15ctypeIcEE', 'storage_mapping_class': 'RW', 'type': 'OBJECT'}
{'import_export': 'EXP', 'is_defined': True, 'name': '_ZTINSt3__15ctypeIwEE', 'storage_mapping_class': 'RW', 'type': 'OBJECT'}
{'import_export': 'EXP', 'is_defined': True, 'name': '_ZTINSt3__16locale5facetE', 'storage_mapping_class': 'RW', 'type': 'OBJECT'}
{'import_export': 'EXP', 'is_defined': True, 'name': '_ZTINSt3__17codecvtIDiDuPcEE', 'storage_mapping_class': 'RW', 'type': 'OBJECT'}
{'import_export': 'EXP', 'is_defined': True, 'name': '_ZTINSt3__17codecvtIDicPcEE', 'storage_mapping_class': 'RW', 'type': 'OBJECT'}
{'import_export': 'EXP', 'is_defined': True, 'name': '_ZTINSt3__17codecvtIDsDuPcEE', 'storage_mapping_class': 'RW', 'type': 'OBJECT'}
{'import_export': 'EXP', 'is_defined': True, 'name': '_ZTINSt3__17codecvtIDscPcEE', 'storage_mapping_class': 'RW', 'type': 'OBJECT'}
{'import_export': 'EXP', 'is_defined': True, 'name': '_ZTINSt3__17codecvtIccPcEE', 'storage_mapping_class': 'RW', 'type': 'OBJECT'}
{'import_export': 'EXP', 'is_defined': True, 'name': '_ZTINSt3__17codecvtIwcPcEE', 'storage_mapping_class': 'RW', 'type': 'OBJECT'}
{'import_export': 'EXP', 'is_defined': True, 'name': '_ZTINSt3__18ios_base7failureE', 'storage_mapping_class': 'RW', 'type': 'OBJECT'}
{'import_export': 'EXP', 'is_defined': True, 'name': '_ZTINSt3__18ios_baseE', 'storage_mapping_class': 'RW', 'type': 'OBJECT'}
{'import_export': 'EXP', 'is_defined': True, 'name': '_ZTINSt3__18numpunctIcEE', 'storage_mapping_class': 'RW', 'type': 'OBJECT'}
{'import_export': 'EXP', 'is_defined': True, 'name': '_ZTINSt3__18numpunctIwEE', 'storage_mapping_class': 'RW', 'type': 'OBJECT'}
{'import_export': 'EXP', 'is_defined': True, 'name': '_ZTINSt3__19strstreamE', 'storage_mapping_class': 'RW', 'type': 'OBJECT'}
{'import_export': 'EXP', 'is_defined': True, 'name': '_ZTISt12bad_any_cast', 'storage_mapping_class': 'RW', 'type': 'OBJECT'}
{'import_export': 'EXP', 'is_defined': True, 'name': '_ZTISt16nested_exception', 'storage_mapping_class': 'RW', 'type': 'OBJECT'}
{'import_export': 'EXP', 'is_defined': True, 'name': '_ZTISt18bad_variant_access', 'storage_mapping_class': 'RW', 'type': 'OBJECT'}
{'import_export': 'EXP', 'is_defined': True, 'name': '_ZTISt19bad_optional_access', 'storage_mapping_class': 'RW', 'type': 'OBJECT'}
{'import_export': 'EXP', 'is_defined': True, 'name': '_ZTSNSt12experimental15fundamentals_v112bad_any_castE', 'storage_mapping_class': 'RO', 'type': 'OBJECT'}
{'import_export': 'EXP', 'is_defined': True, 'name': '_ZTSNSt12experimental19bad_optional_accessE', 'storage_mapping_class': 'RO', 'type': 'OBJECT'}
{'import_export': 'EXP', 'is_defined': True, 'name': '_ZTSNSt3__110istrstreamE', 'storage_mapping_class': 'RO', 'type': 'OBJECT'}
{'import_export': 'EXP', 'is_defined': True, 'name': '_ZTSNSt3__110ostrstreamE', 'storage_mapping_class': 'RO', 'type': 'OBJECT'}
{'import_export': 'EXP', 'is_defined': True, 'name': '_ZTSNSt3__111regex_errorE', 'storage_mapping_class': 'RO', 'type': 'OBJECT'}
{'import_export': 'EXP', 'is_defined': True, 'name': '_ZTSNSt3__112bad_weak_ptrE', 'storage_mapping_class': 'RO', 'type': 'OBJECT'}
{'import_export': 'EXP', 'is_defined': True, 'name': '_ZTSNSt3__112ctype_bynameIcEE', 'storage_mapping_class': 'RO', 'type': 'OBJECT'}
{'import_export': 'EXP', 'is_defined': True, 'name': '_ZTSNSt3__112ctype_bynameIwEE', 'storage_mapping_class': 'RO', 'type': 'OBJECT'}
{'import_export': 'EXP', 'is_defined': True, 'name': '_ZTSNSt3__112future_errorE', 'storage_mapping_class': 'RO', 'type': 'OBJECT'}
{'import_export': 'EXP', 'is_defined': True, 'name': '_ZTSNSt3__112strstreambufE', 'storage_mapping_class': 'RO', 'type': 'OBJECT'}
{'import_export': 'EXP', 'is_defined': True, 'name': '_ZTSNSt3__112system_errorE', 'storage_mapping_class': 'RO', 'type': 'OBJECT'}
{'import_export': 'EXP', 'is_defined': True, 'name': '_ZTSNSt3__114__codecvt_utf8IDiEE', 'storage_mapping_class': 'RO', 'type': 'OBJECT'}
{'import_export': 'EXP', 'is_defined': True, 'name': '_ZTSNSt3__114__codecvt_utf8IDsEE', 'storage_mapping_class': 'RO', 'type': 'OBJECT'}
{'import_export': 'EXP', 'is_defined': True, 'name': '_ZTSNSt3__114__codecvt_utf8IwEE', 'storage_mapping_class': 'RO', 'type': 'OBJECT'}
{'import_export': 'EXP', 'is_defined': True, 'name': '_ZTSNSt3__114__shared_countE', 'storage_mapping_class': 'RO', 'type': 'OBJECT'}
{'import_export': 'EXP', 'is_defined': True, 'name': '_ZTSNSt3__114collate_bynameIcEE', 'storage_mapping_class': 'RO', 'type': 'OBJECT'}
{'import_export': 'EXP', 'is_defined': True, 'name': '_ZTSNSt3__114collate_bynameIwEE', 'storage_mapping_class': 'RO', 'type': 'OBJECT'}
{'import_export': 'EXP', 'is_defined': True, 'name': '_ZTSNSt3__114error_categoryE', 'storage_mapping_class': 'RO', 'type': 'OBJECT'}
{'import_export': 'EXP', 'is_defined': True, 'name': '_ZTSNSt3__115__codecvt_utf16IDiLb0EEE', 'storage_mapping_class': 'RO', 'type': 'OBJECT'}
{'import_export': 'EXP', 'is_defined': True, 'name': '_ZTSNSt3__115__codecvt_utf16IDiLb1EEE', 'storage_mapping_class': 'RO', 'type': 'OBJECT'}
{'import_export': 'EXP', 'is_defined': True, 'name': '_ZTSNSt3__115__codecvt_utf16IDsLb0EEE', 'storage_mapping_class': 'RO', 'type': 'OBJECT'}
{'import_export': 'EXP', 'is_defined': True, 'name': '_ZTSNSt3__115__codecvt_utf16IDsLb1EEE', 'storage_mapping_class': 'RO', 'type': 'OBJECT'}
{'import_export': 'EXP', 'is_defined': True, 'name': '_ZTSNSt3__115__codecvt_utf16IwLb0EEE', 'storage_mapping_class': 'RO', 'type': 'OBJECT'}
{'import_export': 'EXP', 'is_defined': True, 'name': '_ZTSNSt3__115__codecvt_utf16IwLb1EEE', 'storage_mapping_class': 'RO', 'type': 'OBJECT'}
{'import_export': 'EXP', 'is_defined': True, 'name': '_ZTSNSt3__115numpunct_bynameIcEE', 'storage_mapping_class': 'RO', 'type': 'OBJECT'}
{'import_export': 'EXP', 'is_defined': True, 'name': '_ZTSNSt3__115numpunct_bynameIwEE', 'storage_mapping_class': 'RO', 'type': 'OBJECT'}
{'import_export': 'EXP', 'is_defined': True, 'name': '_ZTSNSt3__116__narrow_to_utf8ILm16EEE', 'storage_mapping_class': 'RO', 'type': 'OBJECT'}
{'import_export': 'EXP', 'is_defined': True, 'name': '_ZTSNSt3__116__narrow_to_utf8ILm32EEE', 'storage_mapping_class': 'RO', 'type': 'OBJECT'}
{'import_export': 'EXP', 'is_defined': True, 'name': '_ZTSNSt3__117__assoc_sub_stateE', 'storage_mapping_class': 'RO', 'type': 'OBJECT'}
{'import_export': 'EXP', 'is_defined': True, 'name': '_ZTSNSt3__117__widen_from_utf8ILm16EEE', 'storage_mapping_class': 'RO', 'type': 'OBJECT'}
{'import_export': 'EXP', 'is_defined': True, 'name': '_ZTSNSt3__117__widen_from_utf8ILm32EEE', 'storage_mapping_class': 'RO', 'type': 'OBJECT'}
{'import_export': 'EXP', 'is_defined': True, 'name': '_ZTSNSt3__117bad_function_callE', 'storage_mapping_class': 'RO', 'type': 'OBJECT'}
{'import_export': 'EXP', 'is_defined': True, 'name': '_ZTSNSt3__119__shared_weak_countE', 'storage_mapping_class': 'RO', 'type': 'OBJECT'}
{'import_export': 'EXP', 'is_defined': True, 'name': '_ZTSNSt3__119bad_expected_accessIvEE', 'storage_mapping_class': 'RO', 'type': 'OBJECT'}
{'import_export': 'EXP', 'is_defined': True, 'name': '_ZTSNSt3__120__codecvt_utf8_utf16IDiEE', 'storage_mapping_class': 'RO', 'type': 'OBJECT'}
{'import_export': 'EXP', 'is_defined': True, 'name': '_ZTSNSt3__120__codecvt_utf8_utf16IDsEE', 'storage_mapping_class': 'RO', 'type': 'OBJECT'}
{'import_export': 'EXP', 'is_defined': True, 'name': '_ZTSNSt3__120__codecvt_utf8_utf16IwEE', 'storage_mapping_class': 'RO', 'type': 'OBJECT'}
{'import_export': 'EXP', 'is_defined': True, 'name': '_ZTSNSt3__13pmr15memory_resourceE', 'storage_mapping_class': 'RO', 'type': 'OBJECT'}
{'import_export': 'EXP', 'is_defined': True, 'name': '_ZTSNSt3__13pmr25monotonic_buffer_resourceE', 'storage_mapping_class': 'RO', 'type': 'OBJECT'}
{'import_export': 'EXP', 'is_defined': True, 'name': '_ZTSNSt3__13pmr26synchronized_pool_resourceE', 'storage_mapping_class': 'RO', 'type': 'OBJECT'}
{'import_export': 'EXP', 'is_defined': True, 'name': '_ZTSNSt3__13pmr28unsynchronized_pool_resourceE', 'storage_mapping_class': 'RO', 'type': 'OBJECT'}
{'import_export': 'EXP', 'is_defined': True, 'name': '_ZTSNSt3__14__fs10filesystem16filesystem_errorE', 'storage_mapping_class': 'RO', 'type': 'OBJECT'}
{'import_export': 'EXP', 'is_defined': True, 'name': '_ZTSNSt3__15ctypeIcEE', 'storage_mapping_class': 'RO', 'type': 'OBJECT'}
{'import_export': 'EXP', 'is_defined': True, 'name': '_ZTSNSt3__15ctypeIwEE', 'storage_mapping_class': 'RO', 'type': 'OBJECT'}
{'import_export': 'EXP', 'is_defined': True, 'name': '_ZTSNSt3__16locale5facetE', 'storage_mapping_class': 'RO', 'type': 'OBJECT'}
{'import_export': 'EXP', 'is_defined': True, 'name': '_ZTSNSt3__17codecvtIDiDuPcEE', 'storage_mapping_class': 'RO', 'type': 'OBJECT'}
{'import_export': 'EXP', 'is_defined': True, 'name': '_ZTSNSt3__17codecvtIDicPcEE', 'storage_mapping_class': 'RO', 'type': 'OBJECT'}
{'import_export': 'EXP', 'is_defined': True, 'name': '_ZTSNSt3__17codecvtIDsDuPcEE', 'storage_mapping_class': 'RO', 'type': 'OBJECT'}
{'import_export': 'EXP', 'is_defined': True, 'name': '_ZTSNSt3__17codecvtIDscPcEE', 'storage_mapping_class': 'RO', 'type': 'OBJECT'}
{'import_export': 'EXP', 'is_defined': True, 'name': '_ZTSNSt3__17codecvtIccPcEE', 'storage_mapping_class': 'RO', 'type': 'OBJECT'}
{'import_export': 'EXP', 'is_defined': True, 'name': '_ZTSNSt3__17codecvtIwcPcEE', 'storage_mapping_class': 'RO', 'type': 'OBJECT'}
{'import_export': 'EXP', 'is_defined': True, 'name': '_ZTSNSt3__18ios_base7failureE', 'storage_mapping_class': 'RO', 'type': 'OBJECT'}
{'import_export': 'EXP', 'is_defined': True, 'name': '_ZTSNSt3__18ios_baseE', 'storage_mapping_class': 'RO', 'type': 'OBJECT'}
{'import_export': 'EXP', 'is_defined': True, 'name': '_ZTSNSt3__18numpunctIcEE', 'storage_mapping_class': 'RO', 'type': 'OBJECT'}
{'import_export': 'EXP', 'is_defined': True, 'name': '_ZTSNSt3__18numpunctIwEE', 'storage_mapping_class': 'RO', 'type': 'OBJECT'}
{'import_export': 'EXP', 'is_defined': True, 'name': '_ZTSNSt3__19strstreamE', 'storage_mapping_class': 'RO', 'type': 'OBJECT'}
{'import_export': 'EXP', 'is_defined': True, 'name': '_ZTSSt12bad_any_cast', 'storage_mapping_class': 'RO', 'type': 'OBJECT'}
{'import_export': 'EXP', 'is_defined': True, 'name': '_ZTSSt16nested_exception', 'storage_mapping_class': 'RO', 'type': 'OBJECT'}
{'import_export': 'EXP', 'is_defined': True, 'name': '_ZTSSt18bad_variant_access', 'storage_mapping_class': 'RO', 'type': 'OBJECT'}
{'import_export': 'EXP', 'is_defined': True, 'name': '_ZTSSt19bad_optional_access', 'storage_mapping_class': 'RO', 'type': 'OBJECT'}
{'import_export': 'EXP', 'is_defined': True, 'name': '_ZTTNSt3__110istrstreamE', 'storage_mapping_class': 'RW', 'type': 'OBJECT'}
{'import_export': 'EXP', 'is_defined': True, 'name': '_ZTTNSt3__110ostrstreamE', 'storage_mapping_class': 'RW', 'type': 'OBJECT'}
{'import_export': 'EXP', 'is_defined': True, 'name': '_ZTTNSt3__19strstreamE', 'storage_mapping_class': 'RW', 'type': 'OBJECT'}
{'import_export': 'EXP', 'is_defined': True, 'name': '_ZTVNSt12experimental15fundamentals_v112bad_any_castE', 'storage_mapping_class': 'RW', 'type': 'OBJECT'}
{'import_export': 'EXP', 'is_defined': True, 'name': '_ZTVNSt12experimental19bad_optional_accessE', 'storage_mapping_class': 'RW', 'type': 'OBJECT'}
{'import_export': 'EXP', 'is_defined': True, 'name': '_ZTVNSt3__110istrstreamE', 'storage_mapping_class': 'RW', 'type': 'OBJECT'}
{'import_export': 'EXP', 'is_defined': True, 'name': '_ZTVNSt3__110ostrstreamE', 'storage_mapping_class': 'RW', 'type': 'OBJECT'}
{'import_export': 'EXP', 'is_defined': True, 'name': '_ZTVNSt3__111regex_errorE', 'storage_mapping_class': 'RW', 'type': 'OBJECT'}
{'import_export': 'EXP', 'is_defined': True, 'name': '_ZTVNSt3__112bad_weak_ptrE', 'storage_mapping_class': 'RW', 'type': 'OBJECT'}
{'import_export': 'EXP', 'is_defined': True, 'name': '_ZTVNSt3__112ctype_bynameIcEE', 'storage_mapping_class': 'RW', 'type': 'OBJECT'}
{'import_export': 'EXP', 'is_defined': True, 'name': '_ZTVNSt3__112ctype_bynameIwEE', 'storage_mapping_class': 'RW', 'type': 'OBJECT'}
{'import_export': 'EXP', 'is_defined': True, 'name': '_ZTVNSt3__112future_errorE', 'storage_mapping_class': 'RW', 'type': 'OBJECT'}
{'import_export': 'EXP', 'is_defined': True, 'name': '_ZTVNSt3__112strstreambufE', 'storage_mapping_class': 'RW', 'type': 'OBJECT'}
{'import_export': 'EXP', 'is_defined': True, 'name': '_ZTVNSt3__112system_errorE', 'storage_mapping_class': 'RW', 'type': 'OBJECT'}
{'import_export': 'EXP', 'is_defined': True, 'name': '_ZTVNSt3__114__codecvt_utf8IDiEE', 'storage_mapping_class': 'RW', 'type': 'OBJECT'}
{'import_export': 'EXP', 'is_defined': True, 'name': '_ZTVNSt3__114__codecvt_utf8IDsEE', 'storage_mapping_class': 'RW', 'type': 'OBJECT'}
{'import_export': 'EXP', 'is_defined': True, 'name': '_ZTVNSt3__114__codecvt_utf8IwEE', 'storage_mapping_class': 'RW', 'type': 'OBJECT'}
{'import_export': 'EXP', 'is_defined': True, 'name': '_ZTVNSt3__114__shared_countE', 'storage_mapping_class': 'RW', 'type': 'OBJECT'}
{'import_export': 'EXP', 'is_defined': True, 'name': '_ZTVNSt3__114collate_bynameIcEE', 'storage_mapping_class': 'RW', 'type': 'OBJECT'}
{'import_export': 'EXP', 'is_defined': True, 'name': '_ZTVNSt3__114collate_bynameIwEE', 'storage_mapping_class': 'RW', 'type': 'OBJECT'}
{'import_export': 'EXP', 'is_defined': True, 'name': '_ZTVNSt3__114error_categoryE', 'storage_mapping_class': 'RW', 'type': 'OBJECT'}
{'import_export': 'EXP', 'is_defined': True, 'name': '_ZTVNSt3__115__codecvt_utf16IDiLb0EEE', 'storage_mapping_class': 'RW', 'type': 'OBJECT'}
{'import_export': 'EXP', 'is_defined': True, 'name': '_ZTVNSt3__115__codecvt_utf16IDiLb1EEE', 'storage_mapping_class': 'RW', 'type': 'OBJECT'}
{'import_export': 'EXP', 'is_defined': True, 'name': '_ZTVNSt3__115__codecvt_utf16IDsLb0EEE', 'storage_mapping_class': 'RW', 'type': 'OBJECT'}
{'import_export': 'EXP', 'is_defined': True, 'name': '_ZTVNSt3__115__codecvt_utf16IDsLb1EEE', 'storage_mapping_class': 'RW', 'type': 'OBJECT'}
{'import_export': 'EXP', 'is_defined': True, 'name': '_ZTVNSt3__115__codecvt_utf16IwLb0EEE', 'storage_mapping_class': 'RW', 'type': 'OBJECT'}
{'import_export': 'EXP', 'is_defined': True, 'name': '_ZTVNSt3__115__codecvt_utf16IwLb1EEE', 'storage_mapping_class': 'RW', 'type': 'OBJECT'}
{'import_export': 'EXP', 'is_defined': True, 'name': '_ZTVNSt3__115numpunct_bynameIcEE', 'storage_mapping_class': 'RW', 'type': 'OBJECT'}
{'import_export': 'EXP', 'is_defined': True, 'name': '_ZTVNSt3__115numpunct_bynameIwEE', 'storage_mapping_class': 'RW', 'type': 'OBJECT'}
{'import_export': 'EXP', 'is_defined': True, 'name': '_ZTVNSt3__116__narrow_to_utf8ILm16EEE', 'storage_mapping_class': 'RW', 'type': 'OBJECT'}
{'import_export': 'EXP', 'is_defined': True, 'name': '_ZTVNSt3__116__narrow_to_utf8ILm32EEE', 'storage_mapping_class': 'RW', 'type': 'OBJECT'}
{'import_export': 'EXP', 'is_defined': True, 'name': '_ZTVNSt3__117__assoc_sub_stateE', 'storage_mapping_class': 'RW', 'type': 'OBJECT'}
{'import_export': 'EXP', 'is_defined': True, 'name': '_ZTVNSt3__117__widen_from_utf8ILm16EEE', 'storage_mapping_class': 'RW', 'type': 'OBJECT'}
{'import_export': 'EXP', 'is_defined': True, 'name': '_ZTVNSt3__117__widen_from_utf8ILm32EEE', 'storage_mapping_class': 'RW', 'type': 'OBJECT'}
{'import_export': 'EXP', 'is_defined': True, 'name': '_ZTVNSt3__117bad_function_callE', 'storage_mapping_class': 'RW', 'type': 'OBJECT'}
{'import_export': 'EXP', 'is_defined': True, 'name': '_ZTVNSt3__119__shared_weak_countE', 'storage_mapping_class': 'RW', 'type': 'OBJECT'}
{'import_export': 'EXP', 'is_defined': True, 'name': '_ZTVNSt3__119bad_expected_accessIvEE', 'storage_mapping_class': 'RW', 'type': 'OBJECT'}
{'import_export': 'EXP', 'is_defined': True, 'name': '_ZTVNSt3__120__codecvt_utf8_utf16IDiEE', 'storage_mapping_class': 'RW', 'type': 'OBJECT'}
{'import_export': 'EXP', 'is_defined': True, 'name': '_ZTVNSt3__120__codecvt_utf8_utf16IDsEE', 'storage_mapping_class': 'RW', 'type': 'OBJECT'}
{'import_export': 'EXP', 'is_defined': True, 'name': '_ZTVNSt3__120__codecvt_utf8_utf16IwEE', 'storage_mapping_class': 'RW', 'type': 'OBJECT'}
{'import_export': 'EXP', 'is_defined': True, 'name': '_ZTVNSt3__13pmr15memory_resourceE', 'storage_mapping_class': 'RW', 'type': 'OBJECT'}
{'import_export': 'EXP', 'is_defined': True, 'name': '_ZTVNSt3__13pmr25monotonic_buffer_resourceE', 'storage_mapping_class': 'RW', 'type': 'OBJECT'}
{'import_export': 'EXP', 'is_defined': True, 'name': '_ZTVNSt3__13pmr26synchronized_pool_resourceE', 'storage_mapping_class': 'RW', 'type': 'OBJECT'}
{'import_export': 'EXP', 'is_defined': True, 'name': '_ZTVNSt3__13pmr28unsynchronized_pool_resourceE', 'storage_mapping_class': 'RW', 'type': 'OBJECT'}
{'import_export': 'EXP', 'is_defined': True, 'name': '_ZTVNSt3__14__fs10filesystem16filesystem_errorE', 'storage_mapping_class': 'RW', 'type': 'OBJECT'}
{'import_export': 'EXP', 'is_defined': True, 'name': '_ZTVNSt3__15ctypeIcEE', 'storage_mapping_class': 'RW', 'type': 'OBJECT'}
{'import_export': 'EXP', 'is_defined': True, 'name': '_ZTVNSt3__15ctypeIwEE', 'storage_mapping_class': 'RW', 'type': 'OBJECT'}
{'import_export': 'EXP', 'is_defined': True, 'name': '_ZTVNSt3__16locale5facetE', 'storage_mapping_class': 'RW', 'type': 'OBJECT'}
{'import_export': 'EXP', 'is_defined': True, 'name': '_ZTVNSt3__17codecvtIDiDuPcEE', 'storage_mapping_class': 'RW', 'type': 'OBJECT'}
{'import_export': 'EXP', 'is_defined': True, 'name': '_ZTVNSt3__17codecvtIDicPcEE', 'storage_mapping_class': 'RW', 'type': 'OBJECT'}
{'import_export': 'EXP', 'is_defined': True, 'name': '_ZTVNSt3__17codecvtIDsDuPcEE', 'storage_mapping_class': 'RW', 'type': 'OBJECT'}
{'import_export': 'EXP', 'is_defined': True, 'name': '_ZTVNSt3__17codecvtIDscPcEE', 'storage_mapping_class': 'RW', 'type': 'OBJECT'}
{'import_export': 'EXP', 'is_defined': True, 'name': '_ZTVNSt3__17codecvtIccPcEE', 'storage_mapping_class': 'RW', 'type': 'OBJECT'}
{'import_export': 'EXP', 'is_defined': True, 'name': '_ZTVNSt3__17codecvtIwcPcEE', 'storage_mapping_class': 'RW', 'type': 'OBJECT'}
{'import_export': 'EXP', 'is_defined': True, 'name': '_ZTVNSt3__18ios_base7failureE', 'storage_mapping_class': 'RW', 'type': 'OBJECT'}
{'import_export': 'EXP', 'is_defined': True, 'name': '_ZTVNSt3__18ios_baseE', 'storage_mapping_class': 'RW', 'type': 'OBJECT'}
{'import_export': 'EXP', 'is_defined': True, 'name': '_ZTVNSt3__18numpunctIcEE', 'storage_mapping_class': 'RW', 'type': 'OBJECT'}
{'import_export': 'EXP', 'is_defined': True, 'name': '_ZTVNSt3__18numpunctIwEE', 'storage_mapping_class': 'RW', 'type': 'OBJECT'}
{'import_export': 'EXP', 'is_defined': True, 'name': '_ZTVNSt3__19strstreamE', 'storage_mapping_class': 'RW', 'type': 'OBJECT'}
{'import_export': 'EXP', 'is_defined': True, 'name': '_ZTVSt12bad_any_cast', 'storage_mapping_class': 'RW', 'type': 'OBJECT'}
{'import_export': 'EXP', 'is_defined': True, 'name': '_ZTVSt16nested_exception', 'storage_mapping_class': 'RW', 'type': 'OBJECT'}
{'import_export': 'EXP', 'is_defined': True, 'name': '_ZTVSt18bad_variant_access', 'storage_mapping_class': 'RW', 'type': 'OBJECT'}
{'import_export': 'EXP', 'is_defined': True, 'name': '_ZTVSt19bad_optional_access', 'storage_mapping_class': 'RW', 'type': 'OBJECT'}
{'import_export': 'EXP', 'is_defined': True, 'name': '_ZThn8_NSt3__19strstreamD0Ev', 'storage_mapping_class': 'DS', 'type': 'FUNC'}
{'import_export': 'EXP', 'is_defined': True, 'name': '_ZThn8_NSt3__19strstreamD1Ev', 'storage_mapping_class': 'DS', 'type': 'FUNC'}
{'import_export': 'EXP', 'is_defined': True, 'name': '_ZTv0_n12_NSt3__110istrstreamD0Ev', 'storage_mapping_class': 'DS', 'type': 'FUNC'}
{'import_export': 'EXP', 'is_defined': True, 'name': '_ZTv0_n12_NSt3__110istrstreamD1Ev', 'storage_mapping_class': 'DS', 'type': 'FUNC'}
{'import_export': 'EXP', 'is_defined': True, 'name': '_ZTv0_n12_NSt3__110ostrstreamD0Ev', 'storage_mapping_class': 'DS', 'type': 'FUNC'}
{'import_export': 'EXP', 'is_defined': True, 'name': '_ZTv0_n12_NSt3__110ostrstreamD1Ev', 'storage_mapping_class': 'DS', 'type': 'FUNC'}
{'import_export': 'EXP', 'is_defined': True, 'name': '_ZTv0_n12_NSt3__19strstreamD0Ev', 'storage_mapping_class': 'DS', 'type': 'FUNC'}
{'import_export': 'EXP', 'is_defined': True, 'name': '_ZTv0_n12_NSt3__19strstreamD1Ev', 'storage_mapping_class': 'DS', 'type': 'FUNC'}
{'import_export': 'IMP', 'is_defined': False, 'name': '_ZNKSt11logic_error4whatEv', 'storage_mapping_class': 'DS', 'type': 'FUNC'}
{'import_export': 'IMP', 'is_defined': False, 'name': '_ZNKSt13runtime_error4whatEv', 'storage_mapping_class': 'DS', 'type': 'FUNC'}
{'import_export': 'IMP', 'is_defined': False, 'name': '_ZNKSt9exception4whatEv', 'storage_mapping_class': 'DS', 'type': 'FUNC'}
{'import_export': 'IMP', 'is_defined': False, 'name': '_ZNSt11logic_errorD2Ev', 'storage_mapping_class': 'DS', 'type': 'FUNC'}
{'import_export': 'IMP', 'is_defined': False, 'name': '_ZNSt12length_errorD1Ev', 'storage_mapping_class': 'DS', 'type': 'FUNC'}
{'import_export': 'IMP', 'is_defined': False, 'name': '_ZNSt12out_of_rangeD1Ev', 'storage_mapping_class': 'DS', 'type': 'FUNC'}
{'import_export': 'IMP', 'is_defined': False, 'name': '_ZNSt13runtime_errorD1Ev', 'storage_mapping_class': 'DS', 'type': 'FUNC'}
{'import_export': 'IMP', 'is_defined': False, 'name': '_ZNSt13runtime_errorD2Ev', 'storage_mapping_class': 'DS', 'type': 'FUNC'}
{'import_export': 'IMP', 'is_defined': False, 'name': '_ZNSt14overflow_errorD1Ev', 'storage_mapping_class': 'DS', 'type': 'FUNC'}
{'import_export': 'IMP', 'is_defined': False, 'name': '_ZNSt16invalid_argumentD1Ev', 'storage_mapping_class': 'DS', 'type': 'FUNC'}
{'import_export': 'IMP', 'is_defined': False, 'name': '_ZNSt20bad_array_new_lengthC1Ev', 'storage_mapping_class': 'DS', 'type': 'FUNC'}
{'import_export': 'IMP', 'is_defined': False, 'name': '_ZNSt20bad_array_new_lengthD1Ev', 'storage_mapping_class': 'DS', 'type': 'FUNC'}
{'import_export': 'IMP', 'is_defined': False, 'name': '_ZNSt8bad_castC1Ev', 'storage_mapping_class': 'DS', 'type': 'FUNC'}
{'import_export': 'IMP', 'is_defined': False, 'name': '_ZNSt8bad_castD1Ev', 'storage_mapping_class': 'DS', 'type': 'FUNC'}
{'import_export': 'IMP', 'is_defined': False, 'name': '_ZNSt8bad_castD2Ev', 'storage_mapping_class': 'DS', 'type': 'FUNC'}
{'import_export': 'IMP', 'is_defined': False, 'name': '_ZNSt9bad_allocC1Ev', 'storage_mapping_class': 'DS', 'type': 'FUNC'}
{'import_export': 'IMP', 'is_defined': False, 'name': '_ZNSt9bad_allocD1Ev', 'storage_mapping_class': 'DS', 'type': 'FUNC'}
{'import_export': 'IMP', 'is_defined': False, 'name': '_ZNSt9exceptionD2Ev', 'storage_mapping_class': 'DS', 'type': 'FUNC'}
{'import_export': 'IMP', 'is_defined': False, 'name': '_ZSt9terminatev', 'storage_mapping_class': 'DS', 'type': 'FUNC'}
{'import_export': 'IMP', 'is_defined': False, 'name': '_ZTISt11logic_error', 'storage_mapping_class': 'RW', 'type': 'OBJECT'}
{'import_export': 'IMP', 'is_defined': False, 'name': '_ZTISt12length_error', 'storage_mapping_class': 'RW', 'type': 'OBJECT'}
{'import_export': 'IMP', 'is_defined': False, 'name': '_ZTISt12out_of_range', 'storage_mapping_class': 'RW', 'type': 'OBJECT'}
{'import_export': 'IMP', 'is_defined': False, 'name': '_ZTISt13runtime_error', 'storage_mapping_class': 'RW', 'type': 'OBJECT'}
{'import_export': 'IMP', 'is_defined': False, 'name': '_ZTISt14overflow_error', 'storage_mapping_class': 'RW', 'type': 'OBJECT'}
{'import_export': 'IMP', 'is_defined': False, 'name': '_ZTISt16invalid_argument', 'storage_mapping_class': 'RW', 'type': 'OBJECT'}
{'import_export': 'IMP', 'is_defined': False, 'name': '_ZTISt20bad_array_new_length', 'storage_mapping_class': 'RW', 'type': 'OBJECT'}
{'import_export': 'IMP', 'is_defined': False, 'name': '_ZTISt8bad_cast', 'storage_mapping_class': 'RW', 'type': 'OBJECT'}
{'import_export': 'IMP', 'is_defined': False, 'name': '_ZTISt9bad_alloc', 'storage_mapping_class': 'RW', 'type': 'OBJECT'}
{'import_export': 'IMP', 'is_defined': False, 'name': '_ZTISt9exception', 'storage_mapping_class': 'RW', 'type': 'OBJECT'}
{'import_export': 'IMP', 'is_defined': False, 'name': '_ZTVN10__cxxabiv117__class_type_infoE', 'storage_mapping_class': 'RW', 'type': 'OBJECT'}
{'import_export': 'IMP', 'is_defined': False, 'name': '_ZTVN10__cxxabiv120__si_class_type_infoE', 'storage_mapping_class': 'RW', 'type': 'OBJECT'}
{'import_export': 'IMP', 'is_defined': False, 'name': '_ZTVN10__cxxabiv121__vmi_class_type_infoE', 'storage_mapping_class': 'RW', 'type': 'OBJECT'}
{'import_export': 'IMP', 'is_defined': False, 'name': '_ZTVSt11logic_error', 'storage_mapping_class': 'RW', 'type': 'OBJECT'}
{'import_export': 'IMP', 'is_defined': False, 'name': '_ZTVSt12length_error', 'storage_mapping_class': 'RW', 'type': 'OBJECT'}
{'import_export': 'IMP', 'is_defined': False, 'name': '_ZTVSt12out_of_range', 'storage_mapping_class': 'RW', 'type': 'OBJECT'}
{'import_export': 'IMP', 'is_defined': False, 'name': '_ZTVSt13runtime_error', 'storage_mapping_class': 'RW', 'type': 'OBJECT'}
{'import_export': 'IMP', 'is_defined': False, 'name': '_ZTVSt14overflow_error', 'storage_mapping_class': 'RW', 'type': 'OBJECT'}
{'import_export': 'IMP', 'is_defined': False, 'name': '_ZTVSt16invalid_argument', 'storage_mapping_class': 'RW', 'type': 'OBJECT'}
{'import_export': 'IMP', 'is_defined': False, 'name': '__cxa_allocate_exception', 'storage_mapping_class': 'DS', 'type': 'FUNC'}
{'import_export': 'IMP', 'is_defined': False, 'name': '__cxa_begin_catch', 'storage_mapping_class': 'DS', 'type': 'FUNC'}
{'import_export': 'IMP', 'is_defined': False, 'name': '__cxa_current_primary_exception', 'storage_mapping_class': 'DS', 'type': 'FUNC'}
{'import_export': 'IMP', 'is_defined': False, 'name': '__cxa_decrement_exception_refcount', 'storage_mapping_class': 'DS', 'type': 'FUNC'}
{'import_export': 'IMP', 'is_defined': False, 'name': '__cxa_end_catch', 'storage_mapping_class': 'DS', 'type': 'FUNC'}
{'import_export': 'IMP', 'is_defined': False, 'name': '__cxa_free_exception', 'storage_mapping_class': 'DS', 'type': 'FUNC'}
{'import_export': 'IMP', 'is_defined': False, 'name': '__cxa_guard_abort', 'storage_mapping_class': 'DS', 'type': 'FUNC'}
{'import_export': 'IMP', 'is_defined': False, 'name': '__cxa_guard_acquire', 'storage_mapping_class': 'DS', 'type': 'FUNC'}
{'import_export': 'IMP', 'is_defined': False, 'name': '__cxa_guard_release', 'storage_mapping_class': 'DS', 'type': 'FUNC'}
{'import_export': 'IMP', 'is_defined': False, 'name': '__cxa_increment_exception_refcount', 'storage_mapping_class': 'DS', 'type': 'FUNC'}
{'import_export': 'IMP', 'is_defined': False, 'name': '__cxa_init_primary_exception', 'storage_mapping_class': 'DS', 'type': 'FUNC'}
{'import_export': 'IMP', 'is_defined': False, 'name': '__cxa_pure_virtual', 'storage_mapping_class': 'DS', 'type': 'FUNC'}
{'import_export': 'IMP', 'is_defined': False, 'name': '__cxa_rethrow', 'storage_mapping_class': 'DS', 'type': 'FUNC'}
{'import_export': 'IMP', 'is_defined': False, 'name': '__cxa_rethrow_primary_exception', 'storage_mapping_class': 'DS', 'type': 'FUNC'}
{'import_export': 'IMP', 'is_defined': False, 'name': '__cxa_throw', 'storage_mapping_class': 'DS', 'type': 'FUNC'}
{'import_export': 'IMP', 'is_defined': False, 'name': '__cxa_uncaught_exceptions', 'storage_mapping_class': 'DS', 'type': 'FUNC'}
{'import_export': 'wEXP', 'is_defined': True, 'name': '_ZNKSt3__110moneypunctIcLb0EE11do_groupingEv', 'storage_mapping_class': 'DS', 'type': 'FUNC'}
{'import_export': 'wEXP', 'is_defined': True, 'name': '_ZNKSt3__110moneypunctIcLb0EE13do_neg_formatEv', 'storage_mapping_class': 'DS', 'type': 'FUNC'}
{'import_export': 'wEXP', 'is_defined': True, 'name': '_ZNKSt3__110moneypunctIcLb0EE13do_pos_formatEv', 'storage_mapping_class': 'DS', 'type': 'FUNC'}
{'import_export': 'wEXP', 'is_defined': True, 'name': '_ZNKSt3__110moneypunctIcLb0EE14do_curr_symbolEv', 'storage_mapping_class': 'DS', 'type': 'FUNC'}
{'import_export': 'wEXP', 'is_defined': True, 'name': '_ZNKSt3__110moneypunctIcLb0EE14do_frac_digitsEv', 'storage_mapping_class': 'DS', 'type': 'FUNC'}
{'import_export': 'wEXP', 'is_defined': True, 'name': '_ZNKSt3__110moneypunctIcLb0EE16do_decimal_pointEv', 'storage_mapping_class': 'DS', 'type': 'FUNC'}
{'import_export': 'wEXP', 'is_defined': True, 'name': '_ZNKSt3__110moneypunctIcLb0EE16do_negative_signEv', 'storage_mapping_class': 'DS', 'type': 'FUNC'}
{'import_export': 'wEXP', 'is_defined': True, 'name': '_ZNKSt3__110moneypunctIcLb0EE16do_positive_signEv', 'storage_mapping_class': 'DS', 'type': 'FUNC'}
{'import_export': 'wEXP', 'is_defined': True, 'name': '_ZNKSt3__110moneypunctIcLb0EE16do_thousands_sepEv', 'storage_mapping_class': 'DS', 'type': 'FUNC'}
{'import_export': 'wEXP', 'is_defined': True, 'name': '_ZNKSt3__110moneypunctIcLb1EE11do_groupingEv', 'storage_mapping_class': 'DS', 'type': 'FUNC'}
{'import_export': 'wEXP', 'is_defined': True, 'name': '_ZNKSt3__110moneypunctIcLb1EE13do_neg_formatEv', 'storage_mapping_class': 'DS', 'type': 'FUNC'}
{'import_export': 'wEXP', 'is_defined': True, 'name': '_ZNKSt3__110moneypunctIcLb1EE13do_pos_formatEv', 'storage_mapping_class': 'DS', 'type': 'FUNC'}
{'import_export': 'wEXP', 'is_defined': True, 'name': '_ZNKSt3__110moneypunctIcLb1EE14do_curr_symbolEv', 'storage_mapping_class': 'DS', 'type': 'FUNC'}
{'import_export': 'wEXP', 'is_defined': True, 'name': '_ZNKSt3__110moneypunctIcLb1EE14do_frac_digitsEv', 'storage_mapping_class': 'DS', 'type': 'FUNC'}
{'import_export': 'wEXP', 'is_defined': True, 'name': '_ZNKSt3__110moneypunctIcLb1EE16do_decimal_pointEv', 'storage_mapping_class': 'DS', 'type': 'FUNC'}
{'import_export': 'wEXP', 'is_defined': True, 'name': '_ZNKSt3__110moneypunctIcLb1EE16do_negative_signEv', 'storage_mapping_class': 'DS', 'type': 'FUNC'}
{'import_export': 'wEXP', 'is_defined': True, 'name': '_ZNKSt3__110moneypunctIcLb1EE16do_positive_signEv', 'storage_mapping_class': 'DS', 'type': 'FUNC'}
{'import_export': 'wEXP', 'is_defined': True, 'name': '_ZNKSt3__110moneypunctIcLb1EE16do_thousands_sepEv', 'storage_mapping_class': 'DS', 'type': 'FUNC'}
{'import_export': 'wEXP', 'is_defined': True, 'name': '_ZNKSt3__110moneypunctIwLb0EE11do_groupingEv', 'storage_mapping_class': 'DS', 'type': 'FUNC'}
{'import_export': 'wEXP', 'is_defined': True, 'name': '_ZNKSt3__110moneypunctIwLb0EE13do_neg_formatEv', 'storage_mapping_class': 'DS', 'type': 'FUNC'}
{'import_export': 'wEXP', 'is_defined': True, 'name': '_ZNKSt3__110moneypunctIwLb0EE13do_pos_formatEv', 'storage_mapping_class': 'DS', 'type': 'FUNC'}
{'import_export': 'wEXP', 'is_defined': True, 'name': '_ZNKSt3__110moneypunctIwLb0EE14do_curr_symbolEv', 'storage_mapping_class': 'DS', 'type': 'FUNC'}
{'import_export': 'wEXP', 'is_defined': True, 'name': '_ZNKSt3__110moneypunctIwLb0EE14do_frac_digitsEv', 'storage_mapping_class': 'DS', 'type': 'FUNC'}
{'import_export': 'wEXP', 'is_defined': True, 'name': '_ZNKSt3__110moneypunctIwLb0EE16do_decimal_pointEv', 'storage_mapping_class': 'DS', 'type': 'FUNC'}
{'import_export': 'wEXP', 'is_defined': True, 'name': '_ZNKSt3__110moneypunctIwLb0EE16do_negative_signEv', 'storage_mapping_class': 'DS', 'type': 'FUNC'}
{'import_export': 'wEXP', 'is_defined': True, 'name': '_ZNKSt3__110moneypunctIwLb0EE16do_positive_signEv', 'storage_mapping_class': 'DS', 'type': 'FUNC'}
{'import_export': 'wEXP', 'is_defined': True, 'name': '_ZNKSt3__110moneypunctIwLb0EE16do_thousands_sepEv', 'storage_mapping_class': 'DS', 'type': 'FUNC'}
{'import_export': 'wEXP', 'is_defined': True, 'name': '_ZNKSt3__110moneypunctIwLb1EE11do_groupingEv', 'storage_mapping_class': 'DS', 'type': 'FUNC'}
{'import_export': 'wEXP', 'is_defined': True, 'name': '_ZNKSt3__110moneypunctIwLb1EE13do_neg_formatEv', 'storage_mapping_class': 'DS', 'type': 'FUNC'}
{'import_export': 'wEXP', 'is_defined': True, 'name': '_ZNKSt3__110moneypunctIwLb1EE13do_pos_formatEv', 'storage_mapping_class': 'DS', 'type': 'FUNC'}
{'import_export': 'wEXP', 'is_defined': True, 'name': '_ZNKSt3__110moneypunctIwLb1EE14do_curr_symbolEv', 'storage_mapping_class': 'DS', 'type': 'FUNC'}
{'import_export': 'wEXP', 'is_defined': True, 'name': '_ZNKSt3__110moneypunctIwLb1EE14do_frac_digitsEv', 'storage_mapping_class': 'DS', 'type': 'FUNC'}
{'import_export': 'wEXP', 'is_defined': True, 'name': '_ZNKSt3__110moneypunctIwLb1EE16do_decimal_pointEv', 'storage_mapping_class': 'DS', 'type': 'FUNC'}
{'import_export': 'wEXP', 'is_defined': True, 'name': '_ZNKSt3__110moneypunctIwLb1EE16do_negative_signEv', 'storage_mapping_class': 'DS', 'type': 'FUNC'}
{'import_export': 'wEXP', 'is_defined': True, 'name': '_ZNKSt3__110moneypunctIwLb1EE16do_positive_signEv', 'storage_mapping_class': 'DS', 'type': 'FUNC'}
{'import_export': 'wEXP', 'is_defined': True, 'name': '_ZNKSt3__110moneypunctIwLb1EE16do_thousands_sepEv', 'storage_mapping_class': 'DS', 'type': 'FUNC'}
{'import_export': 'wEXP', 'is_defined': True, 'name': '_ZNKSt3__112basic_stringIcNS_11char_traitsIcEENS_9allocatorIcEEE12find_last_ofEPKcmm', 'storage_mapping_class': 'DS', 'type': 'FUNC'}
{'import_export': 'wEXP', 'is_defined': True, 'name': '_ZNKSt3__112basic_stringIcNS_11char_traitsIcEENS_9allocatorIcEEE13find_first_ofEPKcmm', 'storage_mapping_class': 'DS', 'type': 'FUNC'}
{'import_export': 'wEXP', 'is_defined': True, 'name': '_ZNKSt3__112basic_stringIcNS_11char_traitsIcEENS_9allocatorIcEEE16find_last_not_ofEPKcmm', 'storage_mapping_class': 'DS', 'type': 'FUNC'}
{'import_export': 'wEXP', 'is_defined': True, 'name': '_ZNKSt3__112basic_stringIcNS_11char_traitsIcEENS_9allocatorIcEEE17find_first_not_ofEPKcmm', 'storage_mapping_class': 'DS', 'type': 'FUNC'}
{'import_export': 'wEXP', 'is_defined': True, 'name': '_ZNKSt3__112basic_stringIcNS_11char_traitsIcEENS_9allocatorIcEEE2atEm', 'storage_mapping_class': 'DS', 'type': 'FUNC'}
{'import_export': 'wEXP', 'is_defined': True, 'name': '_ZNKSt3__112basic_stringIcNS_11char_traitsIcEENS_9allocatorIcEEE4copyEPcmm', 'storage_mapping_class': 'DS', 'type': 'FUNC'}
{'import_export': 'wEXP', 'is_defined': True, 'name': '_ZNKSt3__112basic_stringIcNS_11char_traitsIcEENS_9allocatorIcEEE4findEPKcmm', 'storage_mapping_class': 'DS', 'type': 'FUNC'}
{'import_export': 'wEXP', 'is_defined': True, 'name': '_ZNKSt3__112basic_stringIcNS_11char_traitsIcEENS_9allocatorIcEEE4findEcm', 'storage_mapping_class': 'DS', 'type': 'FUNC'}
{'import_export': 'wEXP', 'is_defined': True, 'name': '_ZNKSt3__112basic_stringIcNS_11char_traitsIcEENS_9allocatorIcEEE5rfindEPKcmm', 'storage_mapping_class': 'DS', 'type': 'FUNC'}
{'import_export': 'wEXP', 'is_defined': True, 'name': '_ZNKSt3__112basic_stringIcNS_11char_traitsIcEENS_9allocatorIcEEE5rfindEcm', 'storage_mapping_class': 'DS', 'type': 'FUNC'}
{'import_export': 'wEXP', 'is_defined': True, 'name': '_ZNKSt3__112basic_stringIcNS_11char_traitsIcEENS_9allocatorIcEEE7compareEPKc', 'storage_mapping_class': 'DS', 'type': 'FUNC'}
{'import_export': 'wEXP', 'is_defined': True, 'name': '_ZNKSt3__112basic_stringIcNS_11char_traitsIcEENS_9allocatorIcEEE7compareEmmPKc', 'storage_mapping_class': 'DS', 'type': 'FUNC'}
{'import_export': 'wEXP', 'is_defined': True, 'name': '_ZNKSt3__112basic_stringIcNS_11char_traitsIcEENS_9allocatorIcEEE7compareEmmPKcm', 'storage_mapping_class': 'DS', 'type': 'FUNC'}
{'import_export': 'wEXP', 'is_defined': True, 'name': '_ZNKSt3__112basic_stringIcNS_11char_traitsIcEENS_9allocatorIcEEE7compareEmmRKS5_mm', 'storage_mapping_class': 'DS', 'type': 'FUNC'}
{'import_export': 'wEXP', 'is_defined': True, 'name': '_ZNKSt3__112basic_stringIwNS_11char_traitsIwEENS_9allocatorIwEEE12find_last_ofEPKwmm', 'storage_mapping_class': 'DS', 'type': 'FUNC'}
{'import_export': 'wEXP', 'is_defined': True, 'name': '_ZNKSt3__112basic_stringIwNS_11char_traitsIwEENS_9allocatorIwEEE13find_first_ofEPKwmm', 'storage_mapping_class': 'DS', 'type': 'FUNC'}
{'import_export': 'wEXP', 'is_defined': True, 'name': '_ZNKSt3__112basic_stringIwNS_11char_traitsIwEENS_9allocatorIwEEE16find_last_not_ofEPKwmm', 'storage_mapping_class': 'DS', 'type': 'FUNC'}
{'import_export': 'wEXP', 'is_defined': True, 'name': '_ZNKSt3__112basic_stringIwNS_11char_traitsIwEENS_9allocatorIwEEE17find_first_not_ofEPKwmm', 'storage_mapping_class': 'DS', 'type': 'FUNC'}
{'import_export': 'wEXP', 'is_defined': True, 'name': '_ZNKSt3__112basic_stringIwNS_11char_traitsIwEENS_9allocatorIwEEE2atEm', 'storage_mapping_class': 'DS', 'type': 'FUNC'}
{'import_export': 'wEXP', 'is_defined': True, 'name': '_ZNKSt3__112basic_stringIwNS_11char_traitsIwEENS_9allocatorIwEEE4copyEPwmm', 'storage_mapping_class': 'DS', 'type': 'FUNC'}
{'import_export': 'wEXP', 'is_defined': True, 'name': '_ZNKSt3__112basic_stringIwNS_11char_traitsIwEENS_9allocatorIwEEE4findEPKwmm', 'storage_mapping_class': 'DS', 'type': 'FUNC'}
{'import_export': 'wEXP', 'is_defined': True, 'name': '_ZNKSt3__112basic_stringIwNS_11char_traitsIwEENS_9allocatorIwEEE4findEwm', 'storage_mapping_class': 'DS', 'type': 'FUNC'}
{'import_export': 'wEXP', 'is_defined': True, 'name': '_ZNKSt3__112basic_stringIwNS_11char_traitsIwEENS_9allocatorIwEEE5rfindEPKwmm', 'storage_mapping_class': 'DS', 'type': 'FUNC'}
{'import_export': 'wEXP', 'is_defined': True, 'name': '_ZNKSt3__112basic_stringIwNS_11char_traitsIwEENS_9allocatorIwEEE5rfindEwm', 'storage_mapping_class': 'DS', 'type': 'FUNC'}
{'import_export': 'wEXP', 'is_defined': True, 'name': '_ZNKSt3__112basic_stringIwNS_11char_traitsIwEENS_9allocatorIwEEE7compareEPKw', 'storage_mapping_class': 'DS', 'type': 'FUNC'}
{'import_export': 'wEXP', 'is_defined': True, 'name': '_ZNKSt3__112basic_stringIwNS_11char_traitsIwEENS_9allocatorIwEEE7compareEmmPKw', 'storage_mapping_class': 'DS', 'type': 'FUNC'}
{'import_export': 'wEXP', 'is_defined': True, 'name': '_ZNKSt3__112basic_stringIwNS_11char_traitsIwEENS_9allocatorIwEEE7compareEmmPKwm', 'storage_mapping_class': 'DS', 'type': 'FUNC'}
{'import_export': 'wEXP', 'is_defined': True, 'name': '_ZNKSt3__112basic_stringIwNS_11char_traitsIwEENS_9allocatorIwEEE7compareEmmRKS5_mm', 'storage_mapping_class': 'DS', 'type': 'FUNC'}
{'import_export': 'wEXP', 'is_defined': True, 'name': '_ZNKSt3__115basic_streambufIcNS_11char_traitsIcEEE6getlocEv', 'storage_mapping_class': 'DS', 'type': 'FUNC'}
{'import_export': 'wEXP', 'is_defined': True, 'name': '_ZNKSt3__115basic_streambufIwNS_11char_traitsIwEEE6getlocEv', 'storage_mapping_class': 'DS', 'type': 'FUNC'}
{'import_export': 'wEXP', 'is_defined': True, 'name': '_ZNKSt3__115basic_stringbufIcNS_11char_traitsIcEENS_9allocatorIcEEE3strEv', 'storage_mapping_class': 'DS', 'type': 'FUNC'}
{'import_export': 'wEXP', 'is_defined': True, 'name': '_ZNKSt3__117moneypunct_bynameIcLb0EE11do_groupingEv', 'storage_mapping_class': 'DS', 'type': 'FUNC'}
{'import_export': 'wEXP', 'is_defined': True, 'name': '_ZNKSt3__117moneypunct_bynameIcLb0EE13do_neg_formatEv', 'storage_mapping_class': 'DS', 'type': 'FUNC'}
{'import_export': 'wEXP', 'is_defined': True, 'name': '_ZNKSt3__117moneypunct_bynameIcLb0EE13do_pos_formatEv', 'storage_mapping_class': 'DS', 'type': 'FUNC'}
{'import_export': 'wEXP', 'is_defined': True, 'name': '_ZNKSt3__117moneypunct_bynameIcLb0EE14do_curr_symbolEv', 'storage_mapping_class': 'DS', 'type': 'FUNC'}
{'import_export': 'wEXP', 'is_defined': True, 'name': '_ZNKSt3__117moneypunct_bynameIcLb0EE14do_frac_digitsEv', 'storage_mapping_class': 'DS', 'type': 'FUNC'}
{'import_export': 'wEXP', 'is_defined': True, 'name': '_ZNKSt3__117moneypunct_bynameIcLb0EE16do_decimal_pointEv', 'storage_mapping_class': 'DS', 'type': 'FUNC'}
{'import_export': 'wEXP', 'is_defined': True, 'name': '_ZNKSt3__117moneypunct_bynameIcLb0EE16do_negative_signEv', 'storage_mapping_class': 'DS', 'type': 'FUNC'}
{'import_export': 'wEXP', 'is_defined': True, 'name': '_ZNKSt3__117moneypunct_bynameIcLb0EE16do_positive_signEv', 'storage_mapping_class': 'DS', 'type': 'FUNC'}
{'import_export': 'wEXP', 'is_defined': True, 'name': '_ZNKSt3__117moneypunct_bynameIcLb0EE16do_thousands_sepEv', 'storage_mapping_class': 'DS', 'type': 'FUNC'}
{'import_export': 'wEXP', 'is_defined': True, 'name': '_ZNKSt3__117moneypunct_bynameIcLb1EE11do_groupingEv', 'storage_mapping_class': 'DS', 'type': 'FUNC'}
{'import_export': 'wEXP', 'is_defined': True, 'name': '_ZNKSt3__117moneypunct_bynameIcLb1EE13do_neg_formatEv', 'storage_mapping_class': 'DS', 'type': 'FUNC'}
{'import_export': 'wEXP', 'is_defined': True, 'name': '_ZNKSt3__117moneypunct_bynameIcLb1EE13do_pos_formatEv', 'storage_mapping_class': 'DS', 'type': 'FUNC'}
{'import_export': 'wEXP', 'is_defined': True, 'name': '_ZNKSt3__117moneypunct_bynameIcLb1EE14do_curr_symbolEv', 'storage_mapping_class': 'DS', 'type': 'FUNC'}
{'import_export': 'wEXP', 'is_defined': True, 'name': '_ZNKSt3__117moneypunct_bynameIcLb1EE14do_frac_digitsEv', 'storage_mapping_class': 'DS', 'type': 'FUNC'}
{'import_export': 'wEXP', 'is_defined': True, 'name': '_ZNKSt3__117moneypunct_bynameIcLb1EE16do_decimal_pointEv', 'storage_mapping_class': 'DS', 'type': 'FUNC'}
{'import_export': 'wEXP', 'is_defined': True, 'name': '_ZNKSt3__117moneypunct_bynameIcLb1EE16do_negative_signEv', 'storage_mapping_class': 'DS', 'type': 'FUNC'}
{'import_export': 'wEXP', 'is_defined': True, 'name': '_ZNKSt3__117moneypunct_bynameIcLb1EE16do_positive_signEv', 'storage_mapping_class': 'DS', 'type': 'FUNC'}
{'import_export': 'wEXP', 'is_defined': True, 'name': '_ZNKSt3__117moneypunct_bynameIcLb1EE16do_thousands_sepEv', 'storage_mapping_class': 'DS', 'type': 'FUNC'}
{'import_export': 'wEXP', 'is_defined': True, 'name': '_ZNKSt3__117moneypunct_bynameIwLb0EE11do_groupingEv', 'storage_mapping_class': 'DS', 'type': 'FUNC'}
{'import_export': 'wEXP', 'is_defined': True, 'name': '_ZNKSt3__117moneypunct_bynameIwLb0EE13do_neg_formatEv', 'storage_mapping_class': 'DS', 'type': 'FUNC'}
{'import_export': 'wEXP', 'is_defined': True, 'name': '_ZNKSt3__117moneypunct_bynameIwLb0EE13do_pos_formatEv', 'storage_mapping_class': 'DS', 'type': 'FUNC'}
{'import_export': 'wEXP', 'is_defined': True, 'name': '_ZNKSt3__117moneypunct_bynameIwLb0EE14do_curr_symbolEv', 'storage_mapping_class': 'DS', 'type': 'FUNC'}
{'import_export': 'wEXP', 'is_defined': True, 'name': '_ZNKSt3__117moneypunct_bynameIwLb0EE14do_frac_digitsEv', 'storage_mapping_class': 'DS', 'type': 'FUNC'}
{'import_export': 'wEXP', 'is_defined': True, 'name': '_ZNKSt3__117moneypunct_bynameIwLb0EE16do_decimal_pointEv', 'storage_mapping_class': 'DS', 'type': 'FUNC'}
{'import_export': 'wEXP', 'is_defined': True, 'name': '_ZNKSt3__117moneypunct_bynameIwLb0EE16do_negative_signEv', 'storage_mapping_class': 'DS', 'type': 'FUNC'}
{'import_export': 'wEXP', 'is_defined': True, 'name': '_ZNKSt3__117moneypunct_bynameIwLb0EE16do_positive_signEv', 'storage_mapping_class': 'DS', 'type': 'FUNC'}
{'import_export': 'wEXP', 'is_defined': True, 'name': '_ZNKSt3__117moneypunct_bynameIwLb0EE16do_thousands_sepEv', 'storage_mapping_class': 'DS', 'type': 'FUNC'}
{'import_export': 'wEXP', 'is_defined': True, 'name': '_ZNKSt3__117moneypunct_bynameIwLb1EE11do_groupingEv', 'storage_mapping_class': 'DS', 'type': 'FUNC'}
{'import_export': 'wEXP', 'is_defined': True, 'name': '_ZNKSt3__117moneypunct_bynameIwLb1EE13do_neg_formatEv', 'storage_mapping_class': 'DS', 'type': 'FUNC'}
{'import_export': 'wEXP', 'is_defined': True, 'name': '_ZNKSt3__117moneypunct_bynameIwLb1EE13do_pos_formatEv', 'storage_mapping_class': 'DS', 'type': 'FUNC'}
{'import_export': 'wEXP', 'is_defined': True, 'name': '_ZNKSt3__117moneypunct_bynameIwLb1EE14do_curr_symbolEv', 'storage_mapping_class': 'DS', 'type': 'FUNC'}
{'import_export': 'wEXP', 'is_defined': True, 'name': '_ZNKSt3__117moneypunct_bynameIwLb1EE14do_frac_digitsEv', 'storage_mapping_class': 'DS', 'type': 'FUNC'}
{'import_export': 'wEXP', 'is_defined': True, 'name': '_ZNKSt3__117moneypunct_bynameIwLb1EE16do_decimal_pointEv', 'storage_mapping_class': 'DS', 'type': 'FUNC'}
{'import_export': 'wEXP', 'is_defined': True, 'name': '_ZNKSt3__117moneypunct_bynameIwLb1EE16do_negative_signEv', 'storage_mapping_class': 'DS', 'type': 'FUNC'}
{'import_export': 'wEXP', 'is_defined': True, 'name': '_ZNKSt3__117moneypunct_bynameIwLb1EE16do_positive_signEv', 'storage_mapping_class': 'DS', 'type': 'FUNC'}
{'import_export': 'wEXP', 'is_defined': True, 'name': '_ZNKSt3__117moneypunct_bynameIwLb1EE16do_thousands_sepEv', 'storage_mapping_class': 'DS', 'type': 'FUNC'}
{'import_export': 'wEXP', 'is_defined': True, 'name': '_ZNKSt3__17collateIcE10do_compareEPKcS3_S3_S3_', 'storage_mapping_class': 'DS', 'type': 'FUNC'}
{'import_export': 'wEXP', 'is_defined': True, 'name': '_ZNKSt3__17collateIcE12do_transformEPKcS3_', 'storage_mapping_class': 'DS', 'type': 'FUNC'}
{'import_export': 'wEXP', 'is_defined': True, 'name': '_ZNKSt3__17collateIcE7do_hashEPKcS3_', 'storage_mapping_class': 'DS', 'type': 'FUNC'}
{'import_export': 'wEXP', 'is_defined': True, 'name': '_ZNKSt3__17collateIwE10do_compareEPKwS3_S3_S3_', 'storage_mapping_class': 'DS', 'type': 'FUNC'}
{'import_export': 'wEXP', 'is_defined': True, 'name': '_ZNKSt3__17collateIwE12do_transformEPKwS3_', 'storage_mapping_class': 'DS', 'type': 'FUNC'}
{'import_export': 'wEXP', 'is_defined': True, 'name': '_ZNKSt3__17collateIwE7do_hashEPKwS3_', 'storage_mapping_class': 'DS', 'type': 'FUNC'}
{'import_export': 'wEXP', 'is_defined': True, 'name': '_ZNKSt3__17num_getIcNS_19istreambuf_iteratorIcNS_11char_traitsIcEEEEE6do_getES4_S4_RNS_8ios_baseERjRPv', 'storage_mapping_class': 'DS', 'type': 'FUNC'}
{'import_export': 'wEXP', 'is_defined': True, 'name': '_ZNKSt3__17num_getIcNS_19istreambuf_iteratorIcNS_11char_traitsIcEEEEE6do_getES4_S4_RNS_8ios_baseERjRb', 'storage_mapping_class': 'DS', 'type': 'FUNC'}
{'import_export': 'wEXP', 'is_defined': True, 'name': '_ZNKSt3__17num_getIcNS_19istreambuf_iteratorIcNS_11char_traitsIcEEEEE6do_getES4_S4_RNS_8ios_baseERjRd', 'storage_mapping_class': 'DS', 'type': 'FUNC'}
{'import_export': 'wEXP', 'is_defined': True, 'name': '_ZNKSt3__17num_getIcNS_19istreambuf_iteratorIcNS_11char_traitsIcEEEEE6do_getES4_S4_RNS_8ios_baseERjRe', 'storage_mapping_class': 'DS', 'type': 'FUNC'}
{'import_export': 'wEXP', 'is_defined': True, 'name': '_ZNKSt3__17num_getIcNS_19istreambuf_iteratorIcNS_11char_traitsIcEEEEE6do_getES4_S4_RNS_8ios_baseERjRf', 'storage_mapping_class': 'DS', 'type': 'FUNC'}
{'import_export': 'wEXP', 'is_defined': True, 'name': '_ZNKSt3__17num_getIcNS_19istreambuf_iteratorIcNS_11char_traitsIcEEEEE6do_getES4_S4_RNS_8ios_baseERjRl', 'storage_mapping_class': 'DS', 'type': 'FUNC'}
{'import_export': 'wEXP', 'is_defined': True, 'name': '_ZNKSt3__17num_getIcNS_19istreambuf_iteratorIcNS_11char_traitsIcEEEEE6do_getES4_S4_RNS_8ios_baseERjRm', 'storage_mapping_class': 'DS', 'type': 'FUNC'}
{'import_export': 'wEXP', 'is_defined': True, 'name': '_ZNKSt3__17num_getIcNS_19istreambuf_iteratorIcNS_11char_traitsIcEEEEE6do_getES4_S4_RNS_8ios_baseERjRt', 'storage_mapping_class': 'DS', 'type': 'FUNC'}
{'import_export': 'wEXP', 'is_defined': True, 'name': '_ZNKSt3__17num_getIcNS_19istreambuf_iteratorIcNS_11char_traitsIcEEEEE6do_getES4_S4_RNS_8ios_baseERjRx', 'storage_mapping_class': 'DS', 'type': 'FUNC'}
{'import_export': 'wEXP', 'is_defined': True, 'name': '_ZNKSt3__17num_getIcNS_19istreambuf_iteratorIcNS_11char_traitsIcEEEEE6do_getES4_S4_RNS_8ios_baseERjRy', 'storage_mapping_class': 'DS', 'type': 'FUNC'}
{'import_export': 'wEXP', 'is_defined': True, 'name': '_ZNKSt3__17num_getIcNS_19istreambuf_iteratorIcNS_11char_traitsIcEEEEE6do_getES4_S4_RNS_8ios_baseERjS8_', 'storage_mapping_class': 'DS', 'type': 'FUNC'}
{'import_export': 'wEXP', 'is_defined': True, 'name': '_ZNKSt3__17num_getIwNS_19istreambuf_iteratorIwNS_11char_traitsIwEEEEE6do_getES4_S4_RNS_8ios_baseERjRPv', 'storage_mapping_class': 'DS', 'type': 'FUNC'}
{'import_export': 'wEXP', 'is_defined': True, 'name': '_ZNKSt3__17num_getIwNS_19istreambuf_iteratorIwNS_11char_traitsIwEEEEE6do_getES4_S4_RNS_8ios_baseERjRb', 'storage_mapping_class': 'DS', 'type': 'FUNC'}
{'import_export': 'wEXP', 'is_defined': True, 'name': '_ZNKSt3__17num_getIwNS_19istreambuf_iteratorIwNS_11char_traitsIwEEEEE6do_getES4_S4_RNS_8ios_baseERjRd', 'storage_mapping_class': 'DS', 'type': 'FUNC'}
{'import_export': 'wEXP', 'is_defined': True, 'name': '_ZNKSt3__17num_getIwNS_19istreambuf_iteratorIwNS_11char_traitsIwEEEEE6do_getES4_S4_RNS_8ios_baseERjRe', 'storage_mapping_class': 'DS', 'type': 'FUNC'}
{'import_export': 'wEXP', 'is_defined': True, 'name': '_ZNKSt3__17num_getIwNS_19istreambuf_iteratorIwNS_11char_traitsIwEEEEE6do_getES4_S4_RNS_8ios_baseERjRf', 'storage_mapping_class': 'DS', 'type': 'FUNC'}
{'import_export': 'wEXP', 'is_defined': True, 'name': '_ZNKSt3__17num_getIwNS_19istreambuf_iteratorIwNS_11char_traitsIwEEEEE6do_getES4_S4_RNS_8ios_baseERjRl', 'storage_mapping_class': 'DS', 'type': 'FUNC'}
{'import_export': 'wEXP', 'is_defined': True, 'name': '_ZNKSt3__17num_getIwNS_19istreambuf_iteratorIwNS_11char_traitsIwEEEEE6do_getES4_S4_RNS_8ios_baseERjRm', 'storage_mapping_class': 'DS', 'type': 'FUNC'}
{'import_export': 'wEXP', 'is_defined': True, 'name': '_ZNKSt3__17num_getIwNS_19istreambuf_iteratorIwNS_11char_traitsIwEEEEE6do_getES4_S4_RNS_8ios_baseERjRt', 'storage_mapping_class': 'DS', 'type': 'FUNC'}
{'import_export': 'wEXP', 'is_defined': True, 'name': '_ZNKSt3__17num_getIwNS_19istreambuf_iteratorIwNS_11char_traitsIwEEEEE6do_getES4_S4_RNS_8ios_baseERjRx', 'storage_mapping_class': 'DS', 'type': 'FUNC'}
{'import_export': 'wEXP', 'is_defined': True, 'name': '_ZNKSt3__17num_getIwNS_19istreambuf_iteratorIwNS_11char_traitsIwEEEEE6do_getES4_S4_RNS_8ios_baseERjRy', 'storage_mapping_class': 'DS', 'type': 'FUNC'}
{'import_export': 'wEXP', 'is_defined': True, 'name': '_ZNKSt3__17num_getIwNS_19istreambuf_iteratorIwNS_11char_traitsIwEEEEE6do_getES4_S4_RNS_8ios_baseERjS8_', 'storage_mapping_class': 'DS', 'type': 'FUNC'}
{'import_export': 'wEXP', 'is_defined': True, 'name': '_ZNKSt3__17num_putIcNS_19ostreambuf_iteratorIcNS_11char_traitsIcEEEEE6do_putES4_RNS_8ios_baseEcPKv', 'storage_mapping_class': 'DS', 'type': 'FUNC'}
{'import_export': 'wEXP', 'is_defined': True, 'name': '_ZNKSt3__17num_putIcNS_19ostreambuf_iteratorIcNS_11char_traitsIcEEEEE6do_putES4_RNS_8ios_baseEcb', 'storage_mapping_class': 'DS', 'type': 'FUNC'}
{'import_export': 'wEXP', 'is_defined': True, 'name': '_ZNKSt3__17num_putIcNS_19ostreambuf_iteratorIcNS_11char_traitsIcEEEEE6do_putES4_RNS_8ios_baseEcd', 'storage_mapping_class': 'DS', 'type': 'FUNC'}
{'import_export': 'wEXP', 'is_defined': True, 'name': '_ZNKSt3__17num_putIcNS_19ostreambuf_iteratorIcNS_11char_traitsIcEEEEE6do_putES4_RNS_8ios_baseEce', 'storage_mapping_class': 'DS', 'type': 'FUNC'}
{'import_export': 'wEXP', 'is_defined': True, 'name': '_ZNKSt3__17num_putIcNS_19ostreambuf_iteratorIcNS_11char_traitsIcEEEEE6do_putES4_RNS_8ios_baseEcl', 'storage_mapping_class': 'DS', 'type': 'FUNC'}
{'import_export': 'wEXP', 'is_defined': True, 'name': '_ZNKSt3__17num_putIcNS_19ostreambuf_iteratorIcNS_11char_traitsIcEEEEE6do_putES4_RNS_8ios_baseEcm', 'storage_mapping_class': 'DS', 'type': 'FUNC'}
{'import_export': 'wEXP', 'is_defined': True, 'name': '_ZNKSt3__17num_putIcNS_19ostreambuf_iteratorIcNS_11char_traitsIcEEEEE6do_putES4_RNS_8ios_baseEcx', 'storage_mapping_class': 'DS', 'type': 'FUNC'}
{'import_export': 'wEXP', 'is_defined': True, 'name': '_ZNKSt3__17num_putIcNS_19ostreambuf_iteratorIcNS_11char_traitsIcEEEEE6do_putES4_RNS_8ios_baseEcy', 'storage_mapping_class': 'DS', 'type': 'FUNC'}
{'import_export': 'wEXP', 'is_defined': True, 'name': '_ZNKSt3__17num_putIwNS_19ostreambuf_iteratorIwNS_11char_traitsIwEEEEE6do_putES4_RNS_8ios_baseEwPKv', 'storage_mapping_class': 'DS', 'type': 'FUNC'}
{'import_export': 'wEXP', 'is_defined': True, 'name': '_ZNKSt3__17num_putIwNS_19ostreambuf_iteratorIwNS_11char_traitsIwEEEEE6do_putES4_RNS_8ios_baseEwb', 'storage_mapping_class': 'DS', 'type': 'FUNC'}
{'import_export': 'wEXP', 'is_defined': True, 'name': '_ZNKSt3__17num_putIwNS_19ostreambuf_iteratorIwNS_11char_traitsIwEEEEE6do_putES4_RNS_8ios_baseEwd', 'storage_mapping_class': 'DS', 'type': 'FUNC'}
{'import_export': 'wEXP', 'is_defined': True, 'name': '_ZNKSt3__17num_putIwNS_19ostreambuf_iteratorIwNS_11char_traitsIwEEEEE6do_putES4_RNS_8ios_baseEwe', 'storage_mapping_class': 'DS', 'type': 'FUNC'}
{'import_export': 'wEXP', 'is_defined': True, 'name': '_ZNKSt3__17num_putIwNS_19ostreambuf_iteratorIwNS_11char_traitsIwEEEEE6do_putES4_RNS_8ios_baseEwl', 'storage_mapping_class': 'DS', 'type': 'FUNC'}
{'import_export': 'wEXP', 'is_defined': True, 'name': '_ZNKSt3__17num_putIwNS_19ostreambuf_iteratorIwNS_11char_traitsIwEEEEE6do_putES4_RNS_8ios_baseEwm', 'storage_mapping_class': 'DS', 'type': 'FUNC'}
{'import_export': 'wEXP', 'is_defined': True, 'name': '_ZNKSt3__17num_putIwNS_19ostreambuf_iteratorIwNS_11char_traitsIwEEEEE6do_putES4_RNS_8ios_baseEwx', 'storage_mapping_class': 'DS', 'type': 'FUNC'}
{'import_export': 'wEXP', 'is_defined': True, 'name': '_ZNKSt3__17num_putIwNS_19ostreambuf_iteratorIwNS_11char_traitsIwEEEEE6do_putES4_RNS_8ios_baseEwy', 'storage_mapping_class': 'DS', 'type': 'FUNC'}
{'import_export': 'wEXP', 'is_defined': True, 'name': '_ZNKSt3__18messagesIcE6do_getEliiRKNS_12basic_stringIcNS_11char_traitsIcEENS_9allocatorIcEEEE', 'storage_mapping_class': 'DS', 'type': 'FUNC'}
{'import_export': 'wEXP', 'is_defined': True, 'name': '_ZNKSt3__18messagesIcE7do_openERKNS_12basic_stringIcNS_11char_traitsIcEENS_9allocatorIcEEEERKNS_6localeE', 'storage_mapping_class': 'DS', 'type': 'FUNC'}
{'import_export': 'wEXP', 'is_defined': True, 'name': '_ZNKSt3__18messagesIcE8do_closeEl', 'storage_mapping_class': 'DS', 'type': 'FUNC'}
{'import_export': 'wEXP', 'is_defined': True, 'name': '_ZNKSt3__18messagesIwE6do_getEliiRKNS_12basic_stringIwNS_11char_traitsIwEENS_9allocatorIwEEEE', 'storage_mapping_class': 'DS', 'type': 'FUNC'}
{'import_export': 'wEXP', 'is_defined': True, 'name': '_ZNKSt3__18messagesIwE7do_openERKNS_12basic_stringIcNS_11char_traitsIcEENS_9allocatorIcEEEERKNS_6localeE', 'storage_mapping_class': 'DS', 'type': 'FUNC'}
{'import_export': 'wEXP', 'is_defined': True, 'name': '_ZNKSt3__18messagesIwE8do_closeEl', 'storage_mapping_class': 'DS', 'type': 'FUNC'}
{'import_export': 'wEXP', 'is_defined': True, 'name': '_ZNKSt3__18time_getIcNS_19istreambuf_iteratorIcNS_11char_traitsIcEEEEE10__get_hourERiRS4_S4_RjRKNS_5ctypeIcEE', 'storage_mapping_class': 'DS', 'type': 'FUNC'}
{'import_export': 'wEXP', 'is_defined': True, 'name': '_ZNKSt3__18time_getIcNS_19istreambuf_iteratorIcNS_11char_traitsIcEEEEE10__get_yearERiRS4_S4_RjRKNS_5ctypeIcEE', 'storage_mapping_class': 'DS', 'type': 'FUNC'}
{'import_export': 'wEXP', 'is_defined': True, 'name': '_ZNKSt3__18time_getIcNS_19istreambuf_iteratorIcNS_11char_traitsIcEEEEE11__get_am_pmERiRS4_S4_RjRKNS_5ctypeIcEE', 'storage_mapping_class': 'DS', 'type': 'FUNC'}
{'import_export': 'wEXP', 'is_defined': True, 'name': '_ZNKSt3__18time_getIcNS_19istreambuf_iteratorIcNS_11char_traitsIcEEEEE11__get_monthERiRS4_S4_RjRKNS_5ctypeIcEE', 'storage_mapping_class': 'DS', 'type': 'FUNC'}
{'import_export': 'wEXP', 'is_defined': True, 'name': '_ZNKSt3__18time_getIcNS_19istreambuf_iteratorIcNS_11char_traitsIcEEEEE11__get_year4ERiRS4_S4_RjRKNS_5ctypeIcEE', 'storage_mapping_class': 'DS', 'type': 'FUNC'}
{'import_export': 'wEXP', 'is_defined': True, 'name': '_ZNKSt3__18time_getIcNS_19istreambuf_iteratorIcNS_11char_traitsIcEEEEE11do_get_dateES4_S4_RNS_8ios_baseERjP2tm', 'storage_mapping_class': 'DS', 'type': 'FUNC'}
{'import_export': 'wEXP', 'is_defined': True, 'name': '_ZNKSt3__18time_getIcNS_19istreambuf_iteratorIcNS_11char_traitsIcEEEEE11do_get_timeES4_S4_RNS_8ios_baseERjP2tm', 'storage_mapping_class': 'DS', 'type': 'FUNC'}
{'import_export': 'wEXP', 'is_defined': True, 'name': '_ZNKSt3__18time_getIcNS_19istreambuf_iteratorIcNS_11char_traitsIcEEEEE11do_get_yearES4_S4_RNS_8ios_baseERjP2tm', 'storage_mapping_class': 'DS', 'type': 'FUNC'}
{'import_export': 'wEXP', 'is_defined': True, 'name': '_ZNKSt3__18time_getIcNS_19istreambuf_iteratorIcNS_11char_traitsIcEEEEE12__get_minuteERiRS4_S4_RjRKNS_5ctypeIcEE', 'storage_mapping_class': 'DS', 'type': 'FUNC'}
{'import_export': 'wEXP', 'is_defined': True, 'name': '_ZNKSt3__18time_getIcNS_19istreambuf_iteratorIcNS_11char_traitsIcEEEEE12__get_secondERiRS4_S4_RjRKNS_5ctypeIcEE', 'storage_mapping_class': 'DS', 'type': 'FUNC'}
{'import_export': 'wEXP', 'is_defined': True, 'name': '_ZNKSt3__18time_getIcNS_19istreambuf_iteratorIcNS_11char_traitsIcEEEEE13__get_12_hourERiRS4_S4_RjRKNS_5ctypeIcEE', 'storage_mapping_class': 'DS', 'type': 'FUNC'}
{'import_export': 'wEXP', 'is_defined': True, 'name': '_ZNKSt3__18time_getIcNS_19istreambuf_iteratorIcNS_11char_traitsIcEEEEE13__get_percentERS4_S4_RjRKNS_5ctypeIcEE', 'storage_mapping_class': 'DS', 'type': 'FUNC'}
{'import_export': 'wEXP', 'is_defined': True, 'name': '_ZNKSt3__18time_getIcNS_19istreambuf_iteratorIcNS_11char_traitsIcEEEEE13__get_weekdayERiRS4_S4_RjRKNS_5ctypeIcEE', 'storage_mapping_class': 'DS', 'type': 'FUNC'}
{'import_export': 'wEXP', 'is_defined': True, 'name': '_ZNKSt3__18time_getIcNS_19istreambuf_iteratorIcNS_11char_traitsIcEEEEE13do_date_orderEv', 'storage_mapping_class': 'DS', 'type': 'FUNC'}
{'import_export': 'wEXP', 'is_defined': True, 'name': '_ZNKSt3__18time_getIcNS_19istreambuf_iteratorIcNS_11char_traitsIcEEEEE14do_get_weekdayES4_S4_RNS_8ios_baseERjP2tm', 'storage_mapping_class': 'DS', 'type': 'FUNC'}
{'import_export': 'wEXP', 'is_defined': True, 'name': '_ZNKSt3__18time_getIcNS_19istreambuf_iteratorIcNS_11char_traitsIcEEEEE15__get_monthnameERiRS4_S4_RjRKNS_5ctypeIcEE', 'storage_mapping_class': 'DS', 'type': 'FUNC'}
{'import_export': 'wEXP', 'is_defined': True, 'name': '_ZNKSt3__18time_getIcNS_19istreambuf_iteratorIcNS_11char_traitsIcEEEEE16do_get_monthnameES4_S4_RNS_8ios_baseERjP2tm', 'storage_mapping_class': 'DS', 'type': 'FUNC'}
{'import_export': 'wEXP', 'is_defined': True, 'name': '_ZNKSt3__18time_getIcNS_19istreambuf_iteratorIcNS_11char_traitsIcEEEEE17__get_weekdaynameERiRS4_S4_RjRKNS_5ctypeIcEE', 'storage_mapping_class': 'DS', 'type': 'FUNC'}
{'import_export': 'wEXP', 'is_defined': True, 'name': '_ZNKSt3__18time_getIcNS_19istreambuf_iteratorIcNS_11char_traitsIcEEEEE17__get_white_spaceERS4_S4_RjRKNS_5ctypeIcEE', 'storage_mapping_class': 'DS', 'type': 'FUNC'}
{'import_export': 'wEXP', 'is_defined': True, 'name': '_ZNKSt3__18time_getIcNS_19istreambuf_iteratorIcNS_11char_traitsIcEEEEE18__get_day_year_numERiRS4_S4_RjRKNS_5ctypeIcEE', 'storage_mapping_class': 'DS', 'type': 'FUNC'}
{'import_export': 'wEXP', 'is_defined': True, 'name': '_ZNKSt3__18time_getIcNS_19istreambuf_iteratorIcNS_11char_traitsIcEEEEE3getES4_S4_RNS_8ios_baseERjP2tmPKcSC_', 'storage_mapping_class': 'DS', 'type': 'FUNC'}
{'import_export': 'wEXP', 'is_defined': True, 'name': '_ZNKSt3__18time_getIcNS_19istreambuf_iteratorIcNS_11char_traitsIcEEEEE6do_getES4_S4_RNS_8ios_baseERjP2tmcc', 'storage_mapping_class': 'DS', 'type': 'FUNC'}
{'import_export': 'wEXP', 'is_defined': True, 'name': '_ZNKSt3__18time_getIcNS_19istreambuf_iteratorIcNS_11char_traitsIcEEEEE9__get_dayERiRS4_S4_RjRKNS_5ctypeIcEE', 'storage_mapping_class': 'DS', 'type': 'FUNC'}
{'import_export': 'wEXP', 'is_defined': True, 'name': '_ZNKSt3__18time_getIwNS_19istreambuf_iteratorIwNS_11char_traitsIwEEEEE10__get_hourERiRS4_S4_RjRKNS_5ctypeIwEE', 'storage_mapping_class': 'DS', 'type': 'FUNC'}
{'import_export': 'wEXP', 'is_defined': True, 'name': '_ZNKSt3__18time_getIwNS_19istreambuf_iteratorIwNS_11char_traitsIwEEEEE10__get_yearERiRS4_S4_RjRKNS_5ctypeIwEE', 'storage_mapping_class': 'DS', 'type': 'FUNC'}
{'import_export': 'wEXP', 'is_defined': True, 'name': '_ZNKSt3__18time_getIwNS_19istreambuf_iteratorIwNS_11char_traitsIwEEEEE11__get_am_pmERiRS4_S4_RjRKNS_5ctypeIwEE', 'storage_mapping_class': 'DS', 'type': 'FUNC'}
{'import_export': 'wEXP', 'is_defined': True, 'name': '_ZNKSt3__18time_getIwNS_19istreambuf_iteratorIwNS_11char_traitsIwEEEEE11__get_monthERiRS4_S4_RjRKNS_5ctypeIwEE', 'storage_mapping_class': 'DS', 'type': 'FUNC'}
{'import_export': 'wEXP', 'is_defined': True, 'name': '_ZNKSt3__18time_getIwNS_19istreambuf_iteratorIwNS_11char_traitsIwEEEEE11__get_year4ERiRS4_S4_RjRKNS_5ctypeIwEE', 'storage_mapping_class': 'DS', 'type': 'FUNC'}
{'import_export': 'wEXP', 'is_defined': True, 'name': '_ZNKSt3__18time_getIwNS_19istreambuf_iteratorIwNS_11char_traitsIwEEEEE11do_get_dateES4_S4_RNS_8ios_baseERjP2tm', 'storage_mapping_class': 'DS', 'type': 'FUNC'}
{'import_export': 'wEXP', 'is_defined': True, 'name': '_ZNKSt3__18time_getIwNS_19istreambuf_iteratorIwNS_11char_traitsIwEEEEE11do_get_timeES4_S4_RNS_8ios_baseERjP2tm', 'storage_mapping_class': 'DS', 'type': 'FUNC'}
{'import_export': 'wEXP', 'is_defined': True, 'name': '_ZNKSt3__18time_getIwNS_19istreambuf_iteratorIwNS_11char_traitsIwEEEEE11do_get_yearES4_S4_RNS_8ios_baseERjP2tm', 'storage_mapping_class': 'DS', 'type': 'FUNC'}
{'import_export': 'wEXP', 'is_defined': True, 'name': '_ZNKSt3__18time_getIwNS_19istreambuf_iteratorIwNS_11char_traitsIwEEEEE12__get_minuteERiRS4_S4_RjRKNS_5ctypeIwEE', 'storage_mapping_class': 'DS', 'type': 'FUNC'}
{'import_export': 'wEXP', 'is_defined': True, 'name': '_ZNKSt3__18time_getIwNS_19istreambuf_iteratorIwNS_11char_traitsIwEEEEE12__get_secondERiRS4_S4_RjRKNS_5ctypeIwEE', 'storage_mapping_class': 'DS', 'type': 'FUNC'}
{'import_export': 'wEXP', 'is_defined': True, 'name': '_ZNKSt3__18time_getIwNS_19istreambuf_iteratorIwNS_11char_traitsIwEEEEE13__get_12_hourERiRS4_S4_RjRKNS_5ctypeIwEE', 'storage_mapping_class': 'DS', 'type': 'FUNC'}
{'import_export': 'wEXP', 'is_defined': True, 'name': '_ZNKSt3__18time_getIwNS_19istreambuf_iteratorIwNS_11char_traitsIwEEEEE13__get_percentERS4_S4_RjRKNS_5ctypeIwEE', 'storage_mapping_class': 'DS', 'type': 'FUNC'}
{'import_export': 'wEXP', 'is_defined': True, 'name': '_ZNKSt3__18time_getIwNS_19istreambuf_iteratorIwNS_11char_traitsIwEEEEE13__get_weekdayERiRS4_S4_RjRKNS_5ctypeIwEE', 'storage_mapping_class': 'DS', 'type': 'FUNC'}
{'import_export': 'wEXP', 'is_defined': True, 'name': '_ZNKSt3__18time_getIwNS_19istreambuf_iteratorIwNS_11char_traitsIwEEEEE13do_date_orderEv', 'storage_mapping_class': 'DS', 'type': 'FUNC'}
{'import_export': 'wEXP', 'is_defined': True, 'name': '_ZNKSt3__18time_getIwNS_19istreambuf_iteratorIwNS_11char_traitsIwEEEEE14do_get_weekdayES4_S4_RNS_8ios_baseERjP2tm', 'storage_mapping_class': 'DS', 'type': 'FUNC'}
{'import_export': 'wEXP', 'is_defined': True, 'name': '_ZNKSt3__18time_getIwNS_19istreambuf_iteratorIwNS_11char_traitsIwEEEEE15__get_monthnameERiRS4_S4_RjRKNS_5ctypeIwEE', 'storage_mapping_class': 'DS', 'type': 'FUNC'}
{'import_export': 'wEXP', 'is_defined': True, 'name': '_ZNKSt3__18time_getIwNS_19istreambuf_iteratorIwNS_11char_traitsIwEEEEE16do_get_monthnameES4_S4_RNS_8ios_baseERjP2tm', 'storage_mapping_class': 'DS', 'type': 'FUNC'}
{'import_export': 'wEXP', 'is_defined': True, 'name': '_ZNKSt3__18time_getIwNS_19istreambuf_iteratorIwNS_11char_traitsIwEEEEE17__get_weekdaynameERiRS4_S4_RjRKNS_5ctypeIwEE', 'storage_mapping_class': 'DS', 'type': 'FUNC'}
{'import_export': 'wEXP', 'is_defined': True, 'name': '_ZNKSt3__18time_getIwNS_19istreambuf_iteratorIwNS_11char_traitsIwEEEEE17__get_white_spaceERS4_S4_RjRKNS_5ctypeIwEE', 'storage_mapping_class': 'DS', 'type': 'FUNC'}
{'import_export': 'wEXP', 'is_defined': True, 'name': '_ZNKSt3__18time_getIwNS_19istreambuf_iteratorIwNS_11char_traitsIwEEEEE18__get_day_year_numERiRS4_S4_RjRKNS_5ctypeIwEE', 'storage_mapping_class': 'DS', 'type': 'FUNC'}
{'import_export': 'wEXP', 'is_defined': True, 'name': '_ZNKSt3__18time_getIwNS_19istreambuf_iteratorIwNS_11char_traitsIwEEEEE3getES4_S4_RNS_8ios_baseERjP2tmPKwSC_', 'storage_mapping_class': 'DS', 'type': 'FUNC'}
{'import_export': 'wEXP', 'is_defined': True, 'name': '_ZNKSt3__18time_getIwNS_19istreambuf_iteratorIwNS_11char_traitsIwEEEEE6do_getES4_S4_RNS_8ios_baseERjP2tmcc', 'storage_mapping_class': 'DS', 'type': 'FUNC'}
{'import_export': 'wEXP', 'is_defined': True, 'name': '_ZNKSt3__18time_getIwNS_19istreambuf_iteratorIwNS_11char_traitsIwEEEEE9__get_dayERiRS4_S4_RjRKNS_5ctypeIwEE', 'storage_mapping_class': 'DS', 'type': 'FUNC'}
{'import_export': 'wEXP', 'is_defined': True, 'name': '_ZNKSt3__18time_putIcNS_19ostreambuf_iteratorIcNS_11char_traitsIcEEEEE3putES4_RNS_8ios_baseEcPK2tmPKcSC_', 'storage_mapping_class': 'DS', 'type': 'FUNC'}
{'import_export': 'wEXP', 'is_defined': True, 'name': '_ZNKSt3__18time_putIcNS_19ostreambuf_iteratorIcNS_11char_traitsIcEEEEE6do_putES4_RNS_8ios_baseEcPK2tmcc', 'storage_mapping_class': 'DS', 'type': 'FUNC'}
{'import_export': 'wEXP', 'is_defined': True, 'name': '_ZNKSt3__18time_putIwNS_19ostreambuf_iteratorIwNS_11char_traitsIwEEEEE3putES4_RNS_8ios_baseEwPK2tmPKwSC_', 'storage_mapping_class': 'DS', 'type': 'FUNC'}
{'import_export': 'wEXP', 'is_defined': True, 'name': '_ZNKSt3__18time_putIwNS_19ostreambuf_iteratorIwNS_11char_traitsIwEEEEE6do_putES4_RNS_8ios_baseEwPK2tmcc', 'storage_mapping_class': 'DS', 'type': 'FUNC'}
{'import_export': 'wEXP', 'is_defined': True, 'name': '_ZNKSt3__19money_getIcNS_19istreambuf_iteratorIcNS_11char_traitsIcEEEEE6do_getES4_S4_bRNS_8ios_baseERjRNS_12basic_stringIcS3_NS_9allocatorIcEEEE', 'storage_mapping_class': 'DS', 'type': 'FUNC'}
{'import_export': 'wEXP', 'is_defined': True, 'name': '_ZNKSt3__19money_getIcNS_19istreambuf_iteratorIcNS_11char_traitsIcEEEEE6do_getES4_S4_bRNS_8ios_baseERjRe', 'storage_mapping_class': 'DS', 'type': 'FUNC'}
{'import_export': 'wEXP', 'is_defined': True, 'name': '_ZNKSt3__19money_getIwNS_19istreambuf_iteratorIwNS_11char_traitsIwEEEEE6do_getES4_S4_bRNS_8ios_baseERjRNS_12basic_stringIwS3_NS_9allocatorIwEEEE', 'storage_mapping_class': 'DS', 'type': 'FUNC'}
{'import_export': 'wEXP', 'is_defined': True, 'name': '_ZNKSt3__19money_getIwNS_19istreambuf_iteratorIwNS_11char_traitsIwEEEEE6do_getES4_S4_bRNS_8ios_baseERjRe', 'storage_mapping_class': 'DS', 'type': 'FUNC'}
{'import_export': 'wEXP', 'is_defined': True, 'name': '_ZNKSt3__19money_putIcNS_19ostreambuf_iteratorIcNS_11char_traitsIcEEEEE6do_putES4_bRNS_8ios_baseEcRKNS_12basic_stringIcS3_NS_9allocatorIcEEEE', 'storage_mapping_class': 'DS', 'type': 'FUNC'}
{'import_export': 'wEXP', 'is_defined': True, 'name': '_ZNKSt3__19money_putIcNS_19ostreambuf_iteratorIcNS_11char_traitsIcEEEEE6do_putES4_bRNS_8ios_baseEce', 'storage_mapping_class': 'DS', 'type': 'FUNC'}
{'import_export': 'wEXP', 'is_defined': True, 'name': '_ZNKSt3__19money_putIwNS_19ostreambuf_iteratorIwNS_11char_traitsIwEEEEE6do_putES4_bRNS_8ios_baseEwRKNS_12basic_stringIwS3_NS_9allocatorIwEEEE', 'storage_mapping_class': 'DS', 'type': 'FUNC'}
{'import_export': 'wEXP', 'is_defined': True, 'name': '_ZNKSt3__19money_putIwNS_19ostreambuf_iteratorIwNS_11char_traitsIwEEEEE6do_putES4_bRNS_8ios_baseEwe', 'storage_mapping_class': 'DS', 'type': 'FUNC'}
{'import_export': 'wEXP', 'is_defined': True, 'name': '_ZNSt3__110moneypunctIcLb0EE2idE', 'storage_mapping_class': 'RW', 'type': 'OBJECT'}
{'import_export': 'wEXP', 'is_defined': True, 'name': '_ZNSt3__110moneypunctIcLb0EE4intlE', 'storage_mapping_class': 'RO', 'type': 'OBJECT'}
{'import_export': 'wEXP', 'is_defined': True, 'name': '_ZNSt3__110moneypunctIcLb1EE2idE', 'storage_mapping_class': 'RW', 'type': 'OBJECT'}
{'import_export': 'wEXP', 'is_defined': True, 'name': '_ZNSt3__110moneypunctIcLb1EE4intlE', 'storage_mapping_class': 'RO', 'type': 'OBJECT'}
{'import_export': 'wEXP', 'is_defined': True, 'name': '_ZNSt3__110moneypunctIwLb0EE2idE', 'storage_mapping_class': 'RW', 'type': 'OBJECT'}
{'import_export': 'wEXP', 'is_defined': True, 'name': '_ZNSt3__110moneypunctIwLb0EE4intlE', 'storage_mapping_class': 'RO', 'type': 'OBJECT'}
{'import_export': 'wEXP', 'is_defined': True, 'name': '_ZNSt3__110moneypunctIwLb1EE2idE', 'storage_mapping_class': 'RW', 'type': 'OBJECT'}
{'import_export': 'wEXP', 'is_defined': True, 'name': '_ZNSt3__110moneypunctIwLb1EE4intlE', 'storage_mapping_class': 'RO', 'type': 'OBJECT'}
{'import_export': 'wEXP', 'is_defined': True, 'name': '_ZNSt3__111__money_getIcE13__gather_infoEbRKNS_6localeERNS_10money_base7patternERcS8_RNS_12basic_stringIcNS_11char_traitsIcEENS_9allocatorIcEEEESF_SF_SF_Ri', 'storage_mapping_class': 'DS', 'type': 'FUNC'}
{'import_export': 'wEXP', 'is_defined': True, 'name': '_ZNSt3__111__money_getIwE13__gather_infoEbRKNS_6localeERNS_10money_base7patternERwS8_RNS_12basic_stringIcNS_11char_traitsIcEENS_9allocatorIcEEEERNS9_IwNSA_IwEENSC_IwEEEESJ_SJ_Ri', 'storage_mapping_class': 'DS', 'type': 'FUNC'}
{'import_export': 'wEXP', 'is_defined': True, 'name': '_ZNSt3__111__money_putIcE13__gather_infoEbbRKNS_6localeERNS_10money_base7patternERcS8_RNS_12basic_stringIcNS_11char_traitsIcEENS_9allocatorIcEEEESF_SF_Ri', 'storage_mapping_class': 'DS', 'type': 'FUNC'}
{'import_export': 'wEXP', 'is_defined': True, 'name': '_ZNSt3__111__money_putIcE8__formatEPcRS2_S3_jPKcS5_RKNS_5ctypeIcEEbRKNS_10money_base7patternEccRKNS_12basic_stringIcNS_11char_traitsIcEENS_9allocatorIcEEEESL_SL_i', 'storage_mapping_class': 'DS', 'type': 'FUNC'}
{'import_export': 'wEXP', 'is_defined': True, 'name': '_ZNSt3__111__money_putIwE13__gather_infoEbbRKNS_6localeERNS_10money_base7patternERwS8_RNS_12basic_stringIcNS_11char_traitsIcEENS_9allocatorIcEEEERNS9_IwNSA_IwEENSC_IwEEEESJ_Ri', 'storage_mapping_class': 'DS', 'type': 'FUNC'}
{'import_export': 'wEXP', 'is_defined': True, 'name': '_ZNSt3__111__money_putIwE8__formatEPwRS2_S3_jPKwS5_RKNS_5ctypeIwEEbRKNS_10money_base7patternEwwRKNS_12basic_stringIcNS_11char_traitsIcEENS_9allocatorIcEEEERKNSE_IwNSF_IwEENSH_IwEEEESQ_i', 'storage_mapping_class': 'DS', 'type': 'FUNC'}
{'import_export': 'wEXP', 'is_defined': True, 'name': '_ZNSt3__112basic_stringIcNS_11char_traitsIcEENS_9allocatorIcEEE21__grow_by_and_replaceEmmmmmmPKc', 'storage_mapping_class': 'DS', 'type': 'FUNC'}
{'import_export': 'wEXP', 'is_defined': True, 'name': '_ZNSt3__112basic_stringIcNS_11char_traitsIcEENS_9allocatorIcEEE2atEm', 'storage_mapping_class': 'DS', 'type': 'FUNC'}
{'import_export': 'wEXP', 'is_defined': True, 'name': '_ZNSt3__112basic_stringIcNS_11char_traitsIcEENS_9allocatorIcEEE4nposE', 'storage_mapping_class': 'RO', 'type': 'OBJECT'}
{'import_export': 'wEXP', 'is_defined': True, 'name': '_ZNSt3__112basic_stringIcNS_11char_traitsIcEENS_9allocatorIcEEE5eraseEmm', 'storage_mapping_class': 'DS', 'type': 'FUNC'}
{'import_export': 'wEXP', 'is_defined': True, 'name': '_ZNSt3__112basic_stringIcNS_11char_traitsIcEENS_9allocatorIcEEE6__initEPKcm', 'storage_mapping_class': 'DS', 'type': 'FUNC'}
{'import_export': 'wEXP', 'is_defined': True, 'name': '_ZNSt3__112basic_stringIcNS_11char_traitsIcEENS_9allocatorIcEEE6__initEPKcmm', 'storage_mapping_class': 'DS', 'type': 'FUNC'}
{'import_export': 'wEXP', 'is_defined': True, 'name': '_ZNSt3__112basic_stringIcNS_11char_traitsIcEENS_9allocatorIcEEE6__initEmc', 'storage_mapping_class': 'DS', 'type': 'FUNC'}
{'import_export': 'wEXP', 'is_defined': True, 'name': '_ZNSt3__112basic_stringIcNS_11char_traitsIcEENS_9allocatorIcEEE6appendEPKc', 'storage_mapping_class': 'DS', 'type': 'FUNC'}
{'import_export': 'wEXP', 'is_defined': True, 'name': '_ZNSt3__112basic_stringIcNS_11char_traitsIcEENS_9allocatorIcEEE6appendEPKcm', 'storage_mapping_class': 'DS', 'type': 'FUNC'}
{'import_export': 'wEXP', 'is_defined': True, 'name': '_ZNSt3__112basic_stringIcNS_11char_traitsIcEENS_9allocatorIcEEE6appendERKS5_mm', 'storage_mapping_class': 'DS', 'type': 'FUNC'}
{'import_export': 'wEXP', 'is_defined': True, 'name': '_ZNSt3__112basic_stringIcNS_11char_traitsIcEENS_9allocatorIcEEE6appendEmc', 'storage_mapping_class': 'DS', 'type': 'FUNC'}
{'import_export': 'wEXP', 'is_defined': True, 'name': '_ZNSt3__112basic_stringIcNS_11char_traitsIcEENS_9allocatorIcEEE6assignEPKc', 'storage_mapping_class': 'DS', 'type': 'FUNC'}
{'import_export': 'wEXP', 'is_defined': True, 'name': '_ZNSt3__112basic_stringIcNS_11char_traitsIcEENS_9allocatorIcEEE6assignEPKcm', 'storage_mapping_class': 'DS', 'type': 'FUNC'}
{'import_export': 'wEXP', 'is_defined': True, 'name': '_ZNSt3__112basic_stringIcNS_11char_traitsIcEENS_9allocatorIcEEE6assignERKS5_mm', 'storage_mapping_class': 'DS', 'type': 'FUNC'}
{'import_export': 'wEXP', 'is_defined': True, 'name': '_ZNSt3__112basic_stringIcNS_11char_traitsIcEENS_9allocatorIcEEE6assignEmc', 'storage_mapping_class': 'DS', 'type': 'FUNC'}
{'import_export': 'wEXP', 'is_defined': True, 'name': '_ZNSt3__112basic_stringIcNS_11char_traitsIcEENS_9allocatorIcEEE6insertENS_11__wrap_iterIPKcEEc', 'storage_mapping_class': 'DS', 'type': 'FUNC'}
{'import_export': 'wEXP', 'is_defined': True, 'name': '_ZNSt3__112basic_stringIcNS_11char_traitsIcEENS_9allocatorIcEEE6insertEmPKc', 'storage_mapping_class': 'DS', 'type': 'FUNC'}
{'import_export': 'wEXP', 'is_defined': True, 'name': '_ZNSt3__112basic_stringIcNS_11char_traitsIcEENS_9allocatorIcEEE6insertEmPKcm', 'storage_mapping_class': 'DS', 'type': 'FUNC'}
{'import_export': 'wEXP', 'is_defined': True, 'name': '_ZNSt3__112basic_stringIcNS_11char_traitsIcEENS_9allocatorIcEEE6insertEmRKS5_mm', 'storage_mapping_class': 'DS', 'type': 'FUNC'}
{'import_export': 'wEXP', 'is_defined': True, 'name': '_ZNSt3__112basic_stringIcNS_11char_traitsIcEENS_9allocatorIcEEE6insertEmmc', 'storage_mapping_class': 'DS', 'type': 'FUNC'}
{'import_export': 'wEXP', 'is_defined': True, 'name': '_ZNSt3__112basic_stringIcNS_11char_traitsIcEENS_9allocatorIcEEE6resizeEmc', 'storage_mapping_class': 'DS', 'type': 'FUNC'}
{'import_export': 'wEXP', 'is_defined': True, 'name': '_ZNSt3__112basic_stringIcNS_11char_traitsIcEENS_9allocatorIcEEE7replaceEmmPKc', 'storage_mapping_class': 'DS', 'type': 'FUNC'}
{'import_export': 'wEXP', 'is_defined': True, 'name': '_ZNSt3__112basic_stringIcNS_11char_traitsIcEENS_9allocatorIcEEE7replaceEmmPKcm', 'storage_mapping_class': 'DS', 'type': 'FUNC'}
{'import_export': 'wEXP', 'is_defined': True, 'name': '_ZNSt3__112basic_stringIcNS_11char_traitsIcEENS_9allocatorIcEEE7replaceEmmRKS5_mm', 'storage_mapping_class': 'DS', 'type': 'FUNC'}
{'import_export': 'wEXP', 'is_defined': True, 'name': '_ZNSt3__112basic_stringIcNS_11char_traitsIcEENS_9allocatorIcEEE7replaceEmmmc', 'storage_mapping_class': 'DS', 'type': 'FUNC'}
{'import_export': 'wEXP', 'is_defined': True, 'name': '_ZNSt3__112basic_stringIcNS_11char_traitsIcEENS_9allocatorIcEEE7reserveEm', 'storage_mapping_class': 'DS', 'type': 'FUNC'}
{'import_export': 'wEXP', 'is_defined': True, 'name': '_ZNSt3__112basic_stringIcNS_11char_traitsIcEENS_9allocatorIcEEE9__grow_byEmmmmmm', 'storage_mapping_class': 'DS', 'type': 'FUNC'}
{'import_export': 'wEXP', 'is_defined': True, 'name': '_ZNSt3__112basic_stringIcNS_11char_traitsIcEENS_9allocatorIcEEE9push_backEc', 'storage_mapping_class': 'DS', 'type': 'FUNC'}
{'import_export': 'wEXP', 'is_defined': True, 'name': '_ZNSt3__112basic_stringIcNS_11char_traitsIcEENS_9allocatorIcEEEC1ERKS5_', 'storage_mapping_class': 'DS', 'type': 'FUNC'}
{'import_export': 'wEXP', 'is_defined': True, 'name': '_ZNSt3__112basic_stringIcNS_11char_traitsIcEENS_9allocatorIcEEEC1ERKS5_RKS4_', 'storage_mapping_class': 'DS', 'type': 'FUNC'}
{'import_export': 'wEXP', 'is_defined': True, 'name': '_ZNSt3__112basic_stringIcNS_11char_traitsIcEENS_9allocatorIcEEEC1ERKS5_mmRKS4_', 'storage_mapping_class': 'DS', 'type': 'FUNC'}
{'import_export': 'wEXP', 'is_defined': True, 'name': '_ZNSt3__112basic_stringIcNS_11char_traitsIcEENS_9allocatorIcEEEC2ERKS5_', 'storage_mapping_class': 'DS', 'type': 'FUNC'}
{'import_export': 'wEXP', 'is_defined': True, 'name': '_ZNSt3__112basic_stringIcNS_11char_traitsIcEENS_9allocatorIcEEEC2ERKS5_RKS4_', 'storage_mapping_class': 'DS', 'type': 'FUNC'}
{'import_export': 'wEXP', 'is_defined': True, 'name': '_ZNSt3__112basic_stringIcNS_11char_traitsIcEENS_9allocatorIcEEEC2ERKS5_mmRKS4_', 'storage_mapping_class': 'DS', 'type': 'FUNC'}
{'import_export': 'wEXP', 'is_defined': True, 'name': '_ZNSt3__112basic_stringIcNS_11char_traitsIcEENS_9allocatorIcEEED1Ev', 'storage_mapping_class': 'DS', 'type': 'FUNC'}
{'import_export': 'wEXP', 'is_defined': True, 'name': '_ZNSt3__112basic_stringIcNS_11char_traitsIcEENS_9allocatorIcEEED2Ev', 'storage_mapping_class': 'DS', 'type': 'FUNC'}
{'import_export': 'wEXP', 'is_defined': True, 'name': '_ZNSt3__112basic_stringIcNS_11char_traitsIcEENS_9allocatorIcEEEaSERKS5_', 'storage_mapping_class': 'DS', 'type': 'FUNC'}
{'import_export': 'wEXP', 'is_defined': True, 'name': '_ZNSt3__112basic_stringIcNS_11char_traitsIcEENS_9allocatorIcEEEaSEc', 'storage_mapping_class': 'DS', 'type': 'FUNC'}
{'import_export': 'wEXP', 'is_defined': True, 'name': '_ZNSt3__112basic_stringIwNS_11char_traitsIwEENS_9allocatorIwEEE21__grow_by_and_replaceEmmmmmmPKw', 'storage_mapping_class': 'DS', 'type': 'FUNC'}
{'import_export': 'wEXP', 'is_defined': True, 'name': '_ZNSt3__112basic_stringIwNS_11char_traitsIwEENS_9allocatorIwEEE2atEm', 'storage_mapping_class': 'DS', 'type': 'FUNC'}
{'import_export': 'wEXP', 'is_defined': True, 'name': '_ZNSt3__112basic_stringIwNS_11char_traitsIwEENS_9allocatorIwEEE4nposE', 'storage_mapping_class': 'RO', 'type': 'OBJECT'}
{'import_export': 'wEXP', 'is_defined': True, 'name': '_ZNSt3__112basic_stringIwNS_11char_traitsIwEENS_9allocatorIwEEE5eraseEmm', 'storage_mapping_class': 'DS', 'type': 'FUNC'}
{'import_export': 'wEXP', 'is_defined': True, 'name': '_ZNSt3__112basic_stringIwNS_11char_traitsIwEENS_9allocatorIwEEE6__initEPKwm', 'storage_mapping_class': 'DS', 'type': 'FUNC'}
{'import_export': 'wEXP', 'is_defined': True, 'name': '_ZNSt3__112basic_stringIwNS_11char_traitsIwEENS_9allocatorIwEEE6__initEPKwmm', 'storage_mapping_class': 'DS', 'type': 'FUNC'}
{'import_export': 'wEXP', 'is_defined': True, 'name': '_ZNSt3__112basic_stringIwNS_11char_traitsIwEENS_9allocatorIwEEE6__initEmw', 'storage_mapping_class': 'DS', 'type': 'FUNC'}
{'import_export': 'wEXP', 'is_defined': True, 'name': '_ZNSt3__112basic_stringIwNS_11char_traitsIwEENS_9allocatorIwEEE6appendEPKw', 'storage_mapping_class': 'DS', 'type': 'FUNC'}
{'import_export': 'wEXP', 'is_defined': True, 'name': '_ZNSt3__112basic_stringIwNS_11char_traitsIwEENS_9allocatorIwEEE6appendEPKwm', 'storage_mapping_class': 'DS', 'type': 'FUNC'}
{'import_export': 'wEXP', 'is_defined': True, 'name': '_ZNSt3__112basic_stringIwNS_11char_traitsIwEENS_9allocatorIwEEE6appendERKS5_mm', 'storage_mapping_class': 'DS', 'type': 'FUNC'}
{'import_export': 'wEXP', 'is_defined': True, 'name': '_ZNSt3__112basic_stringIwNS_11char_traitsIwEENS_9allocatorIwEEE6appendEmw', 'storage_mapping_class': 'DS', 'type': 'FUNC'}
{'import_export': 'wEXP', 'is_defined': True, 'name': '_ZNSt3__112basic_stringIwNS_11char_traitsIwEENS_9allocatorIwEEE6assignEPKw', 'storage_mapping_class': 'DS', 'type': 'FUNC'}
{'import_export': 'wEXP', 'is_defined': True, 'name': '_ZNSt3__112basic_stringIwNS_11char_traitsIwEENS_9allocatorIwEEE6assignEPKwm', 'storage_mapping_class': 'DS', 'type': 'FUNC'}
{'import_export': 'wEXP', 'is_defined': True, 'name': '_ZNSt3__112basic_stringIwNS_11char_traitsIwEENS_9allocatorIwEEE6assignERKS5_mm', 'storage_mapping_class': 'DS', 'type': 'FUNC'}
{'import_export': 'wEXP', 'is_defined': True, 'name': '_ZNSt3__112basic_stringIwNS_11char_traitsIwEENS_9allocatorIwEEE6assignEmw', 'storage_mapping_class': 'DS', 'type': 'FUNC'}
{'import_export': 'wEXP', 'is_defined': True, 'name': '_ZNSt3__112basic_stringIwNS_11char_traitsIwEENS_9allocatorIwEEE6insertENS_11__wrap_iterIPKwEEw', 'storage_mapping_class': 'DS', 'type': 'FUNC'}
{'import_export': 'wEXP', 'is_defined': True, 'name': '_ZNSt3__112basic_stringIwNS_11char_traitsIwEENS_9allocatorIwEEE6insertEmPKw', 'storage_mapping_class': 'DS', 'type': 'FUNC'}
{'import_export': 'wEXP', 'is_defined': True, 'name': '_ZNSt3__112basic_stringIwNS_11char_traitsIwEENS_9allocatorIwEEE6insertEmPKwm', 'storage_mapping_class': 'DS', 'type': 'FUNC'}
{'import_export': 'wEXP', 'is_defined': True, 'name': '_ZNSt3__112basic_stringIwNS_11char_traitsIwEENS_9allocatorIwEEE6insertEmRKS5_mm', 'storage_mapping_class': 'DS', 'type': 'FUNC'}
{'import_export': 'wEXP', 'is_defined': True, 'name': '_ZNSt3__112basic_stringIwNS_11char_traitsIwEENS_9allocatorIwEEE6insertEmmw', 'storage_mapping_class': 'DS', 'type': 'FUNC'}
{'import_export': 'wEXP', 'is_defined': True, 'name': '_ZNSt3__112basic_stringIwNS_11char_traitsIwEENS_9allocatorIwEEE6resizeEmw', 'storage_mapping_class': 'DS', 'type': 'FUNC'}
{'import_export': 'wEXP', 'is_defined': True, 'name': '_ZNSt3__112basic_stringIwNS_11char_traitsIwEENS_9allocatorIwEEE7replaceEmmPKw', 'storage_mapping_class': 'DS', 'type': 'FUNC'}
{'import_export': 'wEXP', 'is_defined': True, 'name': '_ZNSt3__112basic_stringIwNS_11char_traitsIwEENS_9allocatorIwEEE7replaceEmmPKwm', 'storage_mapping_class': 'DS', 'type': 'FUNC'}
{'import_export': 'wEXP', 'is_defined': True, 'name': '_ZNSt3__112basic_stringIwNS_11char_traitsIwEENS_9allocatorIwEEE7replaceEmmRKS5_mm', 'storage_mapping_class': 'DS', 'type': 'FUNC'}
{'import_export': 'wEXP', 'is_defined': True, 'name': '_ZNSt3__112basic_stringIwNS_11char_traitsIwEENS_9allocatorIwEEE7replaceEmmmw', 'storage_mapping_class': 'DS', 'type': 'FUNC'}
{'import_export': 'wEXP', 'is_defined': True, 'name': '_ZNSt3__112basic_stringIwNS_11char_traitsIwEENS_9allocatorIwEEE7reserveEm', 'storage_mapping_class': 'DS', 'type': 'FUNC'}
{'import_export': 'wEXP', 'is_defined': True, 'name': '_ZNSt3__112basic_stringIwNS_11char_traitsIwEENS_9allocatorIwEEE9__grow_byEmmmmmm', 'storage_mapping_class': 'DS', 'type': 'FUNC'}
{'import_export': 'wEXP', 'is_defined': True, 'name': '_ZNSt3__112basic_stringIwNS_11char_traitsIwEENS_9allocatorIwEEE9push_backEw', 'storage_mapping_class': 'DS', 'type': 'FUNC'}
{'import_export': 'wEXP', 'is_defined': True, 'name': '_ZNSt3__112basic_stringIwNS_11char_traitsIwEENS_9allocatorIwEEEC1ERKS5_', 'storage_mapping_class': 'DS', 'type': 'FUNC'}
{'import_export': 'wEXP', 'is_defined': True, 'name': '_ZNSt3__112basic_stringIwNS_11char_traitsIwEENS_9allocatorIwEEEC1ERKS5_RKS4_', 'storage_mapping_class': 'DS', 'type': 'FUNC'}
{'import_export': 'wEXP', 'is_defined': True, 'name': '_ZNSt3__112basic_stringIwNS_11char_traitsIwEENS_9allocatorIwEEEC1ERKS5_mmRKS4_', 'storage_mapping_class': 'DS', 'type': 'FUNC'}
{'import_export': 'wEXP', 'is_defined': True, 'name': '_ZNSt3__112basic_stringIwNS_11char_traitsIwEENS_9allocatorIwEEEC2ERKS5_', 'storage_mapping_class': 'DS', 'type': 'FUNC'}
{'import_export': 'wEXP', 'is_defined': True, 'name': '_ZNSt3__112basic_stringIwNS_11char_traitsIwEENS_9allocatorIwEEEC2ERKS5_RKS4_', 'storage_mapping_class': 'DS', 'type': 'FUNC'}
{'import_export': 'wEXP', 'is_defined': True, 'name': '_ZNSt3__112basic_stringIwNS_11char_traitsIwEENS_9allocatorIwEEEC2ERKS5_mmRKS4_', 'storage_mapping_class': 'DS', 'type': 'FUNC'}
{'import_export': 'wEXP', 'is_defined': True, 'name': '_ZNSt3__112basic_stringIwNS_11char_traitsIwEENS_9allocatorIwEEED1Ev', 'storage_mapping_class': 'DS', 'type': 'FUNC'}
{'import_export': 'wEXP', 'is_defined': True, 'name': '_ZNSt3__112basic_stringIwNS_11char_traitsIwEENS_9allocatorIwEEED2Ev', 'storage_mapping_class': 'DS', 'type': 'FUNC'}
{'import_export': 'wEXP', 'is_defined': True, 'name': '_ZNSt3__112basic_stringIwNS_11char_traitsIwEENS_9allocatorIwEEEaSERKS5_', 'storage_mapping_class': 'DS', 'type': 'FUNC'}
{'import_export': 'wEXP', 'is_defined': True, 'name': '_ZNSt3__112basic_stringIwNS_11char_traitsIwEENS_9allocatorIwEEEaSEw', 'storage_mapping_class': 'DS', 'type': 'FUNC'}
{'import_export': 'wEXP', 'is_defined': True, 'name': '_ZNSt3__113basic_filebufIcNS_11char_traitsIcEEE11__read_modeEv', 'storage_mapping_class': 'DS', 'type': 'FUNC'}
{'import_export': 'wEXP', 'is_defined': True, 'name': '_ZNSt3__113basic_filebufIcNS_11char_traitsIcEEE12__write_modeEv', 'storage_mapping_class': 'DS', 'type': 'FUNC'}
{'import_export': 'wEXP', 'is_defined': True, 'name': '_ZNSt3__113basic_filebufIcNS_11char_traitsIcEEE4openEPKcj', 'storage_mapping_class': 'DS', 'type': 'FUNC'}
{'import_export': 'wEXP', 'is_defined': True, 'name': '_ZNSt3__113basic_filebufIcNS_11char_traitsIcEEE4swapERS3_', 'storage_mapping_class': 'DS', 'type': 'FUNC'}
{'import_export': 'wEXP', 'is_defined': True, 'name': '_ZNSt3__113basic_filebufIcNS_11char_traitsIcEEE4syncEv', 'storage_mapping_class': 'DS', 'type': 'FUNC'}
{'import_export': 'wEXP', 'is_defined': True, 'name': '_ZNSt3__113basic_filebufIcNS_11char_traitsIcEEE5closeEv', 'storage_mapping_class': 'DS', 'type': 'FUNC'}
{'import_export': 'wEXP', 'is_defined': True, 'name': '_ZNSt3__113basic_filebufIcNS_11char_traitsIcEEE5imbueERKNS_6localeE', 'storage_mapping_class': 'DS', 'type': 'FUNC'}
{'import_export': 'wEXP', 'is_defined': True, 'name': '_ZNSt3__113basic_filebufIcNS_11char_traitsIcEEE6setbufEPcl', 'storage_mapping_class': 'DS', 'type': 'FUNC'}
{'import_export': 'wEXP', 'is_defined': True, 'name': '_ZNSt3__113basic_filebufIcNS_11char_traitsIcEEE7seekoffExNS_8ios_base7seekdirEj', 'storage_mapping_class': 'DS', 'type': 'FUNC'}
{'import_export': 'wEXP', 'is_defined': True, 'name': '_ZNSt3__113basic_filebufIcNS_11char_traitsIcEEE7seekposENS_4fposIPcEEj', 'storage_mapping_class': 'DS', 'type': 'FUNC'}
{'import_export': 'wEXP', 'is_defined': True, 'name': '_ZNSt3__113basic_filebufIcNS_11char_traitsIcEEE8overflowEi', 'storage_mapping_class': 'DS', 'type': 'FUNC'}
{'import_export': 'wEXP', 'is_defined': True, 'name': '_ZNSt3__113basic_filebufIcNS_11char_traitsIcEEE9pbackfailEi', 'storage_mapping_class': 'DS', 'type': 'FUNC'}
{'import_export': 'wEXP', 'is_defined': True, 'name': '_ZNSt3__113basic_filebufIcNS_11char_traitsIcEEE9underflowEv', 'storage_mapping_class': 'DS', 'type': 'FUNC'}
{'import_export': 'wEXP', 'is_defined': True, 'name': '_ZNSt3__113basic_filebufIcNS_11char_traitsIcEEEC1EOS3_', 'storage_mapping_class': 'DS', 'type': 'FUNC'}
{'import_export': 'wEXP', 'is_defined': True, 'name': '_ZNSt3__113basic_filebufIcNS_11char_traitsIcEEEC1Ev', 'storage_mapping_class': 'DS', 'type': 'FUNC'}
{'import_export': 'wEXP', 'is_defined': True, 'name': '_ZNSt3__113basic_filebufIcNS_11char_traitsIcEEEC2EOS3_', 'storage_mapping_class': 'DS', 'type': 'FUNC'}
{'import_export': 'wEXP', 'is_defined': True, 'name': '_ZNSt3__113basic_filebufIcNS_11char_traitsIcEEEC2Ev', 'storage_mapping_class': 'DS', 'type': 'FUNC'}
{'import_export': 'wEXP', 'is_defined': True, 'name': '_ZNSt3__113basic_filebufIcNS_11char_traitsIcEEED0Ev', 'storage_mapping_class': 'DS', 'type': 'FUNC'}
{'import_export': 'wEXP', 'is_defined': True, 'name': '_ZNSt3__113basic_filebufIcNS_11char_traitsIcEEED1Ev', 'storage_mapping_class': 'DS', 'type': 'FUNC'}
{'import_export': 'wEXP', 'is_defined': True, 'name': '_ZNSt3__113basic_filebufIcNS_11char_traitsIcEEED2Ev', 'storage_mapping_class': 'DS', 'type': 'FUNC'}
{'import_export': 'wEXP', 'is_defined': True, 'name': '_ZNSt3__113basic_istreamIcNS_11char_traitsIcEEE3getEPcl', 'storage_mapping_class': 'DS', 'type': 'FUNC'}
{'import_export': 'wEXP', 'is_defined': True, 'name': '_ZNSt3__113basic_istreamIcNS_11char_traitsIcEEE3getEPclc', 'storage_mapping_class': 'DS', 'type': 'FUNC'}
{'import_export': 'wEXP', 'is_defined': True, 'name': '_ZNSt3__113basic_istreamIcNS_11char_traitsIcEEE3getERNS_15basic_streambufIcS2_EE', 'storage_mapping_class': 'DS', 'type': 'FUNC'}
{'import_export': 'wEXP', 'is_defined': True, 'name': '_ZNSt3__113basic_istreamIcNS_11char_traitsIcEEE3getERNS_15basic_streambufIcS2_EEc', 'storage_mapping_class': 'DS', 'type': 'FUNC'}
{'import_export': 'wEXP', 'is_defined': True, 'name': '_ZNSt3__113basic_istreamIcNS_11char_traitsIcEEE3getERc', 'storage_mapping_class': 'DS', 'type': 'FUNC'}
{'import_export': 'wEXP', 'is_defined': True, 'name': '_ZNSt3__113basic_istreamIcNS_11char_traitsIcEEE3getEv', 'storage_mapping_class': 'DS', 'type': 'FUNC'}
{'import_export': 'wEXP', 'is_defined': True, 'name': '_ZNSt3__113basic_istreamIcNS_11char_traitsIcEEE4peekEv', 'storage_mapping_class': 'DS', 'type': 'FUNC'}
{'import_export': 'wEXP', 'is_defined': True, 'name': '_ZNSt3__113basic_istreamIcNS_11char_traitsIcEEE4readEPcl', 'storage_mapping_class': 'DS', 'type': 'FUNC'}
{'import_export': 'wEXP', 'is_defined': True, 'name': '_ZNSt3__113basic_istreamIcNS_11char_traitsIcEEE4swapERS3_', 'storage_mapping_class': 'DS', 'type': 'FUNC'}
{'import_export': 'wEXP', 'is_defined': True, 'name': '_ZNSt3__113basic_istreamIcNS_11char_traitsIcEEE4syncEv', 'storage_mapping_class': 'DS', 'type': 'FUNC'}
{'import_export': 'wEXP', 'is_defined': True, 'name': '_ZNSt3__113basic_istreamIcNS_11char_traitsIcEEE5seekgENS_4fposIPcEE', 'storage_mapping_class': 'DS', 'type': 'FUNC'}
{'import_export': 'wEXP', 'is_defined': True, 'name': '_ZNSt3__113basic_istreamIcNS_11char_traitsIcEEE5seekgExNS_8ios_base7seekdirE', 'storage_mapping_class': 'DS', 'type': 'FUNC'}
{'import_export': 'wEXP', 'is_defined': True, 'name': '_ZNSt3__113basic_istreamIcNS_11char_traitsIcEEE5tellgEv', 'storage_mapping_class': 'DS', 'type': 'FUNC'}
{'import_export': 'wEXP', 'is_defined': True, 'name': '_ZNSt3__113basic_istreamIcNS_11char_traitsIcEEE5ungetEv', 'storage_mapping_class': 'DS', 'type': 'FUNC'}
{'import_export': 'wEXP', 'is_defined': True, 'name': '_ZNSt3__113basic_istreamIcNS_11char_traitsIcEEE6ignoreEli', 'storage_mapping_class': 'DS', 'type': 'FUNC'}
{'import_export': 'wEXP', 'is_defined': True, 'name': '_ZNSt3__113basic_istreamIcNS_11char_traitsIcEEE6sentryC1ERS3_b', 'storage_mapping_class': 'DS', 'type': 'FUNC'}
{'import_export': 'wEXP', 'is_defined': True, 'name': '_ZNSt3__113basic_istreamIcNS_11char_traitsIcEEE6sentryC2ERS3_b', 'storage_mapping_class': 'DS', 'type': 'FUNC'}
{'import_export': 'wEXP', 'is_defined': True, 'name': '_ZNSt3__113basic_istreamIcNS_11char_traitsIcEEE7getlineEPcl', 'storage_mapping_class': 'DS', 'type': 'FUNC'}
{'import_export': 'wEXP', 'is_defined': True, 'name': '_ZNSt3__113basic_istreamIcNS_11char_traitsIcEEE7getlineEPclc', 'storage_mapping_class': 'DS', 'type': 'FUNC'}
{'import_export': 'wEXP', 'is_defined': True, 'name': '_ZNSt3__113basic_istreamIcNS_11char_traitsIcEEE7putbackEc', 'storage_mapping_class': 'DS', 'type': 'FUNC'}
{'import_export': 'wEXP', 'is_defined': True, 'name': '_ZNSt3__113basic_istreamIcNS_11char_traitsIcEEE8readsomeEPcl', 'storage_mapping_class': 'DS', 'type': 'FUNC'}
{'import_export': 'wEXP', 'is_defined': True, 'name': '_ZNSt3__113basic_istreamIcNS_11char_traitsIcEEEC1EPNS_15basic_streambufIcS2_EE', 'storage_mapping_class': 'DS', 'type': 'FUNC'}
{'import_export': 'wEXP', 'is_defined': True, 'name': '_ZNSt3__113basic_istreamIcNS_11char_traitsIcEEEC2EPNS_15basic_streambufIcS2_EE', 'storage_mapping_class': 'DS', 'type': 'FUNC'}
{'import_export': 'wEXP', 'is_defined': True, 'name': '_ZNSt3__113basic_istreamIcNS_11char_traitsIcEEED0Ev', 'storage_mapping_class': 'DS', 'type': 'FUNC'}
{'import_export': 'wEXP', 'is_defined': True, 'name': '_ZNSt3__113basic_istreamIcNS_11char_traitsIcEEED1Ev', 'storage_mapping_class': 'DS', 'type': 'FUNC'}
{'import_export': 'wEXP', 'is_defined': True, 'name': '_ZNSt3__113basic_istreamIcNS_11char_traitsIcEEED2Ev', 'storage_mapping_class': 'DS', 'type': 'FUNC'}
{'import_export': 'wEXP', 'is_defined': True, 'name': '_ZNSt3__113basic_istreamIcNS_11char_traitsIcEEErsEPFRNS_8ios_baseES5_E', 'storage_mapping_class': 'DS', 'type': 'FUNC'}
{'import_export': 'wEXP', 'is_defined': True, 'name': '_ZNSt3__113basic_istreamIcNS_11char_traitsIcEEErsEPFRNS_9basic_iosIcS2_EES6_E', 'storage_mapping_class': 'DS', 'type': 'FUNC'}
{'import_export': 'wEXP', 'is_defined': True, 'name': '_ZNSt3__113basic_istreamIcNS_11char_traitsIcEEErsEPFRS3_S4_E', 'storage_mapping_class': 'DS', 'type': 'FUNC'}
{'import_export': 'wEXP', 'is_defined': True, 'name': '_ZNSt3__113basic_istreamIcNS_11char_traitsIcEEErsEPNS_15basic_streambufIcS2_EE', 'storage_mapping_class': 'DS', 'type': 'FUNC'}
{'import_export': 'wEXP', 'is_defined': True, 'name': '_ZNSt3__113basic_istreamIcNS_11char_traitsIcEEErsERPv', 'storage_mapping_class': 'DS', 'type': 'FUNC'}
{'import_export': 'wEXP', 'is_defined': True, 'name': '_ZNSt3__113basic_istreamIcNS_11char_traitsIcEEErsERb', 'storage_mapping_class': 'DS', 'type': 'FUNC'}
{'import_export': 'wEXP', 'is_defined': True, 'name': '_ZNSt3__113basic_istreamIcNS_11char_traitsIcEEErsERd', 'storage_mapping_class': 'DS', 'type': 'FUNC'}
{'import_export': 'wEXP', 'is_defined': True, 'name': '_ZNSt3__113basic_istreamIcNS_11char_traitsIcEEErsERe', 'storage_mapping_class': 'DS', 'type': 'FUNC'}
{'import_export': 'wEXP', 'is_defined': True, 'name': '_ZNSt3__113basic_istreamIcNS_11char_traitsIcEEErsERf', 'storage_mapping_class': 'DS', 'type': 'FUNC'}
{'import_export': 'wEXP', 'is_defined': True, 'name': '_ZNSt3__113basic_istreamIcNS_11char_traitsIcEEErsERi', 'storage_mapping_class': 'DS', 'type': 'FUNC'}
{'import_export': 'wEXP', 'is_defined': True, 'name': '_ZNSt3__113basic_istreamIcNS_11char_traitsIcEEErsERj', 'storage_mapping_class': 'DS', 'type': 'FUNC'}
{'import_export': 'wEXP', 'is_defined': True, 'name': '_ZNSt3__113basic_istreamIcNS_11char_traitsIcEEErsERl', 'storage_mapping_class': 'DS', 'type': 'FUNC'}
{'import_export': 'wEXP', 'is_defined': True, 'name': '_ZNSt3__113basic_istreamIcNS_11char_traitsIcEEErsERm', 'storage_mapping_class': 'DS', 'type': 'FUNC'}
{'import_export': 'wEXP', 'is_defined': True, 'name': '_ZNSt3__113basic_istreamIcNS_11char_traitsIcEEErsERs', 'storage_mapping_class': 'DS', 'type': 'FUNC'}
{'import_export': 'wEXP', 'is_defined': True, 'name': '_ZNSt3__113basic_istreamIcNS_11char_traitsIcEEErsERt', 'storage_mapping_class': 'DS', 'type': 'FUNC'}
{'import_export': 'wEXP', 'is_defined': True, 'name': '_ZNSt3__113basic_istreamIcNS_11char_traitsIcEEErsERx', 'storage_mapping_class': 'DS', 'type': 'FUNC'}
{'import_export': 'wEXP', 'is_defined': True, 'name': '_ZNSt3__113basic_istreamIcNS_11char_traitsIcEEErsERy', 'storage_mapping_class': 'DS', 'type': 'FUNC'}
{'import_export': 'wEXP', 'is_defined': True, 'name': '_ZNSt3__113basic_istreamIwNS_11char_traitsIwEEE3getEPwl', 'storage_mapping_class': 'DS', 'type': 'FUNC'}
{'import_export': 'wEXP', 'is_defined': True, 'name': '_ZNSt3__113basic_istreamIwNS_11char_traitsIwEEE3getEPwlw', 'storage_mapping_class': 'DS', 'type': 'FUNC'}
{'import_export': 'wEXP', 'is_defined': True, 'name': '_ZNSt3__113basic_istreamIwNS_11char_traitsIwEEE3getERNS_15basic_streambufIwS2_EE', 'storage_mapping_class': 'DS', 'type': 'FUNC'}
{'import_export': 'wEXP', 'is_defined': True, 'name': '_ZNSt3__113basic_istreamIwNS_11char_traitsIwEEE3getERNS_15basic_streambufIwS2_EEw', 'storage_mapping_class': 'DS', 'type': 'FUNC'}
{'import_export': 'wEXP', 'is_defined': True, 'name': '_ZNSt3__113basic_istreamIwNS_11char_traitsIwEEE3getERw', 'storage_mapping_class': 'DS', 'type': 'FUNC'}
{'import_export': 'wEXP', 'is_defined': True, 'name': '_ZNSt3__113basic_istreamIwNS_11char_traitsIwEEE3getEv', 'storage_mapping_class': 'DS', 'type': 'FUNC'}
{'import_export': 'wEXP', 'is_defined': True, 'name': '_ZNSt3__113basic_istreamIwNS_11char_traitsIwEEE4peekEv', 'storage_mapping_class': 'DS', 'type': 'FUNC'}
{'import_export': 'wEXP', 'is_defined': True, 'name': '_ZNSt3__113basic_istreamIwNS_11char_traitsIwEEE4readEPwl', 'storage_mapping_class': 'DS', 'type': 'FUNC'}
{'import_export': 'wEXP', 'is_defined': True, 'name': '_ZNSt3__113basic_istreamIwNS_11char_traitsIwEEE4swapERS3_', 'storage_mapping_class': 'DS', 'type': 'FUNC'}
{'import_export': 'wEXP', 'is_defined': True, 'name': '_ZNSt3__113basic_istreamIwNS_11char_traitsIwEEE4syncEv', 'storage_mapping_class': 'DS', 'type': 'FUNC'}
{'import_export': 'wEXP', 'is_defined': True, 'name': '_ZNSt3__113basic_istreamIwNS_11char_traitsIwEEE5seekgENS_4fposIPcEE', 'storage_mapping_class': 'DS', 'type': 'FUNC'}
{'import_export': 'wEXP', 'is_defined': True, 'name': '_ZNSt3__113basic_istreamIwNS_11char_traitsIwEEE5seekgExNS_8ios_base7seekdirE', 'storage_mapping_class': 'DS', 'type': 'FUNC'}
{'import_export': 'wEXP', 'is_defined': True, 'name': '_ZNSt3__113basic_istreamIwNS_11char_traitsIwEEE5tellgEv', 'storage_mapping_class': 'DS', 'type': 'FUNC'}
{'import_export': 'wEXP', 'is_defined': True, 'name': '_ZNSt3__113basic_istreamIwNS_11char_traitsIwEEE5ungetEv', 'storage_mapping_class': 'DS', 'type': 'FUNC'}
{'import_export': 'wEXP', 'is_defined': True, 'name': '_ZNSt3__113basic_istreamIwNS_11char_traitsIwEEE6ignoreEli', 'storage_mapping_class': 'DS', 'type': 'FUNC'}
{'import_export': 'wEXP', 'is_defined': True, 'name': '_ZNSt3__113basic_istreamIwNS_11char_traitsIwEEE6sentryC1ERS3_b', 'storage_mapping_class': 'DS', 'type': 'FUNC'}
{'import_export': 'wEXP', 'is_defined': True, 'name': '_ZNSt3__113basic_istreamIwNS_11char_traitsIwEEE6sentryC2ERS3_b', 'storage_mapping_class': 'DS', 'type': 'FUNC'}
{'import_export': 'wEXP', 'is_defined': True, 'name': '_ZNSt3__113basic_istreamIwNS_11char_traitsIwEEE7getlineEPwl', 'storage_mapping_class': 'DS', 'type': 'FUNC'}
{'import_export': 'wEXP', 'is_defined': True, 'name': '_ZNSt3__113basic_istreamIwNS_11char_traitsIwEEE7getlineEPwlw', 'storage_mapping_class': 'DS', 'type': 'FUNC'}
{'import_export': 'wEXP', 'is_defined': True, 'name': '_ZNSt3__113basic_istreamIwNS_11char_traitsIwEEE7putbackEw', 'storage_mapping_class': 'DS', 'type': 'FUNC'}
{'import_export': 'wEXP', 'is_defined': True, 'name': '_ZNSt3__113basic_istreamIwNS_11char_traitsIwEEE8readsomeEPwl', 'storage_mapping_class': 'DS', 'type': 'FUNC'}
{'import_export': 'wEXP', 'is_defined': True, 'name': '_ZNSt3__113basic_istreamIwNS_11char_traitsIwEEEC1EPNS_15basic_streambufIwS2_EE', 'storage_mapping_class': 'DS', 'type': 'FUNC'}
{'import_export': 'wEXP', 'is_defined': True, 'name': '_ZNSt3__113basic_istreamIwNS_11char_traitsIwEEEC2EPNS_15basic_streambufIwS2_EE', 'storage_mapping_class': 'DS', 'type': 'FUNC'}
{'import_export': 'wEXP', 'is_defined': True, 'name': '_ZNSt3__113basic_istreamIwNS_11char_traitsIwEEED0Ev', 'storage_mapping_class': 'DS', 'type': 'FUNC'}
{'import_export': 'wEXP', 'is_defined': True, 'name': '_ZNSt3__113basic_istreamIwNS_11char_traitsIwEEED1Ev', 'storage_mapping_class': 'DS', 'type': 'FUNC'}
{'import_export': 'wEXP', 'is_defined': True, 'name': '_ZNSt3__113basic_istreamIwNS_11char_traitsIwEEED2Ev', 'storage_mapping_class': 'DS', 'type': 'FUNC'}
{'import_export': 'wEXP', 'is_defined': True, 'name': '_ZNSt3__113basic_istreamIwNS_11char_traitsIwEEErsEPFRNS_8ios_baseES5_E', 'storage_mapping_class': 'DS', 'type': 'FUNC'}
{'import_export': 'wEXP', 'is_defined': True, 'name': '_ZNSt3__113basic_istreamIwNS_11char_traitsIwEEErsEPFRNS_9basic_iosIwS2_EES6_E', 'storage_mapping_class': 'DS', 'type': 'FUNC'}
{'import_export': 'wEXP', 'is_defined': True, 'name': '_ZNSt3__113basic_istreamIwNS_11char_traitsIwEEErsEPFRS3_S4_E', 'storage_mapping_class': 'DS', 'type': 'FUNC'}
{'import_export': 'wEXP', 'is_defined': True, 'name': '_ZNSt3__113basic_istreamIwNS_11char_traitsIwEEErsEPNS_15basic_streambufIwS2_EE', 'storage_mapping_class': 'DS', 'type': 'FUNC'}
{'import_export': 'wEXP', 'is_defined': True, 'name': '_ZNSt3__113basic_istreamIwNS_11char_traitsIwEEErsERPv', 'storage_mapping_class': 'DS', 'type': 'FUNC'}
{'import_export': 'wEXP', 'is_defined': True, 'name': '_ZNSt3__113basic_istreamIwNS_11char_traitsIwEEErsERb', 'storage_mapping_class': 'DS', 'type': 'FUNC'}
{'import_export': 'wEXP', 'is_defined': True, 'name': '_ZNSt3__113basic_istreamIwNS_11char_traitsIwEEErsERd', 'storage_mapping_class': 'DS', 'type': 'FUNC'}
{'import_export': 'wEXP', 'is_defined': True, 'name': '_ZNSt3__113basic_istreamIwNS_11char_traitsIwEEErsERe', 'storage_mapping_class': 'DS', 'type': 'FUNC'}
{'import_export': 'wEXP', 'is_defined': True, 'name': '_ZNSt3__113basic_istreamIwNS_11char_traitsIwEEErsERf', 'storage_mapping_class': 'DS', 'type': 'FUNC'}
{'import_export': 'wEXP', 'is_defined': True, 'name': '_ZNSt3__113basic_istreamIwNS_11char_traitsIwEEErsERi', 'storage_mapping_class': 'DS', 'type': 'FUNC'}
{'import_export': 'wEXP', 'is_defined': True, 'name': '_ZNSt3__113basic_istreamIwNS_11char_traitsIwEEErsERj', 'storage_mapping_class': 'DS', 'type': 'FUNC'}
{'import_export': 'wEXP', 'is_defined': True, 'name': '_ZNSt3__113basic_istreamIwNS_11char_traitsIwEEErsERl', 'storage_mapping_class': 'DS', 'type': 'FUNC'}
{'import_export': 'wEXP', 'is_defined': True, 'name': '_ZNSt3__113basic_istreamIwNS_11char_traitsIwEEErsERm', 'storage_mapping_class': 'DS', 'type': 'FUNC'}
{'import_export': 'wEXP', 'is_defined': True, 'name': '_ZNSt3__113basic_istreamIwNS_11char_traitsIwEEErsERs', 'storage_mapping_class': 'DS', 'type': 'FUNC'}
{'import_export': 'wEXP', 'is_defined': True, 'name': '_ZNSt3__113basic_istreamIwNS_11char_traitsIwEEErsERt', 'storage_mapping_class': 'DS', 'type': 'FUNC'}
{'import_export': 'wEXP', 'is_defined': True, 'name': '_ZNSt3__113basic_istreamIwNS_11char_traitsIwEEErsERx', 'storage_mapping_class': 'DS', 'type': 'FUNC'}
{'import_export': 'wEXP', 'is_defined': True, 'name': '_ZNSt3__113basic_istreamIwNS_11char_traitsIwEEErsERy', 'storage_mapping_class': 'DS', 'type': 'FUNC'}
{'import_export': 'wEXP', 'is_defined': True, 'name': '_ZNSt3__113basic_ostreamIcNS_11char_traitsIcEEE3putEc', 'storage_mapping_class': 'DS', 'type': 'FUNC'}
{'import_export': 'wEXP', 'is_defined': True, 'name': '_ZNSt3__113basic_ostreamIcNS_11char_traitsIcEEE4swapERS3_', 'storage_mapping_class': 'DS', 'type': 'FUNC'}
{'import_export': 'wEXP', 'is_defined': True, 'name': '_ZNSt3__113basic_ostreamIcNS_11char_traitsIcEEE5flushEv', 'storage_mapping_class': 'DS', 'type': 'FUNC'}
{'import_export': 'wEXP', 'is_defined': True, 'name': '_ZNSt3__113basic_ostreamIcNS_11char_traitsIcEEE5seekpENS_4fposIPcEE', 'storage_mapping_class': 'DS', 'type': 'FUNC'}
{'import_export': 'wEXP', 'is_defined': True, 'name': '_ZNSt3__113basic_ostreamIcNS_11char_traitsIcEEE5seekpExNS_8ios_base7seekdirE', 'storage_mapping_class': 'DS', 'type': 'FUNC'}
{'import_export': 'wEXP', 'is_defined': True, 'name': '_ZNSt3__113basic_ostreamIcNS_11char_traitsIcEEE5tellpEv', 'storage_mapping_class': 'DS', 'type': 'FUNC'}
{'import_export': 'wEXP', 'is_defined': True, 'name': '_ZNSt3__113basic_ostreamIcNS_11char_traitsIcEEE5writeEPKcl', 'storage_mapping_class': 'DS', 'type': 'FUNC'}
{'import_export': 'wEXP', 'is_defined': True, 'name': '_ZNSt3__113basic_ostreamIcNS_11char_traitsIcEEE6sentryC1ERS3_', 'storage_mapping_class': 'DS', 'type': 'FUNC'}
{'import_export': 'wEXP', 'is_defined': True, 'name': '_ZNSt3__113basic_ostreamIcNS_11char_traitsIcEEE6sentryC2ERS3_', 'storage_mapping_class': 'DS', 'type': 'FUNC'}
{'import_export': 'wEXP', 'is_defined': True, 'name': '_ZNSt3__113basic_ostreamIcNS_11char_traitsIcEEE6sentryD1Ev', 'storage_mapping_class': 'DS', 'type': 'FUNC'}
{'import_export': 'wEXP', 'is_defined': True, 'name': '_ZNSt3__113basic_ostreamIcNS_11char_traitsIcEEE6sentryD2Ev', 'storage_mapping_class': 'DS', 'type': 'FUNC'}
{'import_export': 'wEXP', 'is_defined': True, 'name': '_ZNSt3__113basic_ostreamIcNS_11char_traitsIcEEEC1EPNS_15basic_streambufIcS2_EE', 'storage_mapping_class': 'DS', 'type': 'FUNC'}
{'import_export': 'wEXP', 'is_defined': True, 'name': '_ZNSt3__113basic_ostreamIcNS_11char_traitsIcEEEC2EPNS_15basic_streambufIcS2_EE', 'storage_mapping_class': 'DS', 'type': 'FUNC'}
{'import_export': 'wEXP', 'is_defined': True, 'name': '_ZNSt3__113basic_ostreamIcNS_11char_traitsIcEEED0Ev', 'storage_mapping_class': 'DS', 'type': 'FUNC'}
{'import_export': 'wEXP', 'is_defined': True, 'name': '_ZNSt3__113basic_ostreamIcNS_11char_traitsIcEEED1Ev', 'storage_mapping_class': 'DS', 'type': 'FUNC'}
{'import_export': 'wEXP', 'is_defined': True, 'name': '_ZNSt3__113basic_ostreamIcNS_11char_traitsIcEEED2Ev', 'storage_mapping_class': 'DS', 'type': 'FUNC'}
{'import_export': 'wEXP', 'is_defined': True, 'name': '_ZNSt3__113basic_ostreamIcNS_11char_traitsIcEEElsEPFRNS_8ios_baseES5_E', 'storage_mapping_class': 'DS', 'type': 'FUNC'}
{'import_export': 'wEXP', 'is_defined': True, 'name': '_ZNSt3__113basic_ostreamIcNS_11char_traitsIcEEElsEPFRNS_9basic_iosIcS2_EES6_E', 'storage_mapping_class': 'DS', 'type': 'FUNC'}
{'import_export': 'wEXP', 'is_defined': True, 'name': '_ZNSt3__113basic_ostreamIcNS_11char_traitsIcEEElsEPFRS3_S4_E', 'storage_mapping_class': 'DS', 'type': 'FUNC'}
{'import_export': 'wEXP', 'is_defined': True, 'name': '_ZNSt3__113basic_ostreamIcNS_11char_traitsIcEEElsEPKv', 'storage_mapping_class': 'DS', 'type': 'FUNC'}
{'import_export': 'wEXP', 'is_defined': True, 'name': '_ZNSt3__113basic_ostreamIcNS_11char_traitsIcEEElsEPNS_15basic_streambufIcS2_EE', 'storage_mapping_class': 'DS', 'type': 'FUNC'}
{'import_export': 'wEXP', 'is_defined': True, 'name': '_ZNSt3__113basic_ostreamIcNS_11char_traitsIcEEElsEb', 'storage_mapping_class': 'DS', 'type': 'FUNC'}
{'import_export': 'wEXP', 'is_defined': True, 'name': '_ZNSt3__113basic_ostreamIcNS_11char_traitsIcEEElsEd', 'storage_mapping_class': 'DS', 'type': 'FUNC'}
{'import_export': 'wEXP', 'is_defined': True, 'name': '_ZNSt3__113basic_ostreamIcNS_11char_traitsIcEEElsEe', 'storage_mapping_class': 'DS', 'type': 'FUNC'}
{'import_export': 'wEXP', 'is_defined': True, 'name': '_ZNSt3__113basic_ostreamIcNS_11char_traitsIcEEElsEf', 'storage_mapping_class': 'DS', 'type': 'FUNC'}
{'import_export': 'wEXP', 'is_defined': True, 'name': '_ZNSt3__113basic_ostreamIcNS_11char_traitsIcEEElsEi', 'storage_mapping_class': 'DS', 'type': 'FUNC'}
{'import_export': 'wEXP', 'is_defined': True, 'name': '_ZNSt3__113basic_ostreamIcNS_11char_traitsIcEEElsEj', 'storage_mapping_class': 'DS', 'type': 'FUNC'}
{'import_export': 'wEXP', 'is_defined': True, 'name': '_ZNSt3__113basic_ostreamIcNS_11char_traitsIcEEElsEl', 'storage_mapping_class': 'DS', 'type': 'FUNC'}
{'import_export': 'wEXP', 'is_defined': True, 'name': '_ZNSt3__113basic_ostreamIcNS_11char_traitsIcEEElsEm', 'storage_mapping_class': 'DS', 'type': 'FUNC'}
{'import_export': 'wEXP', 'is_defined': True, 'name': '_ZNSt3__113basic_ostreamIcNS_11char_traitsIcEEElsEs', 'storage_mapping_class': 'DS', 'type': 'FUNC'}
{'import_export': 'wEXP', 'is_defined': True, 'name': '_ZNSt3__113basic_ostreamIcNS_11char_traitsIcEEElsEt', 'storage_mapping_class': 'DS', 'type': 'FUNC'}
{'import_export': 'wEXP', 'is_defined': True, 'name': '_ZNSt3__113basic_ostreamIcNS_11char_traitsIcEEElsEx', 'storage_mapping_class': 'DS', 'type': 'FUNC'}
{'import_export': 'wEXP', 'is_defined': True, 'name': '_ZNSt3__113basic_ostreamIcNS_11char_traitsIcEEElsEy', 'storage_mapping_class': 'DS', 'type': 'FUNC'}
{'import_export': 'wEXP', 'is_defined': True, 'name': '_ZNSt3__113basic_ostreamIwNS_11char_traitsIwEEE3putEw', 'storage_mapping_class': 'DS', 'type': 'FUNC'}
{'import_export': 'wEXP', 'is_defined': True, 'name': '_ZNSt3__113basic_ostreamIwNS_11char_traitsIwEEE4swapERS3_', 'storage_mapping_class': 'DS', 'type': 'FUNC'}
{'import_export': 'wEXP', 'is_defined': True, 'name': '_ZNSt3__113basic_ostreamIwNS_11char_traitsIwEEE5flushEv', 'storage_mapping_class': 'DS', 'type': 'FUNC'}
{'import_export': 'wEXP', 'is_defined': True, 'name': '_ZNSt3__113basic_ostreamIwNS_11char_traitsIwEEE5seekpENS_4fposIPcEE', 'storage_mapping_class': 'DS', 'type': 'FUNC'}
{'import_export': 'wEXP', 'is_defined': True, 'name': '_ZNSt3__113basic_ostreamIwNS_11char_traitsIwEEE5seekpExNS_8ios_base7seekdirE', 'storage_mapping_class': 'DS', 'type': 'FUNC'}
{'import_export': 'wEXP', 'is_defined': True, 'name': '_ZNSt3__113basic_ostreamIwNS_11char_traitsIwEEE5tellpEv', 'storage_mapping_class': 'DS', 'type': 'FUNC'}
{'import_export': 'wEXP', 'is_defined': True, 'name': '_ZNSt3__113basic_ostreamIwNS_11char_traitsIwEEE5writeEPKwl', 'storage_mapping_class': 'DS', 'type': 'FUNC'}
{'import_export': 'wEXP', 'is_defined': True, 'name': '_ZNSt3__113basic_ostreamIwNS_11char_traitsIwEEE6sentryC1ERS3_', 'storage_mapping_class': 'DS', 'type': 'FUNC'}
{'import_export': 'wEXP', 'is_defined': True, 'name': '_ZNSt3__113basic_ostreamIwNS_11char_traitsIwEEE6sentryC2ERS3_', 'storage_mapping_class': 'DS', 'type': 'FUNC'}
{'import_export': 'wEXP', 'is_defined': True, 'name': '_ZNSt3__113basic_ostreamIwNS_11char_traitsIwEEE6sentryD1Ev', 'storage_mapping_class': 'DS', 'type': 'FUNC'}
{'import_export': 'wEXP', 'is_defined': True, 'name': '_ZNSt3__113basic_ostreamIwNS_11char_traitsIwEEE6sentryD2Ev', 'storage_mapping_class': 'DS', 'type': 'FUNC'}
{'import_export': 'wEXP', 'is_defined': True, 'name': '_ZNSt3__113basic_ostreamIwNS_11char_traitsIwEEEC1EPNS_15basic_streambufIwS2_EE', 'storage_mapping_class': 'DS', 'type': 'FUNC'}
{'import_export': 'wEXP', 'is_defined': True, 'name': '_ZNSt3__113basic_ostreamIwNS_11char_traitsIwEEEC2EPNS_15basic_streambufIwS2_EE', 'storage_mapping_class': 'DS', 'type': 'FUNC'}
{'import_export': 'wEXP', 'is_defined': True, 'name': '_ZNSt3__113basic_ostreamIwNS_11char_traitsIwEEED0Ev', 'storage_mapping_class': 'DS', 'type': 'FUNC'}
{'import_export': 'wEXP', 'is_defined': True, 'name': '_ZNSt3__113basic_ostreamIwNS_11char_traitsIwEEED1Ev', 'storage_mapping_class': 'DS', 'type': 'FUNC'}
{'import_export': 'wEXP', 'is_defined': True, 'name': '_ZNSt3__113basic_ostreamIwNS_11char_traitsIwEEED2Ev', 'storage_mapping_class': 'DS', 'type': 'FUNC'}
{'import_export': 'wEXP', 'is_defined': True, 'name': '_ZNSt3__113basic_ostreamIwNS_11char_traitsIwEEElsEPFRNS_8ios_baseES5_E', 'storage_mapping_class': 'DS', 'type': 'FUNC'}
{'import_export': 'wEXP', 'is_defined': True, 'name': '_ZNSt3__113basic_ostreamIwNS_11char_traitsIwEEElsEPFRNS_9basic_iosIwS2_EES6_E', 'storage_mapping_class': 'DS', 'type': 'FUNC'}
{'import_export': 'wEXP', 'is_defined': True, 'name': '_ZNSt3__113basic_ostreamIwNS_11char_traitsIwEEElsEPFRS3_S4_E', 'storage_mapping_class': 'DS', 'type': 'FUNC'}
{'import_export': 'wEXP', 'is_defined': True, 'name': '_ZNSt3__113basic_ostreamIwNS_11char_traitsIwEEElsEPKv', 'storage_mapping_class': 'DS', 'type': 'FUNC'}
{'import_export': 'wEXP', 'is_defined': True, 'name': '_ZNSt3__113basic_ostreamIwNS_11char_traitsIwEEElsEPNS_15basic_streambufIwS2_EE', 'storage_mapping_class': 'DS', 'type': 'FUNC'}
{'import_export': 'wEXP', 'is_defined': True, 'name': '_ZNSt3__113basic_ostreamIwNS_11char_traitsIwEEElsEb', 'storage_mapping_class': 'DS', 'type': 'FUNC'}
{'import_export': 'wEXP', 'is_defined': True, 'name': '_ZNSt3__113basic_ostreamIwNS_11char_traitsIwEEElsEd', 'storage_mapping_class': 'DS', 'type': 'FUNC'}
{'import_export': 'wEXP', 'is_defined': True, 'name': '_ZNSt3__113basic_ostreamIwNS_11char_traitsIwEEElsEe', 'storage_mapping_class': 'DS', 'type': 'FUNC'}
{'import_export': 'wEXP', 'is_defined': True, 'name': '_ZNSt3__113basic_ostreamIwNS_11char_traitsIwEEElsEf', 'storage_mapping_class': 'DS', 'type': 'FUNC'}
{'import_export': 'wEXP', 'is_defined': True, 'name': '_ZNSt3__113basic_ostreamIwNS_11char_traitsIwEEElsEi', 'storage_mapping_class': 'DS', 'type': 'FUNC'}
{'import_export': 'wEXP', 'is_defined': True, 'name': '_ZNSt3__113basic_ostreamIwNS_11char_traitsIwEEElsEj', 'storage_mapping_class': 'DS', 'type': 'FUNC'}
{'import_export': 'wEXP', 'is_defined': True, 'name': '_ZNSt3__113basic_ostreamIwNS_11char_traitsIwEEElsEl', 'storage_mapping_class': 'DS', 'type': 'FUNC'}
{'import_export': 'wEXP', 'is_defined': True, 'name': '_ZNSt3__113basic_ostreamIwNS_11char_traitsIwEEElsEm', 'storage_mapping_class': 'DS', 'type': 'FUNC'}
{'import_export': 'wEXP', 'is_defined': True, 'name': '_ZNSt3__113basic_ostreamIwNS_11char_traitsIwEEElsEs', 'storage_mapping_class': 'DS', 'type': 'FUNC'}
{'import_export': 'wEXP', 'is_defined': True, 'name': '_ZNSt3__113basic_ostreamIwNS_11char_traitsIwEEElsEt', 'storage_mapping_class': 'DS', 'type': 'FUNC'}
{'import_export': 'wEXP', 'is_defined': True, 'name': '_ZNSt3__113basic_ostreamIwNS_11char_traitsIwEEElsEx', 'storage_mapping_class': 'DS', 'type': 'FUNC'}
{'import_export': 'wEXP', 'is_defined': True, 'name': '_ZNSt3__113basic_ostreamIwNS_11char_traitsIwEEElsEy', 'storage_mapping_class': 'DS', 'type': 'FUNC'}
{'import_export': 'wEXP', 'is_defined': True, 'name': '_ZNSt3__114basic_ifstreamIcNS_11char_traitsIcEEE4openEPKcj', 'storage_mapping_class': 'DS', 'type': 'FUNC'}
{'import_export': 'wEXP', 'is_defined': True, 'name': '_ZNSt3__114basic_ifstreamIcNS_11char_traitsIcEEE4openERKNS_12basic_stringIcS2_NS_9allocatorIcEEEEj', 'storage_mapping_class': 'DS', 'type': 'FUNC'}
{'import_export': 'wEXP', 'is_defined': True, 'name': '_ZNSt3__114basic_iostreamIcNS_11char_traitsIcEEE4swapERS3_', 'storage_mapping_class': 'DS', 'type': 'FUNC'}
{'import_export': 'wEXP', 'is_defined': True, 'name': '_ZNSt3__114basic_iostreamIcNS_11char_traitsIcEEEC1EPNS_15basic_streambufIcS2_EE', 'storage_mapping_class': 'DS', 'type': 'FUNC'}
{'import_export': 'wEXP', 'is_defined': True, 'name': '_ZNSt3__114basic_iostreamIcNS_11char_traitsIcEEEC2EPNS_15basic_streambufIcS2_EE', 'storage_mapping_class': 'DS', 'type': 'FUNC'}
{'import_export': 'wEXP', 'is_defined': True, 'name': '_ZNSt3__114basic_iostreamIcNS_11char_traitsIcEEED0Ev', 'storage_mapping_class': 'DS', 'type': 'FUNC'}
{'import_export': 'wEXP', 'is_defined': True, 'name': '_ZNSt3__114basic_iostreamIcNS_11char_traitsIcEEED1Ev', 'storage_mapping_class': 'DS', 'type': 'FUNC'}
{'import_export': 'wEXP', 'is_defined': True, 'name': '_ZNSt3__114basic_iostreamIcNS_11char_traitsIcEEED2Ev', 'storage_mapping_class': 'DS', 'type': 'FUNC'}
{'import_export': 'wEXP', 'is_defined': True, 'name': '_ZNSt3__114basic_ofstreamIcNS_11char_traitsIcEEE4openEPKcj', 'storage_mapping_class': 'DS', 'type': 'FUNC'}
{'import_export': 'wEXP', 'is_defined': True, 'name': '_ZNSt3__114basic_ofstreamIcNS_11char_traitsIcEEE4openERKNS_12basic_stringIcS2_NS_9allocatorIcEEEEj', 'storage_mapping_class': 'DS', 'type': 'FUNC'}
{'import_export': 'wEXP', 'is_defined': True, 'name': '_ZNSt3__114codecvt_bynameIDiDuPcED0Ev', 'storage_mapping_class': 'DS', 'type': 'FUNC'}
{'import_export': 'wEXP', 'is_defined': True, 'name': '_ZNSt3__114codecvt_bynameIDiDuPcED1Ev', 'storage_mapping_class': 'DS', 'type': 'FUNC'}
{'import_export': 'wEXP', 'is_defined': True, 'name': '_ZNSt3__114codecvt_bynameIDiDuPcED2Ev', 'storage_mapping_class': 'DS', 'type': 'FUNC'}
{'import_export': 'wEXP', 'is_defined': True, 'name': '_ZNSt3__114codecvt_bynameIDicPcED0Ev', 'storage_mapping_class': 'DS', 'type': 'FUNC'}
{'import_export': 'wEXP', 'is_defined': True, 'name': '_ZNSt3__114codecvt_bynameIDicPcED1Ev', 'storage_mapping_class': 'DS', 'type': 'FUNC'}
{'import_export': 'wEXP', 'is_defined': True, 'name': '_ZNSt3__114codecvt_bynameIDicPcED2Ev', 'storage_mapping_class': 'DS', 'type': 'FUNC'}
{'import_export': 'wEXP', 'is_defined': True, 'name': '_ZNSt3__114codecvt_bynameIDsDuPcED0Ev', 'storage_mapping_class': 'DS', 'type': 'FUNC'}
{'import_export': 'wEXP', 'is_defined': True, 'name': '_ZNSt3__114codecvt_bynameIDsDuPcED1Ev', 'storage_mapping_class': 'DS', 'type': 'FUNC'}
{'import_export': 'wEXP', 'is_defined': True, 'name': '_ZNSt3__114codecvt_bynameIDsDuPcED2Ev', 'storage_mapping_class': 'DS', 'type': 'FUNC'}
{'import_export': 'wEXP', 'is_defined': True, 'name': '_ZNSt3__114codecvt_bynameIDscPcED0Ev', 'storage_mapping_class': 'DS', 'type': 'FUNC'}
{'import_export': 'wEXP', 'is_defined': True, 'name': '_ZNSt3__114codecvt_bynameIDscPcED1Ev', 'storage_mapping_class': 'DS', 'type': 'FUNC'}
{'import_export': 'wEXP', 'is_defined': True, 'name': '_ZNSt3__114codecvt_bynameIDscPcED2Ev', 'storage_mapping_class': 'DS', 'type': 'FUNC'}
{'import_export': 'wEXP', 'is_defined': True, 'name': '_ZNSt3__114codecvt_bynameIccPcED0Ev', 'storage_mapping_class': 'DS', 'type': 'FUNC'}
{'import_export': 'wEXP', 'is_defined': True, 'name': '_ZNSt3__114codecvt_bynameIccPcED1Ev', 'storage_mapping_class': 'DS', 'type': 'FUNC'}
{'import_export': 'wEXP', 'is_defined': True, 'name': '_ZNSt3__114codecvt_bynameIccPcED2Ev', 'storage_mapping_class': 'DS', 'type': 'FUNC'}
{'import_export': 'wEXP', 'is_defined': True, 'name': '_ZNSt3__114codecvt_bynameIwcPcED0Ev', 'storage_mapping_class': 'DS', 'type': 'FUNC'}
{'import_export': 'wEXP', 'is_defined': True, 'name': '_ZNSt3__114codecvt_bynameIwcPcED1Ev', 'storage_mapping_class': 'DS', 'type': 'FUNC'}
{'import_export': 'wEXP', 'is_defined': True, 'name': '_ZNSt3__114codecvt_bynameIwcPcED2Ev', 'storage_mapping_class': 'DS', 'type': 'FUNC'}
{'import_export': 'wEXP', 'is_defined': True, 'name': '_ZNSt3__115basic_streambufIcNS_11char_traitsIcEEE10pubseekoffExNS_8ios_base7seekdirEj', 'storage_mapping_class': 'DS', 'type': 'FUNC'}
{'import_export': 'wEXP', 'is_defined': True, 'name': '_ZNSt3__115basic_streambufIcNS_11char_traitsIcEEE10pubseekposENS_4fposIPcEEj', 'storage_mapping_class': 'DS', 'type': 'FUNC'}
{'import_export': 'wEXP', 'is_defined': True, 'name': '_ZNSt3__115basic_streambufIcNS_11char_traitsIcEEE4setgEPcS4_S4_', 'storage_mapping_class': 'DS', 'type': 'FUNC'}
{'import_export': 'wEXP', 'is_defined': True, 'name': '_ZNSt3__115basic_streambufIcNS_11char_traitsIcEEE4setpEPcS4_', 'storage_mapping_class': 'DS', 'type': 'FUNC'}
{'import_export': 'wEXP', 'is_defined': True, 'name': '_ZNSt3__115basic_streambufIcNS_11char_traitsIcEEE4swapERS3_', 'storage_mapping_class': 'DS', 'type': 'FUNC'}
{'import_export': 'wEXP', 'is_defined': True, 'name': '_ZNSt3__115basic_streambufIcNS_11char_traitsIcEEE4syncEv', 'storage_mapping_class': 'DS', 'type': 'FUNC'}
{'import_export': 'wEXP', 'is_defined': True, 'name': '_ZNSt3__115basic_streambufIcNS_11char_traitsIcEEE5gbumpEi', 'storage_mapping_class': 'DS', 'type': 'FUNC'}
{'import_export': 'wEXP', 'is_defined': True, 'name': '_ZNSt3__115basic_streambufIcNS_11char_traitsIcEEE5imbueERKNS_6localeE', 'storage_mapping_class': 'DS', 'type': 'FUNC'}
{'import_export': 'wEXP', 'is_defined': True, 'name': '_ZNSt3__115basic_streambufIcNS_11char_traitsIcEEE5pbumpEi', 'storage_mapping_class': 'DS', 'type': 'FUNC'}
{'import_export': 'wEXP', 'is_defined': True, 'name': '_ZNSt3__115basic_streambufIcNS_11char_traitsIcEEE5sgetcEv', 'storage_mapping_class': 'DS', 'type': 'FUNC'}
{'import_export': 'wEXP', 'is_defined': True, 'name': '_ZNSt3__115basic_streambufIcNS_11char_traitsIcEEE5sgetnEPcl', 'storage_mapping_class': 'DS', 'type': 'FUNC'}
{'import_export': 'wEXP', 'is_defined': True, 'name': '_ZNSt3__115basic_streambufIcNS_11char_traitsIcEEE5sputcEc', 'storage_mapping_class': 'DS', 'type': 'FUNC'}
{'import_export': 'wEXP', 'is_defined': True, 'name': '_ZNSt3__115basic_streambufIcNS_11char_traitsIcEEE5sputnEPKcl', 'storage_mapping_class': 'DS', 'type': 'FUNC'}
{'import_export': 'wEXP', 'is_defined': True, 'name': '_ZNSt3__115basic_streambufIcNS_11char_traitsIcEEE5uflowEv', 'storage_mapping_class': 'DS', 'type': 'FUNC'}
{'import_export': 'wEXP', 'is_defined': True, 'name': '_ZNSt3__115basic_streambufIcNS_11char_traitsIcEEE6sbumpcEv', 'storage_mapping_class': 'DS', 'type': 'FUNC'}
{'import_export': 'wEXP', 'is_defined': True, 'name': '_ZNSt3__115basic_streambufIcNS_11char_traitsIcEEE6setbufEPcl', 'storage_mapping_class': 'DS', 'type': 'FUNC'}
{'import_export': 'wEXP', 'is_defined': True, 'name': '_ZNSt3__115basic_streambufIcNS_11char_traitsIcEEE6snextcEv', 'storage_mapping_class': 'DS', 'type': 'FUNC'}
{'import_export': 'wEXP', 'is_defined': True, 'name': '_ZNSt3__115basic_streambufIcNS_11char_traitsIcEEE6xsgetnEPcl', 'storage_mapping_class': 'DS', 'type': 'FUNC'}
{'import_export': 'wEXP', 'is_defined': True, 'name': '_ZNSt3__115basic_streambufIcNS_11char_traitsIcEEE6xsputnEPKcl', 'storage_mapping_class': 'DS', 'type': 'FUNC'}
{'import_export': 'wEXP', 'is_defined': True, 'name': '_ZNSt3__115basic_streambufIcNS_11char_traitsIcEEE7pubsyncEv', 'storage_mapping_class': 'DS', 'type': 'FUNC'}
{'import_export': 'wEXP', 'is_defined': True, 'name': '_ZNSt3__115basic_streambufIcNS_11char_traitsIcEEE7seekoffExNS_8ios_base7seekdirEj', 'storage_mapping_class': 'DS', 'type': 'FUNC'}
{'import_export': 'wEXP', 'is_defined': True, 'name': '_ZNSt3__115basic_streambufIcNS_11char_traitsIcEEE7seekposENS_4fposIPcEEj', 'storage_mapping_class': 'DS', 'type': 'FUNC'}
{'import_export': 'wEXP', 'is_defined': True, 'name': '_ZNSt3__115basic_streambufIcNS_11char_traitsIcEEE7sungetcEv', 'storage_mapping_class': 'DS', 'type': 'FUNC'}
{'import_export': 'wEXP', 'is_defined': True, 'name': '_ZNSt3__115basic_streambufIcNS_11char_traitsIcEEE8in_availEv', 'storage_mapping_class': 'DS', 'type': 'FUNC'}
{'import_export': 'wEXP', 'is_defined': True, 'name': '_ZNSt3__115basic_streambufIcNS_11char_traitsIcEEE8overflowEi', 'storage_mapping_class': 'DS', 'type': 'FUNC'}
{'import_export': 'wEXP', 'is_defined': True, 'name': '_ZNSt3__115basic_streambufIcNS_11char_traitsIcEEE8pubimbueERKNS_6localeE', 'storage_mapping_class': 'DS', 'type': 'FUNC'}
{'import_export': 'wEXP', 'is_defined': True, 'name': '_ZNSt3__115basic_streambufIcNS_11char_traitsIcEEE9pbackfailEi', 'storage_mapping_class': 'DS', 'type': 'FUNC'}
{'import_export': 'wEXP', 'is_defined': True, 'name': '_ZNSt3__115basic_streambufIcNS_11char_traitsIcEEE9pubsetbufEPcl', 'storage_mapping_class': 'DS', 'type': 'FUNC'}
{'import_export': 'wEXP', 'is_defined': True, 'name': '_ZNSt3__115basic_streambufIcNS_11char_traitsIcEEE9showmanycEv', 'storage_mapping_class': 'DS', 'type': 'FUNC'}
{'import_export': 'wEXP', 'is_defined': True, 'name': '_ZNSt3__115basic_streambufIcNS_11char_traitsIcEEE9sputbackcEc', 'storage_mapping_class': 'DS', 'type': 'FUNC'}
{'import_export': 'wEXP', 'is_defined': True, 'name': '_ZNSt3__115basic_streambufIcNS_11char_traitsIcEEE9underflowEv', 'storage_mapping_class': 'DS', 'type': 'FUNC'}
{'import_export': 'wEXP', 'is_defined': True, 'name': '_ZNSt3__115basic_streambufIcNS_11char_traitsIcEEEC1ERKS3_', 'storage_mapping_class': 'DS', 'type': 'FUNC'}
{'import_export': 'wEXP', 'is_defined': True, 'name': '_ZNSt3__115basic_streambufIcNS_11char_traitsIcEEEC1Ev', 'storage_mapping_class': 'DS', 'type': 'FUNC'}
{'import_export': 'wEXP', 'is_defined': True, 'name': '_ZNSt3__115basic_streambufIcNS_11char_traitsIcEEEC2ERKS3_', 'storage_mapping_class': 'DS', 'type': 'FUNC'}
{'import_export': 'wEXP', 'is_defined': True, 'name': '_ZNSt3__115basic_streambufIcNS_11char_traitsIcEEEC2Ev', 'storage_mapping_class': 'DS', 'type': 'FUNC'}
{'import_export': 'wEXP', 'is_defined': True, 'name': '_ZNSt3__115basic_streambufIcNS_11char_traitsIcEEED0Ev', 'storage_mapping_class': 'DS', 'type': 'FUNC'}
{'import_export': 'wEXP', 'is_defined': True, 'name': '_ZNSt3__115basic_streambufIcNS_11char_traitsIcEEED1Ev', 'storage_mapping_class': 'DS', 'type': 'FUNC'}
{'import_export': 'wEXP', 'is_defined': True, 'name': '_ZNSt3__115basic_streambufIcNS_11char_traitsIcEEED2Ev', 'storage_mapping_class': 'DS', 'type': 'FUNC'}
{'import_export': 'wEXP', 'is_defined': True, 'name': '_ZNSt3__115basic_streambufIcNS_11char_traitsIcEEEaSERKS3_', 'storage_mapping_class': 'DS', 'type': 'FUNC'}
{'import_export': 'wEXP', 'is_defined': True, 'name': '_ZNSt3__115basic_streambufIwNS_11char_traitsIwEEE10pubseekoffExNS_8ios_base7seekdirEj', 'storage_mapping_class': 'DS', 'type': 'FUNC'}
{'import_export': 'wEXP', 'is_defined': True, 'name': '_ZNSt3__115basic_streambufIwNS_11char_traitsIwEEE10pubseekposENS_4fposIPcEEj', 'storage_mapping_class': 'DS', 'type': 'FUNC'}
{'import_export': 'wEXP', 'is_defined': True, 'name': '_ZNSt3__115basic_streambufIwNS_11char_traitsIwEEE4setgEPwS4_S4_', 'storage_mapping_class': 'DS', 'type': 'FUNC'}
{'import_export': 'wEXP', 'is_defined': True, 'name': '_ZNSt3__115basic_streambufIwNS_11char_traitsIwEEE4setpEPwS4_', 'storage_mapping_class': 'DS', 'type': 'FUNC'}
{'import_export': 'wEXP', 'is_defined': True, 'name': '_ZNSt3__115basic_streambufIwNS_11char_traitsIwEEE4swapERS3_', 'storage_mapping_class': 'DS', 'type': 'FUNC'}
{'import_export': 'wEXP', 'is_defined': True, 'name': '_ZNSt3__115basic_streambufIwNS_11char_traitsIwEEE4syncEv', 'storage_mapping_class': 'DS', 'type': 'FUNC'}
{'import_export': 'wEXP', 'is_defined': True, 'name': '_ZNSt3__115basic_streambufIwNS_11char_traitsIwEEE5gbumpEi', 'storage_mapping_class': 'DS', 'type': 'FUNC'}
{'import_export': 'wEXP', 'is_defined': True, 'name': '_ZNSt3__115basic_streambufIwNS_11char_traitsIwEEE5imbueERKNS_6localeE', 'storage_mapping_class': 'DS', 'type': 'FUNC'}
{'import_export': 'wEXP', 'is_defined': True, 'name': '_ZNSt3__115basic_streambufIwNS_11char_traitsIwEEE5pbumpEi', 'storage_mapping_class': 'DS', 'type': 'FUNC'}
{'import_export': 'wEXP', 'is_defined': True, 'name': '_ZNSt3__115basic_streambufIwNS_11char_traitsIwEEE5sgetcEv', 'storage_mapping_class': 'DS', 'type': 'FUNC'}
{'import_export': 'wEXP', 'is_defined': True, 'name': '_ZNSt3__115basic_streambufIwNS_11char_traitsIwEEE5sgetnEPwl', 'storage_mapping_class': 'DS', 'type': 'FUNC'}
{'import_export': 'wEXP', 'is_defined': True, 'name': '_ZNSt3__115basic_streambufIwNS_11char_traitsIwEEE5sputcEw', 'storage_mapping_class': 'DS', 'type': 'FUNC'}
{'import_export': 'wEXP', 'is_defined': True, 'name': '_ZNSt3__115basic_streambufIwNS_11char_traitsIwEEE5sputnEPKwl', 'storage_mapping_class': 'DS', 'type': 'FUNC'}
{'import_export': 'wEXP', 'is_defined': True, 'name': '_ZNSt3__115basic_streambufIwNS_11char_traitsIwEEE5uflowEv', 'storage_mapping_class': 'DS', 'type': 'FUNC'}
{'import_export': 'wEXP', 'is_defined': True, 'name': '_ZNSt3__115basic_streambufIwNS_11char_traitsIwEEE6sbumpcEv', 'storage_mapping_class': 'DS', 'type': 'FUNC'}
{'import_export': 'wEXP', 'is_defined': True, 'name': '_ZNSt3__115basic_streambufIwNS_11char_traitsIwEEE6setbufEPwl', 'storage_mapping_class': 'DS', 'type': 'FUNC'}
{'import_export': 'wEXP', 'is_defined': True, 'name': '_ZNSt3__115basic_streambufIwNS_11char_traitsIwEEE6snextcEv', 'storage_mapping_class': 'DS', 'type': 'FUNC'}
{'import_export': 'wEXP', 'is_defined': True, 'name': '_ZNSt3__115basic_streambufIwNS_11char_traitsIwEEE6xsgetnEPwl', 'storage_mapping_class': 'DS', 'type': 'FUNC'}
{'import_export': 'wEXP', 'is_defined': True, 'name': '_ZNSt3__115basic_streambufIwNS_11char_traitsIwEEE6xsputnEPKwl', 'storage_mapping_class': 'DS', 'type': 'FUNC'}
{'import_export': 'wEXP', 'is_defined': True, 'name': '_ZNSt3__115basic_streambufIwNS_11char_traitsIwEEE7pubsyncEv', 'storage_mapping_class': 'DS', 'type': 'FUNC'}
{'import_export': 'wEXP', 'is_defined': True, 'name': '_ZNSt3__115basic_streambufIwNS_11char_traitsIwEEE7seekoffExNS_8ios_base7seekdirEj', 'storage_mapping_class': 'DS', 'type': 'FUNC'}
{'import_export': 'wEXP', 'is_defined': True, 'name': '_ZNSt3__115basic_streambufIwNS_11char_traitsIwEEE7seekposENS_4fposIPcEEj', 'storage_mapping_class': 'DS', 'type': 'FUNC'}
{'import_export': 'wEXP', 'is_defined': True, 'name': '_ZNSt3__115basic_streambufIwNS_11char_traitsIwEEE7sungetcEv', 'storage_mapping_class': 'DS', 'type': 'FUNC'}
{'import_export': 'wEXP', 'is_defined': True, 'name': '_ZNSt3__115basic_streambufIwNS_11char_traitsIwEEE8in_availEv', 'storage_mapping_class': 'DS', 'type': 'FUNC'}
{'import_export': 'wEXP', 'is_defined': True, 'name': '_ZNSt3__115basic_streambufIwNS_11char_traitsIwEEE8overflowEi', 'storage_mapping_class': 'DS', 'type': 'FUNC'}
{'import_export': 'wEXP', 'is_defined': True, 'name': '_ZNSt3__115basic_streambufIwNS_11char_traitsIwEEE8pubimbueERKNS_6localeE', 'storage_mapping_class': 'DS', 'type': 'FUNC'}
{'import_export': 'wEXP', 'is_defined': True, 'name': '_ZNSt3__115basic_streambufIwNS_11char_traitsIwEEE9pbackfailEi', 'storage_mapping_class': 'DS', 'type': 'FUNC'}
{'import_export': 'wEXP', 'is_defined': True, 'name': '_ZNSt3__115basic_streambufIwNS_11char_traitsIwEEE9pubsetbufEPwl', 'storage_mapping_class': 'DS', 'type': 'FUNC'}
{'import_export': 'wEXP', 'is_defined': True, 'name': '_ZNSt3__115basic_streambufIwNS_11char_traitsIwEEE9showmanycEv', 'storage_mapping_class': 'DS', 'type': 'FUNC'}
{'import_export': 'wEXP', 'is_defined': True, 'name': '_ZNSt3__115basic_streambufIwNS_11char_traitsIwEEE9sputbackcEw', 'storage_mapping_class': 'DS', 'type': 'FUNC'}
{'import_export': 'wEXP', 'is_defined': True, 'name': '_ZNSt3__115basic_streambufIwNS_11char_traitsIwEEE9underflowEv', 'storage_mapping_class': 'DS', 'type': 'FUNC'}
{'import_export': 'wEXP', 'is_defined': True, 'name': '_ZNSt3__115basic_streambufIwNS_11char_traitsIwEEEC1ERKS3_', 'storage_mapping_class': 'DS', 'type': 'FUNC'}
{'import_export': 'wEXP', 'is_defined': True, 'name': '_ZNSt3__115basic_streambufIwNS_11char_traitsIwEEEC1Ev', 'storage_mapping_class': 'DS', 'type': 'FUNC'}
{'import_export': 'wEXP', 'is_defined': True, 'name': '_ZNSt3__115basic_streambufIwNS_11char_traitsIwEEEC2ERKS3_', 'storage_mapping_class': 'DS', 'type': 'FUNC'}
{'import_export': 'wEXP', 'is_defined': True, 'name': '_ZNSt3__115basic_streambufIwNS_11char_traitsIwEEEC2Ev', 'storage_mapping_class': 'DS', 'type': 'FUNC'}
{'import_export': 'wEXP', 'is_defined': True, 'name': '_ZNSt3__115basic_streambufIwNS_11char_traitsIwEEED0Ev', 'storage_mapping_class': 'DS', 'type': 'FUNC'}
{'import_export': 'wEXP', 'is_defined': True, 'name': '_ZNSt3__115basic_streambufIwNS_11char_traitsIwEEED1Ev', 'storage_mapping_class': 'DS', 'type': 'FUNC'}
{'import_export': 'wEXP', 'is_defined': True, 'name': '_ZNSt3__115basic_streambufIwNS_11char_traitsIwEEED2Ev', 'storage_mapping_class': 'DS', 'type': 'FUNC'}
{'import_export': 'wEXP', 'is_defined': True, 'name': '_ZNSt3__115basic_streambufIwNS_11char_traitsIwEEEaSERKS3_', 'storage_mapping_class': 'DS', 'type': 'FUNC'}
{'import_export': 'wEXP', 'is_defined': True, 'name': '_ZNSt3__115basic_stringbufIcNS_11char_traitsIcEENS_9allocatorIcEEE3strERKNS_12basic_stringIcS2_S4_EE', 'storage_mapping_class': 'DS', 'type': 'FUNC'}
{'import_export': 'wEXP', 'is_defined': True, 'name': '_ZNSt3__115basic_stringbufIcNS_11char_traitsIcEENS_9allocatorIcEEE4swapERS5_', 'storage_mapping_class': 'DS', 'type': 'FUNC'}
{'import_export': 'wEXP', 'is_defined': True, 'name': '_ZNSt3__115basic_stringbufIcNS_11char_traitsIcEENS_9allocatorIcEEE7seekoffExNS_8ios_base7seekdirEj', 'storage_mapping_class': 'DS', 'type': 'FUNC'}
{'import_export': 'wEXP', 'is_defined': True, 'name': '_ZNSt3__115basic_stringbufIcNS_11char_traitsIcEENS_9allocatorIcEEE8overflowEi', 'storage_mapping_class': 'DS', 'type': 'FUNC'}
{'import_export': 'wEXP', 'is_defined': True, 'name': '_ZNSt3__115basic_stringbufIcNS_11char_traitsIcEENS_9allocatorIcEEE9pbackfailEi', 'storage_mapping_class': 'DS', 'type': 'FUNC'}
{'import_export': 'wEXP', 'is_defined': True, 'name': '_ZNSt3__115basic_stringbufIcNS_11char_traitsIcEENS_9allocatorIcEEE9underflowEv', 'storage_mapping_class': 'DS', 'type': 'FUNC'}
{'import_export': 'wEXP', 'is_defined': True, 'name': '_ZNSt3__115basic_stringbufIcNS_11char_traitsIcEENS_9allocatorIcEEEC1EOS5_', 'storage_mapping_class': 'DS', 'type': 'FUNC'}
{'import_export': 'wEXP', 'is_defined': True, 'name': '_ZNSt3__115basic_stringbufIcNS_11char_traitsIcEENS_9allocatorIcEEEC2EOS5_', 'storage_mapping_class': 'DS', 'type': 'FUNC'}
{'import_export': 'wEXP', 'is_defined': True, 'name': '_ZNSt3__115basic_stringbufIcNS_11char_traitsIcEENS_9allocatorIcEEEaSEOS5_', 'storage_mapping_class': 'DS', 'type': 'FUNC'}
{'import_export': 'wEXP', 'is_defined': True, 'name': '_ZNSt3__118basic_stringstreamIcNS_11char_traitsIcEENS_9allocatorIcEEEaSEOS5_', 'storage_mapping_class': 'DS', 'type': 'FUNC'}
{'import_export': 'wEXP', 'is_defined': True, 'name': '_ZNSt3__119basic_istringstreamIcNS_11char_traitsIcEENS_9allocatorIcEEEaSEOS5_', 'storage_mapping_class': 'DS', 'type': 'FUNC'}
{'import_export': 'wEXP', 'is_defined': True, 'name': '_ZNSt3__119basic_ostringstreamIcNS_11char_traitsIcEENS_9allocatorIcEEEaSEOS5_', 'storage_mapping_class': 'DS', 'type': 'FUNC'}
{'import_export': 'wEXP', 'is_defined': True, 'name': '_ZNSt3__122__libcpp_verbose_abortEPKcz', 'storage_mapping_class': 'DS', 'type': 'FUNC'}
{'import_export': 'wEXP', 'is_defined': True, 'name': '_ZNSt3__14__fs10filesystem16_FilesystemClock9is_steadyE', 'storage_mapping_class': 'RO', 'type': 'OBJECT'}
{'import_export': 'wEXP', 'is_defined': True, 'name': '_ZNSt3__14__fs10filesystem4path19preferred_separatorE', 'storage_mapping_class': 'RO', 'type': 'OBJECT'}
{'import_export': 'wEXP', 'is_defined': True, 'name': '_ZNSt3__16__sortIRNS_6__lessIaaEEPaEEvT0_S5_T_', 'storage_mapping_class': 'DS', 'type': 'FUNC'}
{'import_export': 'wEXP', 'is_defined': True, 'name': '_ZNSt3__16__sortIRNS_6__lessIccEEPcEEvT0_S5_T_', 'storage_mapping_class': 'DS', 'type': 'FUNC'}
{'import_export': 'wEXP', 'is_defined': True, 'name': '_ZNSt3__16__sortIRNS_6__lessIddEEPdEEvT0_S5_T_', 'storage_mapping_class': 'DS', 'type': 'FUNC'}
{'import_export': 'wEXP', 'is_defined': True, 'name': '_ZNSt3__16__sortIRNS_6__lessIeeEEPeEEvT0_S5_T_', 'storage_mapping_class': 'DS', 'type': 'FUNC'}
{'import_export': 'wEXP', 'is_defined': True, 'name': '_ZNSt3__16__sortIRNS_6__lessIffEEPfEEvT0_S5_T_', 'storage_mapping_class': 'DS', 'type': 'FUNC'}
{'import_export': 'wEXP', 'is_defined': True, 'name': '_ZNSt3__16__sortIRNS_6__lessIhhEEPhEEvT0_S5_T_', 'storage_mapping_class': 'DS', 'type': 'FUNC'}
{'import_export': 'wEXP', 'is_defined': True, 'name': '_ZNSt3__16__sortIRNS_6__lessIiiEEPiEEvT0_S5_T_', 'storage_mapping_class': 'DS', 'type': 'FUNC'}
{'import_export': 'wEXP', 'is_defined': True, 'name': '_ZNSt3__16__sortIRNS_6__lessIjjEEPjEEvT0_S5_T_', 'storage_mapping_class': 'DS', 'type': 'FUNC'}
{'import_export': 'wEXP', 'is_defined': True, 'name': '_ZNSt3__16__sortIRNS_6__lessIllEEPlEEvT0_S5_T_', 'storage_mapping_class': 'DS', 'type': 'FUNC'}
{'import_export': 'wEXP', 'is_defined': True, 'name': '_ZNSt3__16__sortIRNS_6__lessImmEEPmEEvT0_S5_T_', 'storage_mapping_class': 'DS', 'type': 'FUNC'}
{'import_export': 'wEXP', 'is_defined': True, 'name': '_ZNSt3__16__sortIRNS_6__lessIssEEPsEEvT0_S5_T_', 'storage_mapping_class': 'DS', 'type': 'FUNC'}
{'import_export': 'wEXP', 'is_defined': True, 'name': '_ZNSt3__16__sortIRNS_6__lessIttEEPtEEvT0_S5_T_', 'storage_mapping_class': 'DS', 'type': 'FUNC'}
{'import_export': 'wEXP', 'is_defined': True, 'name': '_ZNSt3__16__sortIRNS_6__lessIwwEEPwEEvT0_S5_T_', 'storage_mapping_class': 'DS', 'type': 'FUNC'}
{'import_export': 'wEXP', 'is_defined': True, 'name': '_ZNSt3__16__sortIRNS_6__lessIxxEEPxEEvT0_S5_T_', 'storage_mapping_class': 'DS', 'type': 'FUNC'}
{'import_export': 'wEXP', 'is_defined': True, 'name': '_ZNSt3__16__sortIRNS_6__lessIyyEEPyEEvT0_S5_T_', 'storage_mapping_class': 'DS', 'type': 'FUNC'}
{'import_export': 'wEXP', 'is_defined': True, 'name': '_ZNSt3__16chrono12steady_clock9is_steadyE', 'storage_mapping_class': 'RO', 'type': 'OBJECT'}
{'import_export': 'wEXP', 'is_defined': True, 'name': '_ZNSt3__16chrono12system_clock9is_steadyE', 'storage_mapping_class': 'RO', 'type': 'OBJECT'}
{'import_export': 'wEXP', 'is_defined': True, 'name': '_ZNSt3__17collateIcE2idE', 'storage_mapping_class': 'RW', 'type': 'OBJECT'}
{'import_export': 'wEXP', 'is_defined': True, 'name': '_ZNSt3__17collateIcED0Ev', 'storage_mapping_class': 'DS', 'type': 'FUNC'}
{'import_export': 'wEXP', 'is_defined': True, 'name': '_ZNSt3__17collateIcED1Ev', 'storage_mapping_class': 'DS', 'type': 'FUNC'}
{'import_export': 'wEXP', 'is_defined': True, 'name': '_ZNSt3__17collateIcED2Ev', 'storage_mapping_class': 'DS', 'type': 'FUNC'}
{'import_export': 'wEXP', 'is_defined': True, 'name': '_ZNSt3__17collateIwE2idE', 'storage_mapping_class': 'RW', 'type': 'OBJECT'}
{'import_export': 'wEXP', 'is_defined': True, 'name': '_ZNSt3__17collateIwED0Ev', 'storage_mapping_class': 'DS', 'type': 'FUNC'}
{'import_export': 'wEXP', 'is_defined': True, 'name': '_ZNSt3__17collateIwED1Ev', 'storage_mapping_class': 'DS', 'type': 'FUNC'}
{'import_export': 'wEXP', 'is_defined': True, 'name': '_ZNSt3__17collateIwED2Ev', 'storage_mapping_class': 'DS', 'type': 'FUNC'}
{'import_export': 'wEXP', 'is_defined': True, 'name': '_ZNSt3__17num_getIcNS_19istreambuf_iteratorIcNS_11char_traitsIcEEEEE2idE', 'storage_mapping_class': 'RW', 'type': 'OBJECT'}
{'import_export': 'wEXP', 'is_defined': True, 'name': '_ZNSt3__17num_getIwNS_19istreambuf_iteratorIwNS_11char_traitsIwEEEEE2idE', 'storage_mapping_class': 'RW', 'type': 'OBJECT'}
{'import_export': 'wEXP', 'is_defined': True, 'name': '_ZNSt3__17num_putIcNS_19ostreambuf_iteratorIcNS_11char_traitsIcEEEEE2idE', 'storage_mapping_class': 'RW', 'type': 'OBJECT'}
{'import_export': 'wEXP', 'is_defined': True, 'name': '_ZNSt3__17num_putIwNS_19ostreambuf_iteratorIwNS_11char_traitsIwEEEEE2idE', 'storage_mapping_class': 'RW', 'type': 'OBJECT'}
{'import_export': 'wEXP', 'is_defined': True, 'name': '_ZNSt3__18messagesIcE2idE', 'storage_mapping_class': 'RW', 'type': 'OBJECT'}
{'import_export': 'wEXP', 'is_defined': True, 'name': '_ZNSt3__18messagesIwE2idE', 'storage_mapping_class': 'RW', 'type': 'OBJECT'}
{'import_export': 'wEXP', 'is_defined': True, 'name': '_ZNSt3__18time_getIcNS_19istreambuf_iteratorIcNS_11char_traitsIcEEEEE2idE', 'storage_mapping_class': 'RW', 'type': 'OBJECT'}
{'import_export': 'wEXP', 'is_defined': True, 'name': '_ZNSt3__18time_getIwNS_19istreambuf_iteratorIwNS_11char_traitsIwEEEEE2idE', 'storage_mapping_class': 'RW', 'type': 'OBJECT'}
{'import_export': 'wEXP', 'is_defined': True, 'name': '_ZNSt3__18time_putIcNS_19ostreambuf_iteratorIcNS_11char_traitsIcEEEEE2idE', 'storage_mapping_class': 'RW', 'type': 'OBJECT'}
{'import_export': 'wEXP', 'is_defined': True, 'name': '_ZNSt3__18time_putIwNS_19ostreambuf_iteratorIwNS_11char_traitsIwEEEEE2idE', 'storage_mapping_class': 'RW', 'type': 'OBJECT'}
{'import_export': 'wEXP', 'is_defined': True, 'name': '_ZNSt3__18valarrayImE6resizeEmm', 'storage_mapping_class': 'DS', 'type': 'FUNC'}
{'import_export': 'wEXP', 'is_defined': True, 'name': '_ZNSt3__18valarrayImEC1Em', 'storage_mapping_class': 'DS', 'type': 'FUNC'}
{'import_export': 'wEXP', 'is_defined': True, 'name': '_ZNSt3__18valarrayImEC2Em', 'storage_mapping_class': 'DS', 'type': 'FUNC'}
{'import_export': 'wEXP', 'is_defined': True, 'name': '_ZNSt3__18valarrayImED1Ev', 'storage_mapping_class': 'DS', 'type': 'FUNC'}
{'import_export': 'wEXP', 'is_defined': True, 'name': '_ZNSt3__18valarrayImED2Ev', 'storage_mapping_class': 'DS', 'type': 'FUNC'}
{'import_export': 'wEXP', 'is_defined': True, 'name': '_ZNSt3__19__num_getIcE17__stage2_int_loopEciPcRS2_RjcRKNS_12basic_stringIcNS_11char_traitsIcEENS_9allocatorIcEEEEPjRSD_S2_', 'storage_mapping_class': 'DS', 'type': 'FUNC'}
{'import_export': 'wEXP', 'is_defined': True, 'name': '_ZNSt3__19__num_getIcE17__stage2_int_prepERNS_8ios_baseEPcRc', 'storage_mapping_class': 'DS', 'type': 'FUNC'}
{'import_export': 'wEXP', 'is_defined': True, 'name': '_ZNSt3__19__num_getIcE19__stage2_float_loopEcRbRcPcRS4_ccRKNS_12basic_stringIcNS_11char_traitsIcEENS_9allocatorIcEEEEPjRSE_RjS4_', 'storage_mapping_class': 'DS', 'type': 'FUNC'}
{'import_export': 'wEXP', 'is_defined': True, 'name': '_ZNSt3__19__num_getIcE19__stage2_float_prepERNS_8ios_baseEPcRcS5_', 'storage_mapping_class': 'DS', 'type': 'FUNC'}
{'import_export': 'wEXP', 'is_defined': True, 'name': '_ZNSt3__19__num_getIwE17__stage2_int_loopEwiPcRS2_RjwRKNS_12basic_stringIcNS_11char_traitsIcEENS_9allocatorIcEEEEPjRSD_Pw', 'storage_mapping_class': 'DS', 'type': 'FUNC'}
{'import_export': 'wEXP', 'is_defined': True, 'name': '_ZNSt3__19__num_getIwE17__stage2_int_prepERNS_8ios_baseEPwRw', 'storage_mapping_class': 'DS', 'type': 'FUNC'}
{'import_export': 'wEXP', 'is_defined': True, 'name': '_ZNSt3__19__num_getIwE19__stage2_float_loopEwRbRcPcRS4_wwRKNS_12basic_stringIcNS_11char_traitsIcEENS_9allocatorIcEEEEPjRSE_RjPw', 'storage_mapping_class': 'DS', 'type': 'FUNC'}
{'import_export': 'wEXP', 'is_defined': True, 'name': '_ZNSt3__19__num_getIwE19__stage2_float_prepERNS_8ios_baseEPwRwS5_', 'storage_mapping_class': 'DS', 'type': 'FUNC'}
{'import_export': 'wEXP', 'is_defined': True, 'name': '_ZNSt3__19__num_putIcE21__widen_and_group_intEPcS2_S2_S2_RS2_S3_RKNS_6localeE', 'storage_mapping_class': 'DS', 'type': 'FUNC'}
{'import_export': 'wEXP', 'is_defined': True, 'name': '_ZNSt3__19__num_putIcE23__widen_and_group_floatEPcS2_S2_S2_RS2_S3_RKNS_6localeE', 'storage_mapping_class': 'DS', 'type': 'FUNC'}
{'import_export': 'wEXP', 'is_defined': True, 'name': '_ZNSt3__19__num_putIwE21__widen_and_group_intEPcS2_S2_PwRS3_S4_RKNS_6localeE', 'storage_mapping_class': 'DS', 'type': 'FUNC'}
{'import_export': 'wEXP', 'is_defined': True, 'name': '_ZNSt3__19__num_putIwE23__widen_and_group_floatEPcS2_S2_PwRS3_S4_RKNS_6localeE', 'storage_mapping_class': 'DS', 'type': 'FUNC'}
{'import_export': 'wEXP', 'is_defined': True, 'name': '_ZNSt3__19basic_iosIcNS_11char_traitsIcEEE7copyfmtERKS3_', 'storage_mapping_class': 'DS', 'type': 'FUNC'}
{'import_export': 'wEXP', 'is_defined': True, 'name': '_ZNSt3__19basic_iosIcNS_11char_traitsIcEEED0Ev', 'storage_mapping_class': 'DS', 'type': 'FUNC'}
{'import_export': 'wEXP', 'is_defined': True, 'name': '_ZNSt3__19basic_iosIcNS_11char_traitsIcEEED1Ev', 'storage_mapping_class': 'DS', 'type': 'FUNC'}
{'import_export': 'wEXP', 'is_defined': True, 'name': '_ZNSt3__19basic_iosIcNS_11char_traitsIcEEED2Ev', 'storage_mapping_class': 'DS', 'type': 'FUNC'}
{'import_export': 'wEXP', 'is_defined': True, 'name': '_ZNSt3__19basic_iosIwNS_11char_traitsIwEEE7copyfmtERKS3_', 'storage_mapping_class': 'DS', 'type': 'FUNC'}
{'import_export': 'wEXP', 'is_defined': True, 'name': '_ZNSt3__19basic_iosIwNS_11char_traitsIwEEED0Ev', 'storage_mapping_class': 'DS', 'type': 'FUNC'}
{'import_export': 'wEXP', 'is_defined': True, 'name': '_ZNSt3__19basic_iosIwNS_11char_traitsIwEEED1Ev', 'storage_mapping_class': 'DS', 'type': 'FUNC'}
{'import_export': 'wEXP', 'is_defined': True, 'name': '_ZNSt3__19basic_iosIwNS_11char_traitsIwEEED2Ev', 'storage_mapping_class': 'DS', 'type': 'FUNC'}
{'import_export': 'wEXP', 'is_defined': True, 'name': '_ZNSt3__19money_getIcNS_19istreambuf_iteratorIcNS_11char_traitsIcEEEEE2idE', 'storage_mapping_class': 'RW', 'type': 'OBJECT'}
{'import_export': 'wEXP', 'is_defined': True, 'name': '_ZNSt3__19money_getIcNS_19istreambuf_iteratorIcNS_11char_traitsIcEEEEE8__do_getERS4_S4_bRKNS_6localeEjRjRbRKNS_5ctypeIcEERNS_10unique_ptrIcPFvPvEEERPcSM_', 'storage_mapping_class': 'DS', 'type': 'FUNC'}
{'import_export': 'wEXP', 'is_defined': True, 'name': '_ZNSt3__19money_getIwNS_19istreambuf_iteratorIwNS_11char_traitsIwEEEEE2idE', 'storage_mapping_class': 'RW', 'type': 'OBJECT'}
{'import_export': 'wEXP', 'is_defined': True, 'name': '_ZNSt3__19money_getIwNS_19istreambuf_iteratorIwNS_11char_traitsIwEEEEE8__do_getERS4_S4_bRKNS_6localeEjRjRbRKNS_5ctypeIwEERNS_10unique_ptrIwPFvPvEEERPwSM_', 'storage_mapping_class': 'DS', 'type': 'FUNC'}
{'import_export': 'wEXP', 'is_defined': True, 'name': '_ZNSt3__19money_putIcNS_19ostreambuf_iteratorIcNS_11char_traitsIcEEEEE2idE', 'storage_mapping_class': 'RW', 'type': 'OBJECT'}
{'import_export': 'wEXP', 'is_defined': True, 'name': '_ZNSt3__19money_putIwNS_19ostreambuf_iteratorIwNS_11char_traitsIwEEEEE2idE', 'storage_mapping_class': 'RW', 'type': 'OBJECT'}
{'import_export': 'wEXP', 'is_defined': True, 'name': '_ZNSt3__1plIcNS_11char_traitsIcEENS_9allocatorIcEEEENS_12basic_stringIT_T0_T1_EEPKS6_RKS9_', 'storage_mapping_class': 'DS', 'type': 'FUNC'}
{'import_export': 'wEXP', 'is_defined': True, 'name': '_ZTCNSt3__114basic_ifstreamIcNS_11char_traitsIcEEEE0_NS_13basic_istreamIcS2_EE', 'storage_mapping_class': 'RW', 'type': 'OBJECT'}
{'import_export': 'wEXP', 'is_defined': True, 'name': '_ZTCNSt3__114basic_iostreamIcNS_11char_traitsIcEEEE0_NS_13basic_istreamIcS2_EE', 'storage_mapping_class': 'RW', 'type': 'OBJECT'}
{'import_export': 'wEXP', 'is_defined': True, 'name': '_ZTCNSt3__114basic_iostreamIcNS_11char_traitsIcEEEE8_NS_13basic_ostreamIcS2_EE', 'storage_mapping_class': 'RW', 'type': 'OBJECT'}
{'import_export': 'wEXP', 'is_defined': True, 'name': '_ZTCNSt3__114basic_ofstreamIcNS_11char_traitsIcEEEE0_NS_13basic_ostreamIcS2_EE', 'storage_mapping_class': 'RW', 'type': 'OBJECT'}
{'import_export': 'wEXP', 'is_defined': True, 'name': '_ZTCNSt3__118basic_stringstreamIcNS_11char_traitsIcEENS_9allocatorIcEEEE0_NS_13basic_istreamIcS2_EE', 'storage_mapping_class': 'RW', 'type': 'OBJECT'}
{'import_export': 'wEXP', 'is_defined': True, 'name': '_ZTCNSt3__118basic_stringstreamIcNS_11char_traitsIcEENS_9allocatorIcEEEE0_NS_14basic_iostreamIcS2_EE', 'storage_mapping_class': 'RW', 'type': 'OBJECT'}
{'import_export': 'wEXP', 'is_defined': True, 'name': '_ZTCNSt3__118basic_stringstreamIcNS_11char_traitsIcEENS_9allocatorIcEEEE8_NS_13basic_ostreamIcS2_EE', 'storage_mapping_class': 'RW', 'type': 'OBJECT'}
{'import_export': 'wEXP', 'is_defined': True, 'name': '_ZTCNSt3__119basic_istringstreamIcNS_11char_traitsIcEENS_9allocatorIcEEEE0_NS_13basic_istreamIcS2_EE', 'storage_mapping_class': 'RW', 'type': 'OBJECT'}
{'import_export': 'wEXP', 'is_defined': True, 'name': '_ZTCNSt3__119basic_ostringstreamIcNS_11char_traitsIcEENS_9allocatorIcEEEE0_NS_13basic_ostreamIcS2_EE', 'storage_mapping_class': 'RW', 'type': 'OBJECT'}
{'import_export': 'wEXP', 'is_defined': True, 'name': '_ZTINSt3__110__time_getE', 'storage_mapping_class': 'RW', 'type': 'OBJECT'}
{'import_export': 'wEXP', 'is_defined': True, 'name': '_ZTINSt3__110__time_putE', 'storage_mapping_class': 'RW', 'type': 'OBJECT'}
{'import_export': 'wEXP', 'is_defined': True, 'name': '_ZTINSt3__110ctype_baseE', 'storage_mapping_class': 'RW', 'type': 'OBJECT'}
{'import_export': 'wEXP', 'is_defined': True, 'name': '_ZTINSt3__110money_baseE', 'storage_mapping_class': 'RW', 'type': 'OBJECT'}
{'import_export': 'wEXP', 'is_defined': True, 'name': '_ZTINSt3__110moneypunctIcLb0EEE', 'storage_mapping_class': 'RW', 'type': 'OBJECT'}
{'import_export': 'wEXP', 'is_defined': True, 'name': '_ZTINSt3__110moneypunctIcLb1EEE', 'storage_mapping_class': 'RW', 'type': 'OBJECT'}
{'import_export': 'wEXP', 'is_defined': True, 'name': '_ZTINSt3__110moneypunctIwLb0EEE', 'storage_mapping_class': 'RW', 'type': 'OBJECT'}
{'import_export': 'wEXP', 'is_defined': True, 'name': '_ZTINSt3__110moneypunctIwLb1EEE', 'storage_mapping_class': 'RW', 'type': 'OBJECT'}
{'import_export': 'wEXP', 'is_defined': True, 'name': '_ZTINSt3__111__money_getIcEE', 'storage_mapping_class': 'RW', 'type': 'OBJECT'}
{'import_export': 'wEXP', 'is_defined': True, 'name': '_ZTINSt3__111__money_getIwEE', 'storage_mapping_class': 'RW', 'type': 'OBJECT'}
{'import_export': 'wEXP', 'is_defined': True, 'name': '_ZTINSt3__111__money_putIcEE', 'storage_mapping_class': 'RW', 'type': 'OBJECT'}
{'import_export': 'wEXP', 'is_defined': True, 'name': '_ZTINSt3__111__money_putIwEE', 'storage_mapping_class': 'RW', 'type': 'OBJECT'}
{'import_export': 'wEXP', 'is_defined': True, 'name': '_ZTINSt3__112codecvt_baseE', 'storage_mapping_class': 'RW', 'type': 'OBJECT'}
{'import_export': 'wEXP', 'is_defined': True, 'name': '_ZTINSt3__113basic_filebufIcNS_11char_traitsIcEEEE', 'storage_mapping_class': 'RW', 'type': 'OBJECT'}
{'import_export': 'wEXP', 'is_defined': True, 'name': '_ZTINSt3__113basic_istreamIcNS_11char_traitsIcEEEE', 'storage_mapping_class': 'RW', 'type': 'OBJECT'}
{'import_export': 'wEXP', 'is_defined': True, 'name': '_ZTINSt3__113basic_istreamIwNS_11char_traitsIwEEEE', 'storage_mapping_class': 'RW', 'type': 'OBJECT'}
{'import_export': 'wEXP', 'is_defined': True, 'name': '_ZTINSt3__113basic_ostreamIcNS_11char_traitsIcEEEE', 'storage_mapping_class': 'RW', 'type': 'OBJECT'}
{'import_export': 'wEXP', 'is_defined': True, 'name': '_ZTINSt3__113basic_ostreamIwNS_11char_traitsIwEEEE', 'storage_mapping_class': 'RW', 'type': 'OBJECT'}
{'import_export': 'wEXP', 'is_defined': True, 'name': '_ZTINSt3__113messages_baseE', 'storage_mapping_class': 'RW', 'type': 'OBJECT'}
{'import_export': 'wEXP', 'is_defined': True, 'name': '_ZTINSt3__114__num_get_baseE', 'storage_mapping_class': 'RW', 'type': 'OBJECT'}
{'import_export': 'wEXP', 'is_defined': True, 'name': '_ZTINSt3__114__num_put_baseE', 'storage_mapping_class': 'RW', 'type': 'OBJECT'}
{'import_export': 'wEXP', 'is_defined': True, 'name': '_ZTINSt3__114basic_ifstreamIcNS_11char_traitsIcEEEE', 'storage_mapping_class': 'RW', 'type': 'OBJECT'}
{'import_export': 'wEXP', 'is_defined': True, 'name': '_ZTINSt3__114basic_iostreamIcNS_11char_traitsIcEEEE', 'storage_mapping_class': 'RW', 'type': 'OBJECT'}
{'import_export': 'wEXP', 'is_defined': True, 'name': '_ZTINSt3__114basic_ofstreamIcNS_11char_traitsIcEEEE', 'storage_mapping_class': 'RW', 'type': 'OBJECT'}
{'import_export': 'wEXP', 'is_defined': True, 'name': '_ZTINSt3__114codecvt_bynameIDiDuPcEE', 'storage_mapping_class': 'RW', 'type': 'OBJECT'}
{'import_export': 'wEXP', 'is_defined': True, 'name': '_ZTINSt3__114codecvt_bynameIDicPcEE', 'storage_mapping_class': 'RW', 'type': 'OBJECT'}
{'import_export': 'wEXP', 'is_defined': True, 'name': '_ZTINSt3__114codecvt_bynameIDsDuPcEE', 'storage_mapping_class': 'RW', 'type': 'OBJECT'}
{'import_export': 'wEXP', 'is_defined': True, 'name': '_ZTINSt3__114codecvt_bynameIDscPcEE', 'storage_mapping_class': 'RW', 'type': 'OBJECT'}
{'import_export': 'wEXP', 'is_defined': True, 'name': '_ZTINSt3__114codecvt_bynameIccPcEE', 'storage_mapping_class': 'RW', 'type': 'OBJECT'}
{'import_export': 'wEXP', 'is_defined': True, 'name': '_ZTINSt3__114codecvt_bynameIwcPcEE', 'storage_mapping_class': 'RW', 'type': 'OBJECT'}
{'import_export': 'wEXP', 'is_defined': True, 'name': '_ZTINSt3__115basic_streambufIcNS_11char_traitsIcEEEE', 'storage_mapping_class': 'RW', 'type': 'OBJECT'}
{'import_export': 'wEXP', 'is_defined': True, 'name': '_ZTINSt3__115basic_streambufIwNS_11char_traitsIwEEEE', 'storage_mapping_class': 'RW', 'type': 'OBJECT'}
{'import_export': 'wEXP', 'is_defined': True, 'name': '_ZTINSt3__115basic_stringbufIcNS_11char_traitsIcEENS_9allocatorIcEEEE', 'storage_mapping_class': 'RW', 'type': 'OBJECT'}
{'import_export': 'wEXP', 'is_defined': True, 'name': '_ZTINSt3__115messages_bynameIcEE', 'storage_mapping_class': 'RW', 'type': 'OBJECT'}
{'import_export': 'wEXP', 'is_defined': True, 'name': '_ZTINSt3__115messages_bynameIwEE', 'storage_mapping_class': 'RW', 'type': 'OBJECT'}
{'import_export': 'wEXP', 'is_defined': True, 'name': '_ZTINSt3__115time_get_bynameIcNS_19istreambuf_iteratorIcNS_11char_traitsIcEEEEEE', 'storage_mapping_class': 'RW', 'type': 'OBJECT'}
{'import_export': 'wEXP', 'is_defined': True, 'name': '_ZTINSt3__115time_get_bynameIwNS_19istreambuf_iteratorIwNS_11char_traitsIwEEEEEE', 'storage_mapping_class': 'RW', 'type': 'OBJECT'}
{'import_export': 'wEXP', 'is_defined': True, 'name': '_ZTINSt3__115time_put_bynameIcNS_19ostreambuf_iteratorIcNS_11char_traitsIcEEEEEE', 'storage_mapping_class': 'RW', 'type': 'OBJECT'}
{'import_export': 'wEXP', 'is_defined': True, 'name': '_ZTINSt3__115time_put_bynameIwNS_19ostreambuf_iteratorIwNS_11char_traitsIwEEEEEE', 'storage_mapping_class': 'RW', 'type': 'OBJECT'}
{'import_export': 'wEXP', 'is_defined': True, 'name': '_ZTINSt3__117moneypunct_bynameIcLb0EEE', 'storage_mapping_class': 'RW', 'type': 'OBJECT'}
{'import_export': 'wEXP', 'is_defined': True, 'name': '_ZTINSt3__117moneypunct_bynameIcLb1EEE', 'storage_mapping_class': 'RW', 'type': 'OBJECT'}
{'import_export': 'wEXP', 'is_defined': True, 'name': '_ZTINSt3__117moneypunct_bynameIwLb0EEE', 'storage_mapping_class': 'RW', 'type': 'OBJECT'}
{'import_export': 'wEXP', 'is_defined': True, 'name': '_ZTINSt3__117moneypunct_bynameIwLb1EEE', 'storage_mapping_class': 'RW', 'type': 'OBJECT'}
{'import_export': 'wEXP', 'is_defined': True, 'name': '_ZTINSt3__118__time_get_storageIcEE', 'storage_mapping_class': 'RW', 'type': 'OBJECT'}
{'import_export': 'wEXP', 'is_defined': True, 'name': '_ZTINSt3__118__time_get_storageIwEE', 'storage_mapping_class': 'RW', 'type': 'OBJECT'}
{'import_export': 'wEXP', 'is_defined': True, 'name': '_ZTINSt3__118basic_stringstreamIcNS_11char_traitsIcEENS_9allocatorIcEEEE', 'storage_mapping_class': 'RW', 'type': 'OBJECT'}
{'import_export': 'wEXP', 'is_defined': True, 'name': '_ZTINSt3__119basic_istringstreamIcNS_11char_traitsIcEENS_9allocatorIcEEEE', 'storage_mapping_class': 'RW', 'type': 'OBJECT'}
{'import_export': 'wEXP', 'is_defined': True, 'name': '_ZTINSt3__119basic_ostringstreamIcNS_11char_traitsIcEENS_9allocatorIcEEEE', 'storage_mapping_class': 'RW', 'type': 'OBJECT'}
{'import_export': 'wEXP', 'is_defined': True, 'name': '_ZTINSt3__120__time_get_c_storageIcEE', 'storage_mapping_class': 'RW', 'type': 'OBJECT'}
{'import_export': 'wEXP', 'is_defined': True, 'name': '_ZTINSt3__120__time_get_c_storageIwEE', 'storage_mapping_class': 'RW', 'type': 'OBJECT'}
{'import_export': 'wEXP', 'is_defined': True, 'name': '_ZTINSt3__13pmr26__null_memory_resource_impE', 'storage_mapping_class': 'RW', 'type': 'OBJECT'}
{'import_export': 'wEXP', 'is_defined': True, 'name': '_ZTINSt3__13pmr32__new_delete_memory_resource_impE', 'storage_mapping_class': 'RW', 'type': 'OBJECT'}
{'import_export': 'wEXP', 'is_defined': True, 'name': '_ZTINSt3__17collateIcEE', 'storage_mapping_class': 'RW', 'type': 'OBJECT'}
{'import_export': 'wEXP', 'is_defined': True, 'name': '_ZTINSt3__17collateIwEE', 'storage_mapping_class': 'RW', 'type': 'OBJECT'}
{'import_export': 'wEXP', 'is_defined': True, 'name': '_ZTINSt3__17num_getIcNS_19istreambuf_iteratorIcNS_11char_traitsIcEEEEEE', 'storage_mapping_class': 'RW', 'type': 'OBJECT'}
{'import_export': 'wEXP', 'is_defined': True, 'name': '_ZTINSt3__17num_getIwNS_19istreambuf_iteratorIwNS_11char_traitsIwEEEEEE', 'storage_mapping_class': 'RW', 'type': 'OBJECT'}
{'import_export': 'wEXP', 'is_defined': True, 'name': '_ZTINSt3__17num_putIcNS_19ostreambuf_iteratorIcNS_11char_traitsIcEEEEEE', 'storage_mapping_class': 'RW', 'type': 'OBJECT'}
{'import_export': 'wEXP', 'is_defined': True, 'name': '_ZTINSt3__17num_putIwNS_19ostreambuf_iteratorIwNS_11char_traitsIwEEEEEE', 'storage_mapping_class': 'RW', 'type': 'OBJECT'}
{'import_export': 'wEXP', 'is_defined': True, 'name': '_ZTINSt3__18messagesIcEE', 'storage_mapping_class': 'RW', 'type': 'OBJECT'}
{'import_export': 'wEXP', 'is_defined': True, 'name': '_ZTINSt3__18messagesIwEE', 'storage_mapping_class': 'RW', 'type': 'OBJECT'}
{'import_export': 'wEXP', 'is_defined': True, 'name': '_ZTINSt3__18time_getIcNS_19istreambuf_iteratorIcNS_11char_traitsIcEEEEEE', 'storage_mapping_class': 'RW', 'type': 'OBJECT'}
{'import_export': 'wEXP', 'is_defined': True, 'name': '_ZTINSt3__18time_getIwNS_19istreambuf_iteratorIwNS_11char_traitsIwEEEEEE', 'storage_mapping_class': 'RW', 'type': 'OBJECT'}
{'import_export': 'wEXP', 'is_defined': True, 'name': '_ZTINSt3__18time_putIcNS_19ostreambuf_iteratorIcNS_11char_traitsIcEEEEEE', 'storage_mapping_class': 'RW', 'type': 'OBJECT'}
{'import_export': 'wEXP', 'is_defined': True, 'name': '_ZTINSt3__18time_putIwNS_19ostreambuf_iteratorIwNS_11char_traitsIwEEEEEE', 'storage_mapping_class': 'RW', 'type': 'OBJECT'}
{'import_export': 'wEXP', 'is_defined': True, 'name': '_ZTINSt3__19__num_getIcEE', 'storage_mapping_class': 'RW', 'type': 'OBJECT'}
{'import_export': 'wEXP', 'is_defined': True, 'name': '_ZTINSt3__19__num_getIwEE', 'storage_mapping_class': 'RW', 'type': 'OBJECT'}
{'import_export': 'wEXP', 'is_defined': True, 'name': '_ZTINSt3__19__num_putIcEE', 'storage_mapping_class': 'RW', 'type': 'OBJECT'}
{'import_export': 'wEXP', 'is_defined': True, 'name': '_ZTINSt3__19__num_putIwEE', 'storage_mapping_class': 'RW', 'type': 'OBJECT'}
{'import_export': 'wEXP', 'is_defined': True, 'name': '_ZTINSt3__19basic_iosIcNS_11char_traitsIcEEEE', 'storage_mapping_class': 'RW', 'type': 'OBJECT'}
{'import_export': 'wEXP', 'is_defined': True, 'name': '_ZTINSt3__19basic_iosIwNS_11char_traitsIwEEEE', 'storage_mapping_class': 'RW', 'type': 'OBJECT'}
{'import_export': 'wEXP', 'is_defined': True, 'name': '_ZTINSt3__19money_getIcNS_19istreambuf_iteratorIcNS_11char_traitsIcEEEEEE', 'storage_mapping_class': 'RW', 'type': 'OBJECT'}
{'import_export': 'wEXP', 'is_defined': True, 'name': '_ZTINSt3__19money_getIwNS_19istreambuf_iteratorIwNS_11char_traitsIwEEEEEE', 'storage_mapping_class': 'RW', 'type': 'OBJECT'}
{'import_export': 'wEXP', 'is_defined': True, 'name': '_ZTINSt3__19money_putIcNS_19ostreambuf_iteratorIcNS_11char_traitsIcEEEEEE', 'storage_mapping_class': 'RW', 'type': 'OBJECT'}
{'import_export': 'wEXP', 'is_defined': True, 'name': '_ZTINSt3__19money_putIwNS_19ostreambuf_iteratorIwNS_11char_traitsIwEEEEEE', 'storage_mapping_class': 'RW', 'type': 'OBJECT'}
{'import_export': 'wEXP', 'is_defined': True, 'name': '_ZTINSt3__19time_baseE', 'storage_mapping_class': 'RW', 'type': 'OBJECT'}
{'import_export': 'wEXP', 'is_defined': True, 'name': '_ZTSNSt3__110__time_getE', 'storage_mapping_class': 'RO', 'type': 'OBJECT'}
{'import_export': 'wEXP', 'is_defined': True, 'name': '_ZTSNSt3__110__time_putE', 'storage_mapping_class': 'RO', 'type': 'OBJECT'}
{'import_export': 'wEXP', 'is_defined': True, 'name': '_ZTSNSt3__110ctype_baseE', 'storage_mapping_class': 'RO', 'type': 'OBJECT'}
{'import_export': 'wEXP', 'is_defined': True, 'name': '_ZTSNSt3__110money_baseE', 'storage_mapping_class': 'RO', 'type': 'OBJECT'}
{'import_export': 'wEXP', 'is_defined': True, 'name': '_ZTSNSt3__110moneypunctIcLb0EEE', 'storage_mapping_class': 'RO', 'type': 'OBJECT'}
{'import_export': 'wEXP', 'is_defined': True, 'name': '_ZTSNSt3__110moneypunctIcLb1EEE', 'storage_mapping_class': 'RO', 'type': 'OBJECT'}
{'import_export': 'wEXP', 'is_defined': True, 'name': '_ZTSNSt3__110moneypunctIwLb0EEE', 'storage_mapping_class': 'RO', 'type': 'OBJECT'}
{'import_export': 'wEXP', 'is_defined': True, 'name': '_ZTSNSt3__110moneypunctIwLb1EEE', 'storage_mapping_class': 'RO', 'type': 'OBJECT'}
{'import_export': 'wEXP', 'is_defined': True, 'name': '_ZTSNSt3__111__money_getIcEE', 'storage_mapping_class': 'RO', 'type': 'OBJECT'}
{'import_export': 'wEXP', 'is_defined': True, 'name': '_ZTSNSt3__111__money_getIwEE', 'storage_mapping_class': 'RO', 'type': 'OBJECT'}
{'import_export': 'wEXP', 'is_defined': True, 'name': '_ZTSNSt3__111__money_putIcEE', 'storage_mapping_class': 'RO', 'type': 'OBJECT'}
{'import_export': 'wEXP', 'is_defined': True, 'name': '_ZTSNSt3__111__money_putIwEE', 'storage_mapping_class': 'RO', 'type': 'OBJECT'}
{'import_export': 'wEXP', 'is_defined': True, 'name': '_ZTSNSt3__112codecvt_baseE', 'storage_mapping_class': 'RO', 'type': 'OBJECT'}
{'import_export': 'wEXP', 'is_defined': True, 'name': '_ZTSNSt3__113basic_filebufIcNS_11char_traitsIcEEEE', 'storage_mapping_class': 'RO', 'type': 'OBJECT'}
{'import_export': 'wEXP', 'is_defined': True, 'name': '_ZTSNSt3__113basic_istreamIcNS_11char_traitsIcEEEE', 'storage_mapping_class': 'RO', 'type': 'OBJECT'}
{'import_export': 'wEXP', 'is_defined': True, 'name': '_ZTSNSt3__113basic_istreamIwNS_11char_traitsIwEEEE', 'storage_mapping_class': 'RO', 'type': 'OBJECT'}
{'import_export': 'wEXP', 'is_defined': True, 'name': '_ZTSNSt3__113basic_ostreamIcNS_11char_traitsIcEEEE', 'storage_mapping_class': 'RO', 'type': 'OBJECT'}
{'import_export': 'wEXP', 'is_defined': True, 'name': '_ZTSNSt3__113basic_ostreamIwNS_11char_traitsIwEEEE', 'storage_mapping_class': 'RO', 'type': 'OBJECT'}
{'import_export': 'wEXP', 'is_defined': True, 'name': '_ZTSNSt3__113messages_baseE', 'storage_mapping_class': 'RO', 'type': 'OBJECT'}
{'import_export': 'wEXP', 'is_defined': True, 'name': '_ZTSNSt3__114__num_get_baseE', 'storage_mapping_class': 'RO', 'type': 'OBJECT'}
{'import_export': 'wEXP', 'is_defined': True, 'name': '_ZTSNSt3__114__num_put_baseE', 'storage_mapping_class': 'RO', 'type': 'OBJECT'}
{'import_export': 'wEXP', 'is_defined': True, 'name': '_ZTSNSt3__114basic_ifstreamIcNS_11char_traitsIcEEEE', 'storage_mapping_class': 'RO', 'type': 'OBJECT'}
{'import_export': 'wEXP', 'is_defined': True, 'name': '_ZTSNSt3__114basic_iostreamIcNS_11char_traitsIcEEEE', 'storage_mapping_class': 'RO', 'type': 'OBJECT'}
{'import_export': 'wEXP', 'is_defined': True, 'name': '_ZTSNSt3__114basic_ofstreamIcNS_11char_traitsIcEEEE', 'storage_mapping_class': 'RO', 'type': 'OBJECT'}
{'import_export': 'wEXP', 'is_defined': True, 'name': '_ZTSNSt3__114codecvt_bynameIDiDuPcEE', 'storage_mapping_class': 'RO', 'type': 'OBJECT'}
{'import_export': 'wEXP', 'is_defined': True, 'name': '_ZTSNSt3__114codecvt_bynameIDicPcEE', 'storage_mapping_class': 'RO', 'type': 'OBJECT'}
{'import_export': 'wEXP', 'is_defined': True, 'name': '_ZTSNSt3__114codecvt_bynameIDsDuPcEE', 'storage_mapping_class': 'RO', 'type': 'OBJECT'}
{'import_export': 'wEXP', 'is_defined': True, 'name': '_ZTSNSt3__114codecvt_bynameIDscPcEE', 'storage_mapping_class': 'RO', 'type': 'OBJECT'}
{'import_export': 'wEXP', 'is_defined': True, 'name': '_ZTSNSt3__114codecvt_bynameIccPcEE', 'storage_mapping_class': 'RO', 'type': 'OBJECT'}
{'import_export': 'wEXP', 'is_defined': True, 'name': '_ZTSNSt3__114codecvt_bynameIwcPcEE', 'storage_mapping_class': 'RO', 'type': 'OBJECT'}
{'import_export': 'wEXP', 'is_defined': True, 'name': '_ZTSNSt3__115basic_streambufIcNS_11char_traitsIcEEEE', 'storage_mapping_class': 'RO', 'type': 'OBJECT'}
{'import_export': 'wEXP', 'is_defined': True, 'name': '_ZTSNSt3__115basic_streambufIwNS_11char_traitsIwEEEE', 'storage_mapping_class': 'RO', 'type': 'OBJECT'}
{'import_export': 'wEXP', 'is_defined': True, 'name': '_ZTSNSt3__115basic_stringbufIcNS_11char_traitsIcEENS_9allocatorIcEEEE', 'storage_mapping_class': 'RO', 'type': 'OBJECT'}
{'import_export': 'wEXP', 'is_defined': True, 'name': '_ZTSNSt3__115messages_bynameIcEE', 'storage_mapping_class': 'RO', 'type': 'OBJECT'}
{'import_export': 'wEXP', 'is_defined': True, 'name': '_ZTSNSt3__115messages_bynameIwEE', 'storage_mapping_class': 'RO', 'type': 'OBJECT'}
{'import_export': 'wEXP', 'is_defined': True, 'name': '_ZTSNSt3__115time_get_bynameIcNS_19istreambuf_iteratorIcNS_11char_traitsIcEEEEEE', 'storage_mapping_class': 'RO', 'type': 'OBJECT'}
{'import_export': 'wEXP', 'is_defined': True, 'name': '_ZTSNSt3__115time_get_bynameIwNS_19istreambuf_iteratorIwNS_11char_traitsIwEEEEEE', 'storage_mapping_class': 'RO', 'type': 'OBJECT'}
{'import_export': 'wEXP', 'is_defined': True, 'name': '_ZTSNSt3__115time_put_bynameIcNS_19ostreambuf_iteratorIcNS_11char_traitsIcEEEEEE', 'storage_mapping_class': 'RO', 'type': 'OBJECT'}
{'import_export': 'wEXP', 'is_defined': True, 'name': '_ZTSNSt3__115time_put_bynameIwNS_19ostreambuf_iteratorIwNS_11char_traitsIwEEEEEE', 'storage_mapping_class': 'RO', 'type': 'OBJECT'}
{'import_export': 'wEXP', 'is_defined': True, 'name': '_ZTSNSt3__117moneypunct_bynameIcLb0EEE', 'storage_mapping_class': 'RO', 'type': 'OBJECT'}
{'import_export': 'wEXP', 'is_defined': True, 'name': '_ZTSNSt3__117moneypunct_bynameIcLb1EEE', 'storage_mapping_class': 'RO', 'type': 'OBJECT'}
{'import_export': 'wEXP', 'is_defined': True, 'name': '_ZTSNSt3__117moneypunct_bynameIwLb0EEE', 'storage_mapping_class': 'RO', 'type': 'OBJECT'}
{'import_export': 'wEXP', 'is_defined': True, 'name': '_ZTSNSt3__117moneypunct_bynameIwLb1EEE', 'storage_mapping_class': 'RO', 'type': 'OBJECT'}
{'import_export': 'wEXP', 'is_defined': True, 'name': '_ZTSNSt3__118__time_get_storageIcEE', 'storage_mapping_class': 'RO', 'type': 'OBJECT'}
{'import_export': 'wEXP', 'is_defined': True, 'name': '_ZTSNSt3__118__time_get_storageIwEE', 'storage_mapping_class': 'RO', 'type': 'OBJECT'}
{'import_export': 'wEXP', 'is_defined': True, 'name': '_ZTSNSt3__118basic_stringstreamIcNS_11char_traitsIcEENS_9allocatorIcEEEE', 'storage_mapping_class': 'RO', 'type': 'OBJECT'}
{'import_export': 'wEXP', 'is_defined': True, 'name': '_ZTSNSt3__119basic_istringstreamIcNS_11char_traitsIcEENS_9allocatorIcEEEE', 'storage_mapping_class': 'RO', 'type': 'OBJECT'}
{'import_export': 'wEXP', 'is_defined': True, 'name': '_ZTSNSt3__119basic_ostringstreamIcNS_11char_traitsIcEENS_9allocatorIcEEEE', 'storage_mapping_class': 'RO', 'type': 'OBJECT'}
{'import_export': 'wEXP', 'is_defined': True, 'name': '_ZTSNSt3__120__time_get_c_storageIcEE', 'storage_mapping_class': 'RO', 'type': 'OBJECT'}
{'import_export': 'wEXP', 'is_defined': True, 'name': '_ZTSNSt3__120__time_get_c_storageIwEE', 'storage_mapping_class': 'RO', 'type': 'OBJECT'}
{'import_export': 'wEXP', 'is_defined': True, 'name': '_ZTSNSt3__13pmr26__null_memory_resource_impE', 'storage_mapping_class': 'RO', 'type': 'OBJECT'}
{'import_export': 'wEXP', 'is_defined': True, 'name': '_ZTSNSt3__13pmr32__new_delete_memory_resource_impE', 'storage_mapping_class': 'RO', 'type': 'OBJECT'}
{'import_export': 'wEXP', 'is_defined': True, 'name': '_ZTSNSt3__17collateIcEE', 'storage_mapping_class': 'RO', 'type': 'OBJECT'}
{'import_export': 'wEXP', 'is_defined': True, 'name': '_ZTSNSt3__17collateIwEE', 'storage_mapping_class': 'RO', 'type': 'OBJECT'}
{'import_export': 'wEXP', 'is_defined': True, 'name': '_ZTSNSt3__17num_getIcNS_19istreambuf_iteratorIcNS_11char_traitsIcEEEEEE', 'storage_mapping_class': 'RO', 'type': 'OBJECT'}
{'import_export': 'wEXP', 'is_defined': True, 'name': '_ZTSNSt3__17num_getIwNS_19istreambuf_iteratorIwNS_11char_traitsIwEEEEEE', 'storage_mapping_class': 'RO', 'type': 'OBJECT'}
{'import_export': 'wEXP', 'is_defined': True, 'name': '_ZTSNSt3__17num_putIcNS_19ostreambuf_iteratorIcNS_11char_traitsIcEEEEEE', 'storage_mapping_class': 'RO', 'type': 'OBJECT'}
{'import_export': 'wEXP', 'is_defined': True, 'name': '_ZTSNSt3__17num_putIwNS_19ostreambuf_iteratorIwNS_11char_traitsIwEEEEEE', 'storage_mapping_class': 'RO', 'type': 'OBJECT'}
{'import_export': 'wEXP', 'is_defined': True, 'name': '_ZTSNSt3__18messagesIcEE', 'storage_mapping_class': 'RO', 'type': 'OBJECT'}
{'import_export': 'wEXP', 'is_defined': True, 'name': '_ZTSNSt3__18messagesIwEE', 'storage_mapping_class': 'RO', 'type': 'OBJECT'}
{'import_export': 'wEXP', 'is_defined': True, 'name': '_ZTSNSt3__18time_getIcNS_19istreambuf_iteratorIcNS_11char_traitsIcEEEEEE', 'storage_mapping_class': 'RO', 'type': 'OBJECT'}
{'import_export': 'wEXP', 'is_defined': True, 'name': '_ZTSNSt3__18time_getIwNS_19istreambuf_iteratorIwNS_11char_traitsIwEEEEEE', 'storage_mapping_class': 'RO', 'type': 'OBJECT'}
{'import_export': 'wEXP', 'is_defined': True, 'name': '_ZTSNSt3__18time_putIcNS_19ostreambuf_iteratorIcNS_11char_traitsIcEEEEEE', 'storage_mapping_class': 'RO', 'type': 'OBJECT'}
{'import_export': 'wEXP', 'is_defined': True, 'name': '_ZTSNSt3__18time_putIwNS_19ostreambuf_iteratorIwNS_11char_traitsIwEEEEEE', 'storage_mapping_class': 'RO', 'type': 'OBJECT'}
{'import_export': 'wEXP', 'is_defined': True, 'name': '_ZTSNSt3__19__num_getIcEE', 'storage_mapping_class': 'RO', 'type': 'OBJECT'}
{'import_export': 'wEXP', 'is_defined': True, 'name': '_ZTSNSt3__19__num_getIwEE', 'storage_mapping_class': 'RO', 'type': 'OBJECT'}
{'import_export': 'wEXP', 'is_defined': True, 'name': '_ZTSNSt3__19__num_putIcEE', 'storage_mapping_class': 'RO', 'type': 'OBJECT'}
{'import_export': 'wEXP', 'is_defined': True, 'name': '_ZTSNSt3__19__num_putIwEE', 'storage_mapping_class': 'RO', 'type': 'OBJECT'}
{'import_export': 'wEXP', 'is_defined': True, 'name': '_ZTSNSt3__19basic_iosIcNS_11char_traitsIcEEEE', 'storage_mapping_class': 'RO', 'type': 'OBJECT'}
{'import_export': 'wEXP', 'is_defined': True, 'name': '_ZTSNSt3__19basic_iosIwNS_11char_traitsIwEEEE', 'storage_mapping_class': 'RO', 'type': 'OBJECT'}
{'import_export': 'wEXP', 'is_defined': True, 'name': '_ZTSNSt3__19money_getIcNS_19istreambuf_iteratorIcNS_11char_traitsIcEEEEEE', 'storage_mapping_class': 'RO', 'type': 'OBJECT'}
{'import_export': 'wEXP', 'is_defined': True, 'name': '_ZTSNSt3__19money_getIwNS_19istreambuf_iteratorIwNS_11char_traitsIwEEEEEE', 'storage_mapping_class': 'RO', 'type': 'OBJECT'}
{'import_export': 'wEXP', 'is_defined': True, 'name': '_ZTSNSt3__19money_putIcNS_19ostreambuf_iteratorIcNS_11char_traitsIcEEEEEE', 'storage_mapping_class': 'RO', 'type': 'OBJECT'}
{'import_export': 'wEXP', 'is_defined': True, 'name': '_ZTSNSt3__19money_putIwNS_19ostreambuf_iteratorIwNS_11char_traitsIwEEEEEE', 'storage_mapping_class': 'RO', 'type': 'OBJECT'}
{'import_export': 'wEXP', 'is_defined': True, 'name': '_ZTSNSt3__19time_baseE', 'storage_mapping_class': 'RO', 'type': 'OBJECT'}
{'import_export': 'wEXP', 'is_defined': True, 'name': '_ZTTNSt3__113basic_istreamIcNS_11char_traitsIcEEEE', 'storage_mapping_class': 'RW', 'type': 'OBJECT'}
{'import_export': 'wEXP', 'is_defined': True, 'name': '_ZTTNSt3__113basic_istreamIwNS_11char_traitsIwEEEE', 'storage_mapping_class': 'RW', 'type': 'OBJECT'}
{'import_export': 'wEXP', 'is_defined': True, 'name': '_ZTTNSt3__113basic_ostreamIcNS_11char_traitsIcEEEE', 'storage_mapping_class': 'RW', 'type': 'OBJECT'}
{'import_export': 'wEXP', 'is_defined': True, 'name': '_ZTTNSt3__113basic_ostreamIwNS_11char_traitsIwEEEE', 'storage_mapping_class': 'RW', 'type': 'OBJECT'}
{'import_export': 'wEXP', 'is_defined': True, 'name': '_ZTTNSt3__114basic_ifstreamIcNS_11char_traitsIcEEEE', 'storage_mapping_class': 'RW', 'type': 'OBJECT'}
{'import_export': 'wEXP', 'is_defined': True, 'name': '_ZTTNSt3__114basic_iostreamIcNS_11char_traitsIcEEEE', 'storage_mapping_class': 'RW', 'type': 'OBJECT'}
{'import_export': 'wEXP', 'is_defined': True, 'name': '_ZTTNSt3__114basic_ofstreamIcNS_11char_traitsIcEEEE', 'storage_mapping_class': 'RW', 'type': 'OBJECT'}
{'import_export': 'wEXP', 'is_defined': True, 'name': '_ZTTNSt3__118basic_stringstreamIcNS_11char_traitsIcEENS_9allocatorIcEEEE', 'storage_mapping_class': 'RW', 'type': 'OBJECT'}
{'import_export': 'wEXP', 'is_defined': True, 'name': '_ZTTNSt3__119basic_istringstreamIcNS_11char_traitsIcEENS_9allocatorIcEEEE', 'storage_mapping_class': 'RW', 'type': 'OBJECT'}
{'import_export': 'wEXP', 'is_defined': True, 'name': '_ZTTNSt3__119basic_ostringstreamIcNS_11char_traitsIcEENS_9allocatorIcEEEE', 'storage_mapping_class': 'RW', 'type': 'OBJECT'}
{'import_export': 'wEXP', 'is_defined': True, 'name': '_ZTVNSt3__110moneypunctIcLb0EEE', 'storage_mapping_class': 'RW', 'type': 'OBJECT'}
{'import_export': 'wEXP', 'is_defined': True, 'name': '_ZTVNSt3__110moneypunctIcLb1EEE', 'storage_mapping_class': 'RW', 'type': 'OBJECT'}
{'import_export': 'wEXP', 'is_defined': True, 'name': '_ZTVNSt3__110moneypunctIwLb0EEE', 'storage_mapping_class': 'RW', 'type': 'OBJECT'}
{'import_export': 'wEXP', 'is_defined': True, 'name': '_ZTVNSt3__110moneypunctIwLb1EEE', 'storage_mapping_class': 'RW', 'type': 'OBJECT'}
{'import_export': 'wEXP', 'is_defined': True, 'name': '_ZTVNSt3__113basic_filebufIcNS_11char_traitsIcEEEE', 'storage_mapping_class': 'RW', 'type': 'OBJECT'}
{'import_export': 'wEXP', 'is_defined': True, 'name': '_ZTVNSt3__113basic_istreamIcNS_11char_traitsIcEEEE', 'storage_mapping_class': 'RW', 'type': 'OBJECT'}
{'import_export': 'wEXP', 'is_defined': True, 'name': '_ZTVNSt3__113basic_istreamIwNS_11char_traitsIwEEEE', 'storage_mapping_class': 'RW', 'type': 'OBJECT'}
{'import_export': 'wEXP', 'is_defined': True, 'name': '_ZTVNSt3__113basic_ostreamIcNS_11char_traitsIcEEEE', 'storage_mapping_class': 'RW', 'type': 'OBJECT'}
{'import_export': 'wEXP', 'is_defined': True, 'name': '_ZTVNSt3__113basic_ostreamIwNS_11char_traitsIwEEEE', 'storage_mapping_class': 'RW', 'type': 'OBJECT'}
{'import_export': 'wEXP', 'is_defined': True, 'name': '_ZTVNSt3__114basic_ifstreamIcNS_11char_traitsIcEEEE', 'storage_mapping_class': 'RW', 'type': 'OBJECT'}
{'import_export': 'wEXP', 'is_defined': True, 'name': '_ZTVNSt3__114basic_iostreamIcNS_11char_traitsIcEEEE', 'storage_mapping_class': 'RW', 'type': 'OBJECT'}
{'import_export': 'wEXP', 'is_defined': True, 'name': '_ZTVNSt3__114basic_ofstreamIcNS_11char_traitsIcEEEE', 'storage_mapping_class': 'RW', 'type': 'OBJECT'}
{'import_export': 'wEXP', 'is_defined': True, 'name': '_ZTVNSt3__114codecvt_bynameIDiDuPcEE', 'storage_mapping_class': 'RW', 'type': 'OBJECT'}
{'import_export': 'wEXP', 'is_defined': True, 'name': '_ZTVNSt3__114codecvt_bynameIDicPcEE', 'storage_mapping_class': 'RW', 'type': 'OBJECT'}
{'import_export': 'wEXP', 'is_defined': True, 'name': '_ZTVNSt3__114codecvt_bynameIDsDuPcEE', 'storage_mapping_class': 'RW', 'type': 'OBJECT'}
{'import_export': 'wEXP', 'is_defined': True, 'name': '_ZTVNSt3__114codecvt_bynameIDscPcEE', 'storage_mapping_class': 'RW', 'type': 'OBJECT'}
{'import_export': 'wEXP', 'is_defined': True, 'name': '_ZTVNSt3__114codecvt_bynameIccPcEE', 'storage_mapping_class': 'RW', 'type': 'OBJECT'}
{'import_export': 'wEXP', 'is_defined': True, 'name': '_ZTVNSt3__114codecvt_bynameIwcPcEE', 'storage_mapping_class': 'RW', 'type': 'OBJECT'}
{'import_export': 'wEXP', 'is_defined': True, 'name': '_ZTVNSt3__115basic_streambufIcNS_11char_traitsIcEEEE', 'storage_mapping_class': 'RW', 'type': 'OBJECT'}
{'import_export': 'wEXP', 'is_defined': True, 'name': '_ZTVNSt3__115basic_streambufIwNS_11char_traitsIwEEEE', 'storage_mapping_class': 'RW', 'type': 'OBJECT'}
{'import_export': 'wEXP', 'is_defined': True, 'name': '_ZTVNSt3__115basic_stringbufIcNS_11char_traitsIcEENS_9allocatorIcEEEE', 'storage_mapping_class': 'RW', 'type': 'OBJECT'}
{'import_export': 'wEXP', 'is_defined': True, 'name': '_ZTVNSt3__115messages_bynameIcEE', 'storage_mapping_class': 'RW', 'type': 'OBJECT'}
{'import_export': 'wEXP', 'is_defined': True, 'name': '_ZTVNSt3__115messages_bynameIwEE', 'storage_mapping_class': 'RW', 'type': 'OBJECT'}
{'import_export': 'wEXP', 'is_defined': True, 'name': '_ZTVNSt3__115time_get_bynameIcNS_19istreambuf_iteratorIcNS_11char_traitsIcEEEEEE', 'storage_mapping_class': 'RW', 'type': 'OBJECT'}
{'import_export': 'wEXP', 'is_defined': True, 'name': '_ZTVNSt3__115time_get_bynameIwNS_19istreambuf_iteratorIwNS_11char_traitsIwEEEEEE', 'storage_mapping_class': 'RW', 'type': 'OBJECT'}
{'import_export': 'wEXP', 'is_defined': True, 'name': '_ZTVNSt3__115time_put_bynameIcNS_19ostreambuf_iteratorIcNS_11char_traitsIcEEEEEE', 'storage_mapping_class': 'RW', 'type': 'OBJECT'}
{'import_export': 'wEXP', 'is_defined': True, 'name': '_ZTVNSt3__115time_put_bynameIwNS_19ostreambuf_iteratorIwNS_11char_traitsIwEEEEEE', 'storage_mapping_class': 'RW', 'type': 'OBJECT'}
{'import_export': 'wEXP', 'is_defined': True, 'name': '_ZTVNSt3__117moneypunct_bynameIcLb0EEE', 'storage_mapping_class': 'RW', 'type': 'OBJECT'}
{'import_export': 'wEXP', 'is_defined': True, 'name': '_ZTVNSt3__117moneypunct_bynameIcLb1EEE', 'storage_mapping_class': 'RW', 'type': 'OBJECT'}
{'import_export': 'wEXP', 'is_defined': True, 'name': '_ZTVNSt3__117moneypunct_bynameIwLb0EEE', 'storage_mapping_class': 'RW', 'type': 'OBJECT'}
{'import_export': 'wEXP', 'is_defined': True, 'name': '_ZTVNSt3__117moneypunct_bynameIwLb1EEE', 'storage_mapping_class': 'RW', 'type': 'OBJECT'}
{'import_export': 'wEXP', 'is_defined': True, 'name': '_ZTVNSt3__118basic_stringstreamIcNS_11char_traitsIcEENS_9allocatorIcEEEE', 'storage_mapping_class': 'RW', 'type': 'OBJECT'}
{'import_export': 'wEXP', 'is_defined': True, 'name': '_ZTVNSt3__119basic_istringstreamIcNS_11char_traitsIcEENS_9allocatorIcEEEE', 'storage_mapping_class': 'RW', 'type': 'OBJECT'}
{'import_export': 'wEXP', 'is_defined': True, 'name': '_ZTVNSt3__119basic_ostringstreamIcNS_11char_traitsIcEENS_9allocatorIcEEEE', 'storage_mapping_class': 'RW', 'type': 'OBJECT'}
{'import_export': 'wEXP', 'is_defined': True, 'name': '_ZTVNSt3__13pmr26__null_memory_resource_impE', 'storage_mapping_class': 'RW', 'type': 'OBJECT'}
{'import_export': 'wEXP', 'is_defined': True, 'name': '_ZTVNSt3__13pmr32__new_delete_memory_resource_impE', 'storage_mapping_class': 'RW', 'type': 'OBJECT'}
{'import_export': 'wEXP', 'is_defined': True, 'name': '_ZTVNSt3__17collateIcEE', 'storage_mapping_class': 'RW', 'type': 'OBJECT'}
{'import_export': 'wEXP', 'is_defined': True, 'name': '_ZTVNSt3__17collateIwEE', 'storage_mapping_class': 'RW', 'type': 'OBJECT'}
{'import_export': 'wEXP', 'is_defined': True, 'name': '_ZTVNSt3__17num_getIcNS_19istreambuf_iteratorIcNS_11char_traitsIcEEEEEE', 'storage_mapping_class': 'RW', 'type': 'OBJECT'}
{'import_export': 'wEXP', 'is_defined': True, 'name': '_ZTVNSt3__17num_getIwNS_19istreambuf_iteratorIwNS_11char_traitsIwEEEEEE', 'storage_mapping_class': 'RW', 'type': 'OBJECT'}
{'import_export': 'wEXP', 'is_defined': True, 'name': '_ZTVNSt3__17num_putIcNS_19ostreambuf_iteratorIcNS_11char_traitsIcEEEEEE', 'storage_mapping_class': 'RW', 'type': 'OBJECT'}
{'import_export': 'wEXP', 'is_defined': True, 'name': '_ZTVNSt3__17num_putIwNS_19ostreambuf_iteratorIwNS_11char_traitsIwEEEEEE', 'storage_mapping_class': 'RW', 'type': 'OBJECT'}
{'import_export': 'wEXP', 'is_defined': True, 'name': '_ZTVNSt3__18messagesIcEE', 'storage_mapping_class': 'RW', 'type': 'OBJECT'}
{'import_export': 'wEXP', 'is_defined': True, 'name': '_ZTVNSt3__18messagesIwEE', 'storage_mapping_class': 'RW', 'type': 'OBJECT'}
{'import_export': 'wEXP', 'is_defined': True, 'name': '_ZTVNSt3__18time_getIcNS_19istreambuf_iteratorIcNS_11char_traitsIcEEEEEE', 'storage_mapping_class': 'RW', 'type': 'OBJECT'}
{'import_export': 'wEXP', 'is_defined': True, 'name': '_ZTVNSt3__18time_getIwNS_19istreambuf_iteratorIwNS_11char_traitsIwEEEEEE', 'storage_mapping_class': 'RW', 'type': 'OBJECT'}
{'import_export': 'wEXP', 'is_defined': True, 'name': '_ZTVNSt3__18time_putIcNS_19ostreambuf_iteratorIcNS_11char_traitsIcEEEEEE', 'storage_mapping_class': 'RW', 'type': 'OBJECT'}
{'import_export': 'wEXP', 'is_defined': True, 'name': '_ZTVNSt3__18time_putIwNS_19ostreambuf_iteratorIwNS_11char_traitsIwEEEEEE', 'storage_mapping_class': 'RW', 'type': 'OBJECT'}
{'import_export': 'wEXP', 'is_defined': True, 'name': '_ZTVNSt3__19basic_iosIcNS_11char_traitsIcEEEE', 'storage_mapping_class': 'RW', 'type': 'OBJECT'}
{'import_export': 'wEXP', 'is_defined': True, 'name': '_ZTVNSt3__19basic_iosIwNS_11char_traitsIwEEEE', 'storage_mapping_class': 'RW', 'type': 'OBJECT'}
{'import_export': 'wEXP', 'is_defined': True, 'name': '_ZTVNSt3__19money_getIcNS_19istreambuf_iteratorIcNS_11char_traitsIcEEEEEE', 'storage_mapping_class': 'RW', 'type': 'OBJECT'}
{'import_export': 'wEXP', 'is_defined': True, 'name': '_ZTVNSt3__19money_getIwNS_19istreambuf_iteratorIwNS_11char_traitsIwEEEEEE', 'storage_mapping_class': 'RW', 'type': 'OBJECT'}
{'import_export': 'wEXP', 'is_defined': True, 'name': '_ZTVNSt3__19money_putIcNS_19ostreambuf_iteratorIcNS_11char_traitsIcEEEEEE', 'storage_mapping_class': 'RW', 'type': 'OBJECT'}
{'import_export': 'wEXP', 'is_defined': True, 'name': '_ZTVNSt3__19money_putIwNS_19ostreambuf_iteratorIwNS_11char_traitsIwEEEEEE', 'storage_mapping_class': 'RW', 'type': 'OBJECT'}
{'import_export': 'wEXP', 'is_defined': True, 'name': '_ZThn8_NSt3__114basic_iostreamIcNS_11char_traitsIcEEED0Ev', 'storage_mapping_class': 'DS', 'type': 'FUNC'}
{'import_export': 'wEXP', 'is_defined': True, 'name': '_ZThn8_NSt3__114basic_iostreamIcNS_11char_traitsIcEEED1Ev', 'storage_mapping_class': 'DS', 'type': 'FUNC'}
{'import_export': 'wEXP', 'is_defined': True, 'name': '_ZTv0_n12_NSt3__113basic_istreamIcNS_11char_traitsIcEEED0Ev', 'storage_mapping_class': 'DS', 'type': 'FUNC'}
{'import_export': 'wEXP', 'is_defined': True, 'name': '_ZTv0_n12_NSt3__113basic_istreamIcNS_11char_traitsIcEEED1Ev', 'storage_mapping_class': 'DS', 'type': 'FUNC'}
{'import_export': 'wEXP', 'is_defined': True, 'name': '_ZTv0_n12_NSt3__113basic_istreamIwNS_11char_traitsIwEEED0Ev', 'storage_mapping_class': 'DS', 'type': 'FUNC'}
{'import_export': 'wEXP', 'is_defined': True, 'name': '_ZTv0_n12_NSt3__113basic_istreamIwNS_11char_traitsIwEEED1Ev', 'storage_mapping_class': 'DS', 'type': 'FUNC'}
{'import_export': 'wEXP', 'is_defined': True, 'name': '_ZTv0_n12_NSt3__113basic_ostreamIcNS_11char_traitsIcEEED0Ev', 'storage_mapping_class': 'DS', 'type': 'FUNC'}
{'import_export': 'wEXP', 'is_defined': True, 'name': '_ZTv0_n12_NSt3__113basic_ostreamIcNS_11char_traitsIcEEED1Ev', 'storage_mapping_class': 'DS', 'type': 'FUNC'}
{'import_export': 'wEXP', 'is_defined': True, 'name': '_ZTv0_n12_NSt3__113basic_ostreamIwNS_11char_traitsIwEEED0Ev', 'storage_mapping_class': 'DS', 'type': 'FUNC'}
{'import_export': 'wEXP', 'is_defined': True, 'name': '_ZTv0_n12_NSt3__113basic_ostreamIwNS_11char_traitsIwEEED1Ev', 'storage_mapping_class': 'DS', 'type': 'FUNC'}
{'import_export': 'wEXP', 'is_defined': True, 'name': '_ZTv0_n12_NSt3__114basic_iostreamIcNS_11char_traitsIcEEED0Ev', 'storage_mapping_class': 'DS', 'type': 'FUNC'}
{'import_export': 'wEXP', 'is_defined': True, 'name': '_ZTv0_n12_NSt3__114basic_iostreamIcNS_11char_traitsIcEEED1Ev', 'storage_mapping_class': 'DS', 'type': 'FUNC'}
{'import_export': 'wIMP', 'is_defined': False, 'name': '_ZdaPv', 'storage_mapping_class': 'DS', 'type': 'FUNC'}
{'import_export': 'wIMP', 'is_defined': False, 'name': '_ZdaPvSt11align_val_t', 'storage_mapping_class': 'DS', 'type': 'FUNC'}
{'import_export': 'wIMP', 'is_defined': False, 'name': '_ZdlPv', 'storage_mapping_class': 'DS', 'type': 'FUNC'}
{'import_export': 'wIMP', 'is_defined': False, 'name': '_ZdlPvm', 'storage_mapping_class': 'DS', 'type': 'FUNC'}
{'import_export': 'wIMP', 'is_defined': False, 'name': '_ZdlPvmSt11align_val_t', 'storage_mapping_class': 'DS', 'type': 'FUNC'}
{'import_export': 'wIMP', 'is_defined': False, 'name': '_Znam', 'storage_mapping_class': 'DS', 'type': 'FUNC'}
{'import_export': 'wIMP', 'is_defined': False, 'name': '_ZnamSt11align_val_t', 'storage_mapping_class': 'DS', 'type': 'FUNC'}
{'import_export': 'wIMP', 'is_defined': False, 'name': '_Znwm', 'storage_mapping_class': 'DS', 'type': 'FUNC'}
{'import_export': 'wIMP', 'is_defined': False, 'name': '_ZnwmSt11align_val_t', 'storage_mapping_class': 'DS', 'type': 'FUNC'}