// SPDX-License-Identifier: GPL-2.0
/*
 * Copyright (c) 2020 Rockchip Electronics Co. Ltd.
 *
 * Author: Zorro Liu <zorro.liu@rock-chips.com>
 */

	.arch armv8-a
	.file	"ebc_dev.c"
	.text
.Ltext0:
	.cfi_sections	.debug_frame
#APP
	.arch_extension	lse
	.section	".initcall6s.init", "a"	
__initcall_ebc_init6s:			
.long	ebc_init - .			
.previous					

#NO_APP
	.align	2
	.p2align 3,,7
	.type	get_auto_image, %function
get_auto_image:
.LFB2811:
	.file 1 "drivers/gpu/drm/rockchip/ebc-dev/ebc_dev.c"
	.loc 1 383 0
	.cfi_startproc
.LVL0:
	.loc 1 384 0
	adrp	x5, .LANCHOR0
	.loc 1 392 0
	ldrb	w13, [x4, 36]
.LVL1:
	.loc 1 384 0
	ldr	x16, [x5, #:lo12:.LANCHOR0]
	.loc 1 396 0
	add	x16, x16, 24
	ldr	w18, [x16, 148]
	.loc 1 399 0
	ldp	w10, w17, [x16, 76]
	.loc 1 401 0
	str	wzr, [x4, 40]
.LVL2:
	.loc 1 407 0
	cmp	w17, 0
	ble	.L69
	lsr	w10, w10, 4
.LVL3:
	.loc 1 383 0
	stp	x29, x30, [sp, -80]!
	.cfi_def_cfa_offset 80
	.cfi_offset 29, -80
	.cfi_offset 30, -72
	sub	w15, w10, #1
	.loc 1 407 0
	mov	w14, 0
.LVL4:
	add	x15, x15, 1
	.loc 1 383 0
	add	x29, sp, 0
	.cfi_def_cfa_register 29
	lsl	x15, x15, 3
	stp	x19, x20, [sp, 16]
	.loc 1 417 0
	mov	w12, 1
	.loc 1 383 0
	stp	x21, x22, [sp, 32]
	.loc 1 420 0
	mov	x11, 72340172838076673
	.loc 1 383 0
	stp	x23, x24, [sp, 48]
.LBB807:
.LBB808:
	.loc 1 164 0
	mov	w9, 3
.LBE808:
.LBE807:
	.loc 1 383 0
	str	x25, [sp, 64]
	.cfi_offset 19, -64
	.cfi_offset 20, -56
	.cfi_offset 21, -48
	.cfi_offset 22, -40
	.cfi_offset 23, -32
	.cfi_offset 24, -24
	.cfi_offset 25, -16
.LVL5:
	.p2align 2
.L31:
	.loc 1 408 0
	cbz	w18, .L3
	.loc 1 409 0
	ldp	w5, w8, [x16, 76]
.LVL6:
	sub	w8, w8, #1
	sub	w8, w8, w14
	mul	w8, w8, w5
	lsr	w8, w8, 2
	add	x8, x0, x8
.LVL7:
.L6:
	add	x8, x8, 4
.LVL8:
	add	x20, x3, 8
	.loc 1 413 0 discriminator 1
	mov	x19, 0
	cbnz	w10, .L65
	b	.L5
	.p2align 3
.L75:
	.loc 1 417 0
	str	w12, [x4, 40]
	.loc 1 419 0
	ldr	x7, [x4, 112]
.LVL9:
	.loc 1 418 0
	ldr	x22, [x20, -8]
.LVL10:
	.loc 1 420 0
	add	x21, x22, x11
	.loc 1 419 0
	ubfiz	x22, x22, 16, 8
	.loc 1 421 0
	cmp	w13, w21, uxtb
	.loc 1 419 0
	add	x7, x7, x22
.LVL11:
	.loc 1 421 0
	beq	.L73
.L8:
	.loc 1 426 0
	and	w23, w6, 65535
	and	w22, w5, 65535
.LBB810:
.LBB811:
	.loc 1 162 0
	mov	w30, 0
	.loc 1 161 0
	cmp	w23, w22
	beq	.L9
	.loc 1 159 0
	eor	w24, w23, w22
.LVL12:
	.loc 1 172 0
	ubfiz	w25, w23, 8, 8
	.loc 1 173 0
	and	w23, w23, 65280
	.loc 1 172 0
	add	w25, w25, w22, uxtb
	.loc 1 164 0
	tst	x24, 15
	.loc 1 173 0
	add	w22, w23, w22, lsr 8
	.loc 1 164 0
	csel	w30, wzr, w9, eq
	.loc 1 166 0
	tst	w24, 240
	orr	w23, w30, 12
	.loc 1 172 0
	ldrb	w25, [x7, w25, sxtw]
	.loc 1 166 0
	csel	w30, w23, w30, ne
	.loc 1 168 0
	tst	w24, 3840
	orr	w23, w30, 48
	.loc 1 173 0
	ldrb	w22, [x7, w22, sxtw]
	.loc 1 168 0
	csel	w30, w23, w30, ne
	.loc 1 170 0
	tst	w24, 61440
	orr	w23, w30, -64
	and	w23, w23, 255
	.loc 1 172 0
	orr	w22, w25, w22, lsl 4
	.loc 1 170 0
	csel	w30, w23, w30, ne
	.loc 1 172 0
	and	w30, w22, w30
	and	w30, w30, 255
.LVL13:
.L9:
.LBE811:
.LBE810:
	.loc 1 426 0
	strb	w30, [x8, -4]
	.loc 1 427 0
	lsr	w23, w6, 16
	lsr	w22, w5, 16
.LBB812:
.LBB813:
	.loc 1 162 0
	mov	w30, 0
	.loc 1 161 0
	cmp	w23, w22
	beq	.L14
	.loc 1 159 0
	eor	w24, w23, w22
.LVL14:
	.loc 1 172 0
	ubfiz	w25, w23, 8, 8
	.loc 1 173 0
	and	w23, w23, 65280
	.loc 1 172 0
	add	w25, w25, w22, uxtb
	.loc 1 164 0
	tst	x24, 15
	.loc 1 173 0
	add	w22, w23, w22, lsr 8
	.loc 1 164 0
	csel	w30, wzr, w9, eq
	.loc 1 166 0
	tst	w24, 240
	orr	w23, w30, 12
	.loc 1 172 0
	ldrb	w25, [x7, w25, sxtw]
	.loc 1 166 0
	csel	w30, w23, w30, ne
	.loc 1 168 0
	tst	w24, 3840
	orr	w23, w30, 48
	.loc 1 173 0
	ldrb	w22, [x7, w22, sxtw]
	.loc 1 168 0
	csel	w30, w23, w30, ne
	.loc 1 170 0
	tst	w24, 61440
	orr	w23, w30, -64
	and	w23, w23, 255
	.loc 1 172 0
	orr	w22, w25, w22, lsl 4
	.loc 1 170 0
	csel	w30, w23, w30, ne
	.loc 1 172 0
	and	w30, w22, w30
	and	w30, w30, 255
.LVL15:
.L14:
.LBE813:
.LBE812:
	.loc 1 427 0
	strb	w30, [x8, -3]
	.loc 1 428 0
	ubfx	x23, x6, 32, 16
	ubfx	x22, x5, 32, 16
.LBB814:
.LBB815:
	.loc 1 162 0
	mov	w30, 0
	.loc 1 161 0
	cmp	w23, w22
	beq	.L19
	.loc 1 159 0
	eor	w24, w23, w22
.LVL16:
	.loc 1 172 0
	ubfiz	w25, w23, 8, 8
	.loc 1 173 0
	and	w23, w23, 65280
	.loc 1 172 0
	add	w25, w25, w22, uxtb
	.loc 1 164 0
	tst	x24, 15
	.loc 1 173 0
	add	w22, w23, w22, lsr 8
	.loc 1 164 0
	csel	w30, wzr, w9, eq
	.loc 1 166 0
	tst	w24, 240
	orr	w23, w30, 12
	.loc 1 172 0
	ldrb	w25, [x7, w25, sxtw]
	.loc 1 166 0
	csel	w30, w23, w30, ne
	.loc 1 168 0
	tst	w24, 3840
	orr	w23, w30, 48
	.loc 1 173 0
	ldrb	w22, [x7, w22, sxtw]
	.loc 1 168 0
	csel	w30, w23, w30, ne
	.loc 1 170 0
	tst	w24, 61440
	orr	w23, w30, -64
	and	w23, w23, 255
	.loc 1 172 0
	orr	w22, w25, w22, lsl 4
	.loc 1 170 0
	csel	w30, w23, w30, ne
	.loc 1 172 0
	and	w30, w22, w30
	and	w30, w30, 255
.LVL17:
.L19:
.LBE815:
.LBE814:
	.loc 1 428 0
	strb	w30, [x8, -2]
	.loc 1 429 0
	lsr	x6, x6, 48
.LVL18:
	lsr	x5, x5, 48
.LVL19:
.LBB816:
.LBB809:
	.loc 1 162 0
	mov	w30, 0
	.loc 1 161 0
	cmp	w6, w5
	beq	.L24
	.loc 1 159 0
	eor	w22, w6, w5
.LVL20:
	.loc 1 172 0
	ubfiz	w23, w6, 8, 8
	.loc 1 173 0
	and	w6, w6, 65280
	.loc 1 172 0
	add	w23, w23, w5, uxtb
	.loc 1 164 0
	tst	x22, 15
	.loc 1 173 0
	add	w5, w6, w5, lsr 8
	.loc 1 164 0
	csel	w6, wzr, w9, eq
	.loc 1 166 0
	tst	w22, 240
	orr	w24, w6, 12
.LVL21:
	.loc 1 172 0
	ldrb	w23, [x7, w23, sxtw]
	.loc 1 166 0
	csel	w6, w24, w6, ne
	.loc 1 168 0
	tst	w22, 3840
	orr	w24, w6, 48
	.loc 1 173 0
	ldrb	w30, [x7, w5, sxtw]
	.loc 1 168 0
	csel	w6, w24, w6, ne
	.loc 1 170 0
	tst	w22, 61440
	orr	w5, w6, -64
	and	w5, w5, 255
	.loc 1 172 0
	orr	w30, w23, w30, lsl 4
	.loc 1 170 0
	csel	w6, w5, w6, ne
	.loc 1 172 0
	and	w6, w30, w6
	and	w30, w6, 255
.LVL22:
.L24:
.LBE809:
.LBE816:
	.loc 1 429 0
	strb	w30, [x8, -1]
	add	x19, x19, 1
	.loc 1 430 0
	str	x21, [x20, -8]
	add	x8, x8, 4
	add	x20, x20, 8
	.loc 1 413 0
	cmp	w10, w19
	ble	.L74
.LVL23:
.L65:
	.loc 1 414 0
	ldr	x5, [x1, x19, lsl 3]
	.loc 1 415 0
	ldr	x6, [x2, x19, lsl 3]
	.loc 1 416 0
	cmp	x5, x6
	bne	.L75
	.loc 1 433 0
	str	wzr, [x8, -4]
	add	x19, x19, 1
	add	x8, x8, 4
	add	x20, x20, 8
	.loc 1 413 0
	cmp	w10, w19
	bgt	.L65
.L74:
	add	x3, x3, x15
.LVL24:
	add	x2, x2, x15
.LVL25:
	add	x1, x1, x15
.LVL26:
.L5:
	.loc 1 407 0 discriminator 2
	add	w14, w14, 1
	cmp	w17, w14
	bne	.L31
	.loc 1 441 0
	ldp	x19, x20, [sp, 16]
	ldp	x21, x22, [sp, 32]
.LVL27:
	ldp	x23, x24, [sp, 48]
.LVL28:
	ldr	x25, [sp, 64]
	ldp	x29, x30, [sp], 80
	.cfi_remember_state
	.cfi_restore 30
	.cfi_restore 29
	.cfi_restore 25
	.cfi_restore 23
	.cfi_restore 24
	.cfi_restore 21
	.cfi_restore 22
	.cfi_restore 19
	.cfi_restore 20
	.cfi_def_cfa 31, 0
	ret
.LVL29:
	.p2align 3
.L73:
	.cfi_restore_state
	.loc 1 423 0
	str	x5, [x2, x19, lsl 3]
	.loc 1 422 0
	mov	x21, 0
	b	.L8
.LVL30:
	.p2align 3
.L3:
	.loc 1 411 0
	ldr	w8, [x16, 76]
	mul	w8, w14, w8
	lsr	w8, w8, 2
	add	x8, x0, x8
.LVL31:
	b	.L6
.LVL32:
.L69:
	.cfi_def_cfa 31, 0
	.cfi_restore 19
	.cfi_restore 20
	.cfi_restore 21
	.cfi_restore 22
	.cfi_restore 23
	.cfi_restore 24
	.cfi_restore 25
	.cfi_restore 29
	.cfi_restore 30
	ret
	.cfi_endproc
.LFE2811:
	.size	get_auto_image, .-get_auto_image
	.align	2
	.p2align 3,,7
	.type	ebc_open, %function
ebc_open:
.LFB2828:
	.loc 1 1400 0
	.cfi_startproc
.LVL33:
	.loc 1 1404 0
	mov	w0, 0
.LVL34:
	.loc 1 1401 0
	str	xzr, [x1, 104]
	.loc 1 1404 0
	ret
	.cfi_endproc
.LFE2828:
	.size	ebc_open, .-ebc_open
	.section	.exit.text,"ax",@progbits
	.align	2
	.type	ebc_exit, %function
ebc_exit:
.LFB2847:
	.loc 1 1952 0
	.cfi_startproc
	stp	x29, x30, [sp, -16]!
	.cfi_def_cfa_offset 16
	.cfi_offset 29, -16
	.cfi_offset 30, -8
	.loc 1 1953 0
	adrp	x0, .LANCHOR1
	add	x0, x0, :lo12:.LANCHOR1
	.loc 1 1952 0
	add	x29, sp, 0
	.cfi_def_cfa_register 29
	.loc 1 1953 0
	bl	platform_driver_unregister
.LVL35:
	.loc 1 1954 0
	ldp	x29, x30, [sp], 16
	.cfi_restore 30
	.cfi_restore 29
	.cfi_def_cfa 31, 0
	ret
	.cfi_endproc
.LFE2847:
	.size	ebc_exit, .-ebc_exit
	.text
	.align	2
	.p2align 3,,7
	.type	ebc_resume, %function
ebc_resume:
.LFB2845:
	.loc 1 1914 0
	.cfi_startproc
.LVL36:
	stp	x29, x30, [sp, -32]!
	.cfi_def_cfa_offset 32
	.cfi_offset 29, -32
	.cfi_offset 30, -24
	add	x29, sp, 0
	.cfi_def_cfa_register 29
	str	x19, [sp, 16]
	.cfi_offset 19, -16
.LBB817:
.LBB818:
	.file 2 "./include/linux/device.h"
	.loc 2 1181 0
	ldr	x19, [x0, 184]
.LBE818:
.LBE817:
	.loc 1 1918 0
	ldr	x1, [x19, 16]
.LBB819:
.LBB820:
	.file 3 "drivers/gpu/drm/rockchip/ebc-dev/pmic/ebc_pmic.h"
	.loc 3 45 0
	mov	x0, x1
.LVL37:
	ldr	x1, [x1, 48]
	blr	x1
.LVL38:
.LBE820:
.LBE819:
	.loc 1 1919 0
	str	wzr, [x19, 772]
	.loc 1 1920 0
	ldr	x0, [x19, 264]
	adrp	x1, .LC0
	add	x1, x1, :lo12:.LC0
	bl	_dev_info
.LVL39:
	.loc 1 1923 0
	ldr	x19, [sp, 16]
	mov	w0, 0
	ldp	x29, x30, [sp], 32
	.cfi_restore 30
	.cfi_restore 29
	.cfi_restore 19
	.cfi_def_cfa 31, 0
	ret
	.cfi_endproc
.LFE2845:
	.size	ebc_resume, .-ebc_resume
	.align	2
	.p2align 3,,7
	.type	ebc_vdd_power_timeout, %function
ebc_vdd_power_timeout:
.LFB2823:
	.loc 1 1160 0
	.cfi_startproc
.LVL40:
	.loc 1 1161 0
	adrp	x0, .LANCHOR0
.LVL41:
	ldr	x0, [x0, #:lo12:.LANCHOR0]
	.loc 1 1163 0
	ldr	w2, [x0, 600]
	cbnz	w2, .L90
	ret
	.p2align 3
.L90:
	.loc 1 1160 0
	stp	x29, x30, [sp, -16]!
	.cfi_def_cfa_offset 16
	.cfi_offset 29, -16
	.cfi_offset 30, -8
.LBB821:
.LBB822:
	.file 4 "./include/linux/wakelock.h"
	.loc 4 68 0
	add	x0, x0, 392
.LBE822:
.LBE821:
	.loc 1 1160 0
	add	x29, sp, 0
	.cfi_def_cfa_register 29
	.loc 1 1164 0
	str	wzr, [x0, 208]
.LBB824:
.LBB823:
	.loc 4 68 0
	bl	__pm_relax
.LVL42:
.LBE823:
.LBE824:
	.loc 1 1169 0
	ldp	x29, x30, [sp], 16
	.cfi_restore 30
	.cfi_restore 29
	.cfi_def_cfa 31, 0
	ret
	.cfi_endproc
.LFE2823:
	.size	ebc_vdd_power_timeout, .-ebc_vdd_power_timeout
	.align	2
	.p2align 3,,7
	.type	ebc_remove, %function
ebc_remove:
.LFB2843:
	.loc 1 1890 0
	.cfi_startproc
.LVL43:
	stp	x29, x30, [sp, -16]!
	.cfi_def_cfa_offset 16
	.cfi_offset 29, -16
	.cfi_offset 30, -8
	.loc 1 1891 0
	adrp	x0, .LANCHOR1
.LVL44:
	add	x0, x0, :lo12:.LANCHOR1
	.loc 1 1890 0
	add	x29, sp, 0
	.cfi_def_cfa_register 29
	.loc 1 1891 0
	add	x0, x0, 224
	.loc 1 1890 0
	.loc 1 1891 0
	bl	misc_deregister
.LVL45:
	.loc 1 1894 0
	mov	w0, 0
	ldp	x29, x30, [sp], 16
	.cfi_restore 30
	.cfi_restore 29
	.cfi_def_cfa 31, 0
	ret
	.cfi_endproc
.LFE2843:
	.size	ebc_remove, .-ebc_remove
	.align	2
	.p2align 3,,7
	.type	ebc_mmap, %function
ebc_mmap:
.LFB2827:
	.loc 1 1384 0
	.cfi_startproc
.LVL46:
	stp	x29, x30, [sp, -32]!
	.cfi_def_cfa_offset 32
	.cfi_offset 29, -32
	.cfi_offset 30, -24
	add	x29, sp, 0
	.cfi_def_cfa_register 29
	str	x19, [sp, 16]
	.cfi_offset 19, -16
	.loc 1 1384 0
	mov	x19, x1
	.loc 1 1387 0
	bl	ebc_phy_buf_base_get
.LVL47:
	.loc 1 1391 0
	lsr	x2, x0, 12
	.loc 1 1388 0
	mov	x7, -29
	.loc 1 1389 0
	mov	x6, 16384
	ldp	x4, x5, [x19, 72]
	.loc 1 1388 0
	movk	x7, 0xff9f, lsl 48
	.loc 1 1391 0
	ldp	x1, x3, [x19]
	.loc 1 1389 0
	movk	x6, 0x404, lsl 16
	.loc 1 1388 0
	and	x4, x4, x7
	.loc 1 1389 0
	orr	x5, x5, x6
	.loc 1 1388 0
	orr	x4, x4, 27021597764222976
	.loc 1 1389 0
	stp	x4, x5, [x19, 72]
	.loc 1 1391 0
	sub	x3, x3, x1
	mov	x0, x19
	bl	remap_pfn_range
.LVL48:
	.loc 1 1394 0
	cmp	w0, 0
	mov	w1, -11
	.loc 1 1397 0
	ldr	x19, [sp, 16]
.LVL49:
	csel	w0, w0, w1, eq
	ldp	x29, x30, [sp], 32
	.cfi_restore 30
	.cfi_restore 29
	.cfi_restore 19
	.cfi_def_cfa 31, 0
	ret
	.cfi_endproc
.LFE2827:
	.size	ebc_mmap, .-ebc_mmap
	.align	2
	.p2align 3,,7
	.type	ebc_io_ctl, %function
ebc_io_ctl:
.LFB2826:
	.loc 1 1239 0
	.cfi_startproc
.LVL50:
	stp	x29, x30, [sp, -160]!
	.cfi_def_cfa_offset 160
	.cfi_offset 29, -160
	.cfi_offset 30, -152
	.loc 1 1249 0
	cmp	w1, 28672
	.loc 1 1239 0
	add	x29, sp, 0
	.cfi_def_cfa_register 29
	stp	x19, x20, [sp, 16]
	.cfi_offset 19, -144
	.cfi_offset 20, -136
	adrp	x19, __stack_chk_guard
	stp	x21, x22, [sp, 32]
	add	x0, x19, :lo12:__stack_chk_guard
.LVL51:
	str	x23, [sp, 48]
	.cfi_offset 21, -128
	.cfi_offset 22, -120
	.cfi_offset 23, -112
	.loc 1 1239 0
	mov	x21, x2
	ldr	x3, [x0]
	str	x3, [x29, 152]
	mov	x3,0
	.loc 1 1241 0
	adrp	x0, .LANCHOR0
	ldr	x20, [x0, #:lo12:.LANCHOR0]
	.loc 1 1249 0
	bcc	.L98
	mov	w0, 28675
	cmp	w1, w0
	bls	.L99
	mov	w0, -28678
	add	w0, w1, w0
	cmp	w0, 1
	bls	.L99
.L98:
	.loc 1 1265 0
	mov	w0, 28675
	cmp	w1, w0
	beq	.L102
	bls	.L176
	mov	w0, 28677
	cmp	w1, w0
	beq	.L107
	bcc	.L108
	mov	w0, 28678
	cmp	w1, w0
	beq	.L109
	mov	w0, 28679
	cmp	w1, w0
	bne	.L101
.LBB825:
.LBB826:
.LBB827:
.LBB828:
.LBB829:
.LBB830:
.LBB831:
	.file 5 "./arch/arm64/include/asm/current.h"
	.loc 5 19 0
#APP
// 19 "./arch/arm64/include/asm/current.h" 1
	mrs x0, sp_el0
// 0 "" 2
.LVL52:
#NO_APP
.LBE831:
.LBE830:
	.file 6 "./arch/arm64/include/asm/uaccess.h"
	.loc 6 85 0
	ldr	w2, [x0, 52]
	.loc 6 77 0
	ldr	x1, [x0, 8]
.LVL53:
	.loc 6 84 0
	tbnz	x2, 21, .L133
.LBB832:
.LBB833:
.LBB834:
	.file 7 "./include/asm-generic/bitops/non-atomic.h"
	.loc 7 106 0
	ldr	x2, [x0]
.LBE834:
.LBE833:
.LBE832:
.LBE829:
.LBE828:
.LBE827:
.LBE826:
.LBE825:
	.loc 1 1240 0
	mov	x0, x21
.LVL54:
.LBB854:
.LBB852:
.LBB850:
.LBB840:
.LBB838:
	.loc 6 84 0
	tbnz	x2, 26, .L133
.L134:
.LVL55:
	.loc 6 89 0
#APP
// 89 "./arch/arm64/include/asm/uaccess.h" 1
		adds	x0, x0, 44
	csel	x1, xzr, x1, hi
	csinv	x0, x0, xzr, cc
	sbcs	xzr, x0, x1
	cset	x0, ls

// 0 "" 2
.LVL56:
#NO_APP
.LBE838:
.LBE840:
	.file 8 "./include/linux/uaccess.h"
	.loc 8 114 0
	cbz	x0, .L175
.LBB841:
.LBB842:
.LBB843:
.LBB844:
.LBB845:
	.file 9 "./include/linux/bitops.h"
	.loc 9 157 0
	sbfx	x0, x21, 0, 56
.LVL57:
.LBE845:
.LBE844:
.LBE843:
.LBB846:
.LBB847:
	.loc 5 19 0
#APP
// 19 "./arch/arm64/include/asm/current.h" 1
	mrs x1, sp_el0
// 0 "" 2
.LVL58:
#NO_APP
.LBE847:
.LBE846:
.LBB848:
	.loc 6 254 0
	and	x0, x0, x21
.LVL59:
.LBE848:
	.loc 6 249 0
	ldr	x2, [x1, 8]
#APP
// 249 "./arch/arm64/include/asm/uaccess.h" 1
		bics	xzr, x0, x2
	csel	x1, x21, xzr, eq

// 0 "" 2
.LVL60:
	.loc 6 257 0
// 257 "./arch/arm64/include/asm/uaccess.h" 1
	hint #20
// 0 "" 2
#NO_APP
.LBE842:
.LBE841:
	.loc 8 116 0
	mov	x2, 44
	add	x0, x29, 104
.LVL61:
	bl	__arch_copy_from_user
.LVL62:
	.loc 8 118 0
	cbnz	x0, .L175
.LBE850:
.LBE852:
.LBE854:
	.loc 1 1330 0
	bl	ebc_osd_buf_clone
.LVL63:
	mov	x1, x0
	.loc 1 1331 0
	cbz	x0, .L174
	.loc 1 1332 0
	ldr	w6, [x29, 108]
	.loc 1 1341 0
	add	x20, x20, 176
	.loc 1 1336 0
	ldp	w5, w3, [x29, 124]
	.loc 1 1332 0
	str	w6, [x1, 40]
	.loc 1 1337 0
	ldp	w4, w2, [x29, 132]
	.loc 1 1336 0
	stp	w5, w3, [x1, 48]
	.loc 1 1337 0
	stp	w4, w2, [x1, 56]
	.loc 1 1339 0
	bl	ebc_add_to_dsp_buf_list
.LVL64:
	.loc 1 1341 0
	ldr	w0, [x20, 80]
	cbz	w0, .L177
.LVL65:
	.p2align 2
.L174:
	.loc 1 1362 0
	mov	x0, 0
.LVL66:
.L97:
	.loc 1 1381 0
	add	x19, x19, :lo12:__stack_chk_guard
	ldr	x2, [x29, 152]
	ldr	x1, [x19]
	eor	x1, x2, x1
.LVL67:
	cbnz	x1, .L178
	ldp	x19, x20, [sp, 16]
	ldp	x21, x22, [sp, 32]
.LVL68:
	ldr	x23, [sp, 48]
	ldp	x29, x30, [sp], 160
	.cfi_remember_state
	.cfi_restore 30
	.cfi_restore 29
	.cfi_restore 23
	.cfi_restore 21
	.cfi_restore 22
	.cfi_restore 19
	.cfi_restore 20
	.cfi_def_cfa 31, 0
	ret
.LVL69:
	.p2align 3
.L99:
	.cfi_restore_state
	.loc 1 1256 0
	cbnz	x21, .L98
	.loc 1 1257 0
	ldr	x0, [x20, 264]
	adrp	x2, .LANCHOR2
	adrp	x1, .LC1
.LVL70:
	add	x2, x2, :lo12:.LANCHOR2
	add	x1, x1, :lo12:.LC1
	bl	_dev_err
.LVL71:
	.loc 1 1258 0
	mov	x0, -14
	b	.L97
.LVL72:
	.p2align 3
.L176:
	.loc 1 1265 0
	mov	w0, 28673
	cmp	w1, w0
	beq	.L104
	bhi	.L105
	cmp	w1, 28672
	bne	.L101
	.loc 1 1281 0
	bl	ebc_empty_buf_get
.LVL73:
	mov	x23, x0
	.loc 1 1282 0
	cbz	x0, .L116
	.loc 1 1285 0
	ldr	x22, [x0, 8]
	bl	ebc_phy_buf_base_get
.LVL74:
.LBB855:
.LBB856:
.LBB857:
.LBB858:
.LBB859:
.LBB860:
.LBB861:
	.loc 5 19 0
#APP
// 19 "./arch/arm64/include/asm/current.h" 1
	mrs x2, sp_el0
// 0 "" 2
.LVL75:
#NO_APP
.LBE861:
.LBE860:
	.loc 6 85 0
	ldr	w3, [x2, 52]
.LBE859:
.LBE858:
.LBE857:
.LBE856:
.LBE855:
	.loc 1 1285 0
	sub	w0, w22, w0
	.loc 1 1290 0
	ldr	w1, [x20, 168]
	.loc 1 1289 0
	ldp	w5, w4, [x20, 100]
	.loc 1 1288 0
	stp	w4, w5, [x29, 112]
	.loc 1 1290 0
	str	w1, [x29, 120]
	.loc 1 1287 0
	str	w0, [x29, 104]
.LBB890:
.LBB886:
.LBB882:
.LBB871:
.LBB868:
	.loc 6 77 0
	ldr	x1, [x2, 8]
.LVL76:
	.loc 6 84 0
	tbnz	x3, 21, .L117
.LBB862:
.LBB863:
.LBB864:
	.loc 7 106 0
	ldr	x2, [x2]
.LVL77:
.LBE864:
.LBE863:
.LBE862:
.LBE868:
.LBE871:
.LBE882:
.LBE886:
.LBE890:
	.loc 1 1240 0
	mov	x0, x21
.LVL78:
.LBB891:
.LBB887:
.LBB883:
.LBB872:
.LBB869:
	.loc 6 84 0
	tbnz	x2, 26, .L117
.LVL79:
.L118:
	.loc 6 89 0
#APP
// 89 "./arch/arm64/include/asm/uaccess.h" 1
		adds	x0, x0, 44
	csel	x1, xzr, x1, hi
	csinv	x0, x0, xzr, cc
	sbcs	xzr, x0, x1
	cset	x0, ls

// 0 "" 2
.LVL80:
#NO_APP
.LBE869:
.LBE872:
	.loc 8 132 0
	cbnz	x0, .L119
.L120:
.LBE883:
.LBE887:
.LBE891:
	.loc 1 1294 0
	mov	x0, x23
.LVL81:
	bl	ebc_buf_release
.LVL82:
	.loc 1 1295 0
	mov	x0, -14
	b	.L97
.LVL83:
	.p2align 3
.L105:
.LBB892:
.LBB893:
.LBB894:
.LBB895:
.LBB896:
.LBB897:
.LBB898:
	.loc 5 19 0
#APP
// 19 "./arch/arm64/include/asm/current.h" 1
	mrs x2, sp_el0
// 0 "" 2
.LVL84:
#NO_APP
.LBE898:
.LBE897:
	.loc 6 85 0
	ldr	w3, [x2, 52]
.LBE896:
.LBE895:
.LBE894:
.LBE893:
.LBE892:
	.loc 1 1368 0
	ldp	w1, w0, [x20, 108]
.LVL85:
	stp	w1, w0, [x29, 140]
	.loc 1 1365 0
	ldp	w6, w5, [x20, 100]
	.loc 1 1364 0
	stp	w5, w6, [x29, 112]
	.loc 1 1366 0
	ldr	w4, [x20, 168]
	str	w4, [x29, 120]
.LBB927:
.LBB923:
.LBB919:
.LBB908:
.LBB905:
	.loc 6 77 0
	ldr	x1, [x2, 8]
.LVL86:
	.loc 6 84 0
	tbnz	x3, 21, .L140
.LBB899:
.LBB900:
.LBB901:
	.loc 7 106 0
	ldr	x2, [x2]
.LVL87:
.LBE901:
.LBE900:
.LBE899:
.LBE905:
.LBE908:
.LBE919:
.LBE923:
.LBE927:
	.loc 1 1240 0
	mov	x0, x21
.LVL88:
.LBB928:
.LBB924:
.LBB920:
.LBB909:
.LBB906:
	.loc 6 84 0
	tbnz	x2, 26, .L140
.LVL89:
.L141:
	.loc 6 89 0
#APP
// 89 "./arch/arm64/include/asm/uaccess.h" 1
		adds	x0, x0, 44
	csel	x1, xzr, x1, hi
	csinv	x0, x0, xzr, cc
	sbcs	xzr, x0, x1
	cset	x0, ls

// 0 "" 2
.LVL90:
#NO_APP
.LBE906:
.LBE909:
	.loc 8 132 0
	cbnz	x0, .L142
.L143:
.LBE920:
.LBE924:
.LBE928:
	.loc 1 1371 0
	ldr	x0, [x20, 264]
.LVL91:
	adrp	x1, .LC5
.LVL92:
	add	x1, x1, :lo12:.LC5
	bl	_dev_err
.LVL93:
.L175:
	.loc 1 1372 0
	mov	x0, -14
.LVL94:
	b	.L97
.LVL95:
	.p2align 3
.L109:
	.loc 1 1267 0
	bl	ebc_osd_buf_get
.LVL96:
	.loc 1 1268 0
	cbz	x0, .L116
	.loc 1 1271 0
	ldr	x22, [x0, 8]
	bl	ebc_phy_buf_base_get
.LVL97:
.LBB929:
.LBB930:
.LBB931:
.LBB932:
.LBB933:
.LBB934:
.LBB935:
	.loc 5 19 0
#APP
// 19 "./arch/arm64/include/asm/current.h" 1
	mrs x1, sp_el0
// 0 "" 2
.LVL98:
#NO_APP
.LBE935:
.LBE934:
	.loc 6 85 0
	ldr	w2, [x1, 52]
.LBE933:
.LBE932:
.LBE931:
.LBE930:
.LBE929:
	.loc 1 1271 0
	sub	w0, w22, w0
	.loc 1 1275 0
	ldp	w5, w4, [x20, 100]
	.loc 1 1273 0
	str	w0, [x29, 104]
	.loc 1 1276 0
	ldr	w3, [x20, 168]
	.loc 1 1274 0
	stp	w4, w5, [x29, 112]
	.loc 1 1276 0
	str	w3, [x29, 120]
.LBB958:
.LBB956:
.LBB954:
.LBB944:
.LBB942:
	.loc 6 77 0
	ldr	x0, [x1, 8]
.LVL99:
	.loc 6 84 0
	tbnz	x2, 21, .L112
.LBB936:
.LBB937:
.LBB938:
	.loc 7 106 0
	ldr	x2, [x1]
.LBE938:
.LBE937:
.LBE936:
.LBE942:
.LBE944:
.LBE954:
.LBE956:
.LBE958:
	.loc 1 1240 0
	mov	x1, x21
.LVL100:
.LBB959:
.LBB957:
.LBB955:
.LBB945:
.LBB943:
	.loc 6 84 0
	tbz	x2, 26, .L113
.LVL101:
.L112:
.LBB939:
.LBB940:
.LBB941:
	.loc 9 157 0
	sbfx	x1, x21, 0, 56
.LVL102:
.LBE941:
.LBE940:
	.loc 6 86 0
	and	x1, x1, x21
.LVL103:
.L113:
.LBE939:
	.loc 6 89 0
#APP
// 89 "./arch/arm64/include/asm/uaccess.h" 1
		adds	x1, x1, 44
	csel	x0, xzr, x0, hi
	csinv	x1, x1, xzr, cc
	sbcs	xzr, x1, x0
	cset	x1, ls

// 0 "" 2
.LVL104:
#NO_APP
.LBE943:
.LBE945:
	.loc 8 132 0
	mov	x0, 44
.LVL105:
	cbz	x1, .L97
.LBB946:
.LBB947:
.LBB948:
.LBB949:
.LBB950:
	.loc 9 157 0
	sbfx	x1, x21, 0, 56
.LVL106:
.LBE950:
.LBE949:
.LBE948:
.LBB951:
.LBB952:
	.loc 5 19 0
#APP
// 19 "./arch/arm64/include/asm/current.h" 1
	mrs x2, sp_el0
// 0 "" 2
.LVL107:
#NO_APP
.LBE952:
.LBE951:
.LBB953:
	.loc 6 254 0
	and	x1, x1, x21
.LVL108:
.LBE953:
	.loc 6 249 0
	ldr	x2, [x2, 8]
.LVL109:
#APP
// 249 "./arch/arm64/include/asm/uaccess.h" 1
		bics	xzr, x1, x2
	csel	x3, x21, xzr, eq

// 0 "" 2
.LVL110:
	.loc 6 257 0
// 257 "./arch/arm64/include/asm/uaccess.h" 1
	hint #20
// 0 "" 2
#NO_APP
.LBE947:
.LBE946:
	.loc 8 134 0
	mov	x2, x0
	add	x1, x29, 104
.LVL111:
	mov	x0, x3
	bl	__arch_copy_to_user
.LVL112:
	sxtw	x0, w0
	b	.L97
.LVL113:
	.p2align 3
.L140:
.LBE955:
.LBE957:
.LBE959:
.LBB960:
.LBB925:
.LBB921:
.LBB910:
.LBB907:
.LBB902:
.LBB903:
.LBB904:
	.loc 9 157 0
	sbfx	x0, x21, 0, 56
.LVL114:
.LBE904:
.LBE903:
	.loc 6 86 0
	and	x0, x0, x21
.LVL115:
	b	.L141
.LVL116:
	.p2align 3
.L133:
.LBE902:
.LBE907:
.LBE910:
.LBE921:
.LBE925:
.LBE960:
.LBB961:
.LBB853:
.LBB851:
.LBB849:
.LBB839:
.LBB835:
.LBB836:
.LBB837:
	.loc 9 157 0
	sbfx	x0, x21, 0, 56
.LVL117:
.LBE837:
.LBE836:
	.loc 6 86 0
	and	x0, x0, x21
.LVL118:
	b	.L134
.LVL119:
	.p2align 3
.L117:
.LBE835:
.LBE839:
.LBE849:
.LBE851:
.LBE853:
.LBE961:
.LBB962:
.LBB888:
.LBB884:
.LBB873:
.LBB870:
.LBB865:
.LBB866:
.LBB867:
	.loc 9 157 0
	sbfx	x0, x21, 0, 56
.LVL120:
.LBE867:
.LBE866:
	.loc 6 86 0
	and	x0, x0, x21
.LVL121:
	b	.L118
.LVL122:
	.p2align 3
.L102:
.LBE865:
.LBE870:
.LBE873:
.LBE884:
.LBE888:
.LBE962:
.LBB963:
.LBB964:
.LBB965:
.LBB966:
.LBB967:
.LBB968:
.LBB969:
	.loc 5 19 0
#APP
// 19 "./arch/arm64/include/asm/current.h" 1
	mrs x0, sp_el0
// 0 "" 2
.LVL123:
#NO_APP
.LBE969:
.LBE968:
	.loc 6 85 0
	ldr	w2, [x0, 52]
.LBE967:
.LBE966:
.LBE965:
.LBE964:
.LBE963:
	.loc 1 1357 0
	add	x22, x20, 228
.LBB998:
.LBB994:
.LBB990:
.LBB979:
.LBB976:
	.loc 6 77 0
	ldr	x1, [x0, 8]
.LVL124:
	.loc 6 84 0
	tbnz	x2, 21, .L136
.LBB970:
.LBB971:
.LBB972:
	.loc 7 106 0
	ldr	x2, [x0]
.LBE972:
.LBE971:
.LBE970:
.LBE976:
.LBE979:
.LBE990:
.LBE994:
.LBE998:
	.loc 1 1240 0
	mov	x0, x21
.LVL125:
.LBB999:
.LBB995:
.LBB991:
.LBB980:
.LBB977:
	.loc 6 84 0
	tbnz	x2, 26, .L136
.L137:
.LVL126:
	.loc 6 89 0
#APP
// 89 "./arch/arm64/include/asm/uaccess.h" 1
		adds	x0, x0, 4
	csel	x1, xzr, x1, hi
	csinv	x0, x0, xzr, cc
	sbcs	xzr, x0, x1
	cset	x0, ls

// 0 "" 2
.LVL127:
#NO_APP
	mov	x3, x0
.LBE977:
.LBE980:
	.loc 8 114 0
	cbz	x0, .L153
.LBB981:
.LBB982:
.LBB983:
.LBB984:
.LBB985:
	.loc 9 157 0
	sbfx	x0, x21, 0, 56
.LBE985:
.LBE984:
.LBE983:
.LBB986:
.LBB987:
	.loc 5 19 0
#APP
// 19 "./arch/arm64/include/asm/current.h" 1
	mrs x1, sp_el0
// 0 "" 2
.LVL128:
#NO_APP
.LBE987:
.LBE986:
.LBB988:
	.loc 6 254 0
	and	x0, x0, x21
.LVL129:
.LBE988:
	.loc 6 249 0
	ldr	x2, [x1, 8]
#APP
// 249 "./arch/arm64/include/asm/uaccess.h" 1
		bics	xzr, x0, x2
	csel	x1, x21, xzr, eq

// 0 "" 2
.LVL130:
	.loc 6 257 0
// 257 "./arch/arm64/include/asm/uaccess.h" 1
	hint #20
// 0 "" 2
#NO_APP
.LBE982:
.LBE981:
	.loc 8 116 0
	mov	x2, 4
	mov	x0, x22
.LVL131:
	bl	__arch_copy_from_user
.LVL132:
	.loc 8 118 0
	cbnz	x0, .L179
.LBE991:
.LBE995:
.LBE999:
	.loc 1 1361 0
	add	x20, x20, 176
	ldr	w2, [x20, 52]
	ldr	x0, [x20, 88]
.LVL133:
	adrp	x1, .LC7
	add	x1, x1, :lo12:.LC7
	bl	_dev_info
.LVL134:
	b	.L174
.LVL135:
	.p2align 3
.L136:
.LBB1000:
.LBB996:
.LBB992:
.LBB989:
.LBB978:
.LBB973:
.LBB974:
.LBB975:
	.loc 9 157 0
	sbfx	x0, x21, 0, 56
.LVL136:
.LBE975:
.LBE974:
	.loc 6 86 0
	and	x0, x0, x21
.LVL137:
	b	.L137
.LVL138:
	.p2align 3
.L104:
.LBE973:
.LBE978:
.LBE989:
.LBE992:
.LBE996:
.LBE1000:
.LBB1001:
.LBB1002:
.LBB1003:
.LBB1004:
.LBB1005:
.LBB1006:
.LBB1007:
	.loc 5 19 0
#APP
// 19 "./arch/arm64/include/asm/current.h" 1
	mrs x0, sp_el0
// 0 "" 2
.LVL139:
#NO_APP
.LBE1007:
.LBE1006:
	.loc 6 85 0
	ldr	w2, [x0, 52]
	.loc 6 77 0
	ldr	x1, [x0, 8]
.LVL140:
	.loc 6 84 0
	tbnz	x2, 21, .L121
.LBB1008:
.LBB1009:
.LBB1010:
	.loc 7 106 0
	ldr	x2, [x0]
.LBE1010:
.LBE1009:
.LBE1008:
.LBE1005:
.LBE1004:
.LBE1003:
.LBE1002:
.LBE1001:
	.loc 1 1240 0
	mov	x0, x21
.LVL141:
.LBB1030:
.LBB1028:
.LBB1026:
.LBB1016:
.LBB1014:
	.loc 6 84 0
	tbnz	x2, 26, .L121
.L122:
.LVL142:
	.loc 6 89 0
#APP
// 89 "./arch/arm64/include/asm/uaccess.h" 1
		adds	x0, x0, 44
	csel	x1, xzr, x1, hi
	csinv	x0, x0, xzr, cc
	sbcs	xzr, x0, x1
	cset	x0, ls

// 0 "" 2
.LVL143:
#NO_APP
.LBE1014:
.LBE1016:
	.loc 8 114 0
	cbz	x0, .L175
.LBB1017:
.LBB1018:
.LBB1019:
.LBB1020:
.LBB1021:
	.loc 9 157 0
	sbfx	x0, x21, 0, 56
.LVL144:
.LBE1021:
.LBE1020:
.LBE1019:
.LBB1022:
.LBB1023:
	.loc 5 19 0
#APP
// 19 "./arch/arm64/include/asm/current.h" 1
	mrs x1, sp_el0
// 0 "" 2
.LVL145:
#NO_APP
.LBE1023:
.LBE1022:
.LBB1024:
	.loc 6 254 0
	and	x0, x0, x21
.LVL146:
.LBE1024:
	.loc 6 249 0
	ldr	x2, [x1, 8]
#APP
// 249 "./arch/arm64/include/asm/uaccess.h" 1
		bics	xzr, x0, x2
	csel	x1, x21, xzr, eq

// 0 "" 2
.LVL147:
	.loc 6 257 0
// 257 "./arch/arm64/include/asm/uaccess.h" 1
	hint #20
// 0 "" 2
#NO_APP
.LBE1018:
.LBE1017:
	.loc 8 116 0
	mov	x2, 44
	add	x0, x29, 104
.LVL148:
	bl	__arch_copy_from_user
.LVL149:
	.loc 8 118 0
	cbnz	x0, .L175
.LBE1026:
.LBE1028:
.LBE1030:
	.loc 1 1303 0
	bl	ebc_phy_buf_base_get
.LVL150:
	ldrsw	x1, [x29, 104]
	.loc 1 1304 0
	add	x0, x1, x0
	bl	ebc_find_buf_by_phy_addr
.LVL151:
	mov	x21, x0
.LVL152:
	.loc 1 1305 0
	cbz	x0, .L174
	.loc 1 1306 0
	ldr	w5, [x29, 108]
	.loc 1 1315 0
	add	x20, x20, 176
	.loc 1 1310 0
	ldp	w4, w2, [x29, 124]
	.loc 1 1306 0
	str	w5, [x21, 40]
	.loc 1 1311 0
	ldp	w3, w1, [x29, 132]
	.loc 1 1310 0
	stp	w4, w2, [x21, 48]
	.loc 1 1311 0
	stp	w3, w1, [x21, 56]
	.loc 1 1313 0
	bl	ebc_add_to_dsp_buf_list
.LVL153:
	.loc 1 1315 0
	ldr	w0, [x20, 80]
	cbz	w0, .L180
.L126:
	.loc 1 1319 0
	ldr	w0, [x21, 40]
	cmp	w0, 15
	beq	.L181
	.loc 1 1319 0 is_stmt 0 discriminator 3
	cmp	w0, 17
	bne	.L174
.L128:
	.loc 1 1320 0 is_stmt 1
	mov	w0, 1
	str	w0, [x20, 188]
.LBB1031:
.LBB1032:
	.loc 1 1321 0
	mov	w1, 0
	add	x0, x29, 64
	bl	init_wait_entry
.LVL154:
	adrp	x0, .LANCHOR1
.LBB1033:
	add	x0, x0, :lo12:.LANCHOR1
	add	x21, x0, 328
	b	.L132
	.p2align 3
.L182:
.LVL155:
	.loc 1 1321 0 is_stmt 0 discriminator 5
	cbnz	x0, .L174
	.loc 1 1321 0 discriminator 7
	bl	schedule
.LVL156:
.L132:
	.loc 1 1321 0 discriminator 9
	add	x1, x29, 64
	mov	w2, 1
	mov	x0, x21
	bl	prepare_to_wait_event
.LVL157:
	ldr	w1, [x20, 188]
	cbnz	w1, .L182
.L131:
.LBE1033:
	.loc 1 1321 0 discriminator 4
	add	x1, x29, 64
	mov	x0, x21
	bl	finish_wait
.LVL158:
	b	.L174
.LVL159:
	.p2align 3
.L121:
.LBE1032:
.LBE1031:
.LBB1034:
.LBB1029:
.LBB1027:
.LBB1025:
.LBB1015:
.LBB1011:
.LBB1012:
.LBB1013:
	.loc 9 157 0 is_stmt 1
	sbfx	x0, x21, 0, 56
.LVL160:
.LBE1013:
.LBE1012:
	.loc 6 86 0
	and	x0, x0, x21
.LVL161:
	b	.L122
.LVL162:
	.p2align 3
.L101:
.LBE1011:
.LBE1015:
.LBE1025:
.LBE1027:
.LBE1029:
.LBE1034:
	.loc 1 1376 0
	ldr	x0, [x20, 264]
	adrp	x2, .LANCHOR2
	adrp	x1, .LC6
.LVL163:
	add	x2, x2, :lo12:.LANCHOR2
	add	x1, x1, :lo12:.LC6
	bl	_dev_err
.LVL164:
	.loc 1 1377 0
	mov	x0, 0
	.loc 1 1380 0
	b	.L97
.LVL165:
	.p2align 3
.L108:
	.loc 1 1349 0
	ldr	x0, [x20, 264]
	.loc 1 1348 0
	mov	w2, 1
	str	w2, [x20, 780]
	.loc 1 1349 0
	adrp	x1, .LC2
.LVL166:
	add	x1, x1, :lo12:.LC2
	bl	_dev_info
.LVL167:
	.loc 1 1350 0
	mov	x0, 0
	b	.L97
.LVL168:
	.p2align 3
.L107:
	.loc 1 1354 0
	ldr	x0, [x20, 264]
	adrp	x1, .LC3
.LVL169:
	.loc 1 1352 0
	str	wzr, [x20, 780]
	.loc 1 1354 0
	add	x1, x1, :lo12:.LC3
	.loc 1 1353 0
	str	wzr, [x20, 784]
	.loc 1 1354 0
	bl	_dev_info
.LVL170:
	.loc 1 1355 0
	mov	x0, 0
	b	.L97
	.p2align 3
.L177:
	.loc 1 1342 0
	mov	w2, 1
	str	w2, [x20, 80]
	.loc 1 1343 0
	adrp	x0, .LANCHOR1
	add	x0, x0, :lo12:.LANCHOR1
	add	x0, x0, 304
	mov	w1, w2
	bl	__wake_up_sync
.LVL171:
	mov	x0, 0
	b	.L97
.LVL172:
	.p2align 3
.L180:
	.loc 1 1316 0
	mov	w2, 1
	str	w2, [x20, 80]
	.loc 1 1317 0
	adrp	x0, .LANCHOR1
	add	x0, x0, :lo12:.LANCHOR1
	mov	w1, w2
	add	x0, x0, 304
	bl	__wake_up_sync
.LVL173:
	b	.L126
.LVL174:
	.p2align 3
.L142:
.LBB1035:
.LBB926:
.LBB922:
.LBB911:
.LBB912:
.LBB913:
.LBB914:
.LBB915:
	.loc 9 157 0
	sbfx	x1, x21, 0, 56
.LVL175:
.LBE915:
.LBE914:
.LBE913:
.LBB916:
.LBB917:
	.loc 5 19 0
#APP
// 19 "./arch/arm64/include/asm/current.h" 1
	mrs x0, sp_el0
// 0 "" 2
.LVL176:
#NO_APP
.LBE917:
.LBE916:
.LBB918:
	.loc 6 254 0
	and	x1, x1, x21
.LVL177:
.LBE918:
	.loc 6 249 0
	ldr	x2, [x0, 8]
.LVL178:
#APP
// 249 "./arch/arm64/include/asm/uaccess.h" 1
		bics	xzr, x1, x2
	csel	x0, x21, xzr, eq

// 0 "" 2
.LVL179:
	.loc 6 257 0
// 257 "./arch/arm64/include/asm/uaccess.h" 1
	hint #20
// 0 "" 2
#NO_APP
.LBE912:
.LBE911:
	.loc 8 134 0
	mov	x2, 44
	add	x1, x29, 104
.LVL180:
	bl	__arch_copy_to_user
.LVL181:
.LBE922:
.LBE926:
.LBE1035:
	.loc 1 1370 0
	cbz	x0, .L174
	b	.L143
.LVL182:
	.p2align 3
.L119:
.LBB1036:
.LBB889:
.LBB885:
.LBB874:
.LBB875:
.LBB876:
.LBB877:
.LBB878:
	.loc 9 157 0
	sbfx	x1, x21, 0, 56
.LVL183:
.LBE878:
.LBE877:
.LBE876:
.LBB879:
.LBB880:
	.loc 5 19 0
#APP
// 19 "./arch/arm64/include/asm/current.h" 1
	mrs x0, sp_el0
// 0 "" 2
.LVL184:
#NO_APP
.LBE880:
.LBE879:
.LBB881:
	.loc 6 254 0
	and	x1, x1, x21
.LVL185:
.LBE881:
	.loc 6 249 0
	ldr	x2, [x0, 8]
.LVL186:
#APP
// 249 "./arch/arm64/include/asm/uaccess.h" 1
		bics	xzr, x1, x2
	csel	x0, x21, xzr, eq

// 0 "" 2
.LVL187:
	.loc 6 257 0
// 257 "./arch/arm64/include/asm/uaccess.h" 1
	hint #20
// 0 "" 2
#NO_APP
.LBE875:
.LBE874:
	.loc 8 134 0
	mov	x2, 44
	add	x1, x29, 104
.LVL188:
	bl	__arch_copy_to_user
.LVL189:
.LBE885:
.LBE889:
.LBE1036:
	.loc 1 1293 0
	cbz	w0, .L174
	b	.L120
.LVL190:
	.p2align 3
.L181:
	.loc 1 1319 0 discriminator 1
	ldr	w0, [x20, 592]
	cbz	w0, .L128
	b	.L174
.LVL191:
.L153:
.LBB1037:
.LBB997:
.LBB993:
	.loc 8 112 0
	mov	x0, 4
.LVL192:
.L138:
	.loc 8 119 0
	mov	x2, x0
	mov	w1, 0
.LVL193:
	add	x0, x22, x3
.LVL194:
	bl	memset
.LVL195:
.LBE993:
.LBE997:
.LBE1037:
	.loc 1 1358 0
	ldr	x0, [x20, 264]
	adrp	x1, .LC4
	add	x1, x1, :lo12:.LC4
	bl	_dev_err
.LVL196:
	.loc 1 1359 0
	mov	x0, -14
	b	.L97
.L116:
	.loc 1 1269 0
	mov	x0, -1
	b	.L97
.L178:
	.loc 1 1381 0
	bl	__stack_chk_fail
.LVL197:
.L179:
	mov	x3, 4
	sub	x3, x3, x0
.LVL198:
	b	.L138
	.cfi_endproc
.LFE2826:
	.size	ebc_io_ctl, .-ebc_io_ctl
	.align	2
	.p2align 3,,7
	.type	frame_done_callback, %function
frame_done_callback:
.LFB2818:
	.loc 1 712 0
	.cfi_startproc
	stp	x29, x30, [sp, -48]!
	.cfi_def_cfa_offset 48
	.cfi_offset 29, -48
	.cfi_offset 30, -40
	.loc 1 713 0
	adrp	x0, .LANCHOR0
	add	x1, x0, :lo12:.LANCHOR0
	.loc 1 712 0
	add	x29, sp, 0
	.cfi_def_cfa_register 29
	stp	x19, x20, [sp, 16]
	.cfi_offset 19, -32
	.cfi_offset 20, -24
	.loc 1 713 0
	ldr	x20, [x0, #:lo12:.LANCHOR0]
	.loc 1 712 0
	str	x21, [sp, 32]
	.cfi_offset 21, -16
	.loc 1 715 0
	add	x19, x20, 176
	ldr	x0, [x19, 208]
	ldr	w0, [x0, 40]
	cmp	w0, 1
	bhi	.L184
	.loc 1 718 0
	ldr	w0, [x19, 40]
	cbz	w0, .L186
	.loc 1 719 0
	ldr	x0, [x1, 8]
	bl	wake_up_process
.LVL199:
	.loc 1 745 0
	ldr	x21, [sp, 32]
	ldp	x19, x20, [sp, 16]
	ldp	x29, x30, [sp], 48
	.cfi_remember_state
	.cfi_restore 20
	.cfi_restore 19
	.cfi_restore 21
	.cfi_restore 29
	.cfi_restore 30
	.cfi_def_cfa 31, 0
	ret
	.p2align 3
.L184:
	.cfi_restore_state
	.loc 1 733 0
	ldr	w0, [x19, 44]
	cbnz	w0, .L190
	.loc 1 739 0
	ldr	x0, [x19, 88]
	.loc 1 738 0
	mov	w20, 1
	.loc 1 737 0
	str	wzr, [x19, 28]
	.loc 1 739 0
	adrp	x1, .LC9
	.loc 1 738 0
	str	w20, [x19, 76]
	.loc 1 739 0
	add	x1, x1, :lo12:.LC9
	.loc 1 740 0
	adrp	x19, .LANCHOR1
	add	x19, x19, :lo12:.LANCHOR1
	.loc 1 739 0
	bl	_dev_info
.LVL200:
	.loc 1 740 0
	mov	w2, w20
	add	x0, x19, 352
	mov	w1, w20
	bl	__wake_up_sync
.LVL201:
	.loc 1 741 0
	mov	w2, w20
	mov	w1, w20
	add	x0, x19, 304
	bl	__wake_up_sync
.LVL202:
	.loc 1 745 0
	ldp	x19, x20, [sp, 16]
	ldr	x21, [sp, 32]
	ldp	x29, x30, [sp], 48
	.cfi_remember_state
	.cfi_restore 30
	.cfi_restore 29
	.cfi_restore 21
	.cfi_restore 19
	.cfi_restore 20
	.cfi_def_cfa 31, 0
	ret
	.p2align 3
.L186:
	.cfi_restore_state
	.loc 1 722 0
	ldr	x0, [x19, 88]
	adrp	x1, .LC8
	add	x1, x1, :lo12:.LC8
	.loc 1 727 0
	mov	w21, 1
	.loc 1 722 0
	bl	_dev_info
.LVL203:
	.loc 1 724 0
	ldrsw	x2, [x19, 20]
	mov	w1, 0
	ldr	x0, [x19, 152]
	bl	memset
.LVL204:
	.loc 1 725 0
	adrp	x2, jiffies
	add	x0, x20, 664
	mov	x1, 402653184
	ldr	x2, [x2, #:lo12:jiffies]
	add	x1, x2, x1
	bl	mod_timer
.LVL205:
	.loc 1 727 0
	str	w21, [x19, 76]
	.loc 1 726 0
	str	wzr, [x19, 28]
	.loc 1 728 0
	adrp	x19, .LANCHOR1
	add	x19, x19, :lo12:.LANCHOR1
	mov	w2, w21
	mov	w1, w21
	add	x0, x19, 352
	bl	__wake_up_sync
.LVL206:
	.loc 1 729 0
	mov	w2, w21
	mov	w1, w21
	add	x0, x19, 304
	bl	__wake_up_sync
.LVL207:
	.loc 1 745 0
	ldp	x19, x20, [sp, 16]
	ldr	x21, [sp, 32]
	ldp	x29, x30, [sp], 48
	.cfi_remember_state
	.cfi_restore 20
	.cfi_restore 19
	.cfi_restore 21
	.cfi_restore 29
	.cfi_restore 30
	.cfi_def_cfa 31, 0
	ret
	.p2align 3
.L190:
	.cfi_restore_state
	.loc 1 735 0
	ldr	x0, [x1, 8]
	.loc 1 734 0
	mov	w1, 1
	str	w1, [x19, 28]
	.loc 1 735 0
	bl	wake_up_process
.LVL208:
	.loc 1 745 0
	ldr	x21, [sp, 32]
	ldp	x19, x20, [sp, 16]
	ldp	x29, x30, [sp], 48
	.cfi_restore 20
	.cfi_restore 19
	.cfi_restore 21
	.cfi_restore 29
	.cfi_restore 30
	.cfi_def_cfa 31, 0
	ret
	.cfi_endproc
.LFE2818:
	.size	frame_done_callback, .-frame_done_callback
	.align	2
	.p2align 3,,7
	.type	ebc_frame_timeout, %function
ebc_frame_timeout:
.LFB2824:
	.loc 1 1172 0
	.cfi_startproc
.LVL209:
	stp	x29, x30, [sp, -16]!
	.cfi_def_cfa_offset 16
	.cfi_offset 29, -16
	.cfi_offset 30, -8
	add	x29, sp, 0
	.cfi_def_cfa_register 29
	.loc 1 1173 0
	bl	frame_done_callback
.LVL210:
	.loc 1 1175 0
	ldp	x29, x30, [sp], 16
	.cfi_restore 30
	.cfi_restore 29
	.cfi_def_cfa 31, 0
	ret
	.cfi_endproc
.LFE2824:
	.size	ebc_frame_timeout, .-ebc_frame_timeout
	.align	2
	.p2align 3,,7
	.type	ebc_lut_update, %function
ebc_lut_update:
.LFB2819:
	.loc 1 748 0
	.cfi_startproc
.LVL211:
	stp	x29, x30, [sp, -64]!
	.cfi_def_cfa_offset 64
	.cfi_offset 29, -64
	.cfi_offset 30, -56
	add	x29, sp, 0
	.cfi_def_cfa_register 29
	stp	x19, x20, [sp, 16]
	.cfi_offset 19, -48
	.cfi_offset 20, -40
	adrp	x20, __stack_chk_guard
	stp	x21, x22, [sp, 32]
	.cfi_offset 21, -32
	.cfi_offset 22, -24
	.loc 1 748 0
	mov	x22, x0
	add	x0, x20, :lo12:__stack_chk_guard
.LVL212:
.LBB1044:
.LBB1045:
	.loc 3 50 0
	add	x1, x29, 52
.LBE1045:
.LBE1044:
	.loc 1 748 0
	ldr	x2, [x0]
	str	x2, [x29, 56]
	mov	x2,0
	add	x19, x22, 176
	.loc 1 756 0
	ldr	x2, [x22, 16]
.LBB1047:
.LBB1046:
	.loc 3 50 0
	mov	x0, x2
	ldr	x2, [x2, 56]
	blr	x2
.LVL213:
.LBE1046:
.LBE1047:
	.loc 1 757 0
	ldr	w2, [x29, 52]
	cmp	w2, 50
	bls	.L194
	.loc 1 758 0
	ldr	x0, [x19, 88]
	adrp	x1, .LC10
	add	x1, x1, :lo12:.LC10
	bl	_dev_err
.LVL214:
	.loc 1 759 0
	mov	w0, 25
	mov	w2, w0
	str	w0, [x29, 52]
.L194:
	.loc 1 761 0
	ldr	x0, [x19, 88]
	adrp	x1, .LC11
	add	x1, x1, :lo12:.LC11
	bl	_dev_info
.LVL215:
	.loc 1 764 0
	ldr	x0, [x19, 208]
	ldr	w1, [x0, 40]
	cmp	w1, 17
	bhi	.L195
	adrp	x0, .L197
	.loc 1 766 0
	add	x21, x22, 272
	.loc 1 764 0
	add	x0, x0, :lo12:.L197
	.loc 1 766 0
	ldr	w2, [x29, 52]
	.loc 1 764 0
	ldrb	w0, [x0,w1,uxtw]
	adr	x1, .Lrtx197
	add	x0, x1, w0, sxtb #2
	br	x0
.Lrtx197:
	.section	.rodata
	.align	0
	.align	2
.L197:
	.byte	(.L196 - .Lrtx197) / 4
	.byte	(.L196 - .Lrtx197) / 4
	.byte	(.L226 - .Lrtx197) / 4
	.byte	(.L199 - .Lrtx197) / 4
	.byte	(.L200 - .Lrtx197) / 4
	.byte	(.L201 - .Lrtx197) / 4
	.byte	(.L202 - .Lrtx197) / 4
	.byte	(.L226 - .Lrtx197) / 4
	.byte	(.L199 - .Lrtx197) / 4
	.byte	(.L200 - .Lrtx197) / 4
	.byte	(.L201 - .Lrtx197) / 4
	.byte	(.L202 - .Lrtx197) / 4
	.byte	(.L203 - .Lrtx197) / 4
	.byte	(.L204 - .Lrtx197) / 4
	.byte	(.L205 - .Lrtx197) / 4
	.byte	(.L226 - .Lrtx197) / 4
	.byte	(.L226 - .Lrtx197) / 4
	.byte	(.L226 - .Lrtx197) / 4
	.text
.L195:
	.loc 1 811 0
	ldr	w2, [x29, 52]
	add	x21, x22, 272
.L226:
	mov	w1, 7
	mov	x0, x21
	bl	epd_lut_get
.LVL216:
	cbz	w0, .L207
.L206:
	.loc 1 817 0
	ldr	x0, [x19, 88]
	adrp	x1, .LC12
	add	x1, x1, :lo12:.LC12
	bl	_dev_err
.LVL217:
	.loc 1 818 0
	mov	w0, -1
.LVL218:
.L193:
	.loc 1 828 0
	add	x20, x20, :lo12:__stack_chk_guard
	ldr	x2, [x29, 56]
	ldr	x1, [x20]
	eor	x1, x2, x1
	cbnz	x1, .L228
	ldp	x19, x20, [sp, 16]
	ldp	x21, x22, [sp, 32]
.LVL219:
	ldp	x29, x30, [sp], 64
	.cfi_remember_state
	.cfi_restore 30
	.cfi_restore 29
	.cfi_restore 21
	.cfi_restore 22
	.cfi_restore 19
	.cfi_restore 20
	.cfi_def_cfa 31, 0
	ret
.LVL220:
.L204:
	.cfi_restore_state
	.loc 1 787 0
	mov	w1, 4
	mov	x0, x21
	bl	epd_lut_get
.LVL221:
	cbnz	w0, .L206
.L207:
	.loc 1 821 0
	ldr	x1, [x19, 208]
	adrp	x12, .LANCHOR1
	add	x0, x12, :lo12:.LANCHOR1
	ldr	w3, [x1, 40]
	ldr	w1, [x0, 380]
	cmp	w3, w1
	beq	.L229
.L214:
.LBB1048:
.LBB1049:
	.loc 1 134 0
	ldrb	w0, [x22, 272]
.LVL222:
	.loc 1 136 0
	cbz	w0, .L209
	lsl	w14, w0, 16
	mov	w13, 0
	mov	x15, 0
.LVL223:
.L213:
.LBB1050:
	.loc 1 137 0
	ldr	x11, [x21, 8]
.LVL224:
	mov	w9, w13
	.loc 1 138 0
	mov	w10, 0
	.loc 1 137 0
	add	x11, x11, x15
.LVL225:
	.p2align 2
.L210:
	ubfiz	x8, x10, 2, 4
	lsr	w7, w10, 4
	add	x8, x11, x8
	add	x7, x11, x7, lsl 2
.LBE1050:
	.loc 1 136 0
	mov	w1, 0
	.p2align 2
.L211:
.LBB1053:
.LBB1051:
	.loc 1 141 0
	lsr	w3, w1, 3
	ldr	w0, [x7]
.LVL226:
	.loc 1 140 0
	ldr	w2, [x8]
	.loc 1 141 0
	and	w3, w3, 30
	.loc 1 142 0
	ldr	x4, [x21, 16]
	add	w5, w1, w9
	.loc 1 140 0
	ubfiz	w6, w1, 1, 4
	.loc 1 141 0
	lsr	w0, w0, w3
	.loc 1 142 0
	ubfiz	w0, w0, 2, 2
.LBE1051:
	.loc 1 139 0
	add	w1, w1, 1
.LBB1052:
	.loc 1 140 0
	lsr	w2, w2, w6
	and	w2, w2, 3
	.loc 1 142 0
	orr	w0, w0, w2
	strb	w0, [x4, w5, uxtw]
.LBE1052:
	.loc 1 139 0
	cmp	w1, 256
	bne	.L211
	.loc 1 138 0
	add	w10, w10, 1
	add	w9, w9, 256
	cmp	w10, 256
	bne	.L210
	add	w13, w13, 65536
	add	x15, x15, 64
.LBE1053:
	.loc 1 136 0
	cmp	w14, w13
	bne	.L213
	ldr	x0, [x19, 208]
	ldr	w3, [x0, 40]
.LVL227:
.L209:
.LBE1049:
.LBE1048:
	.loc 1 823 0
	add	x12, x12, :lo12:.LANCHOR1
	.loc 1 824 0
	ldr	w1, [x29, 52]
.LVL228:
	.loc 1 827 0
	mov	w0, 0
.LVL229:
	.loc 1 824 0
	str	w1, [x12, 376]
	.loc 1 823 0
	str	w3, [x12, 380]
	b	.L193
.LVL230:
.L229:
	.loc 1 821 0 discriminator 1
	ldr	w2, [x0, 376]
	mov	w0, 21846
	ldr	w1, [x29, 52]
	movk	w0, 0x5555, lsl 16
	smull	x4, w2, w0
	smull	x0, w1, w0
	lsr	x4, x4, 32
	lsr	x0, x0, 32
	sub	w2, w4, w2, asr 31
	sub	w0, w0, w1, asr 31
	cmp	w2, w0
	bne	.L214
	.loc 1 827 0
	mov	w0, 0
	b	.L193
.LVL231:
.L228:
	.loc 1 828 0
	bl	__stack_chk_fail
.LVL232:
.L203:
	.loc 1 783 0
	mov	w1, 6
	mov	x0, x21
	bl	epd_lut_get
.LVL233:
	cbnz	w0, .L206
	b	.L207
.L202:
	.loc 1 807 0
	mov	w1, 11
	mov	x0, x21
	bl	epd_lut_get
.LVL234:
	cbnz	w0, .L206
	b	.L207
.L199:
	.loc 1 792 0
	mov	w1, 8
	mov	x0, x21
	bl	epd_lut_get
.LVL235:
	cbnz	w0, .L206
	b	.L207
.L201:
	.loc 1 802 0
	mov	w1, 10
	mov	x0, x21
	bl	epd_lut_get
.LVL236:
	cbnz	w0, .L206
	b	.L207
.L200:
	.loc 1 797 0
	mov	w1, 9
	mov	x0, x21
	bl	epd_lut_get
.LVL237:
	cbnz	w0, .L206
	b	.L207
.L196:
	.loc 1 779 0
	mov	w1, 5
	mov	x0, x21
	bl	epd_lut_get
.LVL238:
	cbnz	w0, .L206
	b	.L207
.L205:
	.loc 1 766 0
	mov	w1, 1
	mov	x0, x21
	bl	epd_lut_get
.LVL239:
	cbnz	w0, .L206
	b	.L207
	.cfi_endproc
.LFE2819:
	.size	ebc_lut_update, .-ebc_lut_update
	.align	2
	.p2align 3,,7
	.type	ebc_state_read, %function
ebc_state_read:
.LFB2835:
	.loc 1 1506 0
	.cfi_startproc
.LVL240:
	stp	x29, x30, [sp, -16]!
	.cfi_def_cfa_offset 16
	.cfi_offset 29, -16
	.cfi_offset 30, -8
	.loc 1 1507 0
	adrp	x3, .LANCHOR0
	.loc 1 1506 0
	mov	x0, x2
.LVL241:
	.loc 1 1507 0
	adrp	x1, .LC13
.LVL242:
	.loc 1 1506 0
	add	x29, sp, 0
	.cfi_def_cfa_register 29
	.loc 1 1507 0
	ldr	x2, [x3, #:lo12:.LANCHOR0]
.LVL243:
	add	x1, x1, :lo12:.LC13
	ldr	w2, [x2, 600]
	bl	sprintf
.LVL244:
	.loc 1 1508 0
	sxtw	x0, w0
	ldp	x29, x30, [sp], 16
	.cfi_restore 30
	.cfi_restore 29
	.cfi_def_cfa 31, 0
	ret
	.cfi_endproc
.LFE2835:
	.size	ebc_state_read, .-ebc_state_read
	.align	2
	.p2align 3,,7
	.type	ebc_version_read, %function
ebc_version_read:
.LFB2834:
	.loc 1 1497 0
	.cfi_startproc
.LVL245:
	stp	x29, x30, [sp, -16]!
	.cfi_def_cfa_offset 16
	.cfi_offset 29, -16
	.cfi_offset 30, -8
	mov	x0, x2
.LVL246:
	.loc 1 1498 0
	adrp	x1, .LC15
.LVL247:
	adrp	x2, .LC14
.LVL248:
	.loc 1 1497 0
	add	x29, sp, 0
	.cfi_def_cfa_register 29
	.loc 1 1498 0
	add	x2, x2, :lo12:.LC14
	.loc 1 1497 0
	.loc 1 1498 0
	add	x1, x1, :lo12:.LC15
	bl	sprintf
.LVL249:
	.loc 1 1499 0
	sxtw	x0, w0
	ldp	x29, x30, [sp], 16
	.cfi_restore 30
	.cfi_restore 29
	.cfi_def_cfa 31, 0
	ret
	.cfi_endproc
.LFE2834:
	.size	ebc_version_read, .-ebc_version_read
	.align	2
	.p2align 3,,7
	.type	pmic_vcom_read, %function
pmic_vcom_read:
.LFB2832:
	.loc 1 1461 0
	.cfi_startproc
.LVL250:
	stp	x29, x30, [sp, -32]!
	.cfi_def_cfa_offset 32
	.cfi_offset 29, -32
	.cfi_offset 30, -24
	.loc 1 1462 0
	adrp	x0, .LANCHOR0
.LVL251:
	.loc 1 1461 0
	add	x29, sp, 0
	.cfi_def_cfa_register 29
	.loc 1 1465 0
	ldr	x0, [x0, #:lo12:.LANCHOR0]
	.loc 1 1461 0
	str	x19, [sp, 16]
	.cfi_offset 19, -16
	.loc 1 1461 0
	mov	x19, x2
	.loc 1 1465 0
	ldr	x1, [x0, 16]
.LVL252:
.LBB1054:
.LBB1055:
	.loc 3 55 0
	mov	x0, x1
	ldr	x1, [x1, 64]
	blr	x1
.LVL253:
.LBE1055:
.LBE1054:
	.loc 1 1467 0
	mov	w2, w0
	adrp	x1, .LC13
	mov	x0, x19
	add	x1, x1, :lo12:.LC13
	bl	sprintf
.LVL254:
	.loc 1 1468 0
	sxtw	x0, w0
	ldr	x19, [sp, 16]
.LVL255:
	ldp	x29, x30, [sp], 32
	.cfi_restore 30
	.cfi_restore 29
	.cfi_restore 19
	.cfi_def_cfa 31, 0
	ret
	.cfi_endproc
.LFE2832:
	.size	pmic_vcom_read, .-pmic_vcom_read
	.align	2
	.p2align 3,,7
	.type	pmic_temp_read, %function
pmic_temp_read:
.LFB2831:
	.loc 1 1447 0
	.cfi_startproc
.LVL256:
	stp	x29, x30, [sp, -48]!
	.cfi_def_cfa_offset 48
	.cfi_offset 29, -48
	.cfi_offset 30, -40
	.loc 1 1448 0
	adrp	x0, .LANCHOR0
.LVL257:
	.loc 1 1447 0
	add	x29, sp, 0
	.cfi_def_cfa_register 29
	.loc 1 1451 0
	ldr	x0, [x0, #:lo12:.LANCHOR0]
.LBB1056:
.LBB1057:
	.loc 3 50 0
	add	x1, x29, 36
.LVL258:
.LBE1057:
.LBE1056:
	.loc 1 1447 0
	stp	x19, x20, [sp, 16]
	.cfi_offset 19, -32
	.cfi_offset 20, -24
	.loc 1 1447 0
	adrp	x19, __stack_chk_guard
	add	x19, x19, :lo12:__stack_chk_guard
	mov	x20, x2
	ldr	x2, [x19]
	str	x2, [x29, 40]
	mov	x2,0
.LVL259:
	.loc 1 1451 0
	ldr	x2, [x0, 16]
.LBB1059:
.LBB1058:
	.loc 3 50 0
	mov	x0, x2
	ldr	x2, [x2, 56]
	blr	x2
.LVL260:
.LBE1058:
.LBE1059:
	.loc 1 1453 0
	ldr	w2, [x29, 36]
	adrp	x1, .LC13
	mov	x0, x20
	add	x1, x1, :lo12:.LC13
	bl	sprintf
.LVL261:
	.loc 1 1454 0
	ldr	x2, [x29, 40]
	ldr	x1, [x19]
	eor	x1, x2, x1
	cbnz	x1, .L239
	ldp	x19, x20, [sp, 16]
.LVL262:
	sxtw	x0, w0
	ldp	x29, x30, [sp], 48
	.cfi_remember_state
	.cfi_restore 30
	.cfi_restore 29
	.cfi_restore 19
	.cfi_restore 20
	.cfi_def_cfa 31, 0
	ret
.LVL263:
.L239:
	.cfi_restore_state
	bl	__stack_chk_fail
.LVL264:
	.cfi_endproc
.LFE2831:
	.size	pmic_temp_read, .-pmic_temp_read
	.align	2
	.p2align 3,,7
	.type	pmic_name_read, %function
pmic_name_read:
.LFB2830:
	.loc 1 1436 0
	.cfi_startproc
.LVL265:
	stp	x29, x30, [sp, -16]!
	.cfi_def_cfa_offset 16
	.cfi_offset 29, -16
	.cfi_offset 30, -8
	.loc 1 1437 0
	adrp	x3, .LANCHOR0
	.loc 1 1436 0
	mov	x0, x2
.LVL266:
	.loc 1 1439 0
	adrp	x1, .LC15
.LVL267:
	.loc 1 1436 0
	add	x29, sp, 0
	.cfi_def_cfa_register 29
	.loc 1 1439 0
	ldr	x2, [x3, #:lo12:.LANCHOR0]
.LVL268:
	add	x1, x1, :lo12:.LC15
	ldr	x2, [x2, 16]
	add	x2, x2, 8
	bl	sprintf
.LVL269:
	.loc 1 1440 0
	sxtw	x0, w0
	ldp	x29, x30, [sp], 16
	.cfi_restore 30
	.cfi_restore 29
	.cfi_def_cfa 31, 0
	ret
	.cfi_endproc
.LFE2830:
	.size	pmic_name_read, .-pmic_name_read
	.align	2
	.p2align 3,,7
	.type	pmic_vcom_write, %function
pmic_vcom_write:
.LFB2833:
	.loc 1 1473 0
	.cfi_startproc
.LVL270:
	stp	x29, x30, [sp, -64]!
	.cfi_def_cfa_offset 64
	.cfi_offset 29, -64
	.cfi_offset 30, -56
	.loc 1 1474 0
	adrp	x0, .LANCHOR0
.LVL271:
	.loc 1 1473 0
	add	x29, sp, 0
	.cfi_def_cfa_register 29
	stp	x19, x20, [sp, 16]
	.cfi_offset 19, -48
	.cfi_offset 20, -40
	adrp	x19, __stack_chk_guard
	stp	x21, x22, [sp, 32]
	.cfi_offset 21, -32
	.cfi_offset 22, -24
	.loc 1 1473 0
	add	x1, x19, :lo12:__stack_chk_guard
.LVL272:
	mov	x21, x2
	.loc 1 1474 0
	ldr	x22, [x0, #:lo12:.LANCHOR0]
.LVL273:
	.loc 1 1473 0
	ldr	x2, [x1]
	str	x2, [x29, 56]
	mov	x2,0
.LVL274:
	mov	x20, x3
	.loc 1 1477 0
	add	x2, x29, 52
	mov	w1, 0
	mov	x0, x21
	bl	kstrtouint
.LVL275:
	.loc 1 1478 0
	cbnz	w0, .L249
.LVL276:
	.loc 1 1482 0
	ldr	w1, [x29, 52]
	ldr	x0, [x22, 16]
	bl	ebc_pmic_set_vcom
.LVL277:
	.loc 1 1483 0
	cbnz	w0, .L250
.L242:
	.loc 1 1489 0
	add	x19, x19, :lo12:__stack_chk_guard
	mov	x0, x20
.LVL278:
	ldr	x2, [x29, 56]
	ldr	x1, [x19]
	eor	x1, x2, x1
	cbnz	x1, .L251
	ldp	x19, x20, [sp, 16]
	ldp	x21, x22, [sp, 32]
.LVL279:
	ldp	x29, x30, [sp], 64
	.cfi_remember_state
	.cfi_restore 30
	.cfi_restore 29
	.cfi_restore 21
	.cfi_restore 22
	.cfi_restore 19
	.cfi_restore 20
	.cfi_def_cfa 31, 0
	ret
.LVL280:
	.p2align 3
.L249:
	.cfi_restore_state
	.loc 1 1479 0
	ldr	x0, [x22]
	adrp	x1, .LC16
	mov	x2, x21
	add	x1, x1, :lo12:.LC16
	.loc 1 1480 0
	mov	x20, -1
.LVL281:
	.loc 1 1479 0
	bl	_dev_err
.LVL282:
	.loc 1 1480 0
	b	.L242
.LVL283:
	.p2align 3
.L250:
	.loc 1 1484 0
	ldr	x0, [x22]
	adrp	x1, .LC17
	.loc 1 1485 0
	mov	x20, -1
.LVL284:
	.loc 1 1484 0
	add	x1, x1, :lo12:.LC17
	bl	_dev_err
.LVL285:
	.loc 1 1485 0
	b	.L242
.L251:
	.loc 1 1489 0
	bl	__stack_chk_fail
.LVL286:
	.cfi_endproc
.LFE2833:
	.size	pmic_vcom_write, .-pmic_vcom_write
	.align	2
	.p2align 3,,7
	.type	waveform_version_read, %function
waveform_version_read:
.LFB2829:
	.loc 1 1425 0
	.cfi_startproc
.LVL287:
	stp	x29, x30, [sp, -32]!
	.cfi_def_cfa_offset 32
	.cfi_offset 29, -32
	.cfi_offset 30, -24
	add	x29, sp, 0
	.cfi_def_cfa_register 29
	str	x19, [sp, 16]
	.cfi_offset 19, -16
	.loc 1 1425 0
	mov	x19, x2
	.loc 1 1426 0
	bl	epd_lut_get_wf_version
.LVL288:
	.loc 1 1428 0
	mov	x2, x0
	adrp	x1, .LC15
	mov	x0, x19
	add	x1, x1, :lo12:.LC15
	bl	sprintf
.LVL289:
	.loc 1 1429 0
	sxtw	x0, w0
	ldr	x19, [sp, 16]
.LVL290:
	ldp	x29, x30, [sp], 32
	.cfi_restore 30
	.cfi_restore 29
	.cfi_restore 19
	.cfi_def_cfa 31, 0
	ret
	.cfi_endproc
.LFE2829:
	.size	waveform_version_read, .-waveform_version_read
	.section	.init.text,"ax",@progbits
	.align	2
	.type	ebc_init, %function
ebc_init:
.LFB2846:
	.loc 1 1947 0
	.cfi_startproc
	stp	x29, x30, [sp, -16]!
	.cfi_def_cfa_offset 16
	.cfi_offset 29, -16
	.cfi_offset 30, -8
	.loc 1 1948 0
	mov	x1, 0
	adrp	x0, .LANCHOR1
	add	x0, x0, :lo12:.LANCHOR1
	.loc 1 1947 0
	add	x29, sp, 0
	.cfi_def_cfa_register 29
	.loc 1 1948 0
	bl	__platform_driver_register
.LVL291:
	.loc 1 1949 0
	ldp	x29, x30, [sp], 16
	.cfi_restore 30
	.cfi_restore 29
	.cfi_def_cfa 31, 0
	ret
	.cfi_endproc
.LFE2846:
	.size	ebc_init, .-ebc_init
	.text
	.align	2
	.p2align 3,,7
	.type	flip.isra.0, %function
flip.isra.0:
.LFB2848:
	.loc 1 574 0
	.cfi_startproc
.LVL292:
	stp	x29, x30, [sp, -32]!
	.cfi_def_cfa_offset 32
	.cfi_offset 29, -32
	.cfi_offset 30, -24
	.loc 1 578 0
	sxtw	x2, w1
	.loc 1 574 0
	add	x29, sp, 0
	.cfi_def_cfa_register 29
	stp	x19, x20, [sp, 16]
	.cfi_offset 19, -16
	.cfi_offset 20, -8
	.loc 1 574 0
	mov	x20, x0
	.loc 1 576 0
	ldr	w19, [x0, 72]
	.loc 1 578 0
	ldr	x0, [x0]
.LVL293:
.LBB1060:
.LBB1061:
.LBB1062:
.LBB1063:
	.file 10 "./include/linux/dma-mapping.h"
	.loc 10 266 0
	cbz	x0, .L259
	ldr	x3, [x0, 648]
	.loc 10 268 0
	adrp	x4, dummy_dma_ops
	add	x4, x4, :lo12:dummy_dma_ops
	cmp	x3, 0
	csel	x3, x4, x3, eq
.L257:
.LBE1063:
.LBE1062:
	.loc 10 434 0
	ldr	x5, [x3, 88]
	sxtw	x19, w19
	cbz	x5, .L258
.LBE1061:
.LBE1060:
	.loc 1 578 0
	add	x4, x19, x19, lsl 1
.LBB1069:
.LBB1066:
	.loc 10 435 0
	mov	w3, 1
.LBE1066:
.LBE1069:
	.loc 1 578 0
	add	x4, x20, x4, lsl 3
.LBB1070:
.LBB1067:
	.loc 10 435 0
	ldr	x1, [x4, 32]
	blr	x5
.LVL294:
.L258:
.LBE1067:
.LBE1070:
	.loc 1 579 0
	ldr	x5, [x20, 8]
.LBB1071:
.LBB1072:
	.file 11 "drivers/gpu/drm/rockchip/ebc-dev/tcon/ebc_tcon.h"
	.loc 11 57 0
	mov	w4, 0
	mov	w3, 0
	mov	w2, 0
	mov	x0, x5
	mov	w1, 0
.LBE1072:
.LBE1071:
	.loc 1 580 0
	add	x19, x19, x19, lsl 1
.LBB1075:
.LBB1073:
	.loc 11 57 0
	ldr	x5, [x5, 64]
.LBE1073:
.LBE1075:
	.loc 1 580 0
	add	x19, x20, x19, lsl 3
.LBB1076:
.LBB1074:
	.loc 11 57 0
	blr	x5
.LVL295:
.LBE1074:
.LBE1076:
	.loc 1 580 0
	ldr	x1, [x20, 8]
.LBB1077:
.LBB1078:
	.loc 11 62 0
	mov	w2, 0
	mov	x0, x1
	ldr	x3, [x1, 72]
	ldr	w1, [x19, 32]
	blr	x3
.LVL296:
.LBE1078:
.LBE1077:
	.loc 1 581 0
	ldr	x2, [x20, 8]
.LBB1079:
.LBB1080:
	.loc 11 77 0
	mov	w1, 1
	mov	x0, x2
	ldr	x2, [x2, 96]
	blr	x2
.LVL297:
.LBE1080:
.LBE1079:
	.loc 1 582 0
	ldr	w1, [x20, 72]
	mov	w0, 1
	sub	w0, w0, w1
	str	w0, [x20, 72]
	.loc 1 583 0
	ldp	x19, x20, [sp, 16]
.LVL298:
	ldp	x29, x30, [sp], 32
	.cfi_remember_state
	.cfi_restore 30
	.cfi_restore 29
	.cfi_restore 19
	.cfi_restore 20
	.cfi_def_cfa 31, 0
	ret
.LVL299:
	.p2align 3
.L259:
	.cfi_restore_state
.LBB1081:
.LBB1068:
.LBB1065:
.LBB1064:
	.loc 10 268 0
	adrp	x3, dummy_dma_ops
	add	x3, x3, :lo12:dummy_dma_ops
	b	.L257
.LBE1064:
.LBE1065:
.LBE1068:
.LBE1081:
	.cfi_endproc
.LFE2848:
	.size	flip.isra.0, .-flip.isra.0
	.align	2
	.p2align 3,,7
	.type	ebc_power_set.part.1, %function
ebc_power_set.part.1:
.LFB2849:
	.loc 1 202 0
	.cfi_startproc
.LVL300:
	stp	x29, x30, [sp, -48]!
	.cfi_def_cfa_offset 48
	.cfi_offset 29, -48
	.cfi_offset 30, -40
	add	x29, sp, 0
	.cfi_def_cfa_register 29
	stp	x19, x20, [sp, 16]
	.cfi_offset 19, -32
	.cfi_offset 20, -24
	.loc 1 208 0
	add	x20, x0, 176
	.loc 1 202 0
	str	x21, [sp, 32]
	.cfi_offset 21, -16
	.loc 1 202 0
	mov	x19, x0
	mov	w21, w1
	.loc 1 207 0
	mov	x0, 1
.LVL301:
	bl	ebc_notify
.LVL302:
	.loc 1 208 0
	ldr	w0, [x20, 424]
	cbnz	w0, .L265
	.loc 1 209 0
	mov	w0, 1
	str	w0, [x20, 424]
.LBB1082:
.LBB1083:
	.loc 4 58 0
	add	x0, x19, 392
	bl	__pm_stay_awake
.LVL303:
.L265:
.LBE1083:
.LBE1082:
	.loc 1 212 0
	str	w21, [x20, 184]
.LBB1084:
.LBB1085:
	.loc 11 46 0
	add	x1, x19, 24
.LBE1085:
.LBE1084:
	.loc 1 213 0
	ldr	x2, [x19, 8]
.LBB1087:
.LBB1086:
	.loc 11 46 0
	mov	x0, x2
	ldr	x2, [x2, 48]
	blr	x2
.LVL304:
.LBE1086:
.LBE1087:
	.loc 1 214 0
	ldr	x2, [x19, 16]
.LBB1088:
.LBB1089:
	.loc 3 30 0
	mov	w1, 1
	mov	x0, x2
	ldr	x2, [x2, 32]
	blr	x2
.LVL305:
.LBE1089:
.LBE1088:
	.loc 1 215 0
	ldr	x0, [x19]
	adrp	x1, .LC18
	add	x1, x1, :lo12:.LC18
	bl	_dev_info
.LVL306:
	.loc 1 230 0
	ldr	x21, [sp, 32]
.LVL307:
	ldp	x19, x20, [sp, 16]
.LVL308:
	ldp	x29, x30, [sp], 48
	.cfi_restore 30
	.cfi_restore 29
	.cfi_restore 21
	.cfi_restore 19
	.cfi_restore 20
	.cfi_def_cfa 31, 0
	ret
	.cfi_endproc
.LFE2849:
	.size	ebc_power_set.part.1, .-ebc_power_set.part.1
	.align	2
	.p2align 3,,7
	.type	direct_mode_data_change_part.isra.4, %function
direct_mode_data_change_part.isra.4:
.LFB2852:
	.loc 1 505 0
	.cfi_startproc
.LVL309:
	stp	x29, x30, [sp, -128]!
	.cfi_def_cfa_offset 128
	.cfi_offset 29, -128
	.cfi_offset 30, -120
	.loc 1 509 0
	adrp	x6, .LANCHOR0
	.loc 1 505 0
	and	w3, w3, 255
	add	x29, sp, 0
	.cfi_def_cfa_register 29
	stp	x27, x28, [sp, 80]
	.loc 1 515 0
	sub	w3, w3, w4
.LVL310:
	.cfi_offset 27, -48
	.cfi_offset 28, -40
	.loc 1 509 0
	ldr	x27, [x6, #:lo12:.LANCHOR0]
	.loc 1 516 0
	lsl	w3, w3, 16
.LVL311:
	.loc 1 505 0
	stp	x19, x20, [sp, 16]
	.cfi_offset 19, -112
	.cfi_offset 20, -104
	.loc 1 516 0
	add	x20, x5, x3, sxtw
.LVL312:
	.loc 1 517 0
	add	x27, x27, 24
	.loc 1 505 0
	stp	x21, x22, [sp, 32]
	stp	x23, x24, [sp, 48]
	stp	x25, x26, [sp, 64]
	.cfi_offset 21, -96
	.cfi_offset 22, -88
	.cfi_offset 23, -80
	.cfi_offset 24, -72
	.cfi_offset 25, -64
	.cfi_offset 26, -56
	.loc 1 521 0
	ldp	w3, w7, [x27, 76]
	.loc 1 517 0
	ldr	w8, [x27, 148]
.LVL313:
	.loc 1 532 0
	cmp	w7, 0
	ble	.L267
	lsr	w25, w3, 4
.LVL314:
	and	w4, w3, 15
	sub	w5, w25, #1
	mov	x6, x0
	add	x5, x5, 1
	mov	x23, x2
.LVL315:
	mov	x22, x1
.LVL316:
	mov	w26, 0
.LVL317:
	lsl	x28, x5, 3
	lsl	x19, x5, 2
.LBB1090:
.LBB1091:
	.loc 1 158 0
	mov	w21, 3
.LBE1091:
.LBE1090:
	.loc 1 533 0
	cbz	w8, .L270
.LVL318:
	.p2align 2
.L342:
	.loc 1 534 0
	ldr	w24, [x27, 80]
.LVL319:
	sub	w24, w24, #1
	sub	w24, w24, w26
	mul	w24, w24, w3
	lsr	w24, w24, 2
	add	x24, x6, x24
.LVL320:
.L271:
	.loc 1 538 0
	cbz	w25, .L272
	add	x9, x24, 4
	mov	x10, 0
.LVL321:
	.p2align 2
.L295:
	.loc 1 539 0
	ldr	x1, [x22, x10, lsl 3]
.LVL322:
	.loc 1 540 0
	ldr	x2, [x23, x10, lsl 3]
.LVL323:
	.loc 1 541 0
	cmp	x1, x2
	beq	.L273
	.loc 1 542 0
	and	w11, w2, 65535
	and	w3, w1, 65535
.LVL324:
.LBB1093:
.LBB1094:
	.loc 1 162 0
	mov	w0, 0
	.loc 1 161 0
	cmp	w11, w3
	beq	.L274
	.loc 1 159 0
	eor	w12, w11, w3
.LVL325:
	.loc 1 172 0
	ubfiz	w13, w11, 8, 8
	.loc 1 173 0
	and	w11, w11, 65280
	.loc 1 172 0
	add	w13, w13, w3, uxtb
	.loc 1 158 0
	tst	x12, 15
	.loc 1 173 0
	add	w3, w11, w3, lsr 8
	.loc 1 158 0
	csel	w0, w21, wzr, ne
	.loc 1 166 0
	tst	w12, 240
	orr	w11, w0, 12
	.loc 1 172 0
	ldrb	w13, [x20, w13, sxtw]
	.loc 1 166 0
	csel	w0, w11, w0, ne
	.loc 1 168 0
	tst	w12, 3840
	orr	w11, w0, 48
	.loc 1 173 0
	ldrb	w3, [x20, w3, sxtw]
	.loc 1 168 0
	csel	w0, w11, w0, ne
	.loc 1 170 0
	tst	w12, 61440
	orr	w11, w0, -64
	and	w11, w11, 255
	.loc 1 172 0
	orr	w3, w13, w3, lsl 4
	.loc 1 170 0
	csel	w0, w11, w0, ne
	.loc 1 172 0
	and	w0, w3, w0
	and	w0, w0, 255
.LVL326:
.L274:
.LBE1094:
.LBE1093:
	.loc 1 542 0
	strb	w0, [x9, -4]
	.loc 1 543 0
	lsr	w11, w2, 16
	lsr	w0, w1, 16
.LBB1095:
.LBB1096:
	.loc 1 162 0
	mov	w3, 0
	.loc 1 161 0
	cmp	w11, w0
	beq	.L279
	.loc 1 159 0
	eor	w12, w11, w0
.LVL327:
	.loc 1 172 0
	ubfiz	w13, w11, 8, 8
	.loc 1 173 0
	and	w11, w11, 65280
	.loc 1 172 0
	add	w13, w13, w0, uxtb
	.loc 1 158 0
	tst	x12, 15
	.loc 1 173 0
	add	w0, w11, w0, lsr 8
	.loc 1 158 0
	csel	w3, w21, wzr, ne
	.loc 1 166 0
	tst	w12, 240
	orr	w11, w3, 12
	.loc 1 172 0
	ldrb	w13, [x20, w13, sxtw]
	.loc 1 166 0
	csel	w3, w11, w3, ne
	.loc 1 168 0
	tst	w12, 3840
	orr	w11, w3, 48
	.loc 1 173 0
	ldrb	w0, [x20, w0, sxtw]
	.loc 1 168 0
	csel	w3, w11, w3, ne
	.loc 1 170 0
	tst	w12, 61440
	orr	w11, w3, -64
	and	w11, w11, 255
	.loc 1 172 0
	orr	w0, w13, w0, lsl 4
	.loc 1 170 0
	csel	w3, w11, w3, ne
	.loc 1 172 0
	and	w3, w0, w3
	and	w3, w3, 255
.LVL328:
.L279:
.LBE1096:
.LBE1095:
	.loc 1 543 0
	strb	w3, [x9, -3]
	.loc 1 544 0
	ubfx	x11, x2, 32, 16
	ubfx	x0, x1, 32, 16
.LBB1097:
.LBB1098:
	.loc 1 162 0
	mov	w3, 0
	.loc 1 161 0
	cmp	w11, w0
	beq	.L284
	.loc 1 159 0
	eor	w12, w11, w0
.LVL329:
	.loc 1 172 0
	ubfiz	w13, w11, 8, 8
	.loc 1 173 0
	and	w11, w11, 65280
	.loc 1 172 0
	add	w13, w13, w0, uxtb
	.loc 1 158 0
	tst	x12, 15
	.loc 1 173 0
	add	w0, w11, w0, lsr 8
	.loc 1 158 0
	csel	w3, w21, wzr, ne
	.loc 1 166 0
	tst	w12, 240
	orr	w11, w3, 12
	.loc 1 172 0
	ldrb	w13, [x20, w13, sxtw]
	.loc 1 166 0
	csel	w3, w11, w3, ne
	.loc 1 168 0
	tst	w12, 3840
	orr	w11, w3, 48
	.loc 1 173 0
	ldrb	w0, [x20, w0, sxtw]
	.loc 1 168 0
	csel	w3, w11, w3, ne
	.loc 1 170 0
	tst	w12, 61440
	orr	w11, w3, -64
	and	w11, w11, 255
	.loc 1 172 0
	orr	w0, w13, w0, lsl 4
	.loc 1 170 0
	csel	w3, w11, w3, ne
	.loc 1 172 0
	and	w3, w0, w3
	and	w3, w3, 255
.LVL330:
.L284:
.LBE1098:
.LBE1097:
	.loc 1 544 0
	strb	w3, [x9, -2]
	.loc 1 545 0
	lsr	x2, x2, 48
.LVL331:
	lsr	x1, x1, 48
.LVL332:
.LBB1099:
.LBB1092:
	.loc 1 162 0
	mov	w0, 0
	.loc 1 161 0
	cmp	w2, w1
	beq	.L289
	.loc 1 159 0
	eor	w3, w2, w1
.LVL333:
	.loc 1 172 0
	ubfiz	w0, w2, 8, 8
	.loc 1 173 0
	and	w2, w2, 65280
	.loc 1 172 0
	add	w0, w0, w1, uxtb
	.loc 1 158 0
	tst	x3, 15
	.loc 1 173 0
	add	w1, w2, w1, lsr 8
	.loc 1 158 0
	csel	w2, w21, wzr, ne
	.loc 1 166 0
	tst	w3, 240
	orr	w12, w2, 12
.LVL334:
	.loc 1 172 0
	ldrb	w11, [x20, w0, sxtw]
	.loc 1 166 0
	csel	w2, w12, w2, ne
	.loc 1 168 0
	tst	w3, 3840
	orr	w12, w2, 48
	.loc 1 173 0
	ldrb	w0, [x20, w1, sxtw]
	.loc 1 168 0
	csel	w2, w12, w2, ne
	.loc 1 170 0
	tst	w3, 61440
	orr	w1, w2, -64
	and	w1, w1, 255
	.loc 1 172 0
	orr	w0, w11, w0, lsl 4
	.loc 1 170 0
	csel	w2, w1, w2, ne
	.loc 1 172 0
	and	w2, w0, w2
	and	w0, w2, 255
.LVL335:
.L289:
.LBE1092:
.LBE1099:
	.loc 1 545 0
	strb	w0, [x9, -1]
.LVL336:
.L294:
	add	x10, x10, 1
	add	x9, x9, 4
	.loc 1 538 0
	cmp	w25, w10
	bgt	.L295
	add	x22, x22, x28
	add	x23, x23, x28
	add	x24, x24, x19
.LVL337:
.L272:
	.loc 1 557 0
	cbnz	w4, .L341
	.loc 1 532 0
	add	w26, w26, 1
	cmp	w7, w26
	beq	.L267
.LVL338:
.L344:
	ldr	w3, [x27, 76]
.LVL339:
	.loc 1 533 0
	cbnz	w8, .L342
.L270:
	.loc 1 536 0
	mul	w24, w26, w3
.LVL340:
	lsr	w24, w24, 2
	add	x24, x6, x24
.LVL341:
	b	.L271
.LVL342:
	.p2align 3
.L273:
	.loc 1 548 0
	str	wzr, [x9, -4]
	b	.L294
.LVL343:
.L341:
.LBB1100:
	.loc 1 561 0
	mov	w2, w4
.LVL344:
	str	x6, [x29, 104]
	stp	w7, w8, [x29, 116]
	mov	w1, w25
.LVL345:
	str	w4, [x29, 124]
	adrp	x0, .LC19
	add	x0, x0, :lo12:.LC19
	bl	printk
.LVL346:
	.loc 1 563 0
	ldr	w4, [x29, 124]
	mov	x3, x22
.LVL347:
	ldp	w7, w8, [x29, 116]
	cmp	w4, 0
	add	w9, w4, 3
	ldr	x6, [x29, 104]
.LVL348:
	csel	w9, w9, w4, lt
	mov	x4, x23
.LVL349:
	asr	w9, w9, 2
	sxtw	x9, w9
	add	x9, x9, 1
	add	x9, x24, x9
	add	x24, x24, 1
.LVL350:
	.loc 1 564 0
	cmp	x24, x9
	beq	.L343
	.p2align 2
.L300:
	.loc 1 565 0
	ldrh	w0, [x4]
	ldrh	w1, [x3]
.LBB1101:
.LBB1102:
	.loc 1 153 0
	and	w2, w0, 65280
.LBE1102:
.LBE1101:
	.loc 1 565 0
	cmp	w1, w0
.LBB1107:
.LBB1103:
	.loc 1 152 0
	ubfiz	w0, w0, 8, 8
	.loc 1 153 0
	add	w2, w2, w1, lsr 8
	.loc 1 152 0
	add	w0, w0, w1, uxtb
.LBE1103:
.LBE1107:
	.loc 1 565 0
	beq	.L298
.LBB1108:
.LBB1104:
	.loc 1 153 0
	ldrb	w1, [x20, w2, sxtw]
.LBE1104:
.LBE1108:
	.loc 1 566 0
	add	x4, x4, 2
.LBB1109:
.LBB1105:
	.loc 1 152 0
	ldrb	w0, [x20, w0, sxtw]
.LBE1105:
.LBE1109:
	.loc 1 566 0
	add	x3, x3, 2
	add	x24, x24, 1
.LBB1110:
.LBB1106:
	.loc 1 152 0
	orr	w0, w0, w1, lsl 4
.LBE1106:
.LBE1110:
	.loc 1 566 0
	strb	w0, [x24, -2]
.L345:
	.loc 1 564 0
	cmp	x24, x9
	bne	.L300
.L343:
.LBE1100:
	.loc 1 532 0
	add	w26, w26, 1
.LBB1111:
	.loc 1 564 0
	mov	w4, -1
.LVL351:
.LBE1111:
	.loc 1 532 0
	cmp	w7, w26
	bne	.L344
.LVL352:
.L267:
	.loc 1 572 0
	ldp	x19, x20, [sp, 16]
.LVL353:
	ldp	x21, x22, [sp, 32]
.LVL354:
	ldp	x23, x24, [sp, 48]
.LVL355:
	ldp	x25, x26, [sp, 64]
.LVL356:
	ldp	x27, x28, [sp, 80]
	ldp	x29, x30, [sp], 128
	.cfi_remember_state
	.cfi_restore 30
	.cfi_restore 29
	.cfi_restore 27
	.cfi_restore 28
	.cfi_restore 25
	.cfi_restore 26
	.cfi_restore 23
	.cfi_restore 24
	.cfi_restore 21
	.cfi_restore 22
	.cfi_restore 19
	.cfi_restore 20
	.cfi_def_cfa 31, 0
	ret
.LVL357:
	.p2align 3
.L298:
	.cfi_restore_state
.LBB1112:
	.loc 1 568 0
	strb	wzr, [x24, -1]
	add	x24, x24, 1
	b	.L345
.LBE1112:
	.cfi_endproc
.LFE2852:
	.size	direct_mode_data_change_part.isra.4, .-direct_mode_data_change_part.isra.4
	.align	2
	.p2align 3,,7
	.type	direct_mode_data_change.isra.5, %function
direct_mode_data_change.isra.5:
.LFB2853:
	.loc 1 443 0
	.cfi_startproc
.LVL358:
	stp	x29, x30, [sp, -128]!
	.cfi_def_cfa_offset 128
	.cfi_offset 29, -128
	.cfi_offset 30, -120
	.loc 1 447 0
	adrp	x6, .LANCHOR0
	.loc 1 443 0
	and	w3, w3, 255
	add	x29, sp, 0
	.cfi_def_cfa_register 29
	stp	x25, x26, [sp, 64]
	.loc 1 454 0
	sub	w3, w3, w4
.LVL359:
	.cfi_offset 25, -64
	.cfi_offset 26, -56
	.loc 1 447 0
	ldr	x26, [x6, #:lo12:.LANCHOR0]
	.loc 1 455 0
	lsl	w3, w3, 16
.LVL360:
	.loc 1 443 0
	stp	x19, x20, [sp, 16]
	.cfi_offset 19, -112
	.cfi_offset 20, -104
	.loc 1 455 0
	add	x19, x5, x3, sxtw
.LVL361:
	.loc 1 456 0
	add	x26, x26, 24
	.loc 1 443 0
	stp	x21, x22, [sp, 32]
	stp	x23, x24, [sp, 48]
	stp	x27, x28, [sp, 80]
	.cfi_offset 21, -96
	.cfi_offset 22, -88
	.cfi_offset 23, -80
	.cfi_offset 24, -72
	.cfi_offset 27, -48
	.cfi_offset 28, -40
	.loc 1 460 0
	ldp	w3, w8, [x26, 76]
	.loc 1 456 0
	ldr	w9, [x26, 148]
.LVL362:
	.loc 1 471 0
	cmp	w8, 0
	ble	.L346
	lsr	w6, w3, 4
.LVL363:
.LBB1113:
	.loc 1 495 0
	adrp	x20, .LC19
	sub	w28, w6, #1
	and	w27, w3, 15
	add	x28, x28, 1
	mov	x7, x0
	lsl	x23, x28, 3
.LBE1113:
	.loc 1 471 0
	mov	x22, x2
.LVL364:
	mov	x21, x1
.LVL365:
.LBB1116:
	.loc 1 495 0
	add	x20, x20, :lo12:.LC19
	lsl	x28, x28, 2
.LBE1116:
	.loc 1 471 0
	mov	w25, 0
.LVL366:
	.loc 1 472 0
	cbz	w9, .L349
	.p2align 2
.L367:
	.loc 1 473 0
	ldr	w24, [x26, 80]
	sub	w24, w24, #1
	sub	w24, w24, w25
	mul	w24, w24, w3
	lsr	w24, w24, 2
	add	x24, x7, x24
.L350:
	.loc 1 477 0
	cbz	w6, .L351
	mov	x3, x24
	mov	x4, 0
	.p2align 2
.L352:
	.loc 1 479 0
	ldr	x2, [x22, x4]
.LVL367:
	add	x3, x3, 4
	.loc 1 478 0
	ldr	x1, [x21, x4]
.LVL368:
	add	x4, x4, 8
	.loc 1 481 0
	and	w5, w2, 65535
	.loc 1 477 0
	cmp	x23, x4
	.loc 1 481 0
	and	w0, w1, 65535
.LBB1117:
.LBB1118:
	.loc 1 152 0
	ubfiz	w13, w5, 8, 8
	.loc 1 153 0
	and	w5, w5, 65280
	.loc 1 152 0
	add	w13, w13, w0, uxtb
	.loc 1 153 0
	add	w5, w5, w0, lsr 8
.LBE1118:
.LBE1117:
	.loc 1 482 0
	lsr	w10, w2, 16
	lsr	w0, w1, 16
.LBB1122:
.LBB1123:
	.loc 1 152 0
	ubfiz	w12, w10, 8, 8
.LBE1123:
.LBE1122:
.LBB1129:
.LBB1119:
	ldrb	w13, [x19, w13, sxtw]
.LBE1119:
.LBE1129:
.LBB1130:
.LBB1124:
	.loc 1 153 0
	and	w10, w10, 65280
.LBE1124:
.LBE1130:
.LBB1131:
.LBB1120:
	ldrb	w11, [x19, w5, sxtw]
.LBE1120:
.LBE1131:
.LBB1132:
.LBB1125:
	.loc 1 152 0
	add	w12, w12, w0, uxtb
	.loc 1 153 0
	add	w10, w10, w0, lsr 8
.LBE1125:
.LBE1132:
	.loc 1 483 0
	ubfx	x0, x2, 32, 16
	ubfx	x5, x1, 32, 16
	.loc 1 484 0
	lsr	x2, x2, 48
.LVL369:
.LBB1133:
.LBB1121:
	.loc 1 152 0
	orr	w11, w13, w11, lsl 4
.LBE1121:
.LBE1133:
	.loc 1 481 0
	strb	w11, [x3, -4]
.LBB1134:
.LBB1135:
	.loc 1 152 0
	ubfiz	w11, w0, 8, 8
	.loc 1 153 0
	and	w0, w0, 65280
.LBE1135:
.LBE1134:
.LBB1141:
.LBB1126:
	ldrb	w10, [x19, w10, sxtw]
.LBE1126:
.LBE1141:
.LBB1142:
.LBB1136:
	.loc 1 152 0
	add	w11, w11, w5, uxtb
.LBE1136:
.LBE1142:
.LBB1143:
.LBB1127:
	ldrb	w12, [x19, w12, sxtw]
.LBE1127:
.LBE1143:
.LBB1144:
.LBB1137:
	.loc 1 153 0
	add	w5, w0, w5, lsr 8
.LBE1137:
.LBE1144:
	.loc 1 484 0
	lsr	x1, x1, 48
.LVL370:
.LBB1145:
.LBB1128:
	.loc 1 152 0
	orr	w0, w12, w10, lsl 4
.LBE1128:
.LBE1145:
	.loc 1 482 0
	strb	w0, [x3, -3]
.LBB1146:
.LBB1147:
	.loc 1 152 0
	ubfiz	w0, w2, 8, 8
	.loc 1 153 0
	and	w2, w2, 65280
.LBE1147:
.LBE1146:
.LBB1151:
.LBB1138:
	ldrb	w10, [x19, w5, sxtw]
.LBE1138:
.LBE1151:
.LBB1152:
.LBB1148:
	.loc 1 152 0
	add	w5, w0, w1, uxtb
.LBE1148:
.LBE1152:
.LBB1153:
.LBB1139:
	ldrb	w11, [x19, w11, sxtw]
.LBE1139:
.LBE1153:
.LBB1154:
.LBB1149:
	.loc 1 153 0
	add	w1, w2, w1, lsr 8
.LBE1149:
.LBE1154:
.LBB1155:
.LBB1140:
	.loc 1 152 0
	orr	w0, w11, w10, lsl 4
.LBE1140:
.LBE1155:
	.loc 1 483 0
	strb	w0, [x3, -2]
.LBB1156:
.LBB1150:
	.loc 1 153 0
	ldrb	w0, [x19, w1, sxtw]
	.loc 1 152 0
	ldrb	w1, [x19, w5, sxtw]
	orr	w0, w1, w0, lsl 4
.LBE1150:
.LBE1156:
	.loc 1 484 0
	strb	w0, [x3, -1]
	.loc 1 477 0
	bne	.L352
	add	x21, x21, x23
	add	x22, x22, x23
	add	x24, x24, x28
.LVL371:
.L351:
	.loc 1 491 0
	cbnz	w27, .L366
	.loc 1 471 0
	add	w25, w25, 1
	cmp	w8, w25
	beq	.L346
.L368:
	ldr	w3, [x26, 76]
	.loc 1 472 0
	cbnz	w9, .L367
.L349:
	.loc 1 475 0
	mul	w24, w25, w3
	lsr	w24, w24, 2
	add	x24, x7, x24
	b	.L350
.L366:
.LBB1157:
	.loc 1 495 0
	mov	w1, w6
.LVL372:
	str	x7, [x29, 104]
	stp	w8, w9, [x29, 116]
	mov	w2, w27
.LVL373:
	str	w6, [x29, 124]
	mov	x0, x20
	bl	printk
.LVL374:
	.loc 1 497 0
	cmp	w27, 0
	add	w0, w27, 3
	csel	w0, w0, w27, lt
	.loc 1 498 0
	ldr	w6, [x29, 124]
	.loc 1 497 0
	asr	w0, w0, 2
	.loc 1 498 0
	ldr	x7, [x29, 104]
.LVL375:
	ldp	w8, w9, [x29, 116]
	cbz	w0, .L356
	sub	w0, w0, #1
	add	x4, x0, 1
	mov	x0, 0
	.p2align 2
.L355:
	.loc 1 499 0
	ldrh	w2, [x22, x0, lsl 1]
	ldrh	w1, [x21, x0, lsl 1]
.LBB1114:
.LBB1115:
	.loc 1 153 0
	and	w3, w2, 65280
	.loc 1 152 0
	ubfiz	w2, w2, 8, 8
	.loc 1 153 0
	add	w3, w3, w1, lsr 8
	.loc 1 152 0
	add	w1, w2, w1, uxtb
	.loc 1 153 0
	ldrb	w2, [x19, w3, sxtw]
	.loc 1 152 0
	ldrb	w1, [x19, w1, sxtw]
	orr	w1, w1, w2, lsl 4
.LBE1115:
.LBE1114:
	.loc 1 499 0
	strb	w1, [x24, x0]
	add	x0, x0, 1
	.loc 1 498 0
	cmp	x4, x0
	bne	.L355
.L356:
.LBE1157:
	.loc 1 471 0
	add	w25, w25, 1
.LBB1158:
	.loc 1 498 0
	mov	w27, -1
.LVL376:
.LBE1158:
	.loc 1 471 0
	cmp	w8, w25
	bne	.L368
.LVL377:
.L346:
	.loc 1 503 0
	ldp	x19, x20, [sp, 16]
.LVL378:
	ldp	x21, x22, [sp, 32]
.LVL379:
	ldp	x23, x24, [sp, 48]
	ldp	x25, x26, [sp, 64]
.LVL380:
	ldp	x27, x28, [sp, 80]
	ldp	x29, x30, [sp], 128
	.cfi_restore 30
	.cfi_restore 29
	.cfi_restore 27
	.cfi_restore 28
	.cfi_restore 25
	.cfi_restore 26
	.cfi_restore 23
	.cfi_restore 24
	.cfi_restore 21
	.cfi_restore 22
	.cfi_restore 19
	.cfi_restore 20
	.cfi_def_cfa 31, 0
	ret
	.cfi_endproc
.LFE2853:
	.size	direct_mode_data_change.isra.5, .-direct_mode_data_change.isra.5
	.align	2
	.p2align 3,,7
	.type	ebc_frame_start, %function
ebc_frame_start:
.LFB2816:
	.loc 1 592 0
	.cfi_startproc
.LVL381:
	stp	x29, x30, [sp, -48]!
	.cfi_def_cfa_offset 48
	.cfi_offset 29, -48
	.cfi_offset 30, -40
	add	x29, sp, 0
	.cfi_def_cfa_register 29
	stp	x19, x20, [sp, 16]
	.cfi_offset 19, -32
	.cfi_offset 20, -24
	.loc 1 596 0
	add	x19, x0, 176
	.loc 1 592 0
	str	x21, [sp, 32]
	.cfi_offset 21, -16
	.loc 1 592 0
	mov	x20, x0
	.loc 1 593 0
	add	x21, x0, 24
	.loc 1 596 0
	ldr	x1, [x19, 208]
	ldr	w0, [x1, 40]
.LVL382:
	tbnz	w0, #31, .L370
	cmp	w0, 1
	ble	.L371
	sub	w0, w0, #7
	cmp	w0, 4
	bhi	.L370
	.loc 1 624 0
	ldr	x2, [x19, 200]
	.loc 1 621 0
	ldrb	w4, [x19, 36]
	str	w4, [x19, 44]
	.loc 1 622 0
	ldr	x0, [x19, 168]
	mov	w3, w4
	ldr	x2, [x2, 16]
	ldr	x5, [x20, 288]
	ldr	x1, [x1, 16]
	bl	direct_mode_data_change_part.isra.4
.LVL383:
.LBB1159:
.LBB1160:
	.loc 1 587 0
	str	wzr, [x21, 72]
	.loc 1 588 0
	mov	x0, x21
	ldr	w1, [x20, 200]
	bl	flip.isra.0
.LVL384:
.LBE1160:
.LBE1159:
	.loc 1 627 0
	ldr	w4, [x19, 44]
	.loc 1 629 0
	ldp	x2, x1, [x19, 200]
	.loc 1 627 0
	sub	w4, w4, #1
	str	w4, [x19, 44]
	.loc 1 628 0
	ldr	x0, [x19, 176]
	ldrb	w3, [x20, 212]
	ldr	x1, [x1, 16]
	ldr	x2, [x2, 16]
	ldr	x5, [x20, 288]
	bl	direct_mode_data_change_part.isra.4
.LVL385:
.L369:
	.loc 1 649 0
	ldp	x19, x20, [sp, 16]
.LVL386:
	ldr	x21, [sp, 32]
	ldp	x29, x30, [sp], 48
	.cfi_remember_state
	.cfi_restore 30
	.cfi_restore 29
	.cfi_restore 21
	.cfi_restore 19
	.cfi_restore 20
	.cfi_def_cfa 31, 0
	ret
.LVL387:
	.p2align 3
.L370:
	.cfi_restore_state
	.loc 1 637 0
	ldr	x2, [x19, 200]
	.loc 1 634 0
	ldrb	w4, [x19, 36]
	str	w4, [x19, 44]
	.loc 1 635 0
	ldr	x0, [x19, 168]
	mov	w3, w4
	ldr	x5, [x20, 288]
	ldr	x2, [x2, 16]
	ldr	x1, [x1, 16]
	bl	direct_mode_data_change.isra.5
.LVL388:
.LBB1161:
.LBB1162:
	.loc 1 587 0
	str	wzr, [x21, 72]
	.loc 1 588 0
	mov	x0, x21
	ldr	w1, [x20, 200]
	bl	flip.isra.0
.LVL389:
.LBE1162:
.LBE1161:
	.loc 1 640 0
	ldr	w4, [x19, 44]
	.loc 1 642 0
	ldp	x2, x1, [x19, 200]
	.loc 1 640 0
	sub	w4, w4, #1
	str	w4, [x19, 44]
	.loc 1 641 0
	ldr	x0, [x19, 176]
	ldrb	w3, [x20, 212]
	ldr	x5, [x20, 288]
	ldr	x1, [x1, 16]
	ldr	x2, [x2, 16]
	bl	direct_mode_data_change.isra.5
.LVL390:
	.loc 1 649 0
	ldr	x21, [sp, 32]
	ldp	x19, x20, [sp, 16]
.LVL391:
	ldp	x29, x30, [sp], 48
	.cfi_remember_state
	.cfi_restore 20
	.cfi_restore 19
	.cfi_restore 21
	.cfi_restore 29
	.cfi_restore 30
	.cfi_def_cfa 31, 0
	ret
.LVL392:
	.p2align 3
.L371:
	.cfi_restore_state
	.loc 1 599 0
	ldr	x0, [x19, 168]
	mov	x4, x19
	ldp	x1, x2, [x19, 128]
	ldr	x3, [x19, 152]
	bl	get_auto_image
.LVL393:
	.loc 1 604 0
	ldr	w0, [x19, 40]
	cbz	w0, .L373
.LBB1163:
.LBB1164:
	.loc 1 587 0
	str	wzr, [x21, 72]
	.loc 1 588 0
	mov	x0, x21
	ldr	w1, [x20, 200]
	bl	flip.isra.0
.LVL394:
.LBE1164:
.LBE1163:
	.loc 1 606 0
	ldp	x1, x2, [x19, 128]
	mov	x4, x19
	ldr	x3, [x19, 152]
	ldr	x0, [x19, 176]
	bl	get_auto_image
.LVL395:
	.loc 1 649 0
	ldr	x21, [sp, 32]
	ldp	x19, x20, [sp, 16]
.LVL396:
	ldp	x29, x30, [sp], 48
	.cfi_remember_state
	.cfi_restore 20
	.cfi_restore 19
	.cfi_restore 21
	.cfi_restore 29
	.cfi_restore 30
	.cfi_def_cfa 31, 0
	ret
.LVL397:
.L373:
	.cfi_restore_state
	.loc 1 612 0
	adrp	x1, .LANCHOR3
	adrp	x0, .LC20
	add	x1, x1, :lo12:.LANCHOR3
	add	x0, x0, :lo12:.LC20
	bl	printk
.LVL398:
	.loc 1 613 0
	str	wzr, [x19, 28]
	b	.L369
	.cfi_endproc
.LFE2816:
	.size	ebc_frame_start, .-ebc_frame_start
	.align	2
	.p2align 3,,7
	.type	ebc_auto_tast_function, %function
ebc_auto_tast_function:
.LFB2817:
	.loc 1 652 0
	.cfi_startproc
.LVL399:
	stp	x29, x30, [sp, -96]!
	.cfi_def_cfa_offset 96
	.cfi_offset 29, -96
	.cfi_offset 30, -88
	.loc 1 653 0
	adrp	x1, .LANCHOR0
	.loc 1 652 0
	adrp	x0, __stack_chk_guard
.LVL400:
	add	x0, x0, :lo12:__stack_chk_guard
	add	x29, sp, 0
	.cfi_def_cfa_register 29
	stp	x19, x20, [sp, 16]
	.cfi_offset 19, -80
	.cfi_offset 20, -72
	adrp	x20, .LANCHOR1
	stp	x21, x22, [sp, 32]
	.loc 1 658 0
	add	x20, x20, :lo12:.LANCHOR1
	.cfi_offset 21, -64
	.cfi_offset 22, -56
	.loc 1 653 0
	ldr	x22, [x1, #:lo12:.LANCHOR0]
.LVL401:
	.loc 1 658 0
	add	x20, x20, 384
	.loc 1 652 0
	stp	x23, x24, [sp, 48]
	.cfi_offset 23, -48
	.cfi_offset 24, -40
.LBB1165:
.LBB1166:
.LBB1167:
	.file 12 "./include/linux/compiler.h"
	.loc 12 220 0
	mov	x24, 2
.LBE1167:
.LBE1166:
.LBE1165:
	.loc 1 652 0
	stp	x25, x26, [sp, 64]
	.cfi_offset 25, -32
	.cfi_offset 26, -24
	.loc 1 654 0
	add	x21, x22, 24
	.loc 1 655 0
	add	x19, x22, 176
	add	x26, x22, 720
	.loc 1 652 0
	ldr	x1, [x0]
	str	x1, [x29, 88]
	mov	x1,0
	adrp	x25, system_wq
.LBB1172:
.LBB1169:
.LBB1170:
	.loc 5 19 0
#APP
// 19 "./arch/arm64/include/asm/current.h" 1
	mrs x23, sp_el0
// 0 "" 2
.LVL402:
#NO_APP
	b	.L385
	.p2align 3
.L394:
.LBE1170:
.LBE1169:
.LBE1172:
	.loc 1 663 0
	sub	w0, w0, #7
	cmp	w0, 4
	bhi	.L378
	.loc 1 678 0
	ldr	w1, [x19, 44]
	.loc 1 679 0
	mov	x0, x21
	.loc 1 678 0
	sub	w1, w1, #1
	str	w1, [x19, 44]
	.loc 1 679 0
	ldr	w1, [x22, 200]
	bl	flip.isra.0
.LVL403:
	.loc 1 680 0
	ldr	w4, [x19, 44]
	cbnz	w4, .L392
.L381:
	.loc 1 700 0
	ldr	x0, [x19, 208]
	ldr	w0, [x0, 40]
	cmp	w0, 1
	bls	.L393
.L384:
	.loc 1 704 0
	mov	x0, x20
	bl	up
.LVL404:
	.loc 1 705 0
	bl	schedule
.LVL405:
.L385:
	.loc 1 658 0
	mov	x0, x20
	bl	down
.LVL406:
.LBB1173:
.LBB1171:
.LBB1168:
	.loc 12 220 0
	str	x24, [x23, 32]
.LBE1168:
.LBE1171:
.LBE1173:
	.loc 1 662 0
#APP
// 662 "drivers/gpu/drm/rockchip/ebc-dev/ebc_dev.c" 1
	dmb ish
// 0 "" 2
	.loc 1 663 0
#NO_APP
	ldr	x0, [x19, 208]
	ldr	w0, [x0, 40]
	tbnz	w0, #31, .L378
	cmp	w0, 1
	bgt	.L394
	.loc 1 666 0
	ldr	w1, [x22, 200]
	mov	x0, x21
	bl	flip.isra.0
.LVL407:
	.loc 1 667 0
	ldrsw	x0, [x21, 72]
	mov	x4, x19
	ldp	x1, x2, [x19, 128]
	add	x0, x19, x0, lsl 3
	ldr	x3, [x19, 152]
	ldr	x0, [x0, 168]
	bl	get_auto_image
.LVL408:
	.loc 1 700 0
	ldr	x0, [x19, 208]
	ldr	w0, [x0, 40]
	cmp	w0, 1
	bhi	.L384
.L393:
.LBB1174:
.LBB1175:
.LBB1176:
.LBB1177:
	.file 13 "./include/linux/workqueue.h"
	.loc 13 518 0
	ldr	x1, [x25, #:lo12:system_wq]
	mov	x2, x26
	mov	w0, 8
	bl	queue_work_on
.LVL409:
	b	.L384
	.p2align 3
.L378:
.LBE1177:
.LBE1176:
.LBE1175:
.LBE1174:
	.loc 1 688 0
	ldr	w1, [x19, 44]
	.loc 1 689 0
	mov	x0, x21
	.loc 1 688 0
	sub	w1, w1, #1
	str	w1, [x19, 44]
	.loc 1 689 0
	ldr	w1, [x22, 200]
	bl	flip.isra.0
.LVL410:
	.loc 1 690 0
	ldr	w4, [x19, 44]
	cbz	w4, .L381
	.loc 1 692 0
	ldrsw	x0, [x21, 72]
	.loc 1 693 0
	ldp	x2, x1, [x19, 200]
	.loc 1 692 0
	add	x0, x19, x0, lsl 3
	ldrb	w3, [x22, 212]
	ldr	x5, [x22, 288]
	ldr	x1, [x1, 16]
	ldr	x0, [x0, 168]
	ldr	x2, [x2, 16]
	bl	direct_mode_data_change.isra.5
.LVL411:
	.loc 1 696 0
	b	.L381
	.p2align 3
.L392:
	.loc 1 682 0
	ldrsw	x0, [x21, 72]
	.loc 1 683 0
	ldp	x2, x1, [x19, 200]
	.loc 1 682 0
	add	x0, x19, x0, lsl 3
	ldrb	w3, [x22, 212]
	ldr	x5, [x22, 288]
	ldr	x1, [x1, 16]
	ldr	x0, [x0, 168]
	ldr	x2, [x2, 16]
	bl	direct_mode_data_change_part.isra.4
.LVL412:
	.loc 1 686 0
	b	.L381
	.cfi_endproc
.LFE2817:
	.size	ebc_auto_tast_function, .-ebc_auto_tast_function
	.align	2
	.p2align 3,,7
	.type	ebc_probe, %function
ebc_probe:
.LFB2842:
	.loc 1 1782 0
	.cfi_startproc
.LVL413:
	stp	x29, x30, [sp, -208]!
	.cfi_def_cfa_offset 208
	.cfi_offset 29, -208
	.cfi_offset 30, -200
.LBB1321:
.LBB1322:
	.loc 2 711 0
	mov	w2, 32960
	movk	w2, 0x60, lsl 16
.LBE1322:
.LBE1321:
	.loc 1 1782 0
	add	x29, sp, 0
	.cfi_def_cfa_register 29
	stp	x19, x20, [sp, 16]
	.cfi_offset 19, -192
	.cfi_offset 20, -184
	.loc 1 1783 0
	add	x20, x0, 16
	.loc 1 1782 0
	stp	x23, x24, [sp, 48]
	.cfi_offset 23, -160
	.cfi_offset 24, -152
	adrp	x23, __stack_chk_guard
	stp	x21, x22, [sp, 32]
	add	x0, x23, :lo12:__stack_chk_guard
.LVL414:
	stp	x25, x26, [sp, 64]
	stp	x27, x28, [sp, 80]
	.cfi_offset 21, -176
	.cfi_offset 22, -168
	.cfi_offset 25, -144
	.cfi_offset 26, -136
	.cfi_offset 27, -128
	.cfi_offset 28, -120
	.loc 1 1782 0
	ldr	x1, [x0]
	str	x1, [x29, 200]
	mov	x1,0
.LBB1324:
.LBB1323:
	.loc 2 711 0
	mov	x0, x20
	mov	x1, 792
	bl	devm_kmalloc
.LVL415:
.LBE1323:
.LBE1324:
	.loc 1 1794 0
	cbz	x0, .L441
	.loc 1 1798 0
	adrp	x25, .LANCHOR0
	mov	x19, x0
	.loc 1 1800 0
	adrp	x1, .LC21
	mov	w2, 0
	.loc 1 1798 0
	str	x0, [x25, #:lo12:.LANCHOR0]
	.loc 1 1800 0
	add	x1, x1, :lo12:.LC21
	ldr	x0, [x20, 752]
	.loc 1 1797 0
	str	x20, [x19]
	.loc 1 1800 0
	bl	of_parse_phandle
.LVL416:
	.loc 1 1801 0
	cbz	x0, .L481
	.loc 1 1806 0
	bl	of_find_device_by_node
.LVL417:
	.loc 1 1808 0
	cbz	x0, .L399
.LBB1325:
.LBB1326:
.LBB1327:
	.loc 2 1181 0
	ldr	x0, [x0, 200]
.LVL418:
.LBE1327:
.LBE1326:
.LBE1325:
	.loc 1 1811 0
	str	x0, [x19, 8]
	.loc 1 1812 0
	cbz	x0, .L399
	.loc 1 1814 0
	adrp	x1, frame_done_callback
	add	x1, x1, :lo12:frame_done_callback
	str	x1, [x0, 104]
	.loc 1 1816 0
	mov	w2, 0
	adrp	x1, .LC23
	add	x1, x1, :lo12:.LC23
	ldr	x0, [x20, 752]
	bl	of_parse_phandle
.LVL419:
	.loc 1 1817 0
	cbz	x0, .L482
	.loc 1 1822 0
	bl	of_find_i2c_device_by_node
.LVL420:
	.loc 1 1824 0
	cbz	x0, .L483
.LBB1328:
.LBB1329:
.LBB1330:
	.loc 2 1181 0
	ldr	x0, [x0, 216]
.LVL421:
.LBE1330:
.LBE1329:
.LBE1328:
	.loc 1 1828 0
	str	x0, [x19, 16]
	.loc 1 1829 0
	cbz	x0, .L484
	.loc 1 1835 0
	add	x21, x19, 176
.LVL422:
	.loc 1 1837 0
	add	x22, x19, 24
	.loc 1 1835 0
	str	x20, [x21, 88]
.LBB1331:
.LBB1332:
.LBB1333:
.LBB1334:
.LBB1335:
	.file 14 "./include/linux/of.h"
	.loc 14 499 0
	adrp	x1, .LC27
.LBE1335:
.LBE1334:
.LBE1333:
.LBE1332:
.LBE1331:
	.loc 1 1837 0
	str	x20, [x19, 24]
.LBB1424:
.LBB1420:
.LBB1342:
.LBB1339:
.LBB1336:
	.loc 14 499 0
	mov	x4, 0
.LBE1336:
.LBE1339:
.LBE1342:
.LBE1420:
.LBE1424:
	.loc 1 1838 0
	ldr	x2, [x19, 8]
.LBB1425:
.LBB1421:
.LBB1343:
.LBB1340:
.LBB1337:
	.loc 14 499 0
	add	x1, x1, :lo12:.LC27
.LBE1337:
.LBE1340:
.LBE1343:
.LBE1421:
.LBE1425:
	.loc 1 1839 0
	stp	x2, x0, [x22, 8]
.LBB1426:
.LBB1422:
.LBB1344:
.LBB1341:
.LBB1338:
	.loc 14 499 0
	mov	x3, 1
	ldr	x0, [x20, 752]
	add	x2, x19, 100
	bl	of_property_read_variable_u32_array
.LVL423:
	.loc 14 501 0
	tbnz	w0, #31, .L404
.LBE1338:
.LBE1341:
.LBE1344:
.LBB1345:
.LBB1346:
.LBB1347:
	.loc 14 499 0
	ldr	x0, [x20, 752]
	adrp	x1, .LC53
	mov	x4, 0
	mov	x3, 1
	add	x2, x19, 104
	add	x1, x1, :lo12:.LC53
	bl	of_property_read_variable_u32_array
.LVL424:
	.loc 14 501 0
	tbnz	w0, #31, .L404
.LBE1347:
.LBE1346:
.LBE1345:
.LBB1348:
.LBB1349:
.LBB1350:
	.loc 14 499 0
	ldr	x0, [x20, 752]
	adrp	x1, .LC54
	mov	x4, 0
	mov	x3, 1
	add	x2, x19, 120
	add	x1, x1, :lo12:.LC54
	bl	of_property_read_variable_u32_array
.LVL425:
	.loc 14 501 0
	tbnz	w0, #31, .L404
.LBE1350:
.LBE1349:
.LBE1348:
.LBB1351:
.LBB1352:
.LBB1353:
	.loc 14 499 0
	ldr	x0, [x20, 752]
	adrp	x1, .LC55
	mov	x4, 0
	mov	x3, 1
	add	x2, x19, 124
	add	x1, x1, :lo12:.LC55
	bl	of_property_read_variable_u32_array
.LVL426:
	.loc 14 501 0
	tbnz	w0, #31, .L404
.LBE1353:
.LBE1352:
.LBE1351:
.LBB1354:
.LBB1355:
.LBB1356:
	.loc 14 499 0
	ldr	x0, [x20, 752]
	adrp	x1, .LC56
	mov	x4, 0
	mov	x3, 1
	add	x2, x19, 128
	add	x1, x1, :lo12:.LC56
	bl	of_property_read_variable_u32_array
.LVL427:
	.loc 14 501 0
	tbnz	w0, #31, .L404
.LBE1356:
.LBE1355:
.LBE1354:
.LBB1357:
.LBB1358:
.LBB1359:
	.loc 14 499 0
	ldr	x0, [x20, 752]
	adrp	x1, .LC57
	mov	x4, 0
	mov	x3, 1
	add	x2, x19, 132
	add	x1, x1, :lo12:.LC57
	bl	of_property_read_variable_u32_array
.LVL428:
	.loc 14 501 0
	tbnz	w0, #31, .L404
.LBE1359:
.LBE1358:
.LBE1357:
.LBB1360:
.LBB1361:
.LBB1362:
	.loc 14 499 0
	ldr	x0, [x20, 752]
	adrp	x1, .LC58
	mov	x4, 0
	mov	x3, 1
	add	x2, x19, 136
	add	x1, x1, :lo12:.LC58
	bl	of_property_read_variable_u32_array
.LVL429:
	.loc 14 501 0
	tbnz	w0, #31, .L404
.LBE1362:
.LBE1361:
.LBE1360:
.LBB1363:
.LBB1364:
.LBB1365:
	.loc 14 499 0
	ldr	x0, [x20, 752]
	adrp	x1, .LC59
	mov	x4, 0
	mov	x3, 1
	add	x2, x19, 140
	add	x1, x1, :lo12:.LC59
	bl	of_property_read_variable_u32_array
.LVL430:
	.loc 14 501 0
	tbnz	w0, #31, .L404
.LBE1365:
.LBE1364:
.LBE1363:
.LBB1366:
.LBB1367:
.LBB1368:
	.loc 14 499 0
	ldr	x0, [x20, 752]
	adrp	x1, .LC60
	mov	x4, 0
	mov	x3, 1
	add	x2, x19, 144
	add	x1, x1, :lo12:.LC60
	bl	of_property_read_variable_u32_array
.LVL431:
	.loc 14 501 0
	tbnz	w0, #31, .L404
.LBE1368:
.LBE1367:
.LBE1366:
.LBB1369:
.LBB1370:
.LBB1371:
	.loc 14 499 0
	ldr	x0, [x20, 752]
	adrp	x1, .LC61
	mov	x4, 0
	mov	x3, 1
	add	x2, x19, 148
	add	x1, x1, :lo12:.LC61
	bl	of_property_read_variable_u32_array
.LVL432:
	.loc 14 501 0
	tbnz	w0, #31, .L404
.LBE1371:
.LBE1370:
.LBE1369:
.LBB1372:
.LBB1373:
.LBB1374:
	.loc 14 499 0
	ldr	x0, [x20, 752]
	adrp	x1, .LC62
	mov	x4, 0
	mov	x3, 1
	add	x2, x19, 152
	add	x1, x1, :lo12:.LC62
	bl	of_property_read_variable_u32_array
.LVL433:
	.loc 14 501 0
	tbnz	w0, #31, .L404
.LBE1374:
.LBE1373:
.LBE1372:
.LBB1375:
.LBB1376:
.LBB1377:
	.loc 14 499 0
	ldr	x0, [x20, 752]
	adrp	x1, .LC63
	mov	x4, 0
	mov	x3, 1
	add	x2, x19, 156
	add	x1, x1, :lo12:.LC63
	bl	of_property_read_variable_u32_array
.LVL434:
	.loc 14 501 0
	tbnz	w0, #31, .L404
.LBE1377:
.LBE1376:
.LBE1375:
.LBB1378:
.LBB1379:
.LBB1380:
	.loc 14 499 0
	ldr	x0, [x20, 752]
	adrp	x1, .LC64
	mov	x4, 0
	mov	x3, 1
	add	x2, x19, 160
	add	x1, x1, :lo12:.LC64
	bl	of_property_read_variable_u32_array
.LVL435:
	.loc 14 501 0
	tbnz	w0, #31, .L404
.LBE1380:
.LBE1379:
.LBE1378:
.LBB1381:
.LBB1382:
.LBB1383:
	.loc 14 499 0
	ldr	x0, [x20, 752]
	adrp	x1, .LC65
	mov	x4, 0
	mov	x3, 1
	add	x2, x19, 164
	add	x1, x1, :lo12:.LC65
	bl	of_property_read_variable_u32_array
.LVL436:
	.loc 14 501 0
	tbnz	w0, #31, .L485
.LBE1383:
.LBE1382:
.LBE1381:
.LBB1384:
.LBB1385:
.LBB1386:
	.loc 14 499 0
	ldr	x0, [x20, 752]
	adrp	x1, .LC28
	mov	x4, 0
	mov	x3, 1
	add	x2, x19, 168
	add	x1, x1, :lo12:.LC28
	bl	of_property_read_variable_u32_array
.LVL437:
	.loc 14 501 0
	tbnz	w0, #31, .L405
.L432:
.LBE1386:
.LBE1385:
.LBE1384:
.LBB1391:
.LBB1392:
.LBB1393:
	.loc 14 499 0
	ldr	x0, [x20, 752]
	adrp	x1, .LC29
	mov	x4, 0
	mov	x3, 1
	add	x2, x19, 172
	add	x1, x1, :lo12:.LC29
	bl	of_property_read_variable_u32_array
.LVL438:
	.loc 14 501 0
	tbnz	w0, #31, .L406
.L433:
.LBE1393:
.LBE1392:
.LBE1391:
.LBB1398:
.LBB1399:
.LBB1400:
	.loc 14 499 0
	ldr	x0, [x20, 752]
	adrp	x1, .LC30
	mov	x4, 0
	mov	x3, 1
	add	x2, x19, 108
	add	x1, x1, :lo12:.LC30
	bl	of_property_read_variable_u32_array
.LVL439:
	.loc 14 501 0
	tbnz	w0, #31, .L407
.L434:
.LBE1400:
.LBE1399:
.LBE1398:
.LBB1405:
.LBB1406:
.LBB1407:
	.loc 14 499 0
	ldr	x0, [x20, 752]
	adrp	x1, .LC31
	mov	x4, 0
	mov	x3, 1
	add	x2, x19, 112
	add	x1, x1, :lo12:.LC31
	bl	of_property_read_variable_u32_array
.LVL440:
	.loc 14 501 0
	tbnz	w0, #31, .L408
.L435:
.LBE1407:
.LBE1406:
.LBE1405:
.LBE1422:
.LBE1426:
	.loc 1 1847 0
	ldr	w0, [x22, 80]
.LBB1427:
.LBB1428:
	.loc 1 1578 0
	mov	w2, 0
.LBE1428:
.LBE1427:
	.loc 1 1847 0
	str	w0, [x21, 56]
	.loc 1 1848 0
	ldr	w1, [x22, 76]
	str	w1, [x21, 60]
	.loc 1 1849 0
	mul	w0, w0, w1
.LBB1452:
.LBB1447:
	.loc 1 1578 0
	adrp	x1, .LC32
	add	x1, x1, :lo12:.LC32
.LBE1447:
.LBE1452:
	.loc 1 1849 0
	lsr	w3, w0, 1
	.loc 1 1850 0
	lsr	w0, w0, 2
	stp	w3, w0, [x21, 20]
.LBB1453:
.LBB1448:
	.loc 1 1569 0
	ldr	x26, [x19]
.LVL441:
	.loc 1 1578 0
	ldr	x0, [x26, 752]
	bl	of_parse_phandle
.LVL442:
	.loc 1 1579 0
	cbz	x0, .L442
	.loc 1 1582 0
	add	x2, x29, 104
	mov	w1, 0
	bl	of_address_to_resource
.LVL443:
	mov	w24, w0
	.loc 1 1584 0
	cbnz	w0, .L486
.LBB1429:
.LBB1430:
	.file 15 "./include/linux/ioport.h"
	.loc 15 204 0
	ldp	x1, x2, [x29, 104]
.LBE1430:
.LBE1429:
	.loc 1 1589 0
	str	x1, [x19, 176]
	.loc 1 1592 0
	mov	x3, 1
	mov	x0, x26
.LBB1432:
.LBB1431:
	.loc 15 204 0
	add	x2, x2, 1
	sub	x2, x2, x1
.LBE1431:
.LBE1432:
	.loc 1 1590 0
	str	w2, [x21, 16]
	.loc 1 1592 0
	sxtw	x2, w2
	bl	devm_memremap
.LVL444:
	str	x0, [x21, 8]
	.loc 1 1594 0
	cbz	x0, .L412
	.loc 1 1602 0
	mov	x1, x0
	ldr	w2, [x21, 16]
	ldr	x0, [x19, 176]
	mov	w4, 4
	mov	w3, 2097152
	bl	ebc_buf_init
.LVL445:
	.loc 1 1603 0
	cbnz	w0, .L412
	.loc 1 1608 0
	ldr	x0, [x21, 8]
	.loc 1 1609 0
	mov	x5, 1048576
	str	x5, [x22, 40]
.LBB1433:
.LBB1434:
	.loc 2 711 0
	mov	w2, 32960
.LBE1434:
.LBE1433:
	.loc 1 1608 0
	add	x6, x0, 10485760
	str	x6, [x22, 24]
	add	x4, x0, 11534336
	.loc 1 1614 0
	add	x1, x0, 12582912
	.loc 1 1610 0
	ldr	x3, [x19, 176]
.LBB1438:
.LBB1435:
	.loc 2 711 0
	movk	w2, 0x60, lsl 16
	mov	x0, x26
.LBE1435:
.LBE1438:
	.loc 1 1610 0
	add	x7, x3, 10485760
	str	x7, [x22, 32]
	.loc 1 1611 0
	str	x6, [x21, 168]
	.loc 1 1610 0
	add	x3, x3, 11534336
	.loc 1 1609 0
	str	x5, [x22, 64]
	.loc 1 1610 0
	stp	x4, x3, [x22, 48]
	.loc 1 1614 0
	str	x1, [x21, 112]
.LBB1439:
.LBB1436:
	.loc 2 711 0
	ldrsw	x1, [x21, 20]
.LBE1436:
.LBE1439:
	.loc 1 1611 0
	str	x4, [x21, 176]
.LBB1440:
.LBB1437:
	.loc 2 711 0
	bl	devm_kmalloc
.LVL446:
.LBE1437:
.LBE1440:
	.loc 1 1617 0
	str	x0, [x21, 128]
	.loc 1 1618 0
	cbz	x0, .L412
.LBB1441:
.LBB1442:
	.loc 2 711 0
	ldrsw	x1, [x21, 20]
	mov	w2, 32960
	movk	w2, 0x60, lsl 16
	mov	x0, x26
	bl	devm_kmalloc
.LVL447:
.LBE1442:
.LBE1441:
	.loc 1 1620 0
	str	x0, [x21, 136]
	.loc 1 1621 0
	ldr	x1, [x21, 128]
	cbz	x1, .L412
.LBB1443:
.LBB1444:
	.loc 2 711 0
	ldrsw	x1, [x21, 20]
	mov	w2, 32960
	movk	w2, 0x60, lsl 16
	mov	x0, x26
	bl	devm_kmalloc
.LVL448:
.LBE1444:
.LBE1443:
	.loc 1 1623 0
	str	x0, [x21, 144]
	.loc 1 1624 0
	ldr	x1, [x21, 128]
	cbz	x1, .L412
.LBB1445:
.LBB1446:
	.loc 2 711 0
	ldrsw	x1, [x21, 20]
	mov	w2, 32960
	movk	w2, 0x60, lsl 16
	mov	x0, x26
	bl	devm_kmalloc
.LVL449:
.LBE1446:
.LBE1445:
	.loc 1 1628 0
	str	x0, [x21, 152]
	.loc 1 1629 0
	ldr	x1, [x21, 128]
	cbz	x1, .L412
	.loc 1 1631 0
	ldrsw	x24, [x21, 20]
	mov	w1, 0
	mov	x2, x24
	bl	memset
.LVL450:
	.loc 1 1632 0
	ldr	x0, [x21, 144]
	mov	x2, x24
	mov	w1, 255
	bl	memset
.LVL451:
.LBE1448:
.LBE1453:
.LBB1454:
.LBB1455:
	.loc 1 1529 0
	ldr	x26, [x19, 264]
.LVL452:
	.loc 1 1535 0
	adrp	x1, .LC34
	mov	w2, 0
	add	x1, x1, :lo12:.LC34
	ldr	x0, [x26, 752]
	bl	of_parse_phandle
.LVL453:
	.loc 1 1536 0
	cbz	x0, .L443
	.loc 1 1539 0
	add	x2, x29, 104
	mov	w1, 0
	bl	of_address_to_resource
.LVL454:
	mov	w24, w0
	.loc 1 1541 0
	cbz	w0, .L487
.L413:
.LBE1455:
.LBE1454:
	.loc 1 1862 0
	adrp	x1, .LC67
	mov	x0, x20
	add	x1, x1, :lo12:.LC67
	bl	_dev_err
.LVL455:
	.loc 1 1863 0
	b	.L395
.LVL456:
	.p2align 3
.L404:
	.loc 1 1845 0
	mov	w24, -22
	.loc 1 1844 0
	adrp	x1, .LC71
	mov	w2, w24
	add	x1, x1, :lo12:.LC71
	mov	x0, x20
	bl	_dev_err
.LVL457:
.L395:
	.loc 1 1887 0
	add	x23, x23, :lo12:__stack_chk_guard
	mov	w0, w24
.LVL458:
	ldr	x2, [x29, 200]
	ldr	x1, [x23]
	eor	x1, x2, x1
	cbnz	x1, .L488
	ldp	x19, x20, [sp, 16]
	ldp	x21, x22, [sp, 32]
.LVL459:
	ldp	x23, x24, [sp, 48]
	ldp	x25, x26, [sp, 64]
.LVL460:
	ldp	x27, x28, [sp, 80]
.LVL461:
	ldp	x29, x30, [sp], 208
	.cfi_remember_state
	.cfi_restore 30
	.cfi_restore 29
	.cfi_restore 27
	.cfi_restore 28
	.cfi_restore 25
	.cfi_restore 26
	.cfi_restore 23
	.cfi_restore 24
	.cfi_restore 21
	.cfi_restore 22
	.cfi_restore 19
	.cfi_restore 20
	.cfi_def_cfa 31, 0
	ret
.LVL462:
	.p2align 3
.L486:
	.cfi_restore_state
.LBB1462:
.LBB1449:
	.loc 1 1585 0
	adrp	x1, .LC33
	mov	x0, x26
	add	x1, x1, :lo12:.LC33
	bl	_dev_err
.LVL463:
.L409:
.LBE1449:
.LBE1462:
	.loc 1 1855 0
	adrp	x1, .LC66
	mov	x0, x20
	add	x1, x1, :lo12:.LC66
	bl	_dev_err
.LVL464:
	.loc 1 1856 0
	b	.L395
.LVL465:
	.p2align 3
.L408:
.LBB1463:
.LBB1423:
	.loc 1 1233 0
	str	wzr, [x22, 88]
	b	.L435
	.p2align 3
.L407:
.LBB1412:
.LBB1410:
.LBB1408:
	.loc 14 499 0
	ldr	x0, [x20, 752]
	adrp	x1, .LC31
.LBE1408:
.LBE1410:
.LBE1412:
	.loc 1 1230 0
	str	wzr, [x22, 84]
.LBB1413:
.LBB1411:
.LBB1409:
	.loc 14 499 0
	mov	x4, 0
	mov	x3, 1
	add	x2, x19, 112
	add	x1, x1, :lo12:.LC31
	bl	of_property_read_variable_u32_array
.LVL466:
	.loc 14 501 0
	tbz	w0, #31, .L435
	b	.L408
	.p2align 3
.L406:
.LBE1409:
.LBE1411:
.LBE1413:
.LBB1414:
.LBB1403:
.LBB1401:
	.loc 14 499 0
	ldr	x0, [x20, 752]
	adrp	x1, .LC30
.LBE1401:
.LBE1403:
.LBE1414:
	.loc 1 1227 0
	str	wzr, [x22, 148]
.LBB1415:
.LBB1404:
.LBB1402:
	.loc 14 499 0
	mov	x4, 0
	mov	x3, 1
	add	x2, x19, 108
	add	x1, x1, :lo12:.LC30
	bl	of_property_read_variable_u32_array
.LVL467:
	.loc 14 501 0
	tbz	w0, #31, .L434
	b	.L407
	.p2align 3
.L405:
.LBE1402:
.LBE1404:
.LBE1415:
.LBB1416:
.LBB1396:
.LBB1394:
	.loc 14 499 0
	ldr	x0, [x20, 752]
	adrp	x1, .LC29
.LBE1394:
.LBE1396:
.LBE1416:
	.loc 1 1224 0
	str	wzr, [x22, 144]
.LBB1417:
.LBB1397:
.LBB1395:
	.loc 14 499 0
	mov	x4, 0
	mov	x3, 1
	add	x2, x19, 172
	add	x1, x1, :lo12:.LC29
	bl	of_property_read_variable_u32_array
.LVL468:
	.loc 14 501 0
	tbz	w0, #31, .L433
	b	.L406
	.p2align 3
.L485:
.LBE1395:
.LBE1397:
.LBE1417:
.LBB1418:
.LBB1389:
.LBB1387:
	.loc 14 499 0
	ldr	x0, [x20, 752]
	adrp	x1, .LC28
.LBE1387:
.LBE1389:
.LBE1418:
	.loc 1 1221 0
	str	wzr, [x22, 140]
.LBB1419:
.LBB1390:
.LBB1388:
	.loc 14 499 0
	mov	x4, 0
	mov	x3, 1
	add	x2, x19, 168
	add	x1, x1, :lo12:.LC28
	bl	of_property_read_variable_u32_array
.LVL469:
	.loc 14 501 0
	tbz	w0, #31, .L432
	b	.L405
.LVL470:
	.p2align 3
.L487:
.LBE1388:
.LBE1390:
.LBE1419:
.LBE1423:
.LBE1463:
.LBB1464:
.LBB1458:
	.loc 1 1547 0
	mov	x0, x26
	mov	x3, 1
.LBB1456:
.LBB1457:
	.loc 15 204 0
	ldp	x1, x26, [x29, 104]
.LVL471:
	add	x26, x26, 1
	sub	x26, x26, x1
.LBE1457:
.LBE1456:
	.loc 1 1547 0
	sxtw	x2, w26
	bl	devm_memremap
.LVL472:
	str	x0, [x19, 368]
	.loc 1 1549 0
	cbz	x0, .L489
	.loc 1 1554 0
	bl	epd_lut_from_mem_init
.LVL473:
	.loc 1 1555 0
	tbnz	w0, #31, .L490
.L415:
.LBE1458:
.LBE1464:
.LBB1465:
.LBB1466:
	.loc 1 1641 0
	add	x0, x19, 728
	mov	x1, 68719476704
	str	x1, [x21, 544]
	.loc 1 1643 0
	add	x25, x25, :lo12:.LANCHOR0
.LBB1467:
.LBB1468:
.LBB1469:
.LBB1470:
.LBB1471:
	.loc 12 220 0
	str	x0, [x19, 728]
.LBE1471:
.LBE1470:
.LBE1469:
.LBE1468:
.LBE1467:
	.loc 1 1639 0
	mov	w26, 99
.LBB1473:
.LBB1472:
	.file 16 "./include/linux/list.h"
	.loc 16 29 0
	str	x0, [x0, 8]
.LBE1472:
.LBE1473:
	.loc 1 1641 0
	adrp	x0, new_buffer_refresh
	add	x0, x0, :lo12:new_buffer_refresh
	str	x0, [x21, 568]
	.loc 1 1643 0
	adrp	x3, .LC68
	mov	w2, -1
	add	x3, x3, :lo12:.LC68
	mov	x1, x21
	adrp	x0, ebc_auto_tast_function
	.loc 1 1639 0
	str	w26, [x29, 104]
	.loc 1 1643 0
	add	x0, x0, :lo12:ebc_auto_tast_function
	bl	kthread_create_on_node
.LVL474:
	str	x0, [x25, 8]
	.loc 1 1644 0
	cmn	x0, #4096
	bhi	.L491
	.loc 1 1648 0
	add	x2, x29, 104
	mov	w1, 1
	bl	sched_setscheduler_nocheck
.LVL475:
	.loc 1 1649 0
	ldr	x2, [x25, 8]
.LBB1474:
.LBB1475:
	.file 17 "./arch/arm64/include/asm/atomic_lse.h"
	.loc 17 45 0
	mov	w0, 1
.LVL476:
	add	x1, x2, 48
.LVL477:
#APP
// 45 "./arch/arm64/include/asm/atomic_lse.h" 1
	.if 1 == 1
661:
	bl	__ll_sc_atomic_add

662:
.pushsection .altinstructions,"a"
 .word 661b - .
 .word 663f - .
 .hword 5
 .byte 662b-661b
 .byte 664f-663f
.popsection
.pushsection .altinstr_replacement, "a"
663:
		stadd	w0, [x1]

664:
	.popsection
	.org	. - (664b-663b) + (662b-661b)
	.org	. - (662b-661b) + (664b-663b)
.endif

// 0 "" 2
.LVL478:
#NO_APP
.LBE1475:
.LBE1474:
	.loc 1 1651 0
	adrp	x3, .LC39
	adrp	x0, ebc_refresh_tast_function
.LVL479:
	add	x3, x3, :lo12:.LC39
	add	x0, x0, :lo12:ebc_refresh_tast_function
	mov	w2, -1
	mov	x1, x21
	bl	kthread_create_on_node
.LVL480:
	str	x0, [x25, 16]
	.loc 1 1652 0
	cmn	x0, #4096
	bhi	.L492
	.loc 1 1656 0
	add	x2, x29, 104
	mov	w1, 1
	bl	sched_setscheduler_nocheck
.LVL481:
	.loc 1 1657 0
	ldr	x2, [x25, 16]
.LBB1476:
.LBB1477:
	.loc 17 45 0
	mov	w0, 1
.LVL482:
	add	x1, x2, 48
.LVL483:
#APP
// 45 "./arch/arm64/include/asm/atomic_lse.h" 1
	.if 1 == 1
661:
	bl	__ll_sc_atomic_add

662:
.pushsection .altinstructions,"a"
 .word 661b - .
 .word 663f - .
 .hword 5
 .byte 662b-661b
 .byte 664f-663f
.popsection
.pushsection .altinstr_replacement, "a"
663:
		stadd	w0, [x1]

664:
	.popsection
	.org	. - (664b-663b) + (662b-661b)
	.org	. - (662b-661b) + (664b-663b)
.endif

// 0 "" 2
.LVL484:
#NO_APP
.LBE1477:
.LBE1476:
.LBB1478:
	.loc 1 1660 0
	adrp	x3, .LC41
	adrp	x0, ebc_thread
.LVL485:
	add	x3, x3, :lo12:.LC41
	mov	w2, -1
	add	x0, x0, :lo12:ebc_thread
	mov	x1, x21
.LBE1478:
	.loc 1 1659 0
	str	w26, [x29, 104]
.LBB1479:
	.loc 1 1660 0
	bl	kthread_create_on_node
.LVL486:
	mov	x25, x0
.LVL487:
	cmn	x0, #4096
	bhi	.L418
	bl	wake_up_process
.LVL488:
.LBE1479:
	str	x25, [x21, 120]
	.loc 1 1665 0
	add	x2, x29, 104
	mov	w1, 1
	mov	x0, x25
	bl	sched_setscheduler_nocheck
.LVL489:
	.loc 1 1666 0
	ldr	x2, [x21, 120]
.LBB1480:
.LBB1481:
	.loc 17 45 0
	mov	w0, 1
.LVL490:
	add	x1, x2, 48
.LVL491:
#APP
// 45 "./arch/arm64/include/asm/atomic_lse.h" 1
	.if 1 == 1
661:
	bl	__ll_sc_atomic_add

662:
.pushsection .altinstructions,"a"
 .word 661b - .
 .word 663f - .
 .hword 5
 .byte 662b-661b
 .byte 664f-663f
.popsection
.pushsection .altinstr_replacement, "a"
663:
		stadd	w0, [x1]

664:
	.popsection
	.org	. - (664b-663b) + (662b-661b)
	.org	. - (662b-661b) + (664b-663b)
.endif

// 0 "" 2
.LVL492:
#NO_APP
.LBE1481:
.LBE1480:
.LBE1466:
.LBE1465:
.LBB1485:
.LBB1486:
	.loc 1 1675 0
	mov	w0, -1
.LVL493:
	str	w0, [x21, 52]
.LBB1487:
.LBB1488:
	.loc 4 39 0
	add	x0, x19, 392
.LVL494:
.LBE1488:
.LBE1487:
	.loc 1 1678 0
	stp	wzr, wzr, [x21, 28]
	.loc 1 1679 0
	str	wzr, [x21, 80]
.LBB1493:
.LBB1489:
	.loc 4 43 0
	adrp	x1, .LC42
.LBE1489:
.LBE1493:
	.loc 1 1674 0
	str	wzr, [x21, 184]
.LBB1494:
.LBB1490:
	.loc 4 43 0
	add	x1, x1, :lo12:.LC42
.LBE1490:
.LBE1494:
	.loc 1 1676 0
	str	wzr, [x21, 592]
	.loc 1 1687 0
	add	x25, x19, 608
.LVL495:
	.loc 1 1677 0
	str	wzr, [x21, 596]
	.loc 1 1688 0
	adrp	x26, jiffies
.LBB1495:
.LBB1491:
	.loc 4 42 0
	stp	xzr, xzr, [x0]
.LBE1491:
.LBE1495:
	.loc 1 1688 0
	mov	x27, 268435455
.LBB1496:
.LBB1492:
	.loc 4 42 0
	stp	xzr, xzr, [x0, 16]
	stp	xzr, xzr, [x0, 32]
	stp	xzr, xzr, [x0, 48]
	stp	xzr, xzr, [x0, 64]
	stp	xzr, xzr, [x0, 80]
	stp	xzr, xzr, [x0, 96]
	stp	xzr, xzr, [x0, 112]
	stp	xzr, xzr, [x0, 128]
	stp	xzr, xzr, [x0, 144]
	stp	xzr, xzr, [x0, 160]
	stp	xzr, xzr, [x0, 176]
	stp	xzr, xzr, [x0, 192]
	.loc 4 43 0
	str	x1, [x19, 392]
	.loc 4 45 0
	bl	wakeup_source_add
.LVL496:
.LBE1492:
.LBE1496:
	.loc 1 1684 0
	str	wzr, [x21, 424]
	.loc 1 1687 0
	mov	x4, 0
	mov	x3, 0
	mov	w2, 0
	mov	x0, x25
	adrp	x1, ebc_vdd_power_timeout
	add	x1, x1, :lo12:ebc_vdd_power_timeout
	bl	init_timer_key
.LVL497:
	.loc 1 1688 0
	ldr	x1, [x26, #:lo12:jiffies]
	mov	x0, x25
	.loc 1 1691 0
	add	x25, x19, 664
	.loc 1 1688 0
	add	x1, x1, x27
	bl	mod_timer
.LVL498:
	.loc 1 1691 0
	mov	x4, 0
	mov	x3, 0
	mov	w2, 0
	mov	x0, x25
	adrp	x1, ebc_frame_timeout
	add	x1, x1, :lo12:ebc_frame_timeout
	bl	init_timer_key
.LVL499:
	.loc 1 1692 0
	ldr	x1, [x26, #:lo12:jiffies]
	mov	x0, x25
	add	x1, x1, x27
	bl	mod_timer
.LVL500:
.LBE1486:
.LBE1485:
.LBB1497:
.LBB1498:
	.loc 1 1702 0
	adrp	x0, saved_command_line
	adrp	x1, .LC43
	.loc 1 1699 0
	stp	wzr, wzr, [x29, 100]
.LVL501:
	.loc 1 1702 0
	add	x1, x1, :lo12:.LC43
	ldr	x25, [x0, #:lo12:saved_command_line]
	mov	x0, x25
	bl	strstr
.LVL502:
	.loc 1 1703 0
	adrp	x1, .LC44
	.loc 1 1702 0
	mov	x26, x0
.LVL503:
	.loc 1 1703 0
	add	x1, x1, :lo12:.LC44
	mov	x0, x25
	bl	strstr
.LVL504:
	mov	x28, x0
.LVL505:
	.loc 1 1708 0
	cbz	x26, .L419
	.loc 1 1709 0
	add	x2, x29, 100
	adrp	x1, .LC45
	mov	x0, x26
	add	x1, x1, :lo12:.LC45
	bl	sscanf
.LVL506:
	.loc 1 1710 0
	ldr	w2, [x29, 100]
	ldr	x0, [x19, 176]
	cmp	x0, x2, uxtw
	bls	.L493
.L419:
	.loc 1 1722 0
	mov	w25, 0
.LVL507:
	mov	x27, 0
.LVL508:
	.loc 1 1706 0
	mov	x26, 0
.LVL509:
	.loc 1 1722 0
	cbz	x28, .L439
.LVL510:
.L438:
	.loc 1 1723 0
	add	x2, x29, 104
	mov	x0, x28
	adrp	x1, .LC48
	add	x1, x1, :lo12:.LC48
	bl	sscanf
.LVL511:
	.loc 1 1701 0
	mov	w28, 0
.LVL512:
	.loc 1 1724 0
	ldr	w2, [x29, 104]
	.loc 1 1706 0
	mov	x26, 0
.LVL513:
	.loc 1 1724 0
	ldr	x0, [x19, 176]
	cmp	x0, x2, uxtw
	bls	.L494
.L423:
	.loc 1 1736 0
	cbnz	w25, .L422
.LVL514:
.L439:
	.loc 1 1737 0
	ldr	x0, [x21, 88]
	adrp	x1, .LC51
	add	x1, x1, :lo12:.LC51
	bl	_dev_info
.LVL515:
	.loc 1 1738 0
	ldr	x0, [x19, 16]
	bl	ebc_pmic_verity_vcom
.LVL516:
.LBB1499:
.LBB1500:
	.loc 1 1147 0
	bl	ebc_empty_buf_get
.LVL517:
	mov	x25, x0
.LVL518:
	.loc 1 1148 0
	ldp	w2, w0, [x19, 100]
	mov	w1, 255
	mul	w2, w2, w0
	ldr	x0, [x25, 16]
	lsr	w2, w2, 1
	bl	memset
.LVL519:
	.loc 1 1151 0
	stp	wzr, wzr, [x25, 48]
	.loc 1 1149 0
	mov	w0, 14
	str	w0, [x25, 40]
	.loc 1 1154 0
	mov	x0, x25
	.loc 1 1152 0
	ldr	w1, [x19, 100]
	str	w1, [x25, 56]
	.loc 1 1153 0
	ldr	w1, [x19, 104]
	str	w1, [x25, 60]
	.loc 1 1154 0
	bl	ebc_add_to_dsp_buf_list
.LVL520:
.L425:
.LBE1500:
.LBE1499:
	.loc 1 1755 0
	cbnz	w28, .L495
.L427:
	.loc 1 1768 0
	ldr	w0, [x21, 80]
	adrp	x22, .LANCHOR1
	cbz	w0, .L496
.L429:
	.loc 1 1773 0
	cbz	x27, .L430
	.loc 1 1774 0
	mov	x0, x27
	bl	kfree
.LVL521:
.L430:
	.loc 1 1775 0
	cbz	x26, .L421
	.loc 1 1776 0
	mov	x0, x26
	bl	kfree
.LVL522:
.L421:
.LBE1498:
.LBE1497:
.LBB1510:
.LBB1511:
.LBB1512:
	.loc 2 1186 0
	str	x19, [x20, 184]
.LBE1512:
.LBE1511:
.LBE1510:
.LBB1513:
.LBB1514:
	.loc 1 1514 0
	add	x22, x22, :lo12:.LANCHOR1
	add	x0, x22, 224
	bl	misc_register
.LVL523:
	.loc 1 1516 0
	ldr	x0, [x19, 264]
	add	x1, x22, 408
	bl	device_create_file
.LVL524:
	.loc 1 1517 0
	ldr	x0, [x19, 264]
	add	x1, x22, 440
	bl	device_create_file
.LVL525:
	.loc 1 1518 0
	ldr	x0, [x19, 264]
	add	x1, x22, 472
	bl	device_create_file
.LVL526:
	.loc 1 1519 0
	ldr	x0, [x19, 264]
	add	x1, x22, 504
	bl	device_create_file
.LVL527:
	.loc 1 1520 0
	ldr	x0, [x19, 264]
	add	x1, x22, 536
	bl	device_create_file
.LVL528:
	.loc 1 1521 0
	ldr	x0, [x19, 264]
	add	x1, x22, 568
	bl	device_create_file
.LVL529:
.LBE1514:
.LBE1513:
	.loc 1 1884 0
	ldr	x0, [x21, 88]
	adrp	x2, .LC14
	adrp	x1, .LC52
	add	x2, x2, :lo12:.LC14
	add	x1, x1, :lo12:.LC52
	bl	_dev_info
.LVL530:
	.loc 1 1886 0
	b	.L395
.LVL531:
	.p2align 3
.L493:
.LBB1515:
.LBB1507:
	.loc 1 1712 0
	ldr	x0, [x21, 88]
	adrp	x1, .LC46
	add	x1, x1, :lo12:.LC46
	bl	_dev_info
.LVL532:
	.loc 1 1713 0
	ldp	w0, w1, [x22, 76]
	mul	w0, w0, w1
.LBB1501:
.LBB1502:
.LBB1503:
	.file 18 "./include/linux/slab.h"
	.loc 18 553 0
	mov	w1, 32960
	movk	w1, 0x60, lsl 16
	lsr	w0, w0, 1
	bl	__kmalloc
.LVL533:
	mov	x27, x0
.LVL534:
.LBE1503:
.LBE1502:
.LBE1501:
	.loc 1 1714 0
	cbz	x0, .L497
	.loc 1 1718 0
	ldp	w2, w1, [x22, 76]
	ldr	x3, [x19, 176]
	mul	w2, w2, w1
	ldr	w1, [x29, 100]
.LVL535:
	sub	x1, x1, x3
.LVL536:
	ldr	x3, [x21, 8]
	lsr	w2, w2, 1
	add	x1, x3, x1
	bl	memcpy
.LVL537:
	.loc 1 1722 0
	cbnz	x28, .L498
	.loc 1 1701 0
	mov	w28, 0
.LVL538:
	.loc 1 1706 0
	mov	x26, 0
.LVL539:
.L422:
	.loc 1 1743 0
	bl	ebc_empty_buf_get
.LVL540:
	mov	x25, x0
.LVL541:
	.loc 1 1744 0
	cbz	x0, .L425
	.loc 1 1745 0
	ldp	w2, w0, [x22, 76]
	mov	x1, x27
	mul	w2, w2, w0
	ldr	x0, [x25, 16]
	lsr	w2, w2, 1
	bl	memcpy
.LVL542:
	.loc 1 1748 0
	stp	wzr, wzr, [x25, 48]
	.loc 1 1746 0
	mov	w0, 7
	str	w0, [x25, 40]
	.loc 1 1751 0
	mov	x0, x25
	.loc 1 1749 0
	ldr	w1, [x22, 76]
	str	w1, [x25, 56]
	.loc 1 1750 0
	ldr	w1, [x22, 80]
	str	w1, [x25, 60]
	.loc 1 1751 0
	bl	ebc_add_to_dsp_buf_list
.LVL543:
	b	.L425
.LVL544:
	.p2align 3
.L496:
	.loc 1 1769 0
	mov	w2, 1
	str	w2, [x21, 80]
	.loc 1 1770 0
	add	x0, x22, :lo12:.LANCHOR1
	mov	w1, w2
	add	x0, x0, 304
	bl	__wake_up_sync
.LVL545:
	b	.L429
.LVL546:
	.p2align 3
.L494:
	.loc 1 1726 0
	ldr	x0, [x21, 88]
	adrp	x1, .LC49
	add	x1, x1, :lo12:.LC49
	bl	_dev_info
.LVL547:
	.loc 1 1727 0
	ldp	w0, w1, [x22, 76]
	mul	w0, w0, w1
.LBB1504:
.LBB1505:
.LBB1506:
	.loc 18 553 0
	mov	w1, 32960
	movk	w1, 0x60, lsl 16
	lsr	w0, w0, 1
	bl	__kmalloc
.LVL548:
	mov	x26, x0
.LBE1506:
.LBE1505:
.LBE1504:
	.loc 1 1728 0
	cbz	x0, .L499
	.loc 1 1732 0
	ldp	w2, w1, [x22, 76]
	.loc 1 1725 0
	mov	w28, 1
	.loc 1 1732 0
	ldr	x3, [x19, 176]
	mul	w2, w2, w1
	ldr	w1, [x29, 104]
.LVL549:
	sub	x1, x1, x3
.LVL550:
	ldr	x3, [x21, 8]
	lsr	w2, w2, 1
	add	x1, x3, x1
	bl	memcpy
.LVL551:
	b	.L423
.LVL552:
	.p2align 3
.L412:
.LBE1507:
.LBE1515:
.LBB1516:
.LBB1450:
	.loc 1 1595 0
	mov	w24, -12
	b	.L409
.LVL553:
	.p2align 3
.L495:
.LBE1450:
.LBE1516:
.LBB1517:
.LBB1508:
	.loc 1 1756 0
	bl	ebc_empty_buf_get
.LVL554:
	mov	x25, x0
.LVL555:
	.loc 1 1757 0
	cbz	x0, .L427
	.loc 1 1758 0
	ldp	w2, w0, [x22, 76]
	mov	x1, x26
	mul	w2, w2, w0
	ldr	x0, [x25, 16]
	lsr	w2, w2, 1
	bl	memcpy
.LVL556:
	.loc 1 1761 0
	stp	wzr, wzr, [x25, 48]
	.loc 1 1759 0
	mov	w0, 7
	str	w0, [x25, 40]
	.loc 1 1762 0
	ldr	w0, [x22, 76]
	str	w0, [x25, 56]
	.loc 1 1764 0
	mov	x0, x25
	.loc 1 1763 0
	ldr	w1, [x22, 80]
	str	w1, [x25, 60]
	.loc 1 1764 0
	bl	ebc_add_to_dsp_buf_list
.LVL557:
	b	.L427
.LVL558:
	.p2align 3
.L490:
.LBE1508:
.LBE1517:
.LBB1518:
.LBB1459:
	.loc 1 1556 0
	ldr	x0, [x19, 264]
	adrp	x1, .LC36
	add	x1, x1, :lo12:.LC36
	bl	_dev_err
.LVL559:
	.loc 1 1557 0
	ldr	x0, [x19, 264]
	mov	w2, w26
	ldr	x1, [x19, 368]
	bl	epd_lut_from_file_init
.LVL560:
	.loc 1 1558 0
	tbz	w0, #31, .L415
	.loc 1 1559 0
	ldr	x0, [x19, 264]
	adrp	x1, .LC37
	.loc 1 1560 0
	mov	w24, -1
	.loc 1 1559 0
	add	x1, x1, :lo12:.LC37
	bl	_dev_err
.LVL561:
	b	.L413
.LVL562:
	.p2align 3
.L399:
.LBE1459:
.LBE1518:
	.loc 1 1809 0
	mov	w24, -517
	b	.L395
.LVL563:
	.p2align 3
.L491:
.LBB1519:
.LBB1482:
	.loc 1 1645 0
	ldr	x0, [x21, 88]
	adrp	x1, .LC38
	add	x1, x1, :lo12:.LC38
	bl	_dev_err
.LVL564:
.L416:
.LBE1482:
.LBE1519:
	.loc 1 1869 0
	adrp	x1, .LC70
	mov	x0, x20
	add	x1, x1, :lo12:.LC70
	.loc 1 1870 0
	mov	w24, -1
	.loc 1 1869 0
	bl	_dev_err
.LVL565:
	.loc 1 1870 0
	b	.L395
.LVL566:
	.p2align 3
.L492:
.LBB1520:
.LBB1483:
	.loc 1 1653 0
	ldr	x0, [x21, 88]
	adrp	x1, .LC40
	add	x1, x1, :lo12:.LC40
	bl	_dev_err
.LVL567:
	b	.L416
.LVL568:
	.p2align 3
.L441:
.LBE1483:
.LBE1520:
	.loc 1 1795 0
	mov	w24, -12
	b	.L395
.LVL569:
	.p2align 3
.L418:
.LBB1521:
.LBB1484:
	.loc 1 1662 0
	ldr	x0, [x21, 88]
.LVL570:
	adrp	x1, .LC69
	.loc 1 1660 0
	str	x25, [x21, 120]
	.loc 1 1662 0
	add	x1, x1, :lo12:.LC69
	bl	_dev_err
.LVL571:
	b	.L416
.LVL572:
	.p2align 3
.L442:
.LBE1484:
.LBE1521:
.LBB1522:
.LBB1451:
	.loc 1 1580 0
	mov	w24, -19
	b	.L409
.LVL573:
.L481:
.LBE1451:
.LBE1522:
	.loc 1 1802 0
	adrp	x1, .LC22
	mov	x0, x20
	add	x1, x1, :lo12:.LC22
	.loc 1 1803 0
	mov	w24, -19
	.loc 1 1802 0
	bl	_dev_err
.LVL574:
	.loc 1 1803 0
	b	.L395
.L484:
	.loc 1 1830 0
	adrp	x1, .LC26
	mov	x0, x20
	add	x1, x1, :lo12:.LC26
	.loc 1 1831 0
	mov	w24, -517
	.loc 1 1830 0
	bl	_dev_err
.LVL575:
	.loc 1 1831 0
	b	.L395
.L482:
	.loc 1 1818 0
	adrp	x1, .LC24
	mov	x0, x20
	add	x1, x1, :lo12:.LC24
	.loc 1 1819 0
	mov	w24, -19
	.loc 1 1818 0
	bl	_dev_err
.LVL576:
	.loc 1 1819 0
	b	.L395
.LVL577:
.L443:
.LBB1523:
.LBB1460:
	.loc 1 1537 0
	mov	w24, -19
	b	.L413
.LVL578:
.L483:
.LBE1460:
.LBE1523:
	.loc 1 1825 0
	adrp	x1, .LC25
	mov	x0, x20
.LVL579:
	add	x1, x1, :lo12:.LC25
	.loc 1 1826 0
	mov	w24, -517
	.loc 1 1825 0
	bl	_dev_err
.LVL580:
	.loc 1 1826 0
	b	.L395
.LVL581:
.L489:
.LBB1524:
.LBB1461:
	.loc 1 1550 0
	ldr	x0, [x19, 264]
	adrp	x2, .LANCHOR3
	add	x2, x2, :lo12:.LANCHOR3
	adrp	x1, .LC35
	mov	w3, 1550
	add	x2, x2, 16
	add	x1, x1, :lo12:.LC35
	.loc 1 1551 0
	mov	w24, -12
	.loc 1 1550 0
	bl	_dev_err
.LVL582:
	b	.L413
.LVL583:
.L488:
.LBE1461:
.LBE1524:
	.loc 1 1887 0
	bl	__stack_chk_fail
.LVL584:
.L499:
.LBB1525:
.LBB1509:
	.loc 1 1729 0
	ldr	x0, [x21, 88]
.LVL585:
	adrp	x1, .LC50
	adrp	x22, .LANCHOR1
	add	x1, x1, :lo12:.LC50
	bl	_dev_err
.LVL586:
	b	.L421
.LVL587:
.L497:
	.loc 1 1715 0
	ldr	x0, [x21, 88]
.LVL588:
	adrp	x1, .LC47
	adrp	x22, .LANCHOR1
	add	x1, x1, :lo12:.LC47
	bl	_dev_err
.LVL589:
	b	.L421
.LVL590:
.L498:
	.loc 1 1711 0
	mov	w25, 1
.LVL591:
	b	.L438
.LBE1509:
.LBE1525:
	.cfi_endproc
.LFE2842:
	.size	ebc_probe, .-ebc_probe
	.align	2
	.p2align 3,,7
	.type	ebc_power_set.constprop.7, %function
ebc_power_set.constprop.7:
.LFB2855:
	.loc 1 202 0
	.cfi_startproc
.LVL592:
	stp	x29, x30, [sp, -32]!
	.cfi_def_cfa_offset 32
	.cfi_offset 29, -32
	.cfi_offset 30, -24
	add	x29, sp, 0
	.cfi_def_cfa_register 29
	stp	x19, x20, [sp, 16]
	.cfi_offset 19, -16
	.cfi_offset 20, -8
	.loc 1 202 0
	mov	x19, x0
	.loc 1 218 0
	mov	x0, 0
.LVL593:
	bl	ebc_notify
.LVL594:
.LBB1526:
.LBB1527:
	.loc 3 35 0
	mov	w1, 0
.LBE1527:
.LBE1526:
	.loc 1 220 0
	ldr	x2, [x19, 16]
	.loc 1 219 0
	str	wzr, [x19, 360]
.LBB1529:
.LBB1528:
	.loc 3 35 0
	mov	x0, x2
	ldr	x2, [x2, 32]
	blr	x2
.LVL595:
.LBE1528:
.LBE1529:
	.loc 1 221 0
	ldr	x1, [x19, 8]
.LBB1530:
.LBB1531:
	.loc 11 51 0
	mov	x0, x1
	ldr	x1, [x1, 56]
	blr	x1
.LVL596:
.LBE1531:
.LBE1530:
	.loc 1 222 0
	ldr	w0, [x19, 600]
	cbnz	w0, .L506
	.loc 1 226 0
	ldr	x0, [x19]
	adrp	x1, .LC72
	add	x1, x1, :lo12:.LC72
	bl	_dev_info
.LVL597:
	.loc 1 230 0
	mov	w0, 0
	ldp	x19, x20, [sp, 16]
.LVL598:
	ldp	x29, x30, [sp], 32
	.cfi_remember_state
	.cfi_restore 30
	.cfi_restore 29
	.cfi_restore 19
	.cfi_restore 20
	.cfi_def_cfa 31, 0
	ret
.LVL599:
	.p2align 3
.L506:
	.cfi_restore_state
	.loc 1 223 0
	str	wzr, [x19, 600]
.LBB1532:
.LBB1533:
	.loc 4 68 0
	add	x0, x19, 392
	bl	__pm_relax
.LVL600:
.LBE1533:
.LBE1532:
	.loc 1 226 0
	ldr	x0, [x19]
	adrp	x1, .LC72
	add	x1, x1, :lo12:.LC72
	bl	_dev_info
.LVL601:
	.loc 1 230 0
	mov	w0, 0
	ldp	x19, x20, [sp, 16]
.LVL602:
	ldp	x29, x30, [sp], 32
	.cfi_restore 20
	.cfi_restore 19
	.cfi_restore 29
	.cfi_restore 30
	.cfi_def_cfa 31, 0
	ret
	.cfi_endproc
.LFE2855:
	.size	ebc_power_set.constprop.7, .-ebc_power_set.constprop.7
	.align	2
	.p2align 3,,7
	.type	ebc_suspend, %function
ebc_suspend:
.LFB2844:
	.loc 1 1897 0
	.cfi_startproc
.LVL603:
	stp	x29, x30, [sp, -32]!
	.cfi_def_cfa_offset 32
	.cfi_offset 29, -32
	.cfi_offset 30, -24
	add	x29, sp, 0
	.cfi_def_cfa_register 29
	stp	x19, x20, [sp, 16]
	.cfi_offset 19, -16
	.cfi_offset 20, -8
.LBB1534:
.LBB1535:
	.loc 2 1181 0
	ldr	x20, [x0, 184]
.LBE1535:
.LBE1534:
	.loc 1 1901 0
	add	x19, x20, 176
	ldr	w0, [x19, 184]
.LVL604:
	cmp	w0, 1
	beq	.L510
.L508:
	.loc 1 1905 0
	mov	w0, 1
	str	w0, [x19, 596]
	.loc 1 1907 0
	ldr	x1, [x20, 16]
.LBB1536:
.LBB1537:
	.loc 3 40 0
	mov	x0, x1
	ldr	x1, [x1, 40]
	blr	x1
.LVL605:
.LBE1537:
.LBE1536:
	.loc 1 1908 0
	ldr	x0, [x19, 88]
	adrp	x1, .LC74
	add	x1, x1, :lo12:.LC74
	bl	_dev_info
.LVL606:
	.loc 1 1911 0
	mov	w0, 0
	ldp	x19, x20, [sp, 16]
	ldp	x29, x30, [sp], 32
	.cfi_remember_state
	.cfi_restore 30
	.cfi_restore 29
	.cfi_restore 19
	.cfi_restore 20
	.cfi_def_cfa 31, 0
	ret
	.p2align 3
.L510:
	.cfi_restore_state
	.loc 1 1902 0
	ldr	x0, [x19, 88]
	adrp	x2, .LANCHOR3
	add	x2, x2, :lo12:.LANCHOR3
	adrp	x1, .LC73
	add	x2, x2, 40
	add	x1, x1, :lo12:.LC73
	bl	_dev_info
.LVL607:
	.loc 1 1903 0
	mov	x0, x20
	bl	ebc_power_set.constprop.7
.LVL608:
	b	.L508
	.cfi_endproc
.LFE2844:
	.size	ebc_suspend, .-ebc_suspend
	.align	2
	.p2align 3,,7
	.global	refresh_new_image2
	.type	refresh_new_image2, %function
refresh_new_image2:
.LFB2807:
	.loc 1 234 0
	.cfi_startproc
.LVL609:
	.loc 1 242 0
	ldp	w13, w6, [x4, 56]
	cmp	w6, 0
	add	w10, w6, 15
	csel	w10, w10, w6, lt
.LVL610:
	.loc 1 249 0
	cmp	w13, 0
	.loc 1 242 0
	asr	w10, w10, 4
.LVL611:
	.loc 1 249 0
	ble	.L511
	sub	w11, w10, #1
	mov	w12, 0
.LVL612:
	add	x11, x11, 1
	lsl	x11, x11, 3
.LVL613:
	.p2align 2
.L513:
	.loc 1 250 0 discriminator 1
	mov	x4, 0
.LVL614:
	cmp	w10, 0
	ble	.L518
	.p2align 2
.L520:
	.loc 1 251 0
	ldr	x9, [x3, x4, lsl 3]
	.loc 1 255 0
	mov	x6, -1
.LVL615:
	.loc 1 252 0
	ldr	x8, [x1, x4, lsl 3]
	.loc 1 253 0
	ldr	x7, [x0, x4, lsl 3]
	.loc 1 265 0
	cmp	x9, 0
	.loc 1 254 0
	cbz	w5, .L514
	.loc 1 257 0
	ldr	x6, [x2]
.LVL616:
	add	x2, x2, 8
.LVL617:
.L514:
	.loc 1 265 0
	and	x6, x6, x8
.LVL618:
	csel	x7, x6, x7, eq
	.loc 1 275 0
	str	x7, [x0, x4, lsl 3]
	add	x4, x4, 1
	.loc 1 250 0
	cmp	w10, w4
	bgt	.L520
	add	x3, x3, x11
.LVL619:
	add	x1, x1, x11
.LVL620:
	add	x0, x0, x11
.LVL621:
.L518:
	.loc 1 249 0 discriminator 2
	add	w12, w12, 1
	cmp	w13, w12
	bne	.L513
.LVL622:
.L511:
	ret
	.cfi_endproc
.LFE2807:
	.size	refresh_new_image2, .-refresh_new_image2
	.align	2
	.p2align 3,,7
	.global	new_buffer_refresh
	.type	new_buffer_refresh, %function
new_buffer_refresh:
.LFB2809:
	.loc 1 304 0
	.cfi_startproc
.LVL623:
	stp	x29, x30, [sp, -32]!
	.cfi_def_cfa_offset 32
	.cfi_offset 29, -32
	.cfi_offset 30, -24
	.loc 1 305 0
	adrp	x0, .LANCHOR0
.LVL624:
	.loc 1 304 0
	add	x29, sp, 0
	.cfi_def_cfa_register 29
	stp	x19, x20, [sp, 16]
	.cfi_offset 19, -16
	.cfi_offset 20, -8
	.loc 1 308 0
	adrp	x19, .LANCHOR1
	add	x19, x19, :lo12:.LANCHOR1
	.loc 1 305 0
	ldr	x20, [x0, #:lo12:.LANCHOR0]
.LVL625:
	.loc 1 308 0
	add	x19, x19, 600
	mov	x0, x19
	bl	down
.LVL626:
	.loc 1 310 0
	add	x4, x20, 176
	ldr	x1, [x4, 208]
	.loc 1 309 0
	ldr	x0, [x4, 128]
	ldp	x2, x3, [x4, 144]
	ldr	w5, [x1, 40]
	ldr	x1, [x1, 16]
	bl	refresh_new_image2
.LVL627:
	.loc 1 314 0
	mov	x0, x19
	bl	up
.LVL628:
	.loc 1 315 0
	ldp	x19, x20, [sp, 16]
.LVL629:
	ldp	x29, x30, [sp], 32
	.cfi_restore 30
	.cfi_restore 29
	.cfi_restore 19
	.cfi_restore 20
	.cfi_def_cfa 31, 0
	ret
	.cfi_endproc
.LFE2809:
	.size	new_buffer_refresh, .-new_buffer_refresh
	.align	2
	.p2align 3,,7
	.type	ebc_thread, %function
ebc_thread:
.LFB2821:
	.loc 1 865 0
	.cfi_startproc
.LVL630:
	stp	x29, x30, [sp, -160]!
	.cfi_def_cfa_offset 160
	.cfi_offset 29, -160
	.cfi_offset 30, -152
	.loc 1 866 0
	adrp	x1, .LANCHOR0
	.loc 1 865 0
	add	x29, sp, 0
	.cfi_def_cfa_register 29
	stp	x19, x20, [sp, 16]
	stp	x23, x24, [sp, 48]
	.cfi_offset 19, -144
	.cfi_offset 20, -136
	.cfi_offset 23, -112
	.cfi_offset 24, -104
	adrp	x24, __stack_chk_guard
	stp	x25, x26, [sp, 64]
	add	x0, x24, :lo12:__stack_chk_guard
.LVL631:
	stp	x21, x22, [sp, 32]
	.cfi_offset 25, -96
	.cfi_offset 26, -88
	.cfi_offset 21, -128
	.cfi_offset 22, -120
	adrp	x22, .LANCHOR1
	stp	x27, x28, [sp, 80]
	.cfi_offset 27, -80
	.cfi_offset 28, -72
.LBB1566:
.LBB1567:
.LBB1568:
	.loc 1 1135 0
	add	x22, x22, :lo12:.LANCHOR1
.LBE1568:
.LBE1567:
.LBE1566:
	.loc 1 866 0
	ldr	x20, [x1, #:lo12:.LANCHOR0]
.LVL632:
.LBB1575:
.LBB1572:
.LBB1569:
	.loc 1 1135 0
	add	x19, x22, 304
.LBE1569:
.LBE1572:
.LBE1575:
	.loc 1 865 0
	ldr	x1, [x0]
	str	x1, [x29, 152]
	mov	x1,0
	.loc 1 871 0
	mov	w26, 0
.LVL633:
	.loc 1 868 0
	add	x27, x20, 176
	.loc 1 870 0
	mov	w23, 0
.LVL634:
.LBB1576:
.LBB1573:
.LBB1570:
	.loc 1 1135 0
	mov	w25, 1
.LVL635:
	.p2align 2
.L526:
.LBE1570:
.LBE1573:
.LBE1576:
	.loc 1 874 0
	ldr	w0, [x27, 600]
.LVL636:
	cbnz	w0, .L656
.L527:
	.loc 1 880 0
	bl	ebc_dsp_buf_get
.LVL637:
	mov	x28, x0
	.loc 1 882 0
	cbz	x0, .L529
	.loc 1 882 0 is_stmt 0 discriminator 1
	ldr	x1, [x0, 8]
	cbz	x1, .L529
	.loc 1 883 0 is_stmt 1
	ldr	w1, [x0, 40]
	cmp	w1, 17
	beq	.L657
	.loc 1 887 0
	ldr	x2, [x27, 592]
	cbz	x2, .L532
	.loc 1 888 0
	cmp	w1, 16
	beq	.L658
	.loc 1 894 0
	bl	ebc_remove_from_dsp_buf_list
.LVL638:
	.loc 1 895 0
	mov	x0, x28
	bl	ebc_buf_release
.LVL639:
	.loc 1 874 0
	ldr	w0, [x27, 600]
	cbz	w0, .L527
	.p2align 2
.L656:
	.loc 1 875 0
	ldr	w0, [x27, 184]
	cmp	w0, 1
	beq	.L659
.L528:
	.loc 1 1141 0
	add	x24, x24, :lo12:__stack_chk_guard
	mov	w0, 0
	ldr	x2, [x29, 152]
	ldr	x1, [x24]
	eor	x1, x2, x1
	cbnz	x1, .L660
	ldp	x19, x20, [sp, 16]
.LVL640:
	ldp	x21, x22, [sp, 32]
	ldp	x23, x24, [sp, 48]
.LVL641:
	ldp	x25, x26, [sp, 64]
.LVL642:
	ldp	x27, x28, [sp, 80]
.LVL643:
	ldp	x29, x30, [sp], 160
	.cfi_remember_state
	.cfi_restore 30
	.cfi_restore 29
	.cfi_restore 27
	.cfi_restore 28
	.cfi_restore 25
	.cfi_restore 26
	.cfi_restore 23
	.cfi_restore 24
	.cfi_restore 21
	.cfi_restore 22
	.cfi_restore 19
	.cfi_restore 20
	.cfi_def_cfa 31, 0
	ret
.LVL644:
	.p2align 3
.L529:
	.cfi_restore_state
	.loc 1 1122 0
	ldr	w0, [x27, 28]
.LVL645:
	cmp	w0, 1
	beq	.L661
	.loc 1 1131 0
	ldr	w0, [x27, 184]
	cmp	w0, 1
	beq	.L662
.LVL646:
.L653:
	ldr	w0, [x27, 80]
.LVL647:
	.loc 1 1134 0
	cbz	w0, .L663
.L607:
.LVL648:
.L597:
	.loc 1 1136 0
	str	wzr, [x27, 80]
	b	.L526
.LVL649:
	.p2align 3
.L663:
.LBB1577:
.LBB1574:
	.loc 1 1135 0 discriminator 1
	mov	w1, 0
	add	x0, x29, 112
	bl	init_wait_entry
.LVL650:
	b	.L608
	.p2align 3
.L664:
.LVL651:
.LBB1571:
	.loc 1 1135 0 is_stmt 0 discriminator 5
	cbnz	x0, .L597
	.loc 1 1135 0 discriminator 7
	bl	schedule
.LVL652:
.L608:
	.loc 1 1135 0 discriminator 9
	add	x1, x29, 112
	mov	w2, 1
	mov	x0, x19
	bl	prepare_to_wait_event
.LVL653:
	ldr	w1, [x27, 80]
	cbz	w1, .L664
.LBE1571:
	.loc 1 1135 0 discriminator 4
	add	x1, x29, 112
	mov	x0, x19
	bl	finish_wait
.LVL654:
.LBE1574:
.LBE1577:
	.loc 1 1136 0 is_stmt 1 discriminator 4
	str	wzr, [x27, 80]
	b	.L526
.LVL655:
	.p2align 3
.L532:
	.loc 1 900 0
	cmp	w1, 15
	beq	.L665
	.loc 1 903 0
	ldr	w0, [x27, 608]
.LVL656:
	cmp	w0, 0
	ccmp	w1, 1, 4, ne
	beq	.L531
	.loc 1 904 0
	ldrsw	x2, [x27, 20]
	ldr	x1, [x28, 16]
	ldr	x0, [x27, 144]
	bl	memcpy
.LVL657:
	.loc 1 905 0
	mov	x0, x28
	bl	ebc_remove_from_dsp_buf_list
.LVL658:
	.loc 1 906 0
	mov	x0, x28
	bl	ebc_buf_release
.LVL659:
	.loc 1 908 0
	adrp	x0, .LANCHOR0
	add	x0, x0, :lo12:.LANCHOR0
	ldr	x0, [x0, 16]
	bl	wake_up_process
.LVL660:
.LBB1578:
	.loc 1 909 0
	ldr	w0, [x27, 32]
	cbz	w0, .L666
.L538:
.LVL661:
.L536:
.LBE1578:
	.loc 1 911 0 discriminator 11
	ldr	w0, [x27, 28]
.LVL662:
	.loc 1 910 0 discriminator 11
	str	wzr, [x27, 32]
	.loc 1 911 0 discriminator 11
	cbnz	w0, .L526
	.loc 1 914 0
	ldr	w0, [x27, 184]
	.loc 1 912 0
	str	w25, [x27, 28]
	.loc 1 913 0
	str	wzr, [x27, 76]
	.loc 1 914 0
	cbz	w0, .L667
.L540:
	.loc 1 916 0
	mov	x0, x20
	bl	ebc_frame_start
.LVL663:
	b	.L526
.LVL664:
.L658:
	.loc 1 889 0
	str	wzr, [x27, 592]
	.loc 1 890 0
	mov	x0, 3
.LVL665:
	bl	ebc_notify
.LVL666:
	.loc 1 891 0
	ldr	x0, [x27, 88]
	adrp	x1, .LC75
	add	x1, x1, :lo12:.LC75
	bl	_dev_info
.LVL667:
	.p2align 2
.L531:
	.loc 1 922 0
	adrp	x21, jiffies
	mov	x1, 402653184
	add	x0, x20, 608
	ldr	x2, [x21, #:lo12:jiffies]
	add	x1, x2, x1
	bl	mod_timer
.LVL668:
	.loc 1 924 0
	ldr	w0, [x27, 428]
	cbz	w0, .L541
	ldr	x0, [x27, 200]
.L542:
	.loc 1 927 0
	ldr	w2, [x0, 40]
	ldr	w3, [x28, 40]
	cmp	w3, w2
	beq	.L543
	.loc 1 928 0
	ldr	x0, [x27, 88]
	adrp	x1, .LC76
	add	x1, x1, :lo12:.LC76
	bl	_dev_info
.LVL669:
	ldr	w2, [x28, 40]
.L543:
	.loc 1 930 0
	cmp	w2, 6
	bgt	.L545
	cmp	w2, 2
	bge	.L612
	cbz	w2, .L547
	cmp	w2, 1
	bne	.L544
	.loc 1 932 0
	ldr	w0, [x27, 604]
	cbz	w0, .L550
	.loc 1 933 0
	str	w2, [x27, 608]
.L550:
	.loc 1 935 0
	ldr	x1, [x27, 200]
	.loc 1 934 0
	str	x28, [x27, 208]
	.loc 1 935 0
	ldr	w0, [x1, 40]
	cmp	w0, 1
	bls	.L551
	.loc 1 937 0
	ldrsw	x2, [x27, 20]
	ldr	x1, [x1, 16]
	ldr	x0, [x27, 128]
	bl	memcpy
.LVL670:
	.loc 1 938 0
	ldr	x0, [x27, 200]
	ldrsw	x2, [x27, 20]
	ldr	x1, [x0, 16]
	ldr	x0, [x27, 136]
	bl	memcpy
.LVL671:
	.loc 1 939 0
	ldr	x0, [x27, 200]
	ldrsw	x2, [x27, 20]
	ldr	x1, [x0, 16]
	ldr	x0, [x27, 144]
	bl	memcpy
.LVL672:
	ldr	x1, [x27, 208]
.L552:
.LBB1582:
.LBB1583:
	.loc 1 334 0
	ldp	w2, w14, [x1, 48]
	.loc 1 335 0
	ldp	w0, w17, [x1, 56]
	.loc 1 332 0
	cmp	w2, 0
	.loc 1 337 0
	ldr	w5, [x27, 60]
	.loc 1 332 0
	add	w16, w2, 15
	csel	w16, w16, w2, lt
	.loc 1 333 0
	add	w10, w0, 15
	cmp	w0, 0
.LBE1583:
.LBE1582:
	.loc 1 944 0
	ldr	w12, [x1, 40]
.LBB1588:
.LBB1584:
	.loc 1 333 0
	csel	w10, w10, w0, lt
	.loc 1 337 0
	cmp	w5, 0
	add	w0, w5, 15
	.loc 1 333 0
	asr	w10, w10, 4
	.loc 1 337 0
	csel	w0, w0, w5, lt
	.loc 1 333 0
	add	w10, w10, 1
.LVL673:
	.loc 1 337 0
	asr	w0, w0, 4
	.loc 1 332 0
	asr	w16, w16, 4
.LVL674:
	.loc 1 340 0
	cmp	w10, w0
	sub	w0, w0, #1
	csel	w10, w0, w10, ge
	.loc 1 338 0
	ldr	w0, [x27, 56]
.LBE1584:
.LBE1588:
	.loc 1 944 0
	ldr	x11, [x1, 16]
.LVL675:
.LBB1589:
.LBB1585:
	.loc 1 342 0
	cmp	w17, w0
	sub	w0, w0, #1
.LVL676:
	csel	w17, w0, w17, ge
.LBE1585:
.LBE1589:
	.loc 1 944 0
	ldr	x8, [x27, 128]
.LVL677:
.LBB1590:
.LBB1586:
	.loc 1 344 0
	cmp	w14, w17
.LBE1586:
.LBE1590:
	.loc 1 945 0
	ldp	x13, x9, [x27, 144]
.LBB1591:
.LBB1587:
	.loc 1 344 0
	bgt	.L555
	.loc 1 368 0
	mov	x15, 72340172838076673
.LVL678:
	.p2align 2
.L556:
	.loc 1 345 0
	mul	w5, w14, w5
	.loc 1 349 0
	mov	w2, w16
	cmp	w16, w10
	.loc 1 345 0
	add	w5, w5, w5, lsr 31
	asr	w5, w5, 1
	sxtw	x5, w5
	.loc 1 349 0
	ble	.L635
	b	.L565
.LVL679:
	.p2align 3
.L668:
	.loc 1 364 0
	and	x1, x1, x3
.LVL680:
	str	x1, [x8, x0]
.L563:
	.loc 1 349 0
	add	w2, w2, 1
	cmp	w2, w10
	bgt	.L565
.L635:
	add	x0, x5, x2, sxtw 3
	.loc 1 353 0
	mov	x3, -1
	.loc 1 351 0
	ldr	x1, [x11, x0]
.LVL681:
	.loc 1 352 0
	cbz	w12, .L561
	.loc 1 355 0
	ldr	x3, [x13, x0]
.L561:
	.loc 1 363 0
	ldr	x4, [x9, x0]
	cbz	x4, .L668
	.loc 1 366 0
	ldr	x4, [x8, x0]
	and	x1, x1, x3
.LVL682:
	cmp	x4, x1
	beq	.L563
	.loc 1 367 0
	str	x1, [x8, x0]
	.loc 1 349 0
	add	w2, w2, 1
	.loc 1 368 0
	str	x15, [x9, x0]
	.loc 1 349 0
	cmp	w2, w10
	ble	.L635
.L565:
	.loc 1 344 0
	add	w14, w14, 1
	cmp	w14, w17
	bgt	.L555
	ldr	w5, [x27, 60]
	b	.L556
.LVL683:
	.p2align 3
.L541:
.LBE1587:
.LBE1591:
	.loc 1 925 0
	mov	x0, x28
	str	x28, [x27, 200]
	b	.L542
.LVL684:
	.p2align 3
.L657:
	.loc 1 885 0
	str	wzr, [x27, 604]
	.loc 1 884 0
	str	wzr, [x27, 608]
	b	.L531
.LVL685:
	.p2align 3
.L545:
	.loc 1 930 0
	cmp	w2, 13
	ble	.L546
	cmp	w2, 17
	ble	.L612
.L544:
	.loc 1 1088 0
	ldr	x0, [x27, 88]
	adrp	x1, .LC83
	add	x1, x1, :lo12:.LC83
	bl	_dev_err
.LVL686:
.L558:
	.loc 1 1096 0
	ldr	x0, [x27, 208]
	ldr	w0, [x0, 40]
	cmp	w0, 17
	beq	.L669
.L593:
	.loc 1 1102 0
	cmp	w0, 15
	beq	.L670
.L594:
	.loc 1 1111 0
	mov	x0, x28
	bl	ebc_remove_from_dsp_buf_list
.LVL687:
	.loc 1 1113 0
	ldr	w0, [x27, 428]
	cbnz	w0, .L671
.L595:
	.loc 1 1116 0
	str	w25, [x27, 428]
.L596:
	.loc 1 1118 0
	ldr	x0, [x27, 208]
	str	x0, [x27, 200]
	.loc 1 1119 0
	b	.L526
.L612:
	.loc 1 1009 0
	mov	w23, 1
.L546:
	.loc 1 1017 0
	ldr	w0, [x27, 28]
	cmp	w0, 1
	beq	.L672
	.loc 1 1023 0
	ldr	x0, [x27, 200]
	ldr	w1, [x0, 40]
	cmp	w1, 1
	bls	.L673
.L577:
	.loc 1 1027 0
	str	wzr, [x27, 76]
	.loc 1 1028 0
	str	x28, [x27, 208]
	.loc 1 1030 0
	ldr	w9, [x28, 40]
	.loc 1 1033 0
	sub	w0, w9, #7
	.loc 1 1030 0
	cmp	w0, 4
	bls	.L674
.LVL688:
.L578:
	.loc 1 1043 0
	cbnz	w23, .L616
	.loc 1 1047 0
	ldr	w1, [x27, 52]
	mov	x0, x28
	cmp	w1, 0
	ble	.L585
	.loc 1 1048 0
	add	w26, w26, 1
	.loc 1 1049 0
	cmp	w1, w26
	bgt	.L585
	.loc 1 1050 0
	mov	w0, 2
	str	w0, [x28, 40]
	.loc 1 1051 0
	mov	w26, 0
	ldr	x0, [x27, 208]
	ldr	w9, [x0, 40]
.L585:
	.loc 1 1056 0
	cmp	w9, 12
	beq	.L675
.L586:
	.loc 1 1062 0
	ldr	w0, [x27, 184]
	cbz	w0, .L676
.L587:
	.loc 1 1065 0
	mov	x0, x20
	bl	ebc_lut_update
.LVL689:
	mov	w23, w0
	cbz	w0, .L588
.L681:
	.loc 1 1066 0
	ldr	x0, [x27, 88]
	adrp	x1, .LC78
	add	x1, x1, :lo12:.LC78
	.loc 1 1067 0
	mov	w23, 0
	.loc 1 1066 0
	bl	_dev_err
.LVL690:
	.loc 1 1096 0
	ldr	x0, [x27, 208]
	ldr	w0, [x0, 40]
	cmp	w0, 17
	bne	.L593
.LVL691:
.L669:
	.loc 1 1099 0
	ldr	x0, [x27, 88]
	adrp	x1, .LC84
	.loc 1 1098 0
	str	wzr, [x27, 188]
	.loc 1 1099 0
	add	x1, x1, :lo12:.LC84
	.loc 1 1097 0
	str	w25, [x27, 600]
	.loc 1 1099 0
	bl	_dev_info
.LVL692:
	.loc 1 1100 0
	mov	w2, 1
	mov	w1, w2
	add	x0, x22, 328
	bl	__wake_up_sync
.LVL693:
	.loc 1 1111 0
	mov	x0, x28
	bl	ebc_remove_from_dsp_buf_list
.LVL694:
	.loc 1 1113 0
	ldr	w0, [x27, 428]
	cbz	w0, .L595
	.p2align 2
.L671:
	.loc 1 1114 0
	ldr	x0, [x27, 200]
	bl	ebc_buf_release
.LVL695:
	b	.L596
	.p2align 3
.L661:
.LBB1592:
	.loc 1 1123 0 discriminator 1
	ldr	w0, [x27, 80]
	cbnz	w0, .L597
.LBB1593:
	.loc 1 1123 0 is_stmt 0 discriminator 3
	mov	w1, 0
	add	x0, x29, 112
	bl	init_wait_entry
.LVL696:
	b	.L601
	.p2align 3
.L677:
.LBB1594:
	.loc 1 1123 0 discriminator 7
	ldr	w1, [x27, 80]
	cbnz	w1, .L598
.LVL697:
	.loc 1 1123 0 discriminator 9
	cbnz	x0, .L653
	.loc 1 1123 0 discriminator 11
	bl	schedule
.LVL698:
.L601:
	.loc 1 1123 0 discriminator 13
	add	x1, x29, 112
	mov	w2, 1
	mov	x0, x19
	bl	prepare_to_wait_event
.LVL699:
	ldr	w1, [x27, 28]
	cbnz	w1, .L677
.L598:
.LBE1594:
	.loc 1 1123 0 discriminator 8
	mov	x0, x19
	add	x1, x29, 112
	bl	finish_wait
.LVL700:
	ldr	w0, [x27, 28]
.LBE1593:
.LBE1592:
	.loc 1 1126 0 is_stmt 1 discriminator 8
	cbnz	w0, .L653
	.loc 1 1131 0
	ldr	w0, [x27, 184]
	cmp	w0, 1
	bne	.L653
	.p2align 2
.L662:
	.loc 1 1132 0
	mov	x0, x20
	bl	ebc_power_set.constprop.7
.LVL701:
	b	.L653
	.p2align 3
.L547:
	.loc 1 965 0
	add	x0, x22, 600
	bl	down
.LVL702:
	.loc 1 968 0
	ldr	x0, [x27, 200]
	mov	x1, x28
	.loc 1 966 0
	str	x28, [x27, 208]
	.loc 1 968 0
	ldr	w0, [x0, 40]
	cbnz	w0, .L678
.L567:
	.loc 1 977 0
	ldr	w5, [x1, 40]
	mov	x4, x27
	ldr	x1, [x1, 16]
	ldr	x0, [x27, 128]
	ldp	x2, x3, [x27, 144]
	bl	refresh_new_image2
.LVL703:
.L569:
	.loc 1 981 0
	add	x0, x22, 600
	bl	up
.LVL704:
	.loc 1 983 0
	ldr	w0, [x27, 28]
	cbnz	w0, .L558
	.loc 1 986 0
	ldr	w0, [x27, 184]
	.loc 1 984 0
	str	w25, [x27, 28]
	.loc 1 985 0
	str	wzr, [x27, 76]
	.loc 1 986 0
	cbz	w0, .L679
.L570:
	.loc 1 988 0
	mov	x0, x20
	bl	ebc_lut_update
.LVL705:
	cmn	w0, #1
	beq	.L680
	.loc 1 996 0
	ldr	x0, [x27, 88]
	adrp	x1, .LC79
	.loc 1 993 0
	ldr	w3, [x27, 96]
	.loc 1 996 0
	add	x1, x1, :lo12:.LC79
	.loc 1 993 0
	strb	w3, [x27, 36]
.L652:
	.loc 1 996 0
	and	w2, w3, 255
	.loc 1 994 0
	lsr	w3, w3, 8
	strb	w3, [x27, 37]
	.loc 1 996 0
	bl	_dev_info
.LVL706:
	.loc 1 997 0
	mov	x0, x20
	bl	ebc_frame_start
.LVL707:
	b	.L558
.LVL708:
.L616:
	mov	x0, x28
	.loc 1 1044 0
	mov	w26, 0
	.loc 1 1056 0
	cmp	w9, 12
	bne	.L586
.L675:
	.loc 1 1057 0
	ldr	x1, [x27, 200]
	.loc 1 1058 0
	ldr	w1, [x1, 40]
	sub	w1, w1, #12
	cmp	w1, 1
	bls	.L586
	.loc 1 1059 0
	mov	w1, 13
	str	w1, [x0, 40]
	.loc 1 1062 0
	ldr	w0, [x27, 184]
	cbnz	w0, .L587
.L676:
.LBB1595:
.LBB1596:
	mov	w1, 1
	mov	x0, x20
	bl	ebc_power_set.part.1
.LVL709:
.LBE1596:
.LBE1595:
	.loc 1 1065 0
	mov	x0, x20
	bl	ebc_lut_update
.LVL710:
	mov	w23, w0
	cbnz	w0, .L681
.L588:
	.loc 1 1075 0
	ldr	x0, [x27, 208]
	adrp	x1, .LC82
	.loc 1 1072 0
	ldr	w3, [x27, 96]
	.loc 1 1075 0
	add	x1, x1, :lo12:.LC82
	.loc 1 1072 0
	strb	w3, [x27, 36]
	.loc 1 1075 0
	and	w3, w3, 255
	ldr	w2, [x0, 40]
	ldr	x0, [x27, 88]
	bl	_dev_info
.LVL711:
	.loc 1 1076 0
	str	w25, [x27, 28]
	.loc 1 1077 0
	mov	x0, x20
	bl	ebc_frame_start
.LVL712:
	.loc 1 1079 0
	ldr	x1, [x21, #:lo12:jiffies]
	add	x0, x20, 664
	str	x0, [x29, 96]
	add	x1, x1, 900
	bl	mod_timer
.LVL713:
.LBB1597:
	.loc 1 1080 0
	ldr	w0, [x27, 76]
	cbz	w0, .L682
.L591:
.LVL714:
.L589:
.LBE1597:
	.loc 1 1082 0 discriminator 11
	ldr	x2, [x21, #:lo12:jiffies]
	mov	x1, 402653184
	ldr	x0, [x29, 96]
.LVL715:
	add	x1, x2, x1
	bl	mod_timer
.LVL716:
	.loc 1 1083 0 discriminator 11
	str	wzr, [x27, 76]
	.loc 1 1085 0 discriminator 11
	b	.L558
.L674:
	.loc 1 1037 0
	ldp	w8, w0, [x20, 100]
	.loc 1 1035 0
	ldr	x4, [x28, 16]
	.loc 1 1037 0
	mul	w8, w8, w0
	.loc 1 1036 0
	ldr	x0, [x27, 200]
	.loc 1 1037 0
	lsr	w8, w8, 1
	.loc 1 1036 0
	ldr	x5, [x0, 16]
.LBB1602:
.LBB1603:
	.loc 1 840 0
	asr	w0, w8, 3
	cbz	w0, .L579
	.loc 1 844 0
	ldr	x1, [x4]
	ldr	x2, [x5]
	cmp	x2, x1
	bne	.L578
	sub	w3, w0, #1
	mov	x0, 8
	add	x3, x3, 1
	lsl	x3, x3, 3
	b	.L581
	.p2align 3
.L582:
	.loc 1 841 0
	ldr	x2, [x4, x0]
	add	x0, x0, 8
	.loc 1 842 0
	add	x1, x5, x0
	.loc 1 844 0
	ldr	x1, [x1, -8]
	cmp	x2, x1
	bne	.L578
.L581:
	.loc 1 840 0
	cmp	x3, x0
	bne	.L582
.L579:
	.loc 1 850 0
	ands	w8, w8, 7
.LVL717:
	beq	.L583
	sub	w1, w8, #1
	mov	x0, 0
	add	x1, x1, 1
	lsl	x1, x1, 2
	b	.L584
	.p2align 3
.L683:
	add	x0, x0, 4
	.loc 1 851 0
	cmp	x0, x1
	beq	.L583
.L584:
.LBB1604:
	.loc 1 855 0
	ldrb	w3, [x4, x0]
	ldrb	w2, [x5, x0]
	cmp	w3, w2
	beq	.L683
	b	.L578
.LVL718:
.L551:
.LBE1604:
.LBE1603:
.LBE1602:
	mov	x1, x28
	.loc 1 940 0
	cbnz	w0, .L552
	.loc 1 941 0
	ldp	x1, x0, [x27, 136]
	ldrsw	x2, [x27, 20]
	bl	memcpy
.LVL719:
	ldr	x1, [x27, 208]
	b	.L552
.LVL720:
.L555:
	.loc 1 948 0
	ldr	w0, [x27, 28]
	cbnz	w0, .L558
	.loc 1 951 0
	ldr	w0, [x27, 184]
	.loc 1 949 0
	str	w25, [x27, 28]
	.loc 1 950 0
	str	wzr, [x27, 76]
	.loc 1 951 0
	cbz	w0, .L684
.L566:
	.loc 1 953 0
	mov	x0, x20
	bl	ebc_lut_update
.LVL721:
	cmn	w0, #1
	beq	.L558
	.loc 1 957 0
	ldr	w3, [x27, 96]
	.loc 1 960 0
	adrp	x1, .LC77
	.loc 1 957 0
	strb	w3, [x27, 36]
	.loc 1 960 0
	add	x1, x1, :lo12:.LC77
	ldr	x0, [x27, 88]
	b	.L652
.LVL722:
.L665:
	.loc 1 901 0
	str	wzr, [x27, 608]
	b	.L531
.LVL723:
.L670:
	.loc 1 1106 0
	ldr	x0, [x27, 88]
	adrp	x1, .LC85
	.loc 1 1103 0
	str	wzr, [x27, 188]
	.loc 1 1106 0
	add	x1, x1, :lo12:.LC85
	.loc 1 1104 0
	str	w25, [x27, 592]
	.loc 1 1105 0
	str	wzr, [x27, 608]
	.loc 1 1106 0
	bl	_dev_info
.LVL724:
	.loc 1 1107 0
	mov	x0, 2
	bl	ebc_notify
.LVL725:
	.loc 1 1108 0
	mov	w2, 1
	add	x0, x22, 328
	mov	w1, w2
	bl	__wake_up_sync
.LVL726:
	b	.L594
.L678:
	.loc 1 969 0
	ldrsw	x2, [x27, 20]
	mov	w1, 255
	ldr	x0, [x27, 144]
	bl	memset
.LVL727:
	.loc 1 971 0
	ldr	x0, [x27, 200]
	ldr	w0, [x0, 40]
	cmp	w0, 1
	bls	.L685
	.loc 1 973 0
	ldr	x0, [x27, 208]
	ldrsw	x2, [x27, 20]
	ldr	x1, [x0, 16]
	ldr	x0, [x27, 128]
	bl	memcpy
.LVL728:
	.loc 1 974 0
	ldr	x0, [x27, 200]
	ldrsw	x2, [x27, 20]
	ldr	x1, [x0, 16]
	ldr	x0, [x27, 136]
	bl	memcpy
.LVL729:
	b	.L569
.L682:
.LBB1605:
.LBB1598:
.LBB1599:
	.loc 1 1080 0 discriminator 1
	add	x0, x22, 352
.LBE1599:
	mov	w1, 0
.LBB1600:
	str	x0, [x29, 104]
.LBE1600:
	add	x0, x29, 112
	bl	init_wait_entry
.LVL730:
	b	.L592
	.p2align 3
.L686:
.LVL731:
.LBB1601:
	.loc 1 1080 0 is_stmt 0 discriminator 5
	cbnz	x0, .L589
	.loc 1 1080 0 discriminator 7
	bl	schedule
.LVL732:
.L592:
	.loc 1 1080 0 discriminator 9
	ldr	x0, [x29, 104]
	add	x1, x29, 112
	mov	w2, 1
	bl	prepare_to_wait_event
.LVL733:
	ldr	w1, [x27, 76]
	cbz	w1, .L686
.LBE1601:
	.loc 1 1080 0 discriminator 4
	ldr	x0, [x29, 104]
	add	x1, x29, 112
	bl	finish_wait
.LVL734:
	b	.L589
.L666:
.LBE1598:
.LBE1605:
.LBB1606:
.LBB1579:
.LBB1580:
	.loc 1 909 0 is_stmt 1 discriminator 1
	add	x21, x22, 352
.LBE1580:
	mov	w1, 0
	add	x0, x29, 112
	bl	init_wait_entry
.LVL735:
	b	.L539
	.p2align 3
.L687:
.LVL736:
.LBB1581:
	.loc 1 909 0 is_stmt 0 discriminator 5
	cbnz	x0, .L536
	.loc 1 909 0 discriminator 7
	bl	schedule
.LVL737:
.L539:
	.loc 1 909 0 discriminator 9
	add	x1, x29, 112
	mov	w2, 1
	mov	x0, x21
	bl	prepare_to_wait_event
.LVL738:
	ldr	w1, [x27, 32]
	cbz	w1, .L687
.LBE1581:
	.loc 1 909 0 discriminator 4
	mov	x0, x21
	add	x1, x29, 112
	bl	finish_wait
.LVL739:
	b	.L536
.L672:
.LBE1579:
.LBE1606:
	.loc 1 1018 0 is_stmt 1
	ldr	x0, [x27, 88]
	adrp	x1, .LC80
	add	x1, x1, :lo12:.LC80
	bl	_dev_info
.LVL740:
.LBB1607:
	.loc 1 1019 0
	ldr	w0, [x27, 76]
	cbz	w0, .L688
.L575:
.LVL741:
.L573:
.LBE1607:
	.loc 1 1020 0 discriminator 11
	ldr	x0, [x27, 88]
.LVL742:
	adrp	x1, .LC81
	add	x1, x1, :lo12:.LC81
	bl	_dev_info
.LVL743:
	.loc 1 1023 0 discriminator 11
	ldr	x0, [x27, 200]
	ldr	w1, [x0, 40]
	cmp	w1, 1
	bhi	.L577
.L673:
	.loc 1 1025 0
	ldrsw	x2, [x27, 20]
	ldr	x1, [x27, 136]
	ldr	x0, [x0, 16]
	bl	memcpy
.LVL744:
	b	.L577
.L659:
	.loc 1 876 0
	mov	x0, x20
	bl	ebc_power_set.constprop.7
.LVL745:
	b	.L528
.LVL746:
.L583:
	.loc 1 1038 0
	ldr	x0, [x27, 88]
	adrp	x1, .LC86
	add	x1, x1, :lo12:.LC86
	bl	_dev_info
.LVL747:
	.loc 1 1039 0
	b	.L558
.LVL748:
.L684:
.LBB1612:
.LBB1613:
	mov	w1, 1
	mov	x0, x20
	bl	ebc_power_set.part.1
.LVL749:
	b	.L566
.L679:
.LBE1613:
.LBE1612:
.LBB1614:
.LBB1615:
	mov	w1, 1
	mov	x0, x20
	bl	ebc_power_set.part.1
.LVL750:
	b	.L570
.L680:
.LBE1615:
.LBE1614:
	.loc 1 989 0
	ldr	x0, [x27, 88]
	adrp	x1, .LC78
	add	x1, x1, :lo12:.LC78
	bl	_dev_err
.LVL751:
	.loc 1 990 0
	b	.L558
.L688:
.LBB1616:
.LBB1608:
.LBB1609:
	.loc 1 1019 0 discriminator 1
	add	x0, x22, 352
.LBE1609:
	mov	w1, 0
.LBB1610:
	str	x0, [x29, 104]
.LBE1610:
	add	x0, x29, 112
	bl	init_wait_entry
.LVL752:
	b	.L576
	.p2align 3
.L689:
.LVL753:
.LBB1611:
	.loc 1 1019 0 is_stmt 0 discriminator 5
	cbnz	x0, .L573
	.loc 1 1019 0 discriminator 7
	bl	schedule
.LVL754:
.L576:
	.loc 1 1019 0 discriminator 9
	ldr	x0, [x29, 104]
	add	x1, x29, 112
	mov	w2, 1
	bl	prepare_to_wait_event
.LVL755:
	ldr	w1, [x27, 76]
	cbz	w1, .L689
.LBE1611:
	.loc 1 1019 0 discriminator 4
	ldr	x0, [x29, 104]
	add	x1, x29, 112
	bl	finish_wait
.LVL756:
	b	.L573
.L667:
.LBE1608:
.LBE1616:
.LBB1617:
.LBB1618:
	mov	w1, 1
	mov	x0, x20
	bl	ebc_power_set.part.1
.LVL757:
	b	.L540
.L660:
.LBE1618:
.LBE1617:
	.loc 1 1141 0 is_stmt 1
	bl	__stack_chk_fail
.LVL758:
.L685:
	ldr	x1, [x27, 208]
	b	.L567
	.cfi_endproc
.LFE2821:
	.size	ebc_thread, .-ebc_thread
	.align	2
	.p2align 3,,7
	.type	ebc_refresh_tast_function, %function
ebc_refresh_tast_function:
.LFB2808:
	.loc 1 281 0
	.cfi_startproc
.LVL759:
	stp	x29, x30, [sp, -80]!
	.cfi_def_cfa_offset 80
	.cfi_offset 29, -80
	.cfi_offset 30, -72
	.loc 1 282 0
	adrp	x1, .LANCHOR0
	.loc 1 281 0
	adrp	x0, __stack_chk_guard
.LVL760:
	add	x0, x0, :lo12:__stack_chk_guard
	add	x29, sp, 0
	.cfi_def_cfa_register 29
	stp	x19, x20, [sp, 16]
	stp	x21, x22, [sp, 32]
	.cfi_offset 19, -64
	.cfi_offset 20, -56
	.cfi_offset 21, -48
	.cfi_offset 22, -40
	adrp	x21, .LANCHOR1
	stp	x23, x24, [sp, 48]
	.cfi_offset 23, -32
	.cfi_offset 24, -24
	.loc 1 286 0
	add	x21, x21, :lo12:.LANCHOR1
	.loc 1 282 0
	ldr	x19, [x1, #:lo12:.LANCHOR0]
.LVL761:
	.loc 1 286 0
	add	x20, x21, 624
	.loc 1 281 0
	ldr	x1, [x0]
	str	x1, [x29, 72]
	mov	x1,0
.LBB1619:
.LBB1620:
.LBB1621:
	.loc 12 220 0
	mov	x24, 2
.LBE1621:
.LBE1620:
.LBE1619:
	.loc 1 283 0
	add	x19, x19, 176
.LVL762:
	.loc 1 294 0
	mov	w23, 1
.LBB1626:
.LBB1623:
.LBB1624:
	.loc 5 19 0
#APP
// 19 "./arch/arm64/include/asm/current.h" 1
	mrs x22, sp_el0
// 0 "" 2
.LVL763:
	.p2align 2
#NO_APP
.L691:
.LBE1624:
.LBE1623:
.LBE1626:
	.loc 1 286 0 discriminator 1
	mov	x0, x20
	bl	down
.LVL764:
.LBB1627:
.LBB1625:
.LBB1622:
	.loc 12 220 0 discriminator 1
	str	x24, [x22, 32]
.LBE1622:
.LBE1625:
.LBE1627:
	.loc 1 287 0 discriminator 1
#APP
// 287 "drivers/gpu/drm/rockchip/ebc-dev/ebc_dev.c" 1
	dmb ish
// 0 "" 2
	.loc 1 290 0 discriminator 1
#NO_APP
	ldr	x1, [x19, 208]
	.loc 1 289 0 discriminator 1
	mov	x4, x19
	ldp	x2, x3, [x19, 144]
	ldr	x0, [x19, 128]
	ldr	w5, [x1, 40]
	ldr	x1, [x1, 16]
	bl	refresh_new_image2
.LVL765:
	.loc 1 294 0 discriminator 1
	str	w23, [x19, 32]
	.loc 1 295 0 discriminator 1
	mov	w2, 1
	add	x0, x21, 352
	mov	w1, w2
	bl	__wake_up_sync
.LVL766:
	.loc 1 296 0 discriminator 1
	mov	x0, x20
	bl	up
.LVL767:
	.loc 1 297 0 discriminator 1
	bl	schedule
.LVL768:
	b	.L691
	.cfi_endproc
.LFE2808:
	.size	ebc_refresh_tast_function, .-ebc_refresh_tast_function
	.data
	.align	3
	.set	.LANCHOR1,. + 0
	.type	ebc_driver, %object
	.size	ebc_driver, 224
ebc_driver:
	.xword	ebc_probe
	.xword	ebc_remove
	.zero	24
	.xword	.LC87
	.zero	32
	.xword	ebc_match
	.zero	64
	.xword	ebc_pm
	.zero	48
	.zero	16
	.type	ebc_misc, %object
	.size	ebc_misc, 80
ebc_misc:
	.word	243
	.zero	4
	.xword	.LC42
	.xword	ebc_ops
	.zero	56
	.type	ebc_thread_wq, %object
	.size	ebc_thread_wq, 24
ebc_thread_wq:
	.word	0
	.zero	4
	.xword	ebc_thread_wq+8
	.xword	ebc_thread_wq+8
	.type	ebc_poweroff_wq, %object
	.size	ebc_poweroff_wq, 24
ebc_poweroff_wq:
	.word	0
	.zero	4
	.xword	ebc_poweroff_wq+8
	.xword	ebc_poweroff_wq+8
	.type	ebc_wq, %object
	.size	ebc_wq, 24
ebc_wq:
	.word	0
	.zero	4
	.xword	ebc_wq+8
	.xword	ebc_wq+8
	.type	last_temperature.34722, %object
	.size	last_temperature.34722, 4
last_temperature.34722:
	.word	-1
	.type	last_mode.34723, %object
	.size	last_mode.34723, 4
last_mode.34723:
	.word	-1
	.type	ebc_auto_thread_sem, %object
	.size	ebc_auto_thread_sem, 24
ebc_auto_thread_sem:
	.word	0
	.word	1
	.xword	ebc_auto_thread_sem+8
	.xword	ebc_auto_thread_sem+8
	.type	dev_attr_waveform_version, %object
	.size	dev_attr_waveform_version, 32
dev_attr_waveform_version:
	.xword	.LC93
	.hword	292
	.zero	6
	.xword	waveform_version_read
	.xword	0
	.type	dev_attr_pmic_name, %object
	.size	dev_attr_pmic_name, 32
dev_attr_pmic_name:
	.xword	.LC92
	.hword	292
	.zero	6
	.xword	pmic_name_read
	.xword	0
	.type	dev_attr_pmic_temp, %object
	.size	dev_attr_pmic_temp, 32
dev_attr_pmic_temp:
	.xword	.LC91
	.hword	292
	.zero	6
	.xword	pmic_temp_read
	.xword	0
	.type	dev_attr_pmic_vcom, %object
	.size	dev_attr_pmic_vcom, 32
dev_attr_pmic_vcom:
	.xword	.LC90
	.hword	420
	.zero	6
	.xword	pmic_vcom_read
	.xword	pmic_vcom_write
	.type	dev_attr_ebc_version, %object
	.size	dev_attr_ebc_version, 32
dev_attr_ebc_version:
	.xword	.LC89
	.hword	292
	.zero	6
	.xword	ebc_version_read
	.xword	0
	.type	dev_attr_ebc_state, %object
	.size	dev_attr_ebc_state, 32
dev_attr_ebc_state:
	.xword	.LC88
	.hword	292
	.zero	6
	.xword	ebc_state_read
	.xword	0
	.type	auto_sem, %object
	.size	auto_sem, 24
auto_sem:
	.word	0
	.word	1
	.xword	auto_sem+8
	.xword	auto_sem+8
	.type	ebc_refresh_thread_sem, %object
	.size	ebc_refresh_thread_sem, 24
ebc_refresh_thread_sem:
	.word	0
	.word	1
	.xword	ebc_refresh_thread_sem+8
	.xword	ebc_refresh_thread_sem+8
	.bss
	.align	3
	.set	.LANCHOR0,. + 0
	.type	global_ebc, %object
	.size	global_ebc, 8
global_ebc:
	.zero	8
	.type	ebc_auto_task, %object
	.size	ebc_auto_task, 8
ebc_auto_task:
	.zero	8
	.type	ebc_refresh_task, %object
	.size	ebc_refresh_task, 8
ebc_refresh_task:
	.zero	8
	.section	.rodata
	.align	3
	.set	.LANCHOR2,. + 0
	.type	__func__.34877, %object
	.size	__func__.34877, 11
__func__.34877:
	.string	"ebc_io_ctl"
	.align	3
	.set	.LANCHOR3,. + 0
	.type	__func__.34679, %object
	.size	__func__.34679, 16
__func__.34679:
	.string	"ebc_frame_start"
	.type	__func__.35082, %object
	.size	__func__.35082, 19
__func__.35082:
	.string	"ebc_lut_table_init"
	.zero	5
	.type	__func__.35141, %object
	.size	__func__.35141, 12
__func__.35141:
	.string	"ebc_suspend"
	.zero	4
	.type	ebc_match, %object
	.size	ebc_match, 400
ebc_match:
	.zero	64
	.string	"rockchip,ebc-dev"
	.zero	111
	.zero	8
	.zero	200
	.type	ebc_pm, %object
	.size	ebc_pm, 184
ebc_pm:
	.zero	16
	.xword	ebc_suspend
	.xword	ebc_resume
	.zero	152
	.type	ebc_ops, %object
	.size	ebc_ops, 288
ebc_ops:
	.xword	0
	.zero	64
	.xword	ebc_io_ctl
	.xword	ebc_io_ctl
	.xword	ebc_mmap
	.zero	8
	.xword	ebc_open
	.zero	176
	.section	.discard.addressable,"aw",@progbits
	.align	3
	.type	__addressable_ebc_init1956, %object
	.size	__addressable_ebc_init1956, 8
__addressable_ebc_init1956:
	.xword	ebc_init
	.section	.exitcall.exit,"aw",@progbits
	.align	3
	.type	__exitcall_ebc_exit, %object
	.size	__exitcall_ebc_exit, 8
__exitcall_ebc_exit:
	.xword	ebc_exit
	.section	.rodata.str1.8,"aMS",@progbits,1
	.align	3
.LC0:
	.string	"device resume\n"
	.zero	1
.LC1:
	.string	"%s: argp NULL\n"
	.zero	1
.LC2:
	.string	"enable ebc overlay, you can use auto_overlay mode to show somthing over the system display\n"
	.zero	4
.LC3:
	.string	"disable ebc overlay\n"
	.zero	3
.LC4:
	.string	"EBC_SET_FULL_MODE_NUM failed\n"
	.zero	2
.LC5:
	.string	"EBC_GET_BUFFER_INFO failed\n"
	.zero	4
.LC6:
	.string	"%s: unknow cmd\n"
.LC7:
	.string	"full_mode_num = %d\n"
	.zero	4
.LC8:
	.string	"auto frame done\n"
	.zero	7
.LC9:
	.string	"frame done\n"
	.zero	4
.LC10:
	.string	"temperature = %d, out of range0~50 ,use 25 \n"
	.zero	3
.LC11:
	.string	"temperature = %d\n"
	.zero	6
.LC12:
	.string	"get lut data failed\n"
	.zero	3
.LC13:
	.string	"%d\n"
	.zero	4
.LC14:
	.string	"1.02"
	.zero	3
.LC15:
	.string	"%s\n"
	.zero	4
.LC16:
	.string	"invalid value = %s\n"
	.zero	4
.LC17:
	.string	"set vcom value failed\n"
	.zero	1
.LC18:
	.string	"ebc hw power on\n"
	.zero	7
.LC19:
	.string	"width[%d], left pixels [%d] when aligned in 16 pixels\n"
	.zero	1
.LC20:
	.string	"%s: auto mode no need to update\n"
	.zero	7
.LC21:
	.string	"ebc_tcon"
	.zero	7
.LC22:
	.string	"not find ebc tcon\n"
	.zero	5
.LC23:
	.string	"pmic"
	.zero	3
.LC24:
	.string	"not find pmic node\n"
	.zero	4
.LC25:
	.string	"not find pmic i2c client\n"
	.zero	6
.LC26:
	.string	"get drvdata from pmic client failed\n"
	.zero	3
.LC27:
	.string	"panel,width"
	.zero	4
.LC28:
	.string	"panel,panel_color"
	.zero	6
.LC29:
	.string	"panel,mirror"
	.zero	3
.LC30:
	.string	"panel,width-mm"
	.zero	1
.LC31:
	.string	"panel,height-mm"
.LC32:
	.string	"memory-region"
	.zero	2
.LC33:
	.string	"Couldn't address to resource for reserved memory\n"
	.zero	6
.LC34:
	.string	"waveform-region"
.LC35:
	.string	"%s:%d: failed to get mem from reserved\n"
.LC36:
	.string	"Failed to read waveform from mem, we use waveform file from kernel file instead\n"
	.zero	7
.LC37:
	.string	"Failed to read waveform file from kernel, no waveform!!!\n"
	.zero	6
.LC38:
	.string	"failed to create ebc_task thread\n"
	.zero	6
.LC39:
	.string	"ebc_refresh_task"
	.zero	7
.LC40:
	.string	"failed to create ebc_refresh_task thread\n"
	.zero	6
.LC41:
	.string	"ebc_thread"
	.zero	5
.LC42:
	.string	"ebc"
	.zero	4
.LC43:
	.string	"ulogo_addr="
	.zero	4
.LC44:
	.string	"klogo_addr="
	.zero	4
.LC45:
	.string	"ulogo_addr=0x%x"
.LC46:
	.string	"have ulogo display, ulogo addr = 0x%x\n"
	.zero	1
.LC47:
	.string	"malloc ulogo buffer failed\n"
	.zero	4
.LC48:
	.string	"klogo_addr=0x%x"
.LC49:
	.string	"need show klogo, klogo addr = 0x%x\n"
	.zero	4
.LC50:
	.string	"malloc klogo buffer failed\n"
	.zero	4
.LC51:
	.string	"no uboot logo, panel init\n"
	.zero	5
.LC52:
	.string	"rockchip ebc driver %s probe success\n"
	.zero	2
.LC53:
	.string	"panel,height"
	.zero	3
.LC54:
	.string	"panel,sdck"
	.zero	5
.LC55:
	.string	"panel,lsl"
	.zero	6
.LC56:
	.string	"panel,lbl"
	.zero	6
.LC57:
	.string	"panel,ldl"
	.zero	6
.LC58:
	.string	"panel,lel"
	.zero	6
.LC59:
	.string	"panel,gdck-sta"
	.zero	1
.LC60:
	.string	"panel,lgonl"
	.zero	4
.LC61:
	.string	"panel,fsl"
	.zero	6
.LC62:
	.string	"panel,fbl"
	.zero	6
.LC63:
	.string	"panel,fdl"
	.zero	6
.LC64:
	.string	"panel,fel"
	.zero	6
.LC65:
	.string	"panel,panel_16bit"
	.zero	6
.LC66:
	.string	"buffer manage init failed\n"
	.zero	5
.LC67:
	.string	"lut table init failed\n"
	.zero	1
.LC68:
	.string	"ebc_task"
	.zero	7
.LC69:
	.string	"failed to run ebc thread\n"
	.zero	6
.LC70:
	.string	"task init failed\n"
	.zero	6
.LC71:
	.string	"failed to probe panel: %d\n"
	.zero	5
.LC72:
	.string	"ebc hw power off\n"
	.zero	6
.LC73:
	.string	"%s: device is busy now...\n"
	.zero	5
.LC74:
	.string	"device suspend\n"
.LC75:
	.string	"early resume\n"
	.zero	2
.LC76:
	.string	"change display mode from %d to %d\n"
	.zero	5
.LC77:
	.string	"overlay mode start, frame_total=%d\n"
	.zero	4
.LC78:
	.string	"ebc_lut_update err\n"
	.zero	4
.LC79:
	.string	"auto mode start, frame_total=%d\n"
	.zero	7
.LC80:
	.string	"ebc is busy now, waiting prev refresh mode end...\n"
	.zero	5
.LC81:
	.string	"prev refresh mode end\n"
	.zero	1
.LC82:
	.string	"frame start, mode = %d, framecount = %d\n"
	.zero	7
.LC83:
	.string	"ebc buffer mode error!\n"
.LC84:
	.string	"power off\n"
	.zero	5
.LC85:
	.string	"early suspend\n"
	.zero	1
.LC86:
	.string	"check_part_mode==0, no need refresh\n"
	.zero	3
.LC87:
	.string	"ebc-dev"
.LC88:
	.string	"ebc_state"
	.zero	6
.LC89:
	.string	"ebc_version"
	.zero	4
.LC90:
	.string	"pmic_vcom"
	.zero	6
.LC91:
	.string	"pmic_temp"
	.zero	6
.LC92:
	.string	"pmic_name"
	.zero	6
.LC93:
	.string	"waveform_version"
	.text
.Letext0:
	.file 19 "./include/uapi/asm-generic/int-ll64.h"
	.file 20 "./include/asm-generic/int-ll64.h"
	.file 21 "./include/uapi/asm-generic/posix_types.h"
	.file 22 "./include/uapi/linux/types.h"
	.file 23 "./include/linux/export.h"
	.file 24 "./include/linux/types.h"
	.file 25 "./arch/arm64/include/asm/insn.h"
	.file 26 "./include/linux/init.h"
	.file 27 "./arch/arm64/include/asm/alternative.h"
	.file 28 "./include/asm-generic/atomic-long.h"
	.file 29 "./arch/arm64/include/asm/cache.h"
	.file 30 "./include/linux/printk.h"
	.file 31 "./include/linux/fs.h"
	.file 32 "./include/linux/kernel.h"
	.file 33 "./include/linux/notifier.h"
	.file 34 "./include/asm-generic/bug.h"
	.file 35 "./include/linux/time64.h"
	.file 36 "./include/uapi/linux/time.h"
	.file 37 "./include/linux/restart_block.h"
	.file 38 "./include/linux/compat_time.h"
	.file 39 "./arch/arm64/include/asm/memory.h"
	.file 40 "./arch/arm64/include/asm/thread_info.h"
	.file 41 "./arch/arm64/include/asm/hwcap.h"
	.file 42 "./arch/arm64/include/uapi/asm/ptrace.h"
	.file 43 "./include/asm-generic/qspinlock_types.h"
	.file 44 "./include/asm-generic/qrwlock_types.h"
	.file 45 "./include/linux/lockdep.h"
	.file 46 "./include/linux/spinlock_types.h"
	.file 47 "./include/linux/rwlock_types.h"
	.file 48 "./include/linux/jump_label.h"
	.file 49 "./arch/arm64/include/asm/jump_label.h"
	.file 50 "./arch/arm64/include/asm/cpufeature.h"
	.file 51 "./include/asm-generic/sections.h"
	.file 52 "./arch/arm64/include/asm/stack_pointer.h"
	.file 53 "./arch/arm64/include/asm/sections.h"
	.file 54 "./arch/arm64/include/asm/virt.h"
	.file 55 "./arch/arm64/include/asm/processor.h"
	.file 56 "./arch/arm64/include/asm/fpsimd.h"
	.file 57 "./include/linux/sched/debug.h"
	.file 58 "./include/linux/wait.h"
	.file 59 "./include/linux/cpumask.h"
	.file 60 "./include/linux/rcupdate.h"
	.file 61 "./include/linux/list_bl.h"
	.file 62 "./include/linux/seqlock.h"
	.file 63 "./include/linux/lockref.h"
	.file 64 "./include/linux/dcache.h"
	.file 65 "./include/linux/path.h"
	.file 66 "./include/linux/pid.h"
	.file 67 "./include/linux/highuid.h"
	.file 68 "./include/linux/uidgid.h"
	.file 69 "./include/linux/osq_lock.h"
	.file 70 "./include/linux/debug_locks.h"
	.file 71 "./include/linux/mutex.h"
	.file 72 "./include/linux/sched.h"
	.file 73 "./include/linux/time.h"
	.file 74 "./include/linux/llist.h"
	.file 75 "./include/linux/smp.h"
	.file 76 "./include/asm-generic/percpu.h"
	.file 77 "./arch/arm64/include/asm/smp.h"
	.file 78 "./include/clocksource/arm_arch_timer.h"
	.file 79 "./arch/arm64/include/asm/arch_timer.h"
	.file 80 "./include/linux/timex.h"
	.file 81 "./include/linux/jiffies.h"
	.file 82 "./include/linux/ktime.h"
	.file 83 "./include/linux/timekeeping.h"
	.file 84 "./include/linux/timer.h"
	.file 85 "./include/linux/stddef.h"
	.file 86 "./include/linux/refcount.h"
	.file 87 "./arch/arm64/include/asm/pgtable-types.h"
	.file 88 "./include/asm-generic/pgtable-nop4d-hack.h"
	.file 89 "./arch/arm64/include/asm/page.h"
	.file 90 "./include/linux/mm_types.h"
	.file 91 "./include/linux/plist.h"
	.file 92 "./include/linux/rbtree.h"
	.file 93 "./include/linux/percpu.h"
	.file 94 "./include/linux/timerqueue.h"
	.file 95 "./include/linux/hrtimer.h"
	.file 96 "./include/linux/seccomp.h"
	.file 97 "./include/linux/nodemask.h"
	.file 98 "./include/uapi/asm-generic/signal.h"
	.file 99 "./include/uapi/asm-generic/siginfo.h"
	.file 100 "./include/linux/sched/user.h"
	.file 101 "./include/linux/signal_types.h"
	.file 102 "./include/linux/mm_types_task.h"
	.file 103 "./include/linux/task_io_accounting.h"
	.file 104 "./include/uapi/linux/rseq.h"
	.file 105 "./include/linux/completion.h"
	.file 106 "./include/linux/cred.h"
	.file 107 "./include/linux/iocontext.h"
	.file 108 "./include/linux/uprobes.h"
	.file 109 "./include/linux/vmalloc.h"
	.file 110 "./include/linux/stat.h"
	.file 111 "./include/linux/shrinker.h"
	.file 112 "./include/linux/list_lru.h"
	.file 113 "./include/linux/radix-tree.h"
	.file 114 "./include/linux/rwsem.h"
	.file 115 "./arch/arm64/include/asm/uprobes.h"
	.file 116 "./arch/arm64/include/asm/mmu.h"
	.file 117 "./include/linux/memremap.h"
	.file 118 "./include/linux/mm.h"
	.file 119 "./include/linux/capability.h"
	.file 120 "./include/linux/semaphore.h"
	.file 121 "./include/uapi/linux/fiemap.h"
	.file 122 "./include/linux/migrate_mode.h"
	.file 123 "./include/linux/rcuwait.h"
	.file 124 "./include/linux/rcu_sync.h"
	.file 125 "./include/linux/percpu-rwsem.h"
	.file 126 "./include/linux/delayed_call.h"
	.file 127 "./include/uapi/linux/uuid.h"
	.file 128 "./include/linux/uuid.h"
	.file 129 "./include/linux/errseq.h"
	.file 130 "./include/asm-generic/ioctl.h"
	.file 131 "./include/uapi/linux/fs.h"
	.file 132 "./include/linux/mmzone.h"
	.file 133 "./arch/arm64/include/asm/topology.h"
	.file 134 "./include/linux/arch_topology.h"
	.file 135 "./include/linux/gfp.h"
	.file 136 "./include/linux/percpu_counter.h"
	.file 137 "./include/linux/quota.h"
	.file 138 "./include/linux/projid.h"
	.file 139 "./include/linux/module.h"
	.file 140 "./include/linux/nfs_fs_i.h"
	.file 141 "./include/linux/key.h"
	.file 142 "./include/linux/seq_file.h"
	.file 143 "./include/linux/kobject.h"
	.file 144 "./include/linux/sysctl.h"
	.file 145 "./include/linux/assoc_array.h"
	.file 146 "./include/linux/ratelimit.h"
	.file 147 "./include/linux/debugfs.h"
	.file 148 "./include/linux/delay.h"
	.file 149 "./include/linux/idr.h"
	.file 150 "./include/linux/kernfs.h"
	.file 151 "./include/linux/kobject_ns.h"
	.file 152 "./include/linux/sysfs.h"
	.file 153 "./include/linux/kref.h"
	.file 154 "./include/linux/klist.h"
	.file 155 "./include/linux/pm.h"
	.file 156 "./include/linux/pm_wakeup.h"
	.file 157 "./arch/arm64/include/asm/device.h"
	.file 158 "./include/linux/mod_devicetable.h"
	.file 159 "./include/linux/fwnode.h"
	.file 160 "./include/linux/irqdomain.h"
	.file 161 "./include/linux/rtmutex.h"
	.file 162 "./include/uapi/linux/i2c.h"
	.file 163 "./include/linux/i2c.h"
	.file 164 "./include/linux/irqnr.h"
	.file 165 "./arch/arm64/include/asm/hardirq.h"
	.file 166 "./include/linux/irq_cpustat.h"
	.file 167 "./include/linux/interrupt.h"
	.file 168 "./arch/arm64/include/asm/pgtable.h"
	.file 169 "./include/xen/xen.h"
	.file 170 "./include/linux/io.h"
	.file 171 "./include/linux/kthread.h"
	.file 172 "./include/linux/miscdevice.h"
	.file 173 "./include/linux/percpu-refcount.h"
	.file 174 "./include/linux/page_ext.h"
	.file 175 "./include/linux/tracepoint-defs.h"
	.file 176 "./include/linux/page_ref.h"
	.file 177 "./include/linux/huge_mm.h"
	.file 178 "./include/linux/vm_event_item.h"
	.file 179 "./include/linux/vmstat.h"
	.file 180 "./include/linux/umh.h"
	.file 181 "./include/linux/kmod.h"
	.file 182 "./include/uapi/linux/elf.h"
	.file 183 "./include/linux/elf.h"
	.file 184 "./include/linux/moduleparam.h"
	.file 185 "./include/linux/rbtree_latch.h"
	.file 186 "./arch/arm64/include/asm/module.h"
	.file 187 "./arch/arm64/include/asm/extable.h"
	.file 188 "./include/linux/node.h"
	.file 189 "./include/linux/cpu.h"
	.file 190 "./include/linux/platform_device.h"
	.file 191 "./include/linux/of_platform.h"
	.file 192 "./include/linux/sched/task.h"
	.file 193 "./include/uapi/linux/sched/types.h"
	.file 194 "drivers/gpu/drm/rockchip/ebc-dev/epdlut/epd_lut.h"
	.file 195 "drivers/gpu/drm/rockchip/ebc-dev/bufmanage/buf_manage.h"
	.file 196 "drivers/gpu/drm/rockchip/ebc-dev/pmic/../ebc_dev.h"
	.file 197 "./include/linux/dma-direction.h"
	.file 198 "./include/linux/scatterlist.h"
	.file 199 "./include/xen/arm/hypervisor.h"
	.file 200 "./arch/arm64/include/asm/dma-mapping.h"
	.file 201 "drivers/gpu/drm/rockchip/ebc-dev/tcon/../ebc_panel.h"
	.file 202 "./include/linux/thread_info.h"
	.file 203 "./include/linux/dma-debug.h"
	.file 204 "./include/linux/err.h"
	.file 205 "./include/asm-generic/getorder.h"
	.file 206 "./include/linux/log2.h"
	.file 207 "./include/asm-generic/bitops/fls64.h"
	.file 208 "./include/asm-generic/bitops/builtin-__fls.h"
	.file 209 "./include/linux/kasan-checks.h"
	.file 210 "./include/linux/of_address.h"
	.file 211 "./arch/arm64/include/asm/string.h"
	.file 212 "./include/linux/string.h"
	.section	.note.GNU-stack,"",@progbits
