Certificate:
    Data:
        Version: 3 (0x2)
        Serial Number:
            e9:df:13:0f:92:92:a9:b7
        Signature Algorithm: sha512WithRSAEncryption
        Issuer: C = GB, ST = Isle of Man, L = Douglas, O = Canonical Ltd., CN = Canonical Ltd. Kernel Module Signing
        Validity
            Not Before: May 31 16:06:09 2016 GMT
            Not After : May 29 16:06:09 2026 GMT
        Subject: C = GB, ST = Isle of Man, L = Douglas, O = Canonical Ltd., CN = Canonical Ltd. Kernel Module Signing
        Subject Public Key Info:
            Public Key Algorithm: rsaEncryption
                RSA Public-Key: (4096 bit)
                Modulus:
                    00:b3:b0:4f:c6:0a:77:8b:f9:d1:53:33:34:d2:80:
                    b5:63:6f:e1:f6:a2:83:99:d5:b6:b1:e4:99:91:fa:
                    6c:19:c6:d0:91:2a:b9:7d:b5:98:a6:0d:28:01:b8:
                    7c:8e:aa:38:ec:51:37:33:96:f0:b0:9b:8d:86:5f:
                    67:23:69:2f:d7:c2:f3:fb:c5:d7:f9:04:ff:f2:e5:
                    61:68:b7:29:b9:c6:8e:4b:4d:2d:8f:92:0c:00:b3:
                    a3:d2:5a:08:64:cd:f2:09:0b:a5:0e:e6:64:75:d5:
                    41:f4:4d:49:3a:0d:dc:b9:27:8e:c4:d6:b1:df:8f:
                    6c:f0:e4:f7:31:cb:a9:04:a1:f9:a7:aa:15:da:59:
                    03:4d:46:14:d0:dd:bf:e0:f5:9e:f0:71:0c:70:78:
                    2b:08:fb:e0:b6:68:a4:74:12:9d:f7:f2:64:88:17:
                    2a:8a:ed:1a:91:b5:6c:13:bd:4c:10:0a:0b:72:0b:
                    90:db:7d:f3:78:44:4c:d2:a5:41:f7:1c:77:7d:5a:
                    8a:54:bc:8f:fe:b7:ee:e1:bc:59:37:c4:d4:e8:14:
                    d0:5b:42:9b:04:00:8e:6d:83:8a:25:21:5b:08:c4:
                    7b:b2:d9:99:52:c9:5e:59:6d:c4:aa:52:59:e2:e4:
                    2f:7e:7e:ac:05:01:99:bf:13:72:b7:45:c5:17:da:
                    8a:d5:3e:71:73:2e:d8:aa:e6:eb:5a:d0:9a:c4:93:
                    f3:be:eb:d2:47:25:34:16:29:fa:dd:9a:2f:b1:20:
                    e5:41:4e:ed:ea:51:7c:23:80:ba:3d:b5:3a:0b:8c:
                    9c:85:48:6c:3c:8b:29:2f:2f:12:c7:52:34:02:ea:
                    0f:ac:53:23:3c:f8:3e:40:1b:30:63:e9:2d:e6:f6:
                    58:cc:51:f9:eb:08:4a:b4:c7:16:80:d1:8b:c2:64:
                    6a:71:a9:70:31:a4:a7:3a:c0:93:99:1b:0e:42:c1:
                    00:6d:43:27:99:6c:e5:fd:23:16:c1:8e:b5:66:17:
                    2b:4c:53:5a:6d:1e:96:16:13:6a:c6:d4:85:5b:74:
                    2e:ce:7c:45:2f:ad:cb:75:9e:5e:91:bd:9a:6a:86:
                    1a:06:bd:39:be:a3:50:56:ea:e1:f6:e3:95:69:d7:
                    31:e4:66:f7:36:b5:51:c2:22:b4:9c:74:9c:44:0b:
                    0e:16:5f:53:f0:23:c6:b9:40:bd:d6:b8:7d:1b:f6:
                    73:f6:27:e7:c0:e3:65:a0:58:ab:5c:59:b7:80:8c:
                    8c:04:b4:a9:ae:a0:51:40:10:3b:63:59:49:87:d1:
                    9b:df:a3:8c:c4:2e:eb:70:c1:0a:18:1f:cb:22:c2:
                    f2:4a:65:0d:e5:81:74:d8:ce:72:c6:35:be:ba:63:
                    72:c4:f9
                Exponent: 65537 (0x10001)
        X509v3 extensions:
            X509v3 Basic Constraints: critical
                CA:FALSE
            X509v3 Key Usage: 
                Digital Signature
            X509v3 Subject Key Identifier: 
                88:F7:52:E5:60:A1:E0:73:7E:31:16:3A:46:6A:D7:B7:0A:85:0C:19
            X509v3 Authority Key Identifier: 
                keyid:88:F7:52:E5:60:A1:E0:73:7E:31:16:3A:46:6A:D7:B7:0A:85:0C:19

    Signature Algorithm: sha512WithRSAEncryption
         04:85:16:27:58:ba:71:28:57:86:7b:c2:83:db:e5:72:6f:1e:
         b2:1c:63:b0:db:ad:c0:42:96:c0:4f:65:f6:35:4d:c0:07:0d:
         46:be:d3:1e:ec:f1:22:18:2a:18:5d:bb:69:a6:a6:d4:0d:c3:
         57:03:b9:e7:45:49:28:ca:6d:98:17:68:97:cb:7b:36:81:0a:
         37:9e:34:79:f3:e1:0e:5b:77:43:bb:5a:a5:45:b7:16:50:86:
         fd:12:a4:96:0f:15:19:09:1c:e1:fa:80:a5:80:09:be:bb:c8:
         26:0b:3e:de:03:d2:c2:18:a4:8d:0d:de:c5:32:82:0b:fb:75:
         55:66:1a:2a:bb:e4:bd:25:91:20:15:d4:be:b8:3f:53:e3:fb:
         a8:c3:55:e3:d5:e7:82:18:95:df:39:09:a7:fc:89:6e:b4:1c:
         aa:2d:e8:67:c2:0d:34:34:3e:f9:fa:0b:ce:81:92:11:ae:12:
         0a:fe:35:63:ce:46:29:c4:2b:4f:cb:4e:05:0a:a1:11:e2:35:
         f6:5a:5d:b5:e8:d2:6f:4c:fc:3d:24:a6:03:4b:dd:98:6b:f2:
         71:58:16:1d:a5:25:ef:d9:06:7c:e8:db:7b:88:6a:89:5c:59:
         01:92:64:db:44:08:63:6c:7c:32:d6:55:98:63:09:26:61:67:
         0a:fe:5d:ee:fd:23:59:b3:4d:91:c1:4d:41:8b:cd:20:58:fa:
         2d:45:e5:bd:1d:69:5c:03:a0:49:a6:97:54:13:b6:c9:e0:f8:
         56:83:a1:2a:c3:f4:6c:fd:ab:20:ca:3d:9c:95:c0:cf:04:bb:
         46:39:cf:34:81:65:45:27:64:01:7d:62:b3:b8:72:ea:10:d5:
         0f:53:7d:39:88:25:09:6f:8c:bc:e0:49:bb:39:e2:0e:8d:cf:
         56:4d:c1:82:6d:87:d2:e7:fc:c0:9f:a7:65:60:d2:6c:65:18:
         59:38:6e:d0:9c:d7:c3:81:9a:9a:29:8f:83:84:c3:b5:44:ff:
         28:ac:13:17:64:f2:26:13:d9:55:06:b7:69:68:7c:bf:ec:d1:
         8c:ef:b7:da:76:e1:07:73:c6:31:62:31:cb:b6:e1:e7:7f:0c:
         c3:f7:4c:52:be:25:36:8e:a1:bb:60:02:c3:cb:3e:6f:29:fc:
         7f:6a:fa:f8:ec:0a:df:49:e2:57:0e:bc:bd:93:c3:1b:d5:36:
         8a:ff:d8:1b:17:c7:1f:cb:69:00:d2:54:9e:ad:61:89:92:95:
         11:f8:ea:17:83:9f:9b:09:7d:b8:94:a4:ea:f5:ae:ea:dc:dd:
         62:b9:9e:68:9c:18:ec:19:c4:13:08:c8:b1:62:ab:8e:84:69:
         11:3c:da:ea:0d:b7:22:bd
-----BEGIN CERTIFICATE-----
MIIF2jCCA8KgAwIBAgIJAOnfEw+Skqm3MA0GCSqGSIb3DQEBDQUAMH0xCzAJBgNV
BAYTAkdCMRQwEgYDVQQIDAtJc2xlIG9mIE1hbjEQMA4GA1UEBwwHRG91Z2xhczEX
MBUGA1UECgwOQ2Fub25pY2FsIEx0ZC4xLTArBgNVBAMMJENhbm9uaWNhbCBMdGQu
IEtlcm5lbCBNb2R1bGUgU2lnbmluZzAeFw0xNjA1MzExNjA2MDlaFw0yNjA1Mjkx
NjA2MDlaMH0xCzAJBgNVBAYTAkdCMRQwEgYDVQQIDAtJc2xlIG9mIE1hbjEQMA4G
A1UEBwwHRG91Z2xhczEXMBUGA1UECgwOQ2Fub25pY2FsIEx0ZC4xLTArBgNVBAMM
JENhbm9uaWNhbCBMdGQuIEtlcm5lbCBNb2R1bGUgU2lnbmluZzCCAiIwDQYJKoZI
hvcNAQEBBQADggIPADCCAgoCggIBALOwT8YKd4v50VMzNNKAtWNv4faig5nVtrHk
mZH6bBnG0JEquX21mKYNKAG4fI6qOOxRNzOW8LCbjYZfZyNpL9fC8/vF1/kE//Ll
YWi3KbnGjktNLY+SDACzo9JaCGTN8gkLpQ7mZHXVQfRNSToN3LknjsTWsd+PbPDk
9zHLqQSh+aeqFdpZA01GFNDdv+D1nvBxDHB4Kwj74LZopHQSnffyZIgXKortGpG1
bBO9TBAKC3ILkNt983hETNKlQfccd31ailS8j/637uG8WTfE1OgU0FtCmwQAjm2D
iiUhWwjEe7LZmVLJXlltxKpSWeLkL35+rAUBmb8TcrdFxRfaitU+cXMu2Krm61rQ
msST877r0kclNBYp+t2aL7Eg5UFO7epRfCOAuj21OguMnIVIbDyLKS8vEsdSNALq
D6xTIzz4PkAbMGPpLeb2WMxR+esISrTHFoDRi8JkanGpcDGkpzrAk5kbDkLBAG1D
J5ls5f0jFsGOtWYXK0xTWm0elhYTasbUhVt0Ls58RS+ty3WeXpG9mmqGGga9Ob6j
UFbq4fbjlWnXMeRm9za1UcIitJx0nEQLDhZfU/AjxrlAvda4fRv2c/Yn58DjZaBY
q1xZt4CMjAS0qa6gUUAQO2NZSYfRm9+jjMQu63DBChgfyyLC8kplDeWBdNjOcsY1
vrpjcsT5AgMBAAGjXTBbMAwGA1UdEwEB/wQCMAAwCwYDVR0PBAQDAgeAMB0GA1Ud
DgQWBBSI91LlYKHgc34xFjpGate3CoUMGTAfBgNVHSMEGDAWgBSI91LlYKHgc34x
FjpGate3CoUMGTANBgkqhkiG9w0BAQ0FAAOCAgEABIUWJ1i6cShXhnvCg9vlcm8e
shxjsNutwEKWwE9l9jVNwAcNRr7THuzxIhgqGF27aaam1A3DVwO550VJKMptmBdo
l8t7NoEKN540efPhDlt3Q7tapUW3FlCG/RKklg8VGQkc4fqApYAJvrvIJgs+3gPS
whikjQ3exTKCC/t1VWYaKrvkvSWRIBXUvrg/U+P7qMNV49XnghiV3zkJp/yJbrQc
qi3oZ8INNDQ++foLzoGSEa4SCv41Y85GKcQrT8tOBQqhEeI19lpdtejSb0z8PSSm
A0vdmGvycVgWHaUl79kGfOjbe4hqiVxZAZJk20QIY2x8MtZVmGMJJmFnCv5d7v0j
WbNNkcFNQYvNIFj6LUXlvR1pXAOgSaaXVBO2yeD4VoOhKsP0bP2rIMo9nJXAzwS7
RjnPNIFlRSdkAX1is7hy6hDVD1N9OYglCW+MvOBJuzniDo3PVk3Bgm2H0uf8wJ+n
ZWDSbGUYWThu0JzXw4GamimPg4TDtUT/KKwTF2TyJhPZVQa3aWh8v+zRjO+32nbh
B3PGMWIxy7bh538Mw/dMUr4lNo6hu2ACw8s+byn8f2r6+OwK30niVw68vZPDG9U2
iv/YGxfHH8tpANJUnq1hiZKVEfjqF4Ofmwl9uJSk6vWu6tzdYrmeaJwY7BnEEwjI
sWKrjoRpETza6g23Ir0=
-----END CERTIFICATE-----
