Certificate:
    Data:
        Version: 3 (0x2)
        Serial Number: 3 (0x3)
        Signature Algorithm: sha256WithRSAEncryption
        Issuer: C = GB, ST = Isle of Man, L = Douglas, O = Canonical Ltd., CN = Canonical Ltd. Master Certificate Authority
        Validity
            Not Before: Oct 26 18:31:14 2018 GMT
            Not After : Oct 24 18:31:14 2048 GMT
        Subject: C = GB, ST = Isle of Man, O = Canonical Ltd., OU = Secure Boot, CN = Canonical Ltd. Secure Boot Signing (ESM 2018)
        Subject Public Key Info:
            Public Key Algorithm: rsaEncryption
                Public-Key: (2048 bit)
                Modulus:
                    00:bf:6a:e5:6d:55:7a:ec:7a:11:37:45:9c:4c:8f:
                    6b:2d:56:d3:74:2b:32:ac:84:2d:ba:cb:cc:ec:8d:
                    92:22:69:48:a5:d4:f6:75:11:66:2f:cb:b2:fd:9e:
                    56:ab:e6:f1:52:8e:75:3e:50:bd:25:b3:50:fc:ef:
                    3d:76:f3:3f:7f:03:f6:e2:a1:25:69:5c:14:98:54:
                    bd:11:bf:e9:a5:ac:46:91:4b:1d:de:b7:18:2b:c8:
                    22:83:15:a7:4a:00:8d:9d:e4:c0:da:f7:41:02:fd:
                    9f:5f:79:93:56:cc:86:e1:b5:e0:39:0e:3c:a2:5b:
                    fe:c0:56:f0:92:50:5a:2b:67:67:93:56:d7:7a:75:
                    99:6a:25:b4:63:a8:5f:69:7e:3a:49:58:2a:a7:80:
                    f6:5a:b4:be:b2:be:a8:8c:45:41:c9:f2:fc:76:a8:
                    65:ef:99:29:0d:c9:9c:54:6b:0a:f0:4a:0e:61:0d:
                    ed:99:32:af:12:e2:12:7b:9f:7b:ec:05:c4:e0:b6:
                    d5:c3:71:28:ae:dd:0b:ba:97:ad:68:0b:76:e9:bf:
                    e7:01:7e:64:54:39:23:85:36:c8:9d:dd:27:a1:ff:
                    df:46:36:14:7e:cb:cc:a1:cd:49:0b:6d:c2:0c:45:
                    99:56:58:7c:87:0d:59:9a:dc:4a:39:3b:1d:d9:15:
                    2e:b5
                Exponent: 65537 (0x10001)
        X509v3 extensions:
            X509v3 Basic Constraints: critical
                CA:FALSE
            X509v3 Extended Key Usage: 
                Code Signing, 1.3.6.1.4.1.311.10.3.6
            Netscape Comment: 
                OpenSSL Generated Certificate
            X509v3 Subject Key Identifier: 
                36:51:88:C1:D3:74:D6:B0:7C:3C:8F:24:0F:8E:F7:22:43:3D:6A:8B
            X509v3 Authority Key Identifier: 
                AD:91:99:0B:C2:2A:B1:F5:17:04:8C:23:B6:65:5A:26:8E:34:5A:63
    Signature Algorithm: sha256WithRSAEncryption
    Signature Value:
        4c:0f:cd:77:60:b4:6f:53:87:f3:3c:4f:e6:81:5f:a7:1c:cc:
        60:29:b6:34:6c:4d:08:9b:e2:d2:bd:f6:17:1a:62:79:b8:17:
        bc:a2:60:59:fd:03:51:c3:b7:6b:de:73:b3:48:95:f5:0b:aa:
        b6:3c:b4:34:dc:1d:0b:c4:97:62:87:e7:48:d5:8f:c9:ea:e8:
        91:8f:2a:40:cd:b7:b3:ee:b2:98:9e:fb:37:31:29:e6:8e:2f:
        0a:39:99:1e:c6:aa:b8:05:62:85:d3:a8:3e:60:38:98:0f:f0:
        fe:c7:ab:01:a5:6a:a5:7f:70:a6:26:94:76:23:2f:08:89:74:
        97:c2:2a:ca:22:3e:7a:ea:22:22:08:07:f4:bb:f6:bc:69:9c:
        4e:44:33:e2:8e:70:17:b0:9b:cb:33:94:66:6d:ff:9a:7d:e9:
        50:b2:e8:90:14:e4:2b:91:cb:a0:c5:2e:0e:cf:19:ef:44:ef:
        84:f0:bd:57:9e:26:c2:63:3d:df:fc:a1:84:de:5c:d7:5f:3b:
        fb:94:61:f0:93:89:1f:cf:c3:b2:d1:90:97:35:7d:b9:8a:ad:
        e6:05:f0:e8:3b:a1:7c:af:2b:c4:af:18:33:2e:5e:87:db:9d:
        80:b5:04:fd:00:d0:60:ab:ff:85:77:0f:cb:47:22:c9:b2:85:
        a8:48:16:e2
-----BEGIN CERTIFICATE-----
MIIELDCCAxSgAwIBAgIBAzANBgkqhkiG9w0BAQsFADCBhDELMAkGA1UEBhMCR0Ix
FDASBgNVBAgMC0lzbGUgb2YgTWFuMRAwDgYDVQQHDAdEb3VnbGFzMRcwFQYDVQQK
DA5DYW5vbmljYWwgTHRkLjE0MDIGA1UEAwwrQ2Fub25pY2FsIEx0ZC4gTWFzdGVy
IENlcnRpZmljYXRlIEF1dGhvcml0eTAeFw0xODEwMjYxODMxMTRaFw00ODEwMjQx
ODMxMTRaMIGKMQswCQYDVQQGEwJHQjEUMBIGA1UECAwLSXNsZSBvZiBNYW4xFzAV
BgNVBAoMDkNhbm9uaWNhbCBMdGQuMRQwEgYDVQQLDAtTZWN1cmUgQm9vdDE2MDQG
A1UEAwwtQ2Fub25pY2FsIEx0ZC4gU2VjdXJlIEJvb3QgU2lnbmluZyAoRVNNIDIw
MTgpMIIBIjANBgkqhkiG9w0BAQEFAAOCAQ8AMIIBCgKCAQEAv2rlbVV67HoRN0Wc
TI9rLVbTdCsyrIQtusvM7I2SImlIpdT2dRFmL8uy/Z5Wq+bxUo51PlC9JbNQ/O89
dvM/fwP24qElaVwUmFS9Eb/ppaxGkUsd3rcYK8gigxWnSgCNneTA2vdBAv2fX3mT
VsyG4bXgOQ48olv+wFbwklBaK2dnk1bXenWZaiW0Y6hfaX46SVgqp4D2WrS+sr6o
jEVByfL8dqhl75kpDcmcVGsK8EoOYQ3tmTKvEuISe5977AXE4LbVw3Eort0Lupet
aAt26b/nAX5kVDkjhTbInd0nof/fRjYUfsvMoc1JC23CDEWZVlh8hw1ZmtxKOTsd
2RUutQIDAQABo4GgMIGdMAwGA1UdEwEB/wQCMAAwHwYDVR0lBBgwFgYIKwYBBQUH
AwMGCisGAQQBgjcKAwYwLAYJYIZIAYb4QgENBB8WHU9wZW5TU0wgR2VuZXJhdGVk
IENlcnRpZmljYXRlMB0GA1UdDgQWBBQ2UYjB03TWsHw8jyQPjvciQz1qizAfBgNV
HSMEGDAWgBStkZkLwiqx9RcEjCO2ZVomjjRaYzANBgkqhkiG9w0BAQsFAAOCAQEA
TA/Nd2C0b1OH8zxP5oFfpxzMYCm2NGxNCJvi0r32FxpiebgXvKJgWf0DUcO3a95z
s0iV9Quqtjy0NNwdC8SXYofnSNWPyerokY8qQM23s+6ymJ77NzEp5o4vCjmZHsaq
uAVihdOoPmA4mA/w/serAaVqpX9wpiaUdiMvCIl0l8IqyiI+euoiIggH9Lv2vGmc
TkQz4o5wF7CbyzOUZm3/mn3pULLokBTkK5HLoMUuDs8Z70TvhPC9V54mwmM93/yh
hN5c1187+5Rh8JOJH8/DstGQlzV9uYqt5gXw6DuhfK8rxK8YMy5eh9udgLUE/QDQ
YKv/hXcPy0ciybKFqEgW4g==
-----END CERTIFICATE-----
