Certificate:
    Data:
        Version: 3 (0x2)
        Serial Number: 3 (0x3)
        Signature Algorithm: sha256WithRSAEncryption
        Issuer: C = GB, ST = Isle of Man, L = Douglas, O = Canonical Ltd., CN = Canonical Ltd. Master Certificate Authority
        Validity
            Not Before: Mar  4 10:27:14 2020 GMT
            Not After : Mar  3 10:27:14 2050 GMT
        Subject: C = GB, ST = Isle of Man, O = Canonical Ltd., OU = Secure Boot, CN = Canonical Ltd. Secure Boot Signing (Ubuntu Core 2019)
        Subject Public Key Info:
            Public Key Algorithm: rsaEncryption
                Public-Key: (2048 bit)
                Modulus:
                    00:b9:10:47:2e:75:5d:f3:10:23:bb:a0:75:d2:fa:
                    02:2d:ff:22:df:c1:e6:cd:38:7c:36:0f:ae:74:15:
                    6e:a5:34:52:2b:c3:a4:3a:60:d7:06:ee:1d:99:93:
                    ff:66:91:a3:18:52:2c:8c:58:e6:b4:2f:4b:c5:fb:
                    83:e6:f3:19:bd:1b:ca:23:ec:97:1f:d8:f1:9a:f1:
                    04:da:da:10:04:53:4b:ec:1d:b6:26:47:7c:bb:8f:
                    a7:0a:6e:2e:e8:91:e6:c4:bb:64:34:78:3c:fa:09:
                    15:1c:8f:9e:eb:04:99:36:22:c6:8d:07:15:0f:b9:
                    69:08:fa:ff:4b:45:bd:ba:2b:cd:01:0e:e7:01:23:
                    c9:e5:7a:39:3b:91:b0:45:3c:d5:77:ba:ca:f9:29:
                    3d:11:3f:1c:6b:5b:8e:6c:4b:3f:c9:29:05:cb:59:
                    d6:b1:c1:c0:2d:56:88:70:27:fa:73:05:5c:c2:11:
                    d4:27:11:f7:0b:c2:d5:68:d3:1a:cd:ed:d0:e4:10:
                    ff:34:cb:b7:45:70:34:2c:23:53:b6:9c:30:70:b4:
                    5c:d1:e2:64:18:82:8f:62:b1:5e:aa:0b:d4:89:f2:
                    1c:53:c4:32:7d:ef:53:ee:9b:6e:02:ab:78:bd:25:
                    67:8b:39:36:d8:84:3b:06:99:02:d6:75:73:4e:f2:
                    f6:b9
                Exponent: 65537 (0x10001)
        X509v3 extensions:
            X509v3 Basic Constraints: critical
                CA:FALSE
            X509v3 Extended Key Usage: 
                Code Signing, 1.3.6.1.4.1.311.10.3.6
            Netscape Comment: 
                OpenSSL Generated Certificate
            X509v3 Subject Key Identifier: 
                C1:D5:7B:8F:6B:74:3F:23:EE:41:F4:F7:EE:29:2F:06:EE:CA:DF:B9
            X509v3 Authority Key Identifier: 
                AD:91:99:0B:C2:2A:B1:F5:17:04:8C:23:B6:65:5A:26:8E:34:5A:63
    Signature Algorithm: sha256WithRSAEncryption
    Signature Value:
        2d:b5:11:a8:d2:a0:af:81:a0:18:22:18:2c:08:d0:f4:63:e8:
        8f:9a:f4:f5:20:dd:eb:22:77:19:9a:1a:09:3d:7f:aa:7d:c9:
        81:bc:26:98:65:94:46:30:4b:c2:51:7c:f7:21:41:63:87:31:
        fc:a4:c9:41:28:c7:2e:2a:2e:d8:a8:75:7a:72:77:3b:1b:9f:
        72:15:0d:0c:96:8d:8b:51:f3:ce:37:b6:ca:9f:ca:59:40:4a:
        fc:73:7a:94:12:99:aa:c2:8d:52:ce:91:19:2e:b4:da:ff:e5:
        2c:67:74:d9:58:47:38:2f:61:88:c5:cf:a7:48:e1:08:ba:bc:
        ec:d5:3a:47:d9:8c:dc:c3:bc:cb:98:2b:79:7a:02:46:ef:85:
        19:2f:03:4b:05:84:eb:56:98:5f:6d:cf:a5:8b:a2:b6:e5:50:
        51:7c:33:44:bd:7a:94:2e:0d:90:39:39:3e:62:60:ae:3a:e2:
        f5:17:fa:f1:94:06:1d:ae:a3:f8:19:20:7f:4b:4c:07:c4:e6:
        2d:0d:e5:94:84:51:6d:6f:0f:c4:c6:79:1d:f0:e8:0e:23:9e:
        fd:f9:46:2c:b9:ec:97:38:56:7e:b8:13:f6:d2:e1:8e:a5:93:
        02:7b:6e:dd:33:9a:bf:10:a8:1b:3d:fa:c4:f2:15:f0:27:73:
        26:a6:94:d1
-----BEGIN CERTIFICATE-----
MIIENjCCAx6gAwIBAgIBAzANBgkqhkiG9w0BAQsFADCBhDELMAkGA1UEBhMCR0Ix
FDASBgNVBAgMC0lzbGUgb2YgTWFuMRAwDgYDVQQHDAdEb3VnbGFzMRcwFQYDVQQK
DA5DYW5vbmljYWwgTHRkLjE0MDIGA1UEAwwrQ2Fub25pY2FsIEx0ZC4gTWFzdGVy
IENlcnRpZmljYXRlIEF1dGhvcml0eTAgFw0yMDAzMDQxMDI3MTRaGA8yMDUwMDMw
MzEwMjcxNFowgZIxCzAJBgNVBAYTAkdCMRQwEgYDVQQIDAtJc2xlIG9mIE1hbjEX
MBUGA1UECgwOQ2Fub25pY2FsIEx0ZC4xFDASBgNVBAsMC1NlY3VyZSBCb290MT4w
PAYDVQQDDDVDYW5vbmljYWwgTHRkLiBTZWN1cmUgQm9vdCBTaWduaW5nIChVYnVu
dHUgQ29yZSAyMDE5KTCCASIwDQYJKoZIhvcNAQEBBQADggEPADCCAQoCggEBALkQ
Ry51XfMQI7ugddL6Ai3/It/B5s04fDYPrnQVbqU0UivDpDpg1wbuHZmT/2aRoxhS
LIxY5rQvS8X7g+bzGb0byiPslx/Y8ZrxBNraEARTS+wdtiZHfLuPpwpuLuiR5sS7
ZDR4PPoJFRyPnusEmTYixo0HFQ+5aQj6/0tFvborzQEO5wEjyeV6OTuRsEU81Xe6
yvkpPRE/HGtbjmxLP8kpBctZ1rHBwC1WiHAn+nMFXMIR1CcR9wvC1WjTGs3t0OQQ
/zTLt0VwNCwjU7acMHC0XNHiZBiCj2KxXqoL1InyHFPEMn3vU+6bbgKreL0lZ4s5
NtiEOwaZAtZ1c07y9rkCAwEAAaOBoDCBnTAMBgNVHRMBAf8EAjAAMB8GA1UdJQQY
MBYGCCsGAQUFBwMDBgorBgEEAYI3CgMGMCwGCWCGSAGG+EIBDQQfFh1PcGVuU1NM
IEdlbmVyYXRlZCBDZXJ0aWZpY2F0ZTAdBgNVHQ4EFgQUwdV7j2t0PyPuQfT37ikv
Bu7K37kwHwYDVR0jBBgwFoAUrZGZC8IqsfUXBIwjtmVaJo40WmMwDQYJKoZIhvcN
AQELBQADggEBAC21EajSoK+BoBgiGCwI0PRj6I+a9PUg3esidxmaGgk9f6p9yYG8
JphllEYwS8JRfPchQWOHMfykyUEoxy4qLtiodXpydzsbn3IVDQyWjYtR8843tsqf
yllASvxzepQSmarCjVLOkRkutNr/5SxndNlYRzgvYYjFz6dI4Qi6vOzVOkfZjNzD
vMuYK3l6AkbvhRkvA0sFhOtWmF9tz6WLorblUFF8M0S9epQuDZA5OT5iYK464vUX
+vGUBh2uo/gZIH9LTAfE5i0N5ZSEUW1vD8TGeR3w6A4jnv35Riy57Jc4Vn64E/bS
4Y6lkwJ7bt0zmr8QqBs9+sTyFfAncyamlNE=
-----END CERTIFICATE-----
