Certificate:
    Data:
        Version: 3 (0x2)
        Serial Number: 8 (0x8)
        Signature Algorithm: sha256WithRSAEncryption
        Issuer: C = GB, ST = Isle of Man, L = Douglas, O = Canonical Ltd., CN = Canonical Ltd. Master Certificate Authority
        Validity
            Not Before: Sep 23 19:30:02 2021 GMT
            Not After : Sep 22 19:30:02 2051 GMT
        Subject: C = GB, ST = Isle of Man, O = Canonical Ltd., OU = Secure Boot, CN = Canonical Ltd. Secure Boot Signing (2021 v3)
        Subject Public Key Info:
            Public Key Algorithm: rsaEncryption
                Public-Key: (2048 bit)
                Modulus:
                    00:d6:29:96:87:ae:07:42:45:bb:65:09:b2:9b:de:
                    5d:8e:78:61:10:d5:6d:ae:ae:26:08:6a:06:ec:4a:
                    dd:2b:e7:1a:a9:ad:78:e3:fc:cf:8f:d1:47:bd:1e:
                    33:d8:7a:e3:66:9b:e9:73:c1:5f:42:e2:fe:bc:c3:
                    41:f7:cd:d7:85:d7:42:c9:ea:31:e5:47:b1:93:5b:
                    43:2b:07:51:b8:75:08:ad:0f:e7:0d:81:38:5a:21:
                    df:b1:43:5b:db:37:c5:ac:aa:14:3a:33:19:6a:26:
                    e0:05:fe:cd:41:31:af:5d:a8:ab:31:77:44:fc:da:
                    00:e2:7a:44:33:c3:a7:ed:13:54:9f:19:5d:c9:98:
                    a2:3b:af:4d:0d:87:29:9c:90:9e:42:9e:9a:06:6a:
                    70:27:c5:aa:f7:a2:f2:88:e0:b9:66:9a:72:a0:f6:
                    61:7e:30:8f:14:9f:44:0d:dd:54:ae:47:c8:82:ba:
                    d2:b2:db:6f:24:c1:f4:0a:81:07:90:47:49:5f:57:
                    d6:3f:bf:2a:73:98:f2:f6:24:1a:74:03:d7:35:f0:
                    42:d8:14:c5:94:27:5d:3c:49:0c:b0:f0:7a:61:1b:
                    d7:5a:e3:a3:40:57:e9:a4:07:ee:02:a3:32:27:94:
                    bb:f3:36:c5:5f:ef:d3:07:04:3a:80:4c:9c:0a:b7:
                    88:9f
                Exponent: 65537 (0x10001)
        X509v3 extensions:
            X509v3 Basic Constraints: critical
                CA:FALSE
            X509v3 Extended Key Usage: 
                Code Signing, 1.3.6.1.4.1.311.10.3.6
            Netscape Comment: 
                OpenSSL Generated Certificate
            X509v3 Subject Key Identifier: 
                10:04:37:BB:6D:E6:E4:69:B5:81:E6:1C:D6:6B:CE:3E:F4:ED:53:AF
            X509v3 Authority Key Identifier: 
                AD:91:99:0B:C2:2A:B1:F5:17:04:8C:23:B6:65:5A:26:8E:34:5A:63
    Signature Algorithm: sha256WithRSAEncryption
    Signature Value:
        3b:37:d6:a8:8d:cd:d2:df:13:35:ac:8c:92:d6:b0:ac:d1:38:
        a8:00:97:47:59:b8:4a:84:8c:80:a5:1d:c7:29:bf:00:66:e5:
        10:40:26:2e:31:f5:e1:13:c0:1b:29:f3:0b:7e:2d:71:d8:db:
        e1:32:8f:79:8e:e3:97:0c:40:a9:a0:12:c1:fc:c2:50:88:72:
        44:c5:bc:8b:45:6e:28:fd:d2:37:d6:db:17:cf:4e:61:33:08:
        5a:5d:08:94:73:44:e2:76:00:44:1b:b8:00:a1:86:00:64:8a:
        f1:42:32:3c:28:11:67:7c:8b:aa:06:34:74:58:e8:b3:3a:36:
        8d:f6:04:5d:37:f5:66:52:c9:48:b0:a7:6f:34:09:dd:60:2a:
        86:b9:14:f1:09:f6:06:16:56:e0:51:b1:e8:75:7f:fa:37:dc:
        e0:98:a7:69:ae:7b:1a:73:89:0d:06:67:cc:01:ef:80:31:45:
        9e:bb:03:2a:eb:89:70:d6:19:b2:c7:ce:bc:81:df:da:c8:6f:
        a9:4b:2d:d7:a7:e1:af:c6:e8:fb:f0:61:c9:cd:d2:91:cd:8b:
        c2:6c:ef:e0:b6:7f:f1:c4:81:f9:bb:76:9c:26:e3:fa:a1:a0:
        cd:5e:05:de:ee:f9:1b:5b:50:0a:8b:0f:47:e3:90:32:ac:2a:
        e7:65:02:80
-----BEGIN CERTIFICATE-----
MIIELTCCAxWgAwIBAgIBCDANBgkqhkiG9w0BAQsFADCBhDELMAkGA1UEBhMCR0Ix
FDASBgNVBAgMC0lzbGUgb2YgTWFuMRAwDgYDVQQHDAdEb3VnbGFzMRcwFQYDVQQK
DA5DYW5vbmljYWwgTHRkLjE0MDIGA1UEAwwrQ2Fub25pY2FsIEx0ZC4gTWFzdGVy
IENlcnRpZmljYXRlIEF1dGhvcml0eTAgFw0yMTA5MjMxOTMwMDJaGA8yMDUxMDky
MjE5MzAwMlowgYkxCzAJBgNVBAYTAkdCMRQwEgYDVQQIDAtJc2xlIG9mIE1hbjEX
MBUGA1UECgwOQ2Fub25pY2FsIEx0ZC4xFDASBgNVBAsMC1NlY3VyZSBCb290MTUw
MwYDVQQDDCxDYW5vbmljYWwgTHRkLiBTZWN1cmUgQm9vdCBTaWduaW5nICgyMDIx
IHYzKTCCASIwDQYJKoZIhvcNAQEBBQADggEPADCCAQoCggEBANYploeuB0JFu2UJ
spveXY54YRDVba6uJghqBuxK3SvnGqmteOP8z4/RR70eM9h642ab6XPBX0Li/rzD
QffN14XXQsnqMeVHsZNbQysHUbh1CK0P5w2BOFoh37FDW9s3xayqFDozGWom4AX+
zUExr12oqzF3RPzaAOJ6RDPDp+0TVJ8ZXcmYojuvTQ2HKZyQnkKemgZqcCfFqvei
8ojguWaacqD2YX4wjxSfRA3dVK5HyIK60rLbbyTB9AqBB5BHSV9X1j+/KnOY8vYk
GnQD1zXwQtgUxZQnXTxJDLDwemEb11rjo0BX6aQH7gKjMieUu/M2xV/v0wcEOoBM
nAq3iJ8CAwEAAaOBoDCBnTAMBgNVHRMBAf8EAjAAMB8GA1UdJQQYMBYGCCsGAQUF
BwMDBgorBgEEAYI3CgMGMCwGCWCGSAGG+EIBDQQfFh1PcGVuU1NMIEdlbmVyYXRl
ZCBDZXJ0aWZpY2F0ZTAdBgNVHQ4EFgQUEAQ3u23m5Gm1geYc1mvOPvTtU68wHwYD
VR0jBBgwFoAUrZGZC8IqsfUXBIwjtmVaJo40WmMwDQYJKoZIhvcNAQELBQADggEB
ADs31qiNzdLfEzWsjJLWsKzROKgAl0dZuEqEjIClHccpvwBm5RBAJi4x9eETwBsp
8wt+LXHY2+Eyj3mO45cMQKmgEsH8wlCIckTFvItFbij90jfW2xfPTmEzCFpdCJRz
ROJ2AEQbuAChhgBkivFCMjwoEWd8i6oGNHRY6LM6No32BF039WZSyUiwp280Cd1g
Koa5FPEJ9gYWVuBRseh1f/o33OCYp2muexpziQ0GZ8wB74AxRZ67AyrriXDWGbLH
zryB39rIb6lLLden4a/G6PvwYcnN0pHNi8Js7+C2f/HEgfm7dpwm4/qhoM1eBd7u
+RtbUAqLD0fjkDKsKudlAoA=
-----END CERTIFICATE-----
