Certificate:
    Data:
        Version: 3 (0x2)
        Serial Number: 4 (0x4)
        Signature Algorithm: sha256WithRSAEncryption
        Issuer: C = GB, ST = Isle of Man, L = Douglas, O = Canonical Ltd., CN = Canonical Ltd. Master Certificate Authority
        Validity
            Not Before: Sep 18 16:10:17 2019 GMT
            Not After : Sep 16 16:10:17 2049 GMT
        Subject: C = GB, ST = Isle of Man, O = Canonical Ltd., OU = Secure Boot, CN = Canonical Ltd. Secure Boot Signing (2019)
        Subject Public Key Info:
            Public Key Algorithm: rsaEncryption
                Public-Key: (2048 bit)
                Modulus:
                    00:e6:47:d8:75:e5:87:59:26:87:83:7d:5b:7a:b8:
                    58:3d:7c:ef:36:f8:a0:7a:b7:14:56:58:7d:01:f1:
                    1c:3b:8c:e6:5b:03:77:7d:a0:ed:47:0a:45:e6:75:
                    5c:de:95:38:0d:38:fa:41:79:89:56:31:87:e7:a3:
                    9a:36:70:b6:cf:24:2f:99:26:89:08:39:0e:14:c3:
                    35:be:02:8b:52:e1:8e:7b:0c:a6:9d:78:ff:01:60:
                    d7:f5:c3:d5:f0:5e:dc:e4:23:09:59:72:93:d3:b5:
                    22:af:7c:cd:e0:84:0f:af:11:2d:bc:c6:72:42:af:
                    ea:67:63:c4:10:41:78:02:80:62:0d:43:74:b4:1c:
                    ed:50:d7:94:f1:b0:bb:f9:57:80:e4:69:0f:83:4b:
                    a2:e6:2c:4a:9a:e1:7d:7c:62:19:29:27:97:1f:4c:
                    f1:85:f0:39:f5:31:9f:3a:39:0e:d4:4d:07:3a:40:
                    55:4b:a6:6c:9d:04:89:51:2d:7c:b0:ef:40:b5:42:
                    29:16:cc:65:73:38:62:21:f6:e3:2c:17:50:9d:74:
                    34:4e:df:7c:4a:33:a4:bb:40:cf:d5:e5:ed:05:07:
                    cd:4c:f9:af:7f:a6:5c:b9:f7:c5:16:45:4e:44:40:
                    d7:85:32:de:ac:e5:75:ad:9b:d7:c0:26:33:1f:77:
                    a5:37
                Exponent: 65537 (0x10001)
        X509v3 extensions:
            X509v3 Basic Constraints: critical
                CA:FALSE
            X509v3 Extended Key Usage: 
                Code Signing, 1.3.6.1.4.1.311.10.3.6
            Netscape Comment: 
                OpenSSL Generated Certificate
            X509v3 Subject Key Identifier: 
                C0:74:6F:D6:C5:DA:3A:E8:27:86:46:51:AD:66:AE:47:FE:24:B3:E8
            X509v3 Authority Key Identifier: 
                AD:91:99:0B:C2:2A:B1:F5:17:04:8C:23:B6:65:5A:26:8E:34:5A:63
    Signature Algorithm: sha256WithRSAEncryption
    Signature Value:
        aa:12:6c:d1:9d:6a:da:f0:ec:7c:17:46:3b:57:b8:d6:76:5f:
        24:e6:06:a2:0a:55:1f:2f:d3:5e:8f:de:cf:02:f2:ff:e0:dd:
        d3:c7:bd:75:59:aa:cd:34:f3:28:80:73:cc:28:69:e7:a2:70:
        88:a2:c7:dc:66:f0:92:0e:ff:64:bf:30:04:54:01:1b:96:ad:
        15:c5:61:fd:32:61:d7:5e:b5:ba:91:fd:31:fc:6b:15:df:ee:
        22:d9:e4:1f:f3:cc:8b:0c:9f:f5:e8:f7:e2:62:3f:40:52:c9:
        f0:f1:1c:63:fc:6c:90:e1:5b:74:03:b9:df:d1:3e:a8:ec:db:
        2b:6e:83:6f:9f:7f:ba:b4:79:fc:3d:e7:12:2f:4a:e7:17:8c:
        2b:77:a5:90:74:3c:bd:cf:75:83:0d:1a:95:d5:56:ef:07:9b:
        a6:b3:31:e3:8c:97:ce:68:11:b5:7b:25:03:72:1c:ea:67:e9:
        7c:3e:73:c7:7c:3e:fc:f5:ae:8a:b2:07:0d:15:6a:66:09:d7:
        23:b9:5d:80:7a:26:d6:b6:22:30:aa:84:af:c0:42:e9:75:c3:
        59:ab:a3:84:87:6b:0c:b7:ab:4e:92:69:ae:2c:82:6f:ab:01:
        24:ab:ff:78:6d:59:85:c2:3b:23:c0:bd:0d:d8:6e:3a:29:82:
        e1:c4:5f:db
-----BEGIN CERTIFICATE-----
MIIEKDCCAxCgAwIBAgIBBDANBgkqhkiG9w0BAQsFADCBhDELMAkGA1UEBhMCR0Ix
FDASBgNVBAgMC0lzbGUgb2YgTWFuMRAwDgYDVQQHDAdEb3VnbGFzMRcwFQYDVQQK
DA5DYW5vbmljYWwgTHRkLjE0MDIGA1UEAwwrQ2Fub25pY2FsIEx0ZC4gTWFzdGVy
IENlcnRpZmljYXRlIEF1dGhvcml0eTAeFw0xOTA5MTgxNjEwMTdaFw00OTA5MTYx
NjEwMTdaMIGGMQswCQYDVQQGEwJHQjEUMBIGA1UECAwLSXNsZSBvZiBNYW4xFzAV
BgNVBAoMDkNhbm9uaWNhbCBMdGQuMRQwEgYDVQQLDAtTZWN1cmUgQm9vdDEyMDAG
A1UEAwwpQ2Fub25pY2FsIEx0ZC4gU2VjdXJlIEJvb3QgU2lnbmluZyAoMjAxOSkw
ggEiMA0GCSqGSIb3DQEBAQUAA4IBDwAwggEKAoIBAQDmR9h15YdZJoeDfVt6uFg9
fO82+KB6txRWWH0B8Rw7jOZbA3d9oO1HCkXmdVzelTgNOPpBeYlWMYfno5o2cLbP
JC+ZJokIOQ4UwzW+AotS4Y57DKadeP8BYNf1w9XwXtzkIwlZcpPTtSKvfM3ghA+v
ES28xnJCr+pnY8QQQXgCgGINQ3S0HO1Q15TxsLv5V4DkaQ+DS6LmLEqa4X18Yhkp
J5cfTPGF8Dn1MZ86OQ7UTQc6QFVLpmydBIlRLXyw70C1QikWzGVzOGIh9uMsF1Cd
dDRO33xKM6S7QM/V5e0FB81M+a9/ply598UWRU5EQNeFMt6s5XWtm9fAJjMfd6U3
AgMBAAGjgaAwgZ0wDAYDVR0TAQH/BAIwADAfBgNVHSUEGDAWBggrBgEFBQcDAwYK
KwYBBAGCNwoDBjAsBglghkgBhvhCAQ0EHxYdT3BlblNTTCBHZW5lcmF0ZWQgQ2Vy
dGlmaWNhdGUwHQYDVR0OBBYEFMB0b9bF2jroJ4ZGUa1mrkf+JLPoMB8GA1UdIwQY
MBaAFK2RmQvCKrH1FwSMI7ZlWiaONFpjMA0GCSqGSIb3DQEBCwUAA4IBAQCqEmzR
nWra8Ox8F0Y7V7jWdl8k5gaiClUfL9Nej97PAvL/4N3Tx711WarNNPMogHPMKGnn
onCIosfcZvCSDv9kvzAEVAEblq0VxWH9MmHXXrW6kf0x/GsV3+4i2eQf88yLDJ/1
6PfiYj9AUsnw8Rxj/GyQ4Vt0A7nf0T6o7NsrboNvn3+6tHn8PecSL0rnF4wrd6WQ
dDy9z3WDDRqV1VbvB5umszHjjJfOaBG1eyUDchzqZ+l8PnPHfD789a6KsgcNFWpm
CdcjuV2AeibWtiIwqoSvwELpdcNZq6OEh2sMt6tOkmmuLIJvqwEkq/94bVmFwjsj
wL0N2G46KYLhxF/b
-----END CERTIFICATE-----
