Certificate:
    Data:
        Version: 3 (0x2)
        Serial Number: 6 (0x6)
        Signature Algorithm: sha256WithRSAEncryption
        Issuer: C = GB, ST = Isle of Man, L = Douglas, O = Canonical Ltd., CN = Canonical Ltd. Master Certificate Authority
        Validity
            Not Before: Sep 23 19:29:32 2021 GMT
            Not After : Sep 22 19:29:32 2051 GMT
        Subject: C = GB, ST = Isle of Man, O = Canonical Ltd., OU = Secure Boot, CN = Canonical Ltd. Secure Boot Signing (2021 v1)
        Subject Public Key Info:
            Public Key Algorithm: rsaEncryption
                Public-Key: (2048 bit)
                Modulus:
                    00:aa:b8:34:5b:b6:ae:44:bf:41:e1:78:11:b9:7a:
                    c8:88:b3:b0:26:50:10:9c:98:d1:f3:98:9f:23:50:
                    64:f6:39:dd:50:3a:23:44:53:65:fc:f3:9f:f5:a5:
                    8b:ae:8b:df:47:9f:e9:d5:a0:92:19:f1:21:ea:cc:
                    59:3a:74:df:45:71:bc:de:64:15:a5:f6:db:ca:71:
                    fa:19:d4:44:0d:12:ec:47:3a:43:e2:f2:dd:8b:fe:
                    0d:7b:dc:4d:db:53:06:22:61:e5:8b:35:49:b6:33:
                    c4:0a:69:5f:5b:81:09:84:6b:42:33:18:09:9d:a0:
                    35:f7:9c:1e:de:6e:de:90:69:1a:e8:32:e4:49:ad:
                    c3:31:e9:f8:4a:a2:28:1d:db:0d:29:b6:48:0a:44:
                    93:86:41:62:8f:73:97:60:10:8a:74:46:66:55:fe:
                    a0:95:35:9e:ef:9f:af:11:fa:5b:a3:7c:c2:35:64:
                    11:67:28:1e:14:0a:7d:68:61:9c:cd:c7:46:39:30:
                    31:79:94:56:b3:45:16:9a:b5:77:66:fe:41:43:0f:
                    00:48:6e:99:dd:0c:d4:47:2c:86:8c:50:04:61:20:
                    dd:aa:8e:73:4f:21:b4:ee:09:4d:d3:40:01:d0:f2:
                    a7:5b:7d:05:3d:c1:e7:65:26:aa:8c:9a:58:5a:7c:
                    6d:6f
                Exponent: 65537 (0x10001)
        X509v3 extensions:
            X509v3 Basic Constraints: critical
                CA:FALSE
            X509v3 Extended Key Usage: 
                Code Signing, 1.3.6.1.4.1.311.10.3.6
            Netscape Comment: 
                OpenSSL Generated Certificate
            X509v3 Subject Key Identifier: 
                A8:D5:4B:BB:38:25:CF:B9:4F:A1:3C:9F:8A:59:4A:19:5C:10:7B:8D
            X509v3 Authority Key Identifier: 
                AD:91:99:0B:C2:2A:B1:F5:17:04:8C:23:B6:65:5A:26:8E:34:5A:63
    Signature Algorithm: sha256WithRSAEncryption
    Signature Value:
        24:25:25:7e:01:a5:c8:3d:54:8c:1b:05:73:d1:06:d8:db:d4:
        3a:71:d5:19:9d:97:1c:85:3c:ca:38:5a:0c:25:25:39:1a:67:
        bc:6c:9d:98:6c:f3:7d:5f:b7:40:f9:73:a0:f5:7b:40:a8:66:
        a5:f1:53:b1:78:80:24:3f:19:50:2f:02:09:ec:a1:8a:e6:0d:
        df:c4:ae:24:9e:69:0d:5c:dc:44:4c:38:3a:53:4e:4b:a1:4b:
        92:9f:43:a4:9d:1e:76:33:18:1b:bf:62:e5:f5:bc:93:3c:4e:
        21:d5:5b:20:69:11:28:c1:c5:93:b5:8e:96:1d:1b:ca:72:79:
        24:de:67:2a:50:9d:ce:8b:41:dd:3e:82:dd:a5:04:75:54:fb:
        35:70:98:87:b4:f3:ea:41:23:23:80:0e:99:d7:03:16:ee:7e:
        11:e2:c8:29:ab:73:c5:6d:5c:a8:2f:32:03:9f:8e:66:d6:cb:
        54:84:55:75:ab:9a:dd:95:fd:05:1e:11:85:37:1e:63:d2:f4:
        7f:34:64:32:a1:63:91:91:50:39:14:1a:ea:54:78:e6:0d:04:
        23:c7:83:51:c5:25:27:07:6c:f8:65:b7:da:95:89:76:83:cc:
        f3:7e:06:74:d3:6c:ef:e9:17:de:29:1e:ab:5c:d7:ec:df:f1:
        98:b8:e9:66
-----BEGIN CERTIFICATE-----
MIIELTCCAxWgAwIBAgIBBjANBgkqhkiG9w0BAQsFADCBhDELMAkGA1UEBhMCR0Ix
FDASBgNVBAgMC0lzbGUgb2YgTWFuMRAwDgYDVQQHDAdEb3VnbGFzMRcwFQYDVQQK
DA5DYW5vbmljYWwgTHRkLjE0MDIGA1UEAwwrQ2Fub25pY2FsIEx0ZC4gTWFzdGVy
IENlcnRpZmljYXRlIEF1dGhvcml0eTAgFw0yMTA5MjMxOTI5MzJaGA8yMDUxMDky
MjE5MjkzMlowgYkxCzAJBgNVBAYTAkdCMRQwEgYDVQQIDAtJc2xlIG9mIE1hbjEX
MBUGA1UECgwOQ2Fub25pY2FsIEx0ZC4xFDASBgNVBAsMC1NlY3VyZSBCb290MTUw
MwYDVQQDDCxDYW5vbmljYWwgTHRkLiBTZWN1cmUgQm9vdCBTaWduaW5nICgyMDIx
IHYxKTCCASIwDQYJKoZIhvcNAQEBBQADggEPADCCAQoCggEBAKq4NFu2rkS/QeF4
Ebl6yIizsCZQEJyY0fOYnyNQZPY53VA6I0RTZfzzn/Wli66L30ef6dWgkhnxIerM
WTp030VxvN5kFaX228px+hnURA0S7Ec6Q+Ly3Yv+DXvcTdtTBiJh5Ys1SbYzxApp
X1uBCYRrQjMYCZ2gNfecHt5u3pBpGugy5EmtwzHp+EqiKB3bDSm2SApEk4ZBYo9z
l2AQinRGZlX+oJU1nu+frxH6W6N8wjVkEWcoHhQKfWhhnM3HRjkwMXmUVrNFFpq1
d2b+QUMPAEhumd0M1EcshoxQBGEg3aqOc08htO4JTdNAAdDyp1t9BT3B52Umqoya
WFp8bW8CAwEAAaOBoDCBnTAMBgNVHRMBAf8EAjAAMB8GA1UdJQQYMBYGCCsGAQUF
BwMDBgorBgEEAYI3CgMGMCwGCWCGSAGG+EIBDQQfFh1PcGVuU1NMIEdlbmVyYXRl
ZCBDZXJ0aWZpY2F0ZTAdBgNVHQ4EFgQUqNVLuzglz7lPoTyfillKGVwQe40wHwYD
VR0jBBgwFoAUrZGZC8IqsfUXBIwjtmVaJo40WmMwDQYJKoZIhvcNAQELBQADggEB
ACQlJX4Bpcg9VIwbBXPRBtjb1Dpx1RmdlxyFPMo4WgwlJTkaZ7xsnZhs831ft0D5
c6D1e0CoZqXxU7F4gCQ/GVAvAgnsoYrmDd/EriSeaQ1c3ERMODpTTkuhS5KfQ6Sd
HnYzGBu/YuX1vJM8TiHVWyBpESjBxZO1jpYdG8pyeSTeZypQnc6LQd0+gt2lBHVU
+zVwmIe08+pBIyOADpnXAxbufhHiyCmrc8VtXKgvMgOfjmbWy1SEVXWrmt2V/QUe
EYU3HmPS9H80ZDKhY5GRUDkUGupUeOYNBCPHg1HFJScHbPhlt9qViXaDzPN+BnTT
bO/pF94pHqtc1+zf8Zi46WY=
-----END CERTIFICATE-----
