Certificate:
    Data:
        Version: 3 (0x2)
        Serial Number: 2 (0x2)
        Signature Algorithm: sha256WithRSAEncryption
        Issuer: C = GB, ST = Isle of Man, L = Douglas, O = Canonical Ltd., CN = Canonical Ltd. Master Certificate Authority
        Validity
            Not Before: Sep 26 21:52:11 2017 GMT
            Not After : Sep 25 21:52:11 2047 GMT
        Subject: C = GB, ST = Isle of Man, O = Canonical Ltd., OU = Secure Boot, CN = Canonical Ltd. Secure Boot Signing (2017)
        Subject Public Key Info:
            Public Key Algorithm: rsaEncryption
                Public-Key: (2048 bit)
                Modulus:
                    00:ef:9f:fa:9f:19:3a:9d:38:23:91:cc:c4:f9:42:
                    e0:f8:54:12:82:dc:97:2c:d6:5b:c1:35:eb:ff:4a:
                    74:06:b5:9d:32:aa:7b:f3:fc:31:5a:34:3e:a1:a4:
                    44:db:7b:6d:16:af:35:76:e0:9b:99:ad:21:11:c6:
                    12:4b:ae:24:8f:bb:d3:b2:00:fe:c5:1d:9b:3a:1a:
                    4a:6c:ca:fa:16:37:85:22:f9:ff:22:fc:40:e0:58:
                    35:c1:39:27:b4:c6:42:1a:96:d8:a5:c5:95:2e:f7:
                    c5:1e:21:6e:36:84:f7:a9:a1:e1:f1:03:08:96:65:
                    71:f8:eb:83:cf:82:f7:9a:44:58:72:00:14:39:29:
                    4b:e9:78:2f:65:20:b3:80:76:3b:ba:0d:2d:46:f6:
                    37:05:e7:05:fe:bd:6c:c7:a2:65:b5:06:6e:07:24:
                    99:a1:c1:cf:e1:0e:5e:49:41:71:17:a8:50:e7:38:
                    99:e5:6e:b6:db:9f:63:db:56:f4:9c:7d:89:f6:d2:
                    03:6c:99:83:e0:99:23:39:36:bd:cb:b5:26:7c:7d:
                    b0:c6:fe:82:7c:52:ed:f9:2c:8f:79:71:3d:a9:2f:
                    b5:aa:7e:77:a0:fd:69:f9:97:10:a8:b2:c6:7d:88:
                    9e:a2:19:bd:31:b8:02:2d:34:4d:9d:98:60:82:ad:
                    04:ff
                Exponent: 65537 (0x10001)
        X509v3 extensions:
            X509v3 Basic Constraints: critical
                CA:FALSE
            X509v3 Extended Key Usage: 
                Code Signing, 1.3.6.1.4.1.311.10.3.6
            Netscape Comment: 
                OpenSSL Generated Certificate
            X509v3 Subject Key Identifier: 
                24:2A:DE:75:AC:4A:15:E5:0D:50:C8:4B:0D:45:FF:3E:AE:70:7A:03
            X509v3 Authority Key Identifier: 
                AD:91:99:0B:C2:2A:B1:F5:17:04:8C:23:B6:65:5A:26:8E:34:5A:63
    Signature Algorithm: sha256WithRSAEncryption
    Signature Value:
        00:b2:b7:57:b5:2b:5d:16:d3:04:88:6a:d7:77:d5:0d:89:f1:
        d2:6e:11:d1:8e:f5:62:05:c4:6a:57:df:eb:d2:86:68:f2:fd:
        a7:37:11:3c:f4:ce:5d:fe:32:5f:31:a2:6b:3a:da:28:c2:88:
        fa:7f:70:b5:25:99:ea:27:9a:56:6a:9d:b2:0f:14:99:e2:b7:
        c6:39:1e:8e:a7:76:31:d9:ed:c5:05:8d:48:ae:1b:68:18:14:
        51:a1:7d:f6:c7:df:cb:9d:eb:a4:3b:0b:ff:c2:07:c5:42:bc:
        0d:b2:11:fa:37:17:2b:1c:b5:84:48:2d:f9:31:4a:57:49:8e:
        61:a6:82:11:06:4c:34:ea:9c:2a:47:4d:eb:e0:26:af:da:d2:
        c2:08:a0:37:35:7b:73:71:de:0b:c4:ba:c8:34:de:20:04:03:
        6f:46:26:0d:b9:91:02:5b:71:76:cc:45:e4:08:d0:a6:dd:a4:
        50:d3:d9:04:91:2b:d9:5c:34:88:fc:c2:37:fd:c6:d4:3e:57:
        f7:6b:ba:7b:d7:02:7a:84:0c:c8:c1:19:cc:bc:fa:52:d5:7f:
        b3:35:c4:53:5d:70:0a:f6:44:60:8d:a9:11:7a:1b:7d:ae:7b:
        20:5a:4c:8d:44:f6:c1:a9:61:cb:dc:cb:90:37:d5:28:24:73:
        87:d0:e0:d8
-----BEGIN CERTIFICATE-----
MIIEKDCCAxCgAwIBAgIBAjANBgkqhkiG9w0BAQsFADCBhDELMAkGA1UEBhMCR0Ix
FDASBgNVBAgMC0lzbGUgb2YgTWFuMRAwDgYDVQQHDAdEb3VnbGFzMRcwFQYDVQQK
DA5DYW5vbmljYWwgTHRkLjE0MDIGA1UEAwwrQ2Fub25pY2FsIEx0ZC4gTWFzdGVy
IENlcnRpZmljYXRlIEF1dGhvcml0eTAeFw0xNzA5MjYyMTUyMTFaFw00NzA5MjUy
MTUyMTFaMIGGMQswCQYDVQQGEwJHQjEUMBIGA1UECAwLSXNsZSBvZiBNYW4xFzAV
BgNVBAoMDkNhbm9uaWNhbCBMdGQuMRQwEgYDVQQLDAtTZWN1cmUgQm9vdDEyMDAG
A1UEAwwpQ2Fub25pY2FsIEx0ZC4gU2VjdXJlIEJvb3QgU2lnbmluZyAoMjAxNykw
ggEiMA0GCSqGSIb3DQEBAQUAA4IBDwAwggEKAoIBAQDvn/qfGTqdOCORzMT5QuD4
VBKC3Jcs1lvBNev/SnQGtZ0yqnvz/DFaND6hpETbe20WrzV24JuZrSERxhJLriSP
u9OyAP7FHZs6GkpsyvoWN4Ui+f8i/EDgWDXBOSe0xkIaltilxZUu98UeIW42hPep
oeHxAwiWZXH464PPgveaRFhyABQ5KUvpeC9lILOAdju6DS1G9jcF5wX+vWzHomW1
Bm4HJJmhwc/hDl5JQXEXqFDnOJnlbrbbn2PbVvScfYn20gNsmYPgmSM5Nr3LtSZ8
fbDG/oJ8Uu35LI95cT2pL7Wqfneg/Wn5lxCossZ9iJ6iGb0xuAItNE2dmGCCrQT/
AgMBAAGjgaAwgZ0wDAYDVR0TAQH/BAIwADAfBgNVHSUEGDAWBggrBgEFBQcDAwYK
KwYBBAGCNwoDBjAsBglghkgBhvhCAQ0EHxYdT3BlblNTTCBHZW5lcmF0ZWQgQ2Vy
dGlmaWNhdGUwHQYDVR0OBBYEFCQq3nWsShXlDVDISw1F/z6ucHoDMB8GA1UdIwQY
MBaAFK2RmQvCKrH1FwSMI7ZlWiaONFpjMA0GCSqGSIb3DQEBCwUAA4IBAQAAsrdX
tStdFtMEiGrXd9UNifHSbhHRjvViBcRqV9/r0oZo8v2nNxE89M5d/jJfMaJrOtoo
woj6f3C1JZnqJ5pWap2yDxSZ4rfGOR6Op3Yx2e3FBY1IrhtoGBRRoX32x9/Lneuk
Owv/wgfFQrwNshH6NxcrHLWESC35MUpXSY5hpoIRBkw06pwqR03r4Cav2tLCCKA3
NXtzcd4LxLrINN4gBANvRiYNuZECW3F2zEXkCNCm3aRQ09kEkSvZXDSI/MI3/cbU
Plf3a7p71wJ6hAzIwRnMvPpS1X+zNcRTXXAK9kRgjakReht9rnsgWkyNRPbBqWHL
3MuQN9UoJHOH0ODY
-----END CERTIFICATE-----
