Certificate:
    Data:
        Version: 3 (0x2)
        Serial Number: 7 (0x7)
        Signature Algorithm: sha256WithRSAEncryption
        Issuer: C = GB, ST = Isle of Man, L = Douglas, O = Canonical Ltd., CN = Canonical Ltd. Master Certificate Authority
        Validity
            Not Before: Sep 23 19:29:42 2021 GMT
            Not After : Sep 22 19:29:42 2051 GMT
        Subject: C = GB, ST = Isle of Man, O = Canonical Ltd., OU = Secure Boot, CN = Canonical Ltd. Secure Boot Signing (2021 v2)
        Subject Public Key Info:
            Public Key Algorithm: rsaEncryption
                Public-Key: (2048 bit)
                Modulus:
                    00:ba:06:8b:ee:58:b7:8b:49:7b:53:7a:d1:df:02:
                    e3:f2:d8:b0:8c:03:5c:f4:2d:0b:d8:18:3b:23:fa:
                    68:b0:e8:e9:9d:dc:a2:eb:5e:d3:06:a9:28:d4:9f:
                    14:b6:1e:1c:1d:ef:69:0e:7f:44:f2:cc:4a:f1:b1:
                    d0:71:30:6a:50:1e:b0:d3:f8:a4:19:d0:4a:f1:e3:
                    eb:7a:e5:57:4c:a1:fb:d1:87:b9:48:e0:55:37:52:
                    f9:de:99:2e:95:85:36:ce:d3:1d:67:2f:14:cb:7f:
                    05:82:75:21:b6:aa:a5:14:ac:da:4a:f4:fe:fa:5c:
                    33:49:3d:6f:de:fd:9d:75:ba:e2:c4:02:38:b5:69:
                    f5:ff:a8:67:4b:3a:e0:34:f6:3b:07:03:a5:7e:59:
                    6f:3a:d2:28:a4:2f:25:ac:d8:a9:1f:59:52:5d:24:
                    36:58:51:b5:f0:12:a8:d3:78:56:57:b1:e0:a9:df:
                    14:05:65:7c:b5:a5:00:f0:88:39:14:44:18:85:2d:
                    0c:28:69:7b:b9:b4:1c:47:6f:43:66:4c:22:ad:f7:
                    f6:19:75:e1:14:2c:0d:33:3f:c1:3f:fc:73:56:b2:
                    68:05:b5:92:03:9b:65:6b:81:80:92:35:03:9b:66:
                    68:58:c5:66:11:b6:8c:7f:05:09:9a:45:a6:0e:5e:
                    5f:bf
                Exponent: 65537 (0x10001)
        X509v3 extensions:
            X509v3 Basic Constraints: critical
                CA:FALSE
            X509v3 Extended Key Usage: 
                Code Signing, 1.3.6.1.4.1.311.10.3.6
            Netscape Comment: 
                OpenSSL Generated Certificate
            X509v3 Subject Key Identifier: 
                4C:F0:46:89:2D:6F:D3:C9:A5:B0:3F:98:D8:45:F9:08:51:DC:6A:8C
            X509v3 Authority Key Identifier: 
                AD:91:99:0B:C2:2A:B1:F5:17:04:8C:23:B6:65:5A:26:8E:34:5A:63
    Signature Algorithm: sha256WithRSAEncryption
    Signature Value:
        93:9d:49:7d:9f:3e:3e:27:79:97:d9:c2:fc:0b:f7:30:b7:f4:
        78:b2:c9:e4:5e:42:d3:27:26:70:cf:88:96:d1:f2:ea:a0:75:
        7e:3c:f6:b7:d2:e7:95:30:e3:a6:67:a7:ee:b9:53:8f:fd:b2:
        cb:db:e1:98:32:be:98:79:09:46:c6:63:6a:57:87:4d:b2:26:
        46:f6:34:5e:18:75:ca:82:80:8e:33:c2:1d:c7:76:d7:14:57:
        ef:2e:0e:9e:58:5c:81:8e:ed:53:2c:07:46:0a:8a:fc:2f:f5:
        b2:c8:58:f5:fa:fa:bb:f9:7d:47:13:39:f0:f2:1c:15:9c:75:
        90:40:bd:08:04:b3:6a:de:c2:cd:34:21:7e:ba:31:48:bc:a1:
        23:bc:ee:93:b2:62:96:27:30:86:c2:d4:f7:b4:e6:3c:71:47:
        37:84:ff:3d:0c:1e:ec:f3:0e:da:6b:dc:64:7a:b8:c0:7e:45:
        13:09:bf:02:b3:b7:5b:6d:09:2d:6a:4e:0b:93:94:29:4c:a6:
        c3:c7:05:fa:69:08:04:53:3c:4c:64:c0:7e:89:00:91:1b:a6:
        c2:d7:ea:c4:db:86:38:fe:66:03:85:7b:fc:39:24:99:4c:2a:
        3e:10:8b:91:c3:6e:20:9d:0c:ee:51:70:b5:98:58:f3:5c:ac:
        16:98:7b:ce
-----BEGIN CERTIFICATE-----
MIIELTCCAxWgAwIBAgIBBzANBgkqhkiG9w0BAQsFADCBhDELMAkGA1UEBhMCR0Ix
FDASBgNVBAgMC0lzbGUgb2YgTWFuMRAwDgYDVQQHDAdEb3VnbGFzMRcwFQYDVQQK
DA5DYW5vbmljYWwgTHRkLjE0MDIGA1UEAwwrQ2Fub25pY2FsIEx0ZC4gTWFzdGVy
IENlcnRpZmljYXRlIEF1dGhvcml0eTAgFw0yMTA5MjMxOTI5NDJaGA8yMDUxMDky
MjE5Mjk0MlowgYkxCzAJBgNVBAYTAkdCMRQwEgYDVQQIDAtJc2xlIG9mIE1hbjEX
MBUGA1UECgwOQ2Fub25pY2FsIEx0ZC4xFDASBgNVBAsMC1NlY3VyZSBCb290MTUw
MwYDVQQDDCxDYW5vbmljYWwgTHRkLiBTZWN1cmUgQm9vdCBTaWduaW5nICgyMDIx
IHYyKTCCASIwDQYJKoZIhvcNAQEBBQADggEPADCCAQoCggEBALoGi+5Yt4tJe1N6
0d8C4/LYsIwDXPQtC9gYOyP6aLDo6Z3coute0wapKNSfFLYeHB3vaQ5/RPLMSvGx
0HEwalAesNP4pBnQSvHj63rlV0yh+9GHuUjgVTdS+d6ZLpWFNs7THWcvFMt/BYJ1
IbaqpRSs2kr0/vpcM0k9b979nXW64sQCOLVp9f+oZ0s64DT2OwcDpX5ZbzrSKKQv
JazYqR9ZUl0kNlhRtfASqNN4Vlex4KnfFAVlfLWlAPCIORREGIUtDChpe7m0HEdv
Q2ZMIq339hl14RQsDTM/wT/8c1ayaAW1kgObZWuBgJI1A5tmaFjFZhG2jH8FCZpF
pg5eX78CAwEAAaOBoDCBnTAMBgNVHRMBAf8EAjAAMB8GA1UdJQQYMBYGCCsGAQUF
BwMDBgorBgEEAYI3CgMGMCwGCWCGSAGG+EIBDQQfFh1PcGVuU1NMIEdlbmVyYXRl
ZCBDZXJ0aWZpY2F0ZTAdBgNVHQ4EFgQUTPBGiS1v08mlsD+Y2EX5CFHcaowwHwYD
VR0jBBgwFoAUrZGZC8IqsfUXBIwjtmVaJo40WmMwDQYJKoZIhvcNAQELBQADggEB
AJOdSX2fPj4neZfZwvwL9zC39HiyyeReQtMnJnDPiJbR8uqgdX489rfS55Uw46Zn
p+65U4/9ssvb4Zgyvph5CUbGY2pXh02yJkb2NF4YdcqCgI4zwh3HdtcUV+8uDp5Y
XIGO7VMsB0YKivwv9bLIWPX6+rv5fUcTOfDyHBWcdZBAvQgEs2rews00IX66MUi8
oSO87pOyYpYnMIbC1Pe05jxxRzeE/z0MHuzzDtpr3GR6uMB+RRMJvwKzt1ttCS1q
TguTlClMpsPHBfppCARTPExkwH6JAJEbpsLX6sTbhjj+ZgOFe/w5JJlMKj4Qi5HD
biCdDO5RcLWYWPNcrBaYe84=
-----END CERTIFICATE-----
